   1              		.cpu cortex-m4
   2              		.eabi_attribute 27, 1
   3              		.eabi_attribute 28, 1
   4              		.eabi_attribute 20, 1
   5              		.eabi_attribute 21, 1
   6              		.eabi_attribute 23, 3
   7              		.eabi_attribute 24, 1
   8              		.eabi_attribute 25, 1
   9              		.eabi_attribute 26, 1
  10              		.eabi_attribute 30, 4
  11              		.eabi_attribute 34, 1
  12              		.eabi_attribute 18, 4
  13              		.file	"ui.c"
  14              		.text
  15              	.Ltext0:
  16              		.cfi_sections	.debug_frame
  17              		.section	.text.ui_init,"ax",%progbits
  18              		.align	1
  19              		.global	ui_init
  20              		.syntax unified
  21              		.thumb
  22              		.thumb_func
  23              		.fpu fpv4-sp-d16
  25              	ui_init:
  26              	.LFB123:
  27              		.file 1 "tmk_core/protocol/arm_atsam/usb/ui.c"
   1:tmk_core/protocol/arm_atsam/usb/ui.c **** /**
   2:tmk_core/protocol/arm_atsam/usb/ui.c ****  * \file
   3:tmk_core/protocol/arm_atsam/usb/ui.c ****  *
   4:tmk_core/protocol/arm_atsam/usb/ui.c ****  * \brief User Interface
   5:tmk_core/protocol/arm_atsam/usb/ui.c ****  *
   6:tmk_core/protocol/arm_atsam/usb/ui.c ****  * Copyright (c) 2014-2015 Atmel Corporation. All rights reserved.
   7:tmk_core/protocol/arm_atsam/usb/ui.c ****  *
   8:tmk_core/protocol/arm_atsam/usb/ui.c ****  * \asf_license_start
   9:tmk_core/protocol/arm_atsam/usb/ui.c ****  *
  10:tmk_core/protocol/arm_atsam/usb/ui.c ****  * \page License
  11:tmk_core/protocol/arm_atsam/usb/ui.c ****  *
  12:tmk_core/protocol/arm_atsam/usb/ui.c ****  * Redistribution and use in source and binary forms, with or without
  13:tmk_core/protocol/arm_atsam/usb/ui.c ****  * modification, are permitted provided that the following conditions are met:
  14:tmk_core/protocol/arm_atsam/usb/ui.c ****  *
  15:tmk_core/protocol/arm_atsam/usb/ui.c ****  * 1. Redistributions of source code must retain the above copyright notice,
  16:tmk_core/protocol/arm_atsam/usb/ui.c ****  *    this list of conditions and the following disclaimer.
  17:tmk_core/protocol/arm_atsam/usb/ui.c ****  *
  18:tmk_core/protocol/arm_atsam/usb/ui.c ****  * 2. Redistributions in binary form must reproduce the above copyright notice,
  19:tmk_core/protocol/arm_atsam/usb/ui.c ****  *    this list of conditions and the following disclaimer in the documentation
  20:tmk_core/protocol/arm_atsam/usb/ui.c ****  *    and/or other materials provided with the distribution.
  21:tmk_core/protocol/arm_atsam/usb/ui.c ****  *
  22:tmk_core/protocol/arm_atsam/usb/ui.c ****  * 3. The name of Atmel may not be used to endorse or promote products derived
  23:tmk_core/protocol/arm_atsam/usb/ui.c ****  *    from this software without specific prior written permission.
  24:tmk_core/protocol/arm_atsam/usb/ui.c ****  *
  25:tmk_core/protocol/arm_atsam/usb/ui.c ****  * 4. This software may only be redistributed and used in connection with an
  26:tmk_core/protocol/arm_atsam/usb/ui.c ****  *    Atmel microcontroller product.
  27:tmk_core/protocol/arm_atsam/usb/ui.c ****  *
  28:tmk_core/protocol/arm_atsam/usb/ui.c ****  * THIS SOFTWARE IS PROVIDED BY ATMEL "AS IS" AND ANY EXPRESS OR IMPLIED
  29:tmk_core/protocol/arm_atsam/usb/ui.c ****  * WARRANTIES, INCLUDING, BUT NOT LIMITED TO, THE IMPLIED WARRANTIES OF
  30:tmk_core/protocol/arm_atsam/usb/ui.c ****  * MERCHANTABILITY, FITNESS FOR A PARTICULAR PURPOSE AND NON-INFRINGEMENT ARE
  31:tmk_core/protocol/arm_atsam/usb/ui.c ****  * EXPRESSLY AND SPECIFICALLY DISCLAIMED. IN NO EVENT SHALL ATMEL BE LIABLE FOR
  32:tmk_core/protocol/arm_atsam/usb/ui.c ****  * ANY DIRECT, INDIRECT, INCIDENTAL, SPECIAL, EXEMPLARY, OR CONSEQUENTIAL
  33:tmk_core/protocol/arm_atsam/usb/ui.c ****  * DAMAGES (INCLUDING, BUT NOT LIMITED TO, PROCUREMENT OF SUBSTITUTE GOODS
  34:tmk_core/protocol/arm_atsam/usb/ui.c ****  * OR SERVICES; LOSS OF USE, DATA, OR PROFITS; OR BUSINESS INTERRUPTION)
  35:tmk_core/protocol/arm_atsam/usb/ui.c ****  * HOWEVER CAUSED AND ON ANY THEORY OF LIABILITY, WHETHER IN CONTRACT,
  36:tmk_core/protocol/arm_atsam/usb/ui.c ****  * STRICT LIABILITY, OR TORT (INCLUDING NEGLIGENCE OR OTHERWISE) ARISING IN
  37:tmk_core/protocol/arm_atsam/usb/ui.c ****  * ANY WAY OUT OF THE USE OF THIS SOFTWARE, EVEN IF ADVISED OF THE
  38:tmk_core/protocol/arm_atsam/usb/ui.c ****  * POSSIBILITY OF SUCH DAMAGE.
  39:tmk_core/protocol/arm_atsam/usb/ui.c ****  *
  40:tmk_core/protocol/arm_atsam/usb/ui.c ****  * \asf_license_stop
  41:tmk_core/protocol/arm_atsam/usb/ui.c ****  *
  42:tmk_core/protocol/arm_atsam/usb/ui.c ****  */
  43:tmk_core/protocol/arm_atsam/usb/ui.c **** /*
  44:tmk_core/protocol/arm_atsam/usb/ui.c ****  * Support and FAQ: visit <a href="http://www.atmel.com/design-support/">Atmel Support</a>
  45:tmk_core/protocol/arm_atsam/usb/ui.c ****  */
  46:tmk_core/protocol/arm_atsam/usb/ui.c **** 
  47:tmk_core/protocol/arm_atsam/usb/ui.c **** #ifndef ARM_MATH_CM4
  48:tmk_core/protocol/arm_atsam/usb/ui.c **** #    define ARM_MATH_CM4
  49:tmk_core/protocol/arm_atsam/usb/ui.c **** #endif
  50:tmk_core/protocol/arm_atsam/usb/ui.c **** 
  51:tmk_core/protocol/arm_atsam/usb/ui.c **** #undef LITTLE_ENDIAN  // redefined in samd51j18a.h
  52:tmk_core/protocol/arm_atsam/usb/ui.c **** #include "samd51j18a.h"
  53:tmk_core/protocol/arm_atsam/usb/ui.c **** #include "ui.h"
  54:tmk_core/protocol/arm_atsam/usb/ui.c **** 
  55:tmk_core/protocol/arm_atsam/usb/ui.c **** //! Sequence process running each \c SEQUENCE_PERIOD ms
  56:tmk_core/protocol/arm_atsam/usb/ui.c **** #define SEQUENCE_PERIOD 150
  57:tmk_core/protocol/arm_atsam/usb/ui.c **** 
  58:tmk_core/protocol/arm_atsam/usb/ui.c **** #if 0
  59:tmk_core/protocol/arm_atsam/usb/ui.c **** /* Interrupt on "pin change" from push button to do wakeup on USB
  60:tmk_core/protocol/arm_atsam/usb/ui.c ****  * Note:
  61:tmk_core/protocol/arm_atsam/usb/ui.c ****  * This interrupt is enable when the USB host enable remote wakeup feature
  62:tmk_core/protocol/arm_atsam/usb/ui.c ****  * This interrupt wakeup the CPU if this one is in idle mode
  63:tmk_core/protocol/arm_atsam/usb/ui.c ****  */
  64:tmk_core/protocol/arm_atsam/usb/ui.c **** static void ui_wakeup_handler(void)
  65:tmk_core/protocol/arm_atsam/usb/ui.c **** {
  66:tmk_core/protocol/arm_atsam/usb/ui.c ****     /* It is a wakeup then send wakeup USB */
  67:tmk_core/protocol/arm_atsam/usb/ui.c ****     udc_remotewakeup();
  68:tmk_core/protocol/arm_atsam/usb/ui.c **** }
  69:tmk_core/protocol/arm_atsam/usb/ui.c **** #endif
  70:tmk_core/protocol/arm_atsam/usb/ui.c **** 
  71:tmk_core/protocol/arm_atsam/usb/ui.c **** void ui_init(void) {}
  28              		.loc 1 71 0
  29              		.cfi_startproc
  30              		@ args = 0, pretend = 0, frame = 0
  31              		@ frame_needed = 0, uses_anonymous_args = 0
  32              		@ link register save eliminated.
  33              		.loc 1 71 0
  34 0000 7047     		bx	lr
  35              		.cfi_endproc
  36              	.LFE123:
  38              		.section	.text.ui_powerdown,"ax",%progbits
  39              		.align	1
  40              		.global	ui_powerdown
  41              		.syntax unified
  42              		.thumb
  43              		.thumb_func
  44              		.fpu fpv4-sp-d16
  46              	ui_powerdown:
  47              	.LFB131:
  48              		.cfi_startproc
  49              		@ args = 0, pretend = 0, frame = 0
  50              		@ frame_needed = 0, uses_anonymous_args = 0
  51              		@ link register save eliminated.
  52 0000 7047     		bx	lr
  53              		.cfi_endproc
  54              	.LFE131:
  56              		.section	.text.ui_wakeup_enable,"ax",%progbits
  57              		.align	1
  58              		.global	ui_wakeup_enable
  59              		.syntax unified
  60              		.thumb
  61              		.thumb_func
  62              		.fpu fpv4-sp-d16
  64              	ui_wakeup_enable:
  65              	.LFB133:
  66              		.cfi_startproc
  67              		@ args = 0, pretend = 0, frame = 0
  68              		@ frame_needed = 0, uses_anonymous_args = 0
  69              		@ link register save eliminated.
  70 0000 7047     		bx	lr
  71              		.cfi_endproc
  72              	.LFE133:
  74              		.section	.text.ui_wakeup_disable,"ax",%progbits
  75              		.align	1
  76              		.global	ui_wakeup_disable
  77              		.syntax unified
  78              		.thumb
  79              		.thumb_func
  80              		.fpu fpv4-sp-d16
  82              	ui_wakeup_disable:
  83              	.LFB135:
  84              		.cfi_startproc
  85              		@ args = 0, pretend = 0, frame = 0
  86              		@ frame_needed = 0, uses_anonymous_args = 0
  87              		@ link register save eliminated.
  88 0000 7047     		bx	lr
  89              		.cfi_endproc
  90              	.LFE135:
  92              		.section	.text.ui_wakeup,"ax",%progbits
  93              		.align	1
  94              		.global	ui_wakeup
  95              		.syntax unified
  96              		.thumb
  97              		.thumb_func
  98              		.fpu fpv4-sp-d16
 100              	ui_wakeup:
 101              	.LFB137:
 102              		.cfi_startproc
 103              		@ args = 0, pretend = 0, frame = 0
 104              		@ frame_needed = 0, uses_anonymous_args = 0
 105              		@ link register save eliminated.
 106 0000 7047     		bx	lr
 107              		.cfi_endproc
 108              	.LFE137:
 110              		.section	.text.ui_process,"ax",%progbits
 111              		.align	1
 112              		.global	ui_process
 113              		.syntax unified
 114              		.thumb
 115              		.thumb_func
 116              		.fpu fpv4-sp-d16
 118              	ui_process:
 119              	.LFB128:
  72:tmk_core/protocol/arm_atsam/usb/ui.c **** 
  73:tmk_core/protocol/arm_atsam/usb/ui.c **** void ui_powerdown(void) {}
  74:tmk_core/protocol/arm_atsam/usb/ui.c **** 
  75:tmk_core/protocol/arm_atsam/usb/ui.c **** void ui_wakeup_enable(void) {}
  76:tmk_core/protocol/arm_atsam/usb/ui.c **** 
  77:tmk_core/protocol/arm_atsam/usb/ui.c **** void ui_wakeup_disable(void) {}
  78:tmk_core/protocol/arm_atsam/usb/ui.c **** 
  79:tmk_core/protocol/arm_atsam/usb/ui.c **** void ui_wakeup(void) {}
  80:tmk_core/protocol/arm_atsam/usb/ui.c **** 
  81:tmk_core/protocol/arm_atsam/usb/ui.c **** void ui_process(uint16_t framenumber) {}
 120              		.loc 1 81 0
 121              		.cfi_startproc
 122              		@ args = 0, pretend = 0, frame = 0
 123              		@ frame_needed = 0, uses_anonymous_args = 0
 124              		@ link register save eliminated.
 125              	.LVL0:
 126              		.loc 1 81 0
 127 0000 7047     		bx	lr
 128              		.cfi_endproc
 129              	.LFE128:
 131              		.section	.text.ui_kbd_led,"ax",%progbits
 132              		.align	1
 133              		.global	ui_kbd_led
 134              		.syntax unified
 135              		.thumb
 136              		.thumb_func
 137              		.fpu fpv4-sp-d16
 139              	ui_kbd_led:
 140              	.LFB129:
  82:tmk_core/protocol/arm_atsam/usb/ui.c **** 
  83:tmk_core/protocol/arm_atsam/usb/ui.c **** void ui_kbd_led(uint8_t value) {}
 141              		.loc 1 83 0
 142              		.cfi_startproc
 143              		@ args = 0, pretend = 0, frame = 0
 144              		@ frame_needed = 0, uses_anonymous_args = 0
 145              		@ link register save eliminated.
 146              	.LVL1:
 147              		.loc 1 83 0
 148 0000 7047     		bx	lr
 149              		.cfi_endproc
 150              	.LFE129:
 152              		.text
 153              	.Letext0:
 154              		.file 2 "/usr/local/Cellar/gcc-arm-none-eabi/20180627/arm-none-eabi/include/machine/_default_types
 155              		.file 3 "/usr/local/Cellar/gcc-arm-none-eabi/20180627/arm-none-eabi/include/sys/_stdint.h"
 156              		.file 4 "lib/arm_atsam/packs/arm/cmsis/5.0.1/CMSIS/Include/core_cm4.h"
 157              		.file 5 "lib/arm_atsam/packs/atmel/SAMD51_DFP/1.0.70/include/system_samd51.h"