   1               		.file	"EndpointStream_AVR8.c"
   2               	__SP_H__ = 0x3e
   3               	__SP_L__ = 0x3d
   4               	__SREG__ = 0x3f
   5               	__tmp_reg__ = 0
   6               	__zero_reg__ = 1
   7               		.text
   8               	.Ltext0:
   9               		.cfi_sections	.debug_frame
  10               		.section	.text.Endpoint_Discard_Stream,"ax",@progbits
  11               	.global	Endpoint_Discard_Stream
  13               	Endpoint_Discard_Stream:
  14               	.LFB85:
  15               		.file 1 "lib/lufa/LUFA/Drivers/USB/Core/AVR8/EndpointStream_AVR8.c"
   1:lib/lufa/LUFA/Drivers/USB/Core/AVR8/EndpointStream_AVR8.c **** /*
   2:lib/lufa/LUFA/Drivers/USB/Core/AVR8/EndpointStream_AVR8.c ****              LUFA Library
   3:lib/lufa/LUFA/Drivers/USB/Core/AVR8/EndpointStream_AVR8.c ****      Copyright (C) Dean Camera, 2019.
   4:lib/lufa/LUFA/Drivers/USB/Core/AVR8/EndpointStream_AVR8.c **** 
   5:lib/lufa/LUFA/Drivers/USB/Core/AVR8/EndpointStream_AVR8.c ****   dean [at] fourwalledcubicle [dot] com
   6:lib/lufa/LUFA/Drivers/USB/Core/AVR8/EndpointStream_AVR8.c ****            www.lufa-lib.org
   7:lib/lufa/LUFA/Drivers/USB/Core/AVR8/EndpointStream_AVR8.c **** */
   8:lib/lufa/LUFA/Drivers/USB/Core/AVR8/EndpointStream_AVR8.c **** 
   9:lib/lufa/LUFA/Drivers/USB/Core/AVR8/EndpointStream_AVR8.c **** /*
  10:lib/lufa/LUFA/Drivers/USB/Core/AVR8/EndpointStream_AVR8.c ****   Copyright 2019  Dean Camera (dean [at] fourwalledcubicle [dot] com)
  11:lib/lufa/LUFA/Drivers/USB/Core/AVR8/EndpointStream_AVR8.c **** 
  12:lib/lufa/LUFA/Drivers/USB/Core/AVR8/EndpointStream_AVR8.c ****   Permission to use, copy, modify, distribute, and sell this
  13:lib/lufa/LUFA/Drivers/USB/Core/AVR8/EndpointStream_AVR8.c ****   software and its documentation for any purpose is hereby granted
  14:lib/lufa/LUFA/Drivers/USB/Core/AVR8/EndpointStream_AVR8.c ****   without fee, provided that the above copyright notice appear in
  15:lib/lufa/LUFA/Drivers/USB/Core/AVR8/EndpointStream_AVR8.c ****   all copies and that both that the copyright notice and this
  16:lib/lufa/LUFA/Drivers/USB/Core/AVR8/EndpointStream_AVR8.c ****   permission notice and warranty disclaimer appear in supporting
  17:lib/lufa/LUFA/Drivers/USB/Core/AVR8/EndpointStream_AVR8.c ****   documentation, and that the name of the author not be used in
  18:lib/lufa/LUFA/Drivers/USB/Core/AVR8/EndpointStream_AVR8.c ****   advertising or publicity pertaining to distribution of the
  19:lib/lufa/LUFA/Drivers/USB/Core/AVR8/EndpointStream_AVR8.c ****   software without specific, written prior permission.
  20:lib/lufa/LUFA/Drivers/USB/Core/AVR8/EndpointStream_AVR8.c **** 
  21:lib/lufa/LUFA/Drivers/USB/Core/AVR8/EndpointStream_AVR8.c ****   The author disclaims all warranties with regard to this
  22:lib/lufa/LUFA/Drivers/USB/Core/AVR8/EndpointStream_AVR8.c ****   software, including all implied warranties of merchantability
  23:lib/lufa/LUFA/Drivers/USB/Core/AVR8/EndpointStream_AVR8.c ****   and fitness.  In no event shall the author be liable for any
  24:lib/lufa/LUFA/Drivers/USB/Core/AVR8/EndpointStream_AVR8.c ****   special, indirect or consequential damages or any damages
  25:lib/lufa/LUFA/Drivers/USB/Core/AVR8/EndpointStream_AVR8.c ****   whatsoever resulting from loss of use, data or profits, whether
  26:lib/lufa/LUFA/Drivers/USB/Core/AVR8/EndpointStream_AVR8.c ****   in an action of contract, negligence or other tortious action,
  27:lib/lufa/LUFA/Drivers/USB/Core/AVR8/EndpointStream_AVR8.c ****   arising out of or in connection with the use or performance of
  28:lib/lufa/LUFA/Drivers/USB/Core/AVR8/EndpointStream_AVR8.c ****   this software.
  29:lib/lufa/LUFA/Drivers/USB/Core/AVR8/EndpointStream_AVR8.c **** */
  30:lib/lufa/LUFA/Drivers/USB/Core/AVR8/EndpointStream_AVR8.c **** 
  31:lib/lufa/LUFA/Drivers/USB/Core/AVR8/EndpointStream_AVR8.c **** #include "../../../../Common/Common.h"
  32:lib/lufa/LUFA/Drivers/USB/Core/AVR8/EndpointStream_AVR8.c **** #if (ARCH == ARCH_AVR8)
  33:lib/lufa/LUFA/Drivers/USB/Core/AVR8/EndpointStream_AVR8.c **** 
  34:lib/lufa/LUFA/Drivers/USB/Core/AVR8/EndpointStream_AVR8.c **** #define  __INCLUDE_FROM_USB_DRIVER
  35:lib/lufa/LUFA/Drivers/USB/Core/AVR8/EndpointStream_AVR8.c **** #include "../USBMode.h"
  36:lib/lufa/LUFA/Drivers/USB/Core/AVR8/EndpointStream_AVR8.c **** 
  37:lib/lufa/LUFA/Drivers/USB/Core/AVR8/EndpointStream_AVR8.c **** #if defined(USB_CAN_BE_DEVICE)
  38:lib/lufa/LUFA/Drivers/USB/Core/AVR8/EndpointStream_AVR8.c **** 
  39:lib/lufa/LUFA/Drivers/USB/Core/AVR8/EndpointStream_AVR8.c **** #include "EndpointStream_AVR8.h"
  40:lib/lufa/LUFA/Drivers/USB/Core/AVR8/EndpointStream_AVR8.c **** 
  41:lib/lufa/LUFA/Drivers/USB/Core/AVR8/EndpointStream_AVR8.c **** #if !defined(CONTROL_ONLY_DEVICE)
  42:lib/lufa/LUFA/Drivers/USB/Core/AVR8/EndpointStream_AVR8.c **** uint8_t Endpoint_Discard_Stream(uint16_t Length,
  43:lib/lufa/LUFA/Drivers/USB/Core/AVR8/EndpointStream_AVR8.c ****                                 uint16_t* const BytesProcessed)
  44:lib/lufa/LUFA/Drivers/USB/Core/AVR8/EndpointStream_AVR8.c **** {
  16               		.loc 1 44 0
  17               		.cfi_startproc
  18               	.LVL0:
  19 0000 CF92      		push r12
  20               	.LCFI0:
  21               		.cfi_def_cfa_offset 3
  22               		.cfi_offset 12, -2
  23 0002 DF92      		push r13
  24               	.LCFI1:
  25               		.cfi_def_cfa_offset 4
  26               		.cfi_offset 13, -3
  27 0004 EF92      		push r14
  28               	.LCFI2:
  29               		.cfi_def_cfa_offset 5
  30               		.cfi_offset 14, -4
  31 0006 FF92      		push r15
  32               	.LCFI3:
  33               		.cfi_def_cfa_offset 6
  34               		.cfi_offset 15, -5
  35 0008 1F93      		push r17
  36               	.LCFI4:
  37               		.cfi_def_cfa_offset 7
  38               		.cfi_offset 17, -6
  39 000a CF93      		push r28
  40               	.LCFI5:
  41               		.cfi_def_cfa_offset 8
  42               		.cfi_offset 28, -7
  43 000c DF93      		push r29
  44               	.LCFI6:
  45               		.cfi_def_cfa_offset 9
  46               		.cfi_offset 29, -8
  47               	/* prologue: function */
  48               	/* frame size = 0 */
  49               	/* stack size = 7 */
  50               	.L__stack_usage = 7
  51 000e 6C01      		movw r12,r24
  52 0010 7B01      		movw r14,r22
  45:lib/lufa/LUFA/Drivers/USB/Core/AVR8/EndpointStream_AVR8.c **** 	uint8_t  ErrorCode;
  46:lib/lufa/LUFA/Drivers/USB/Core/AVR8/EndpointStream_AVR8.c **** 	uint16_t BytesInTransfer = BytesProcessed ? *BytesProcessed : 0;
  53               		.loc 1 46 0
  54 0012 D0E0      		ldi r29,0
  55 0014 C0E0      		ldi r28,0
  56 0016 6115      		cp r22,__zero_reg__
  57 0018 7105      		cpc r23,__zero_reg__
  58 001a 01F0      		breq .L2
  59               		.loc 1 46 0 is_stmt 0 discriminator 1
  60 001c FB01      		movw r30,r22
  61 001e C081      		ld r28,Z
  62 0020 D181      		ldd r29,Z+1
  63               	.LVL1:
  64               	.L2:
  47:lib/lufa/LUFA/Drivers/USB/Core/AVR8/EndpointStream_AVR8.c **** 
  48:lib/lufa/LUFA/Drivers/USB/Core/AVR8/EndpointStream_AVR8.c **** 	if ((ErrorCode = Endpoint_WaitUntilReady()))
  65               		.loc 1 48 0 is_stmt 1 discriminator 4
  66 0022 0E94 0000 		call Endpoint_WaitUntilReady
  67               	.LVL2:
  68 0026 182F      		mov r17,r24
  69               	.LVL3:
  70 0028 8823      		tst r24
  71 002a 01F0      		breq .L4
  72               	.LVL4:
  73               	.L1:
  49:lib/lufa/LUFA/Drivers/USB/Core/AVR8/EndpointStream_AVR8.c **** 	  return ErrorCode;
  50:lib/lufa/LUFA/Drivers/USB/Core/AVR8/EndpointStream_AVR8.c **** 
  51:lib/lufa/LUFA/Drivers/USB/Core/AVR8/EndpointStream_AVR8.c **** 	while (BytesInTransfer < Length)
  52:lib/lufa/LUFA/Drivers/USB/Core/AVR8/EndpointStream_AVR8.c **** 	{
  53:lib/lufa/LUFA/Drivers/USB/Core/AVR8/EndpointStream_AVR8.c **** 		if (!(Endpoint_IsReadWriteAllowed()))
  54:lib/lufa/LUFA/Drivers/USB/Core/AVR8/EndpointStream_AVR8.c **** 		{
  55:lib/lufa/LUFA/Drivers/USB/Core/AVR8/EndpointStream_AVR8.c **** 			Endpoint_ClearOUT();
  56:lib/lufa/LUFA/Drivers/USB/Core/AVR8/EndpointStream_AVR8.c **** 
  57:lib/lufa/LUFA/Drivers/USB/Core/AVR8/EndpointStream_AVR8.c **** 			if (BytesProcessed != NULL)
  58:lib/lufa/LUFA/Drivers/USB/Core/AVR8/EndpointStream_AVR8.c **** 			{
  59:lib/lufa/LUFA/Drivers/USB/Core/AVR8/EndpointStream_AVR8.c **** 				*BytesProcessed = BytesInTransfer;
  60:lib/lufa/LUFA/Drivers/USB/Core/AVR8/EndpointStream_AVR8.c **** 				return ENDPOINT_RWSTREAM_IncompleteTransfer;
  61:lib/lufa/LUFA/Drivers/USB/Core/AVR8/EndpointStream_AVR8.c **** 			}
  62:lib/lufa/LUFA/Drivers/USB/Core/AVR8/EndpointStream_AVR8.c **** 
  63:lib/lufa/LUFA/Drivers/USB/Core/AVR8/EndpointStream_AVR8.c **** 			if ((ErrorCode = Endpoint_WaitUntilReady()))
  64:lib/lufa/LUFA/Drivers/USB/Core/AVR8/EndpointStream_AVR8.c **** 			  return ErrorCode;
  65:lib/lufa/LUFA/Drivers/USB/Core/AVR8/EndpointStream_AVR8.c **** 		}
  66:lib/lufa/LUFA/Drivers/USB/Core/AVR8/EndpointStream_AVR8.c **** 		else
  67:lib/lufa/LUFA/Drivers/USB/Core/AVR8/EndpointStream_AVR8.c **** 		{
  68:lib/lufa/LUFA/Drivers/USB/Core/AVR8/EndpointStream_AVR8.c **** 			Endpoint_Discard_8();
  69:lib/lufa/LUFA/Drivers/USB/Core/AVR8/EndpointStream_AVR8.c **** 			BytesInTransfer++;
  70:lib/lufa/LUFA/Drivers/USB/Core/AVR8/EndpointStream_AVR8.c **** 		}
  71:lib/lufa/LUFA/Drivers/USB/Core/AVR8/EndpointStream_AVR8.c **** 	}
  72:lib/lufa/LUFA/Drivers/USB/Core/AVR8/EndpointStream_AVR8.c **** 
  73:lib/lufa/LUFA/Drivers/USB/Core/AVR8/EndpointStream_AVR8.c **** 	return ENDPOINT_RWSTREAM_NoError;
  74:lib/lufa/LUFA/Drivers/USB/Core/AVR8/EndpointStream_AVR8.c **** }
  74               		.loc 1 74 0
  75 002c 812F      		mov r24,r17
  76               	/* epilogue start */
  77 002e DF91      		pop r29
  78 0030 CF91      		pop r28
  79               	.LVL5:
  80 0032 1F91      		pop r17
  81 0034 FF90      		pop r15
  82 0036 EF90      		pop r14
  83               	.LVL6:
  84 0038 DF90      		pop r13
  85 003a CF90      		pop r12
  86               	.LVL7:
  87 003c 0895      		ret
  88               	.LVL8:
  89               	.L6:
  63:lib/lufa/LUFA/Drivers/USB/Core/AVR8/EndpointStream_AVR8.c **** 			  return ErrorCode;
  90               		.loc 1 63 0
  91 003e 0E94 0000 		call Endpoint_WaitUntilReady
  92               	.LVL9:
  93 0042 8823      		tst r24
  94 0044 01F0      		breq .L4
  95 0046 182F      		mov r17,r24
  96 0048 00C0      		rjmp .L1
  97               	.LVL10:
  98               	.L5:
  99               	.LBB268:
 100               	.LBB269:
 101               		.file 2 "lib/lufa/LUFA/Drivers/USB/Core/AVR8/../AVR8/../AVR8/Endpoint_AVR8.h"
   1:lib/lufa/LUFA/Drivers/USB/Core/AVR8/../AVR8/../AVR8/Endpoint_AVR8.h **** /*
   2:lib/lufa/LUFA/Drivers/USB/Core/AVR8/../AVR8/../AVR8/Endpoint_AVR8.h ****              LUFA Library
   3:lib/lufa/LUFA/Drivers/USB/Core/AVR8/../AVR8/../AVR8/Endpoint_AVR8.h ****      Copyright (C) Dean Camera, 2019.
   4:lib/lufa/LUFA/Drivers/USB/Core/AVR8/../AVR8/../AVR8/Endpoint_AVR8.h **** 
   5:lib/lufa/LUFA/Drivers/USB/Core/AVR8/../AVR8/../AVR8/Endpoint_AVR8.h ****   dean [at] fourwalledcubicle [dot] com
   6:lib/lufa/LUFA/Drivers/USB/Core/AVR8/../AVR8/../AVR8/Endpoint_AVR8.h ****            www.lufa-lib.org
   7:lib/lufa/LUFA/Drivers/USB/Core/AVR8/../AVR8/../AVR8/Endpoint_AVR8.h **** */
   8:lib/lufa/LUFA/Drivers/USB/Core/AVR8/../AVR8/../AVR8/Endpoint_AVR8.h **** 
   9:lib/lufa/LUFA/Drivers/USB/Core/AVR8/../AVR8/../AVR8/Endpoint_AVR8.h **** /*
  10:lib/lufa/LUFA/Drivers/USB/Core/AVR8/../AVR8/../AVR8/Endpoint_AVR8.h ****   Copyright 2019  Dean Camera (dean [at] fourwalledcubicle [dot] com)
  11:lib/lufa/LUFA/Drivers/USB/Core/AVR8/../AVR8/../AVR8/Endpoint_AVR8.h **** 
  12:lib/lufa/LUFA/Drivers/USB/Core/AVR8/../AVR8/../AVR8/Endpoint_AVR8.h ****   Permission to use, copy, modify, distribute, and sell this
  13:lib/lufa/LUFA/Drivers/USB/Core/AVR8/../AVR8/../AVR8/Endpoint_AVR8.h ****   software and its documentation for any purpose is hereby granted
  14:lib/lufa/LUFA/Drivers/USB/Core/AVR8/../AVR8/../AVR8/Endpoint_AVR8.h ****   without fee, provided that the above copyright notice appear in
  15:lib/lufa/LUFA/Drivers/USB/Core/AVR8/../AVR8/../AVR8/Endpoint_AVR8.h ****   all copies and that both that the copyright notice and this
  16:lib/lufa/LUFA/Drivers/USB/Core/AVR8/../AVR8/../AVR8/Endpoint_AVR8.h ****   permission notice and warranty disclaimer appear in supporting
  17:lib/lufa/LUFA/Drivers/USB/Core/AVR8/../AVR8/../AVR8/Endpoint_AVR8.h ****   documentation, and that the name of the author not be used in
  18:lib/lufa/LUFA/Drivers/USB/Core/AVR8/../AVR8/../AVR8/Endpoint_AVR8.h ****   advertising or publicity pertaining to distribution of the
  19:lib/lufa/LUFA/Drivers/USB/Core/AVR8/../AVR8/../AVR8/Endpoint_AVR8.h ****   software without specific, written prior permission.
  20:lib/lufa/LUFA/Drivers/USB/Core/AVR8/../AVR8/../AVR8/Endpoint_AVR8.h **** 
  21:lib/lufa/LUFA/Drivers/USB/Core/AVR8/../AVR8/../AVR8/Endpoint_AVR8.h ****   The author disclaims all warranties with regard to this
  22:lib/lufa/LUFA/Drivers/USB/Core/AVR8/../AVR8/../AVR8/Endpoint_AVR8.h ****   software, including all implied warranties of merchantability
  23:lib/lufa/LUFA/Drivers/USB/Core/AVR8/../AVR8/../AVR8/Endpoint_AVR8.h ****   and fitness.  In no event shall the author be liable for any
  24:lib/lufa/LUFA/Drivers/USB/Core/AVR8/../AVR8/../AVR8/Endpoint_AVR8.h ****   special, indirect or consequential damages or any damages
  25:lib/lufa/LUFA/Drivers/USB/Core/AVR8/../AVR8/../AVR8/Endpoint_AVR8.h ****   whatsoever resulting from loss of use, data or profits, whether
  26:lib/lufa/LUFA/Drivers/USB/Core/AVR8/../AVR8/../AVR8/Endpoint_AVR8.h ****   in an action of contract, negligence or other tortious action,
  27:lib/lufa/LUFA/Drivers/USB/Core/AVR8/../AVR8/../AVR8/Endpoint_AVR8.h ****   arising out of or in connection with the use or performance of
  28:lib/lufa/LUFA/Drivers/USB/Core/AVR8/../AVR8/../AVR8/Endpoint_AVR8.h ****   this software.
  29:lib/lufa/LUFA/Drivers/USB/Core/AVR8/../AVR8/../AVR8/Endpoint_AVR8.h **** */
  30:lib/lufa/LUFA/Drivers/USB/Core/AVR8/../AVR8/../AVR8/Endpoint_AVR8.h **** 
  31:lib/lufa/LUFA/Drivers/USB/Core/AVR8/../AVR8/../AVR8/Endpoint_AVR8.h **** /** \file
  32:lib/lufa/LUFA/Drivers/USB/Core/AVR8/../AVR8/../AVR8/Endpoint_AVR8.h ****  *  \brief USB Endpoint definitions for the AVR8 microcontrollers.
  33:lib/lufa/LUFA/Drivers/USB/Core/AVR8/../AVR8/../AVR8/Endpoint_AVR8.h ****  *  \copydetails Group_EndpointManagement_AVR8
  34:lib/lufa/LUFA/Drivers/USB/Core/AVR8/../AVR8/../AVR8/Endpoint_AVR8.h ****  *
  35:lib/lufa/LUFA/Drivers/USB/Core/AVR8/../AVR8/../AVR8/Endpoint_AVR8.h ****  *  \note This file should not be included directly. It is automatically included as needed by the 
  36:lib/lufa/LUFA/Drivers/USB/Core/AVR8/../AVR8/../AVR8/Endpoint_AVR8.h ****  *        dispatch header located in LUFA/Drivers/USB/USB.h.
  37:lib/lufa/LUFA/Drivers/USB/Core/AVR8/../AVR8/../AVR8/Endpoint_AVR8.h ****  */
  38:lib/lufa/LUFA/Drivers/USB/Core/AVR8/../AVR8/../AVR8/Endpoint_AVR8.h **** 
  39:lib/lufa/LUFA/Drivers/USB/Core/AVR8/../AVR8/../AVR8/Endpoint_AVR8.h **** /** \ingroup Group_EndpointRW
  40:lib/lufa/LUFA/Drivers/USB/Core/AVR8/../AVR8/../AVR8/Endpoint_AVR8.h ****  *  \defgroup Group_EndpointRW_AVR8 Endpoint Data Reading and Writing (AVR8)
  41:lib/lufa/LUFA/Drivers/USB/Core/AVR8/../AVR8/../AVR8/Endpoint_AVR8.h ****  *  \brief Endpoint data read/write definitions for the Atmel AVR8 architecture.
  42:lib/lufa/LUFA/Drivers/USB/Core/AVR8/../AVR8/../AVR8/Endpoint_AVR8.h ****  *
  43:lib/lufa/LUFA/Drivers/USB/Core/AVR8/../AVR8/../AVR8/Endpoint_AVR8.h ****  *  Functions, macros, variables, enums and types related to data reading and writing from and to e
  44:lib/lufa/LUFA/Drivers/USB/Core/AVR8/../AVR8/../AVR8/Endpoint_AVR8.h ****  */
  45:lib/lufa/LUFA/Drivers/USB/Core/AVR8/../AVR8/../AVR8/Endpoint_AVR8.h **** 
  46:lib/lufa/LUFA/Drivers/USB/Core/AVR8/../AVR8/../AVR8/Endpoint_AVR8.h **** /** \ingroup Group_EndpointPrimitiveRW
  47:lib/lufa/LUFA/Drivers/USB/Core/AVR8/../AVR8/../AVR8/Endpoint_AVR8.h ****  *  \defgroup Group_EndpointPrimitiveRW_AVR8 Read/Write of Primitive Data Types (AVR8)
  48:lib/lufa/LUFA/Drivers/USB/Core/AVR8/../AVR8/../AVR8/Endpoint_AVR8.h ****  *  \brief Endpoint primitive read/write definitions for the Atmel AVR8 architecture.
  49:lib/lufa/LUFA/Drivers/USB/Core/AVR8/../AVR8/../AVR8/Endpoint_AVR8.h ****  *
  50:lib/lufa/LUFA/Drivers/USB/Core/AVR8/../AVR8/../AVR8/Endpoint_AVR8.h ****  *  Functions, macros, variables, enums and types related to data reading and writing of primitive 
  51:lib/lufa/LUFA/Drivers/USB/Core/AVR8/../AVR8/../AVR8/Endpoint_AVR8.h ****  *  from and to endpoints.
  52:lib/lufa/LUFA/Drivers/USB/Core/AVR8/../AVR8/../AVR8/Endpoint_AVR8.h ****  */
  53:lib/lufa/LUFA/Drivers/USB/Core/AVR8/../AVR8/../AVR8/Endpoint_AVR8.h **** 
  54:lib/lufa/LUFA/Drivers/USB/Core/AVR8/../AVR8/../AVR8/Endpoint_AVR8.h **** /** \ingroup Group_EndpointPacketManagement
  55:lib/lufa/LUFA/Drivers/USB/Core/AVR8/../AVR8/../AVR8/Endpoint_AVR8.h ****  *  \defgroup Group_EndpointPacketManagement_AVR8 Endpoint Packet Management (AVR8)
  56:lib/lufa/LUFA/Drivers/USB/Core/AVR8/../AVR8/../AVR8/Endpoint_AVR8.h ****  *  \brief Endpoint packet management definitions for the Atmel AVR8 architecture.
  57:lib/lufa/LUFA/Drivers/USB/Core/AVR8/../AVR8/../AVR8/Endpoint_AVR8.h ****  *
  58:lib/lufa/LUFA/Drivers/USB/Core/AVR8/../AVR8/../AVR8/Endpoint_AVR8.h ****  *  Functions, macros, variables, enums and types related to packet management of endpoints.
  59:lib/lufa/LUFA/Drivers/USB/Core/AVR8/../AVR8/../AVR8/Endpoint_AVR8.h ****  */
  60:lib/lufa/LUFA/Drivers/USB/Core/AVR8/../AVR8/../AVR8/Endpoint_AVR8.h **** 
  61:lib/lufa/LUFA/Drivers/USB/Core/AVR8/../AVR8/../AVR8/Endpoint_AVR8.h **** /** \ingroup Group_EndpointManagement
  62:lib/lufa/LUFA/Drivers/USB/Core/AVR8/../AVR8/../AVR8/Endpoint_AVR8.h ****  *  \defgroup Group_EndpointManagement_AVR8 Endpoint Management (AVR8)
  63:lib/lufa/LUFA/Drivers/USB/Core/AVR8/../AVR8/../AVR8/Endpoint_AVR8.h ****  *  \brief Endpoint management definitions for the Atmel AVR8 architecture.
  64:lib/lufa/LUFA/Drivers/USB/Core/AVR8/../AVR8/../AVR8/Endpoint_AVR8.h ****  *
  65:lib/lufa/LUFA/Drivers/USB/Core/AVR8/../AVR8/../AVR8/Endpoint_AVR8.h ****  *  Functions, macros and enums related to endpoint management when in USB Device mode. This
  66:lib/lufa/LUFA/Drivers/USB/Core/AVR8/../AVR8/../AVR8/Endpoint_AVR8.h ****  *  module contains the endpoint management macros, as well as endpoint interrupt and data
  67:lib/lufa/LUFA/Drivers/USB/Core/AVR8/../AVR8/../AVR8/Endpoint_AVR8.h ****  *  send/receive functions for various data types.
  68:lib/lufa/LUFA/Drivers/USB/Core/AVR8/../AVR8/../AVR8/Endpoint_AVR8.h ****  *
  69:lib/lufa/LUFA/Drivers/USB/Core/AVR8/../AVR8/../AVR8/Endpoint_AVR8.h ****  *  @{
  70:lib/lufa/LUFA/Drivers/USB/Core/AVR8/../AVR8/../AVR8/Endpoint_AVR8.h ****  */
  71:lib/lufa/LUFA/Drivers/USB/Core/AVR8/../AVR8/../AVR8/Endpoint_AVR8.h **** 
  72:lib/lufa/LUFA/Drivers/USB/Core/AVR8/../AVR8/../AVR8/Endpoint_AVR8.h **** #ifndef __ENDPOINT_AVR8_H__
  73:lib/lufa/LUFA/Drivers/USB/Core/AVR8/../AVR8/../AVR8/Endpoint_AVR8.h **** #define __ENDPOINT_AVR8_H__
  74:lib/lufa/LUFA/Drivers/USB/Core/AVR8/../AVR8/../AVR8/Endpoint_AVR8.h **** 
  75:lib/lufa/LUFA/Drivers/USB/Core/AVR8/../AVR8/../AVR8/Endpoint_AVR8.h **** 	/* Includes: */
  76:lib/lufa/LUFA/Drivers/USB/Core/AVR8/../AVR8/../AVR8/Endpoint_AVR8.h **** 		#include "../../../../Common/Common.h"
  77:lib/lufa/LUFA/Drivers/USB/Core/AVR8/../AVR8/../AVR8/Endpoint_AVR8.h **** 		#include "../USBTask.h"
  78:lib/lufa/LUFA/Drivers/USB/Core/AVR8/../AVR8/../AVR8/Endpoint_AVR8.h **** 		#include "../USBInterrupt.h"
  79:lib/lufa/LUFA/Drivers/USB/Core/AVR8/../AVR8/../AVR8/Endpoint_AVR8.h **** 
  80:lib/lufa/LUFA/Drivers/USB/Core/AVR8/../AVR8/../AVR8/Endpoint_AVR8.h **** 	/* Enable C linkage for C++ Compilers: */
  81:lib/lufa/LUFA/Drivers/USB/Core/AVR8/../AVR8/../AVR8/Endpoint_AVR8.h **** 		#if defined(__cplusplus)
  82:lib/lufa/LUFA/Drivers/USB/Core/AVR8/../AVR8/../AVR8/Endpoint_AVR8.h **** 			extern "C" {
  83:lib/lufa/LUFA/Drivers/USB/Core/AVR8/../AVR8/../AVR8/Endpoint_AVR8.h **** 		#endif
  84:lib/lufa/LUFA/Drivers/USB/Core/AVR8/../AVR8/../AVR8/Endpoint_AVR8.h **** 
  85:lib/lufa/LUFA/Drivers/USB/Core/AVR8/../AVR8/../AVR8/Endpoint_AVR8.h **** 	/* Preprocessor Checks: */
  86:lib/lufa/LUFA/Drivers/USB/Core/AVR8/../AVR8/../AVR8/Endpoint_AVR8.h **** 		#if !defined(__INCLUDE_FROM_USB_DRIVER)
  87:lib/lufa/LUFA/Drivers/USB/Core/AVR8/../AVR8/../AVR8/Endpoint_AVR8.h **** 			#error Do not include this file directly. Include LUFA/Drivers/USB/USB.h instead.
  88:lib/lufa/LUFA/Drivers/USB/Core/AVR8/../AVR8/../AVR8/Endpoint_AVR8.h **** 		#endif
  89:lib/lufa/LUFA/Drivers/USB/Core/AVR8/../AVR8/../AVR8/Endpoint_AVR8.h **** 
  90:lib/lufa/LUFA/Drivers/USB/Core/AVR8/../AVR8/../AVR8/Endpoint_AVR8.h **** 	/* Private Interface - For use in library only: */
  91:lib/lufa/LUFA/Drivers/USB/Core/AVR8/../AVR8/../AVR8/Endpoint_AVR8.h **** 	#if !defined(__DOXYGEN__)
  92:lib/lufa/LUFA/Drivers/USB/Core/AVR8/../AVR8/../AVR8/Endpoint_AVR8.h **** 		/* Inline Functions: */
  93:lib/lufa/LUFA/Drivers/USB/Core/AVR8/../AVR8/../AVR8/Endpoint_AVR8.h **** 			static inline uint8_t Endpoint_BytesToEPSizeMask(const uint16_t Bytes) ATTR_WARN_UNUSED_RESULT A
  94:lib/lufa/LUFA/Drivers/USB/Core/AVR8/../AVR8/../AVR8/Endpoint_AVR8.h **** 			                                                                       ATTR_ALWAYS_INLINE;
  95:lib/lufa/LUFA/Drivers/USB/Core/AVR8/../AVR8/../AVR8/Endpoint_AVR8.h **** 			static inline uint8_t Endpoint_BytesToEPSizeMask(const uint16_t Bytes)
  96:lib/lufa/LUFA/Drivers/USB/Core/AVR8/../AVR8/../AVR8/Endpoint_AVR8.h **** 			{
  97:lib/lufa/LUFA/Drivers/USB/Core/AVR8/../AVR8/../AVR8/Endpoint_AVR8.h **** 				uint8_t  MaskVal    = 0;
  98:lib/lufa/LUFA/Drivers/USB/Core/AVR8/../AVR8/../AVR8/Endpoint_AVR8.h **** 				uint16_t CheckBytes = 8;
  99:lib/lufa/LUFA/Drivers/USB/Core/AVR8/../AVR8/../AVR8/Endpoint_AVR8.h **** 
 100:lib/lufa/LUFA/Drivers/USB/Core/AVR8/../AVR8/../AVR8/Endpoint_AVR8.h **** 				while (CheckBytes < Bytes)
 101:lib/lufa/LUFA/Drivers/USB/Core/AVR8/../AVR8/../AVR8/Endpoint_AVR8.h **** 				{
 102:lib/lufa/LUFA/Drivers/USB/Core/AVR8/../AVR8/../AVR8/Endpoint_AVR8.h **** 					MaskVal++;
 103:lib/lufa/LUFA/Drivers/USB/Core/AVR8/../AVR8/../AVR8/Endpoint_AVR8.h **** 					CheckBytes <<= 1;
 104:lib/lufa/LUFA/Drivers/USB/Core/AVR8/../AVR8/../AVR8/Endpoint_AVR8.h **** 				}
 105:lib/lufa/LUFA/Drivers/USB/Core/AVR8/../AVR8/../AVR8/Endpoint_AVR8.h **** 
 106:lib/lufa/LUFA/Drivers/USB/Core/AVR8/../AVR8/../AVR8/Endpoint_AVR8.h **** 				return (MaskVal << EPSIZE0);
 107:lib/lufa/LUFA/Drivers/USB/Core/AVR8/../AVR8/../AVR8/Endpoint_AVR8.h **** 			}
 108:lib/lufa/LUFA/Drivers/USB/Core/AVR8/../AVR8/../AVR8/Endpoint_AVR8.h **** 
 109:lib/lufa/LUFA/Drivers/USB/Core/AVR8/../AVR8/../AVR8/Endpoint_AVR8.h **** 		/* Function Prototypes: */
 110:lib/lufa/LUFA/Drivers/USB/Core/AVR8/../AVR8/../AVR8/Endpoint_AVR8.h **** 			void Endpoint_ClearEndpoints(void);
 111:lib/lufa/LUFA/Drivers/USB/Core/AVR8/../AVR8/../AVR8/Endpoint_AVR8.h **** 			bool Endpoint_ConfigureEndpoint_Prv(const uint8_t Number,
 112:lib/lufa/LUFA/Drivers/USB/Core/AVR8/../AVR8/../AVR8/Endpoint_AVR8.h **** 			                                    const uint8_t UECFG0XData,
 113:lib/lufa/LUFA/Drivers/USB/Core/AVR8/../AVR8/../AVR8/Endpoint_AVR8.h **** 			                                    const uint8_t UECFG1XData);
 114:lib/lufa/LUFA/Drivers/USB/Core/AVR8/../AVR8/../AVR8/Endpoint_AVR8.h **** 
 115:lib/lufa/LUFA/Drivers/USB/Core/AVR8/../AVR8/../AVR8/Endpoint_AVR8.h **** 	#endif
 116:lib/lufa/LUFA/Drivers/USB/Core/AVR8/../AVR8/../AVR8/Endpoint_AVR8.h **** 
 117:lib/lufa/LUFA/Drivers/USB/Core/AVR8/../AVR8/../AVR8/Endpoint_AVR8.h **** 	/* Public Interface - May be used in end-application: */
 118:lib/lufa/LUFA/Drivers/USB/Core/AVR8/../AVR8/../AVR8/Endpoint_AVR8.h **** 		/* Macros: */
 119:lib/lufa/LUFA/Drivers/USB/Core/AVR8/../AVR8/../AVR8/Endpoint_AVR8.h **** 			#if (!defined(FIXED_CONTROL_ENDPOINT_SIZE) || defined(__DOXYGEN__))
 120:lib/lufa/LUFA/Drivers/USB/Core/AVR8/../AVR8/../AVR8/Endpoint_AVR8.h **** 				/** Default size of the default control endpoint's bank, until altered by the control endpoint 
 121:lib/lufa/LUFA/Drivers/USB/Core/AVR8/../AVR8/../AVR8/Endpoint_AVR8.h **** 				 *  value in the device descriptor. Not available if the \c FIXED_CONTROL_ENDPOINT_SIZE token i
 122:lib/lufa/LUFA/Drivers/USB/Core/AVR8/../AVR8/../AVR8/Endpoint_AVR8.h **** 				 */
 123:lib/lufa/LUFA/Drivers/USB/Core/AVR8/../AVR8/../AVR8/Endpoint_AVR8.h **** 				#define ENDPOINT_CONTROLEP_DEFAULT_SIZE     8
 124:lib/lufa/LUFA/Drivers/USB/Core/AVR8/../AVR8/../AVR8/Endpoint_AVR8.h **** 			#endif
 125:lib/lufa/LUFA/Drivers/USB/Core/AVR8/../AVR8/../AVR8/Endpoint_AVR8.h **** 
 126:lib/lufa/LUFA/Drivers/USB/Core/AVR8/../AVR8/../AVR8/Endpoint_AVR8.h **** 			#if !defined(CONTROL_ONLY_DEVICE) || defined(__DOXYGEN__)
 127:lib/lufa/LUFA/Drivers/USB/Core/AVR8/../AVR8/../AVR8/Endpoint_AVR8.h **** 				#if defined(USB_SERIES_4_AVR) || defined(USB_SERIES_6_AVR) || defined(USB_SERIES_7_AVR) || defi
 128:lib/lufa/LUFA/Drivers/USB/Core/AVR8/../AVR8/../AVR8/Endpoint_AVR8.h **** 					/** Total number of endpoints (including the default control endpoint at address 0) which may
 129:lib/lufa/LUFA/Drivers/USB/Core/AVR8/../AVR8/../AVR8/Endpoint_AVR8.h **** 					 *  be used in the device. Different USB AVR models support different amounts of endpoints,
 130:lib/lufa/LUFA/Drivers/USB/Core/AVR8/../AVR8/../AVR8/Endpoint_AVR8.h **** 					 *  this value reflects the maximum number of endpoints for the currently selected AVR model.
 131:lib/lufa/LUFA/Drivers/USB/Core/AVR8/../AVR8/../AVR8/Endpoint_AVR8.h **** 					 */
 132:lib/lufa/LUFA/Drivers/USB/Core/AVR8/../AVR8/../AVR8/Endpoint_AVR8.h **** 					#define ENDPOINT_TOTAL_ENDPOINTS        7
 133:lib/lufa/LUFA/Drivers/USB/Core/AVR8/../AVR8/../AVR8/Endpoint_AVR8.h **** 				#else
 134:lib/lufa/LUFA/Drivers/USB/Core/AVR8/../AVR8/../AVR8/Endpoint_AVR8.h **** 					#define ENDPOINT_TOTAL_ENDPOINTS        5
 135:lib/lufa/LUFA/Drivers/USB/Core/AVR8/../AVR8/../AVR8/Endpoint_AVR8.h **** 				#endif
 136:lib/lufa/LUFA/Drivers/USB/Core/AVR8/../AVR8/../AVR8/Endpoint_AVR8.h **** 			#else
 137:lib/lufa/LUFA/Drivers/USB/Core/AVR8/../AVR8/../AVR8/Endpoint_AVR8.h **** 				#define ENDPOINT_TOTAL_ENDPOINTS            1
 138:lib/lufa/LUFA/Drivers/USB/Core/AVR8/../AVR8/../AVR8/Endpoint_AVR8.h **** 			#endif
 139:lib/lufa/LUFA/Drivers/USB/Core/AVR8/../AVR8/../AVR8/Endpoint_AVR8.h **** 
 140:lib/lufa/LUFA/Drivers/USB/Core/AVR8/../AVR8/../AVR8/Endpoint_AVR8.h **** 		/* Enums: */
 141:lib/lufa/LUFA/Drivers/USB/Core/AVR8/../AVR8/../AVR8/Endpoint_AVR8.h **** 			/** Enum for the possible error return codes of the \ref Endpoint_WaitUntilReady() function.
 142:lib/lufa/LUFA/Drivers/USB/Core/AVR8/../AVR8/../AVR8/Endpoint_AVR8.h **** 			 *
 143:lib/lufa/LUFA/Drivers/USB/Core/AVR8/../AVR8/../AVR8/Endpoint_AVR8.h **** 			 *  \ingroup Group_EndpointRW_AVR8
 144:lib/lufa/LUFA/Drivers/USB/Core/AVR8/../AVR8/../AVR8/Endpoint_AVR8.h **** 			 */
 145:lib/lufa/LUFA/Drivers/USB/Core/AVR8/../AVR8/../AVR8/Endpoint_AVR8.h **** 			enum Endpoint_WaitUntilReady_ErrorCodes_t
 146:lib/lufa/LUFA/Drivers/USB/Core/AVR8/../AVR8/../AVR8/Endpoint_AVR8.h **** 			{
 147:lib/lufa/LUFA/Drivers/USB/Core/AVR8/../AVR8/../AVR8/Endpoint_AVR8.h **** 				ENDPOINT_READYWAIT_NoError                 = 0, /**< Endpoint is ready for next packet, no erro
 148:lib/lufa/LUFA/Drivers/USB/Core/AVR8/../AVR8/../AVR8/Endpoint_AVR8.h **** 				ENDPOINT_READYWAIT_EndpointStalled         = 1, /**< The endpoint was stalled during the stream
 149:lib/lufa/LUFA/Drivers/USB/Core/AVR8/../AVR8/../AVR8/Endpoint_AVR8.h **** 				                                                 *   transfer by the host or device.
 150:lib/lufa/LUFA/Drivers/USB/Core/AVR8/../AVR8/../AVR8/Endpoint_AVR8.h **** 				                                                 */
 151:lib/lufa/LUFA/Drivers/USB/Core/AVR8/../AVR8/../AVR8/Endpoint_AVR8.h **** 				ENDPOINT_READYWAIT_DeviceDisconnected      = 2,	/**< Device was disconnected from the host whil
 152:lib/lufa/LUFA/Drivers/USB/Core/AVR8/../AVR8/../AVR8/Endpoint_AVR8.h **** 				                                                 *   waiting for the endpoint to become ready.
 153:lib/lufa/LUFA/Drivers/USB/Core/AVR8/../AVR8/../AVR8/Endpoint_AVR8.h **** 				                                                 */
 154:lib/lufa/LUFA/Drivers/USB/Core/AVR8/../AVR8/../AVR8/Endpoint_AVR8.h **** 				ENDPOINT_READYWAIT_BusSuspended            = 3, /**< The USB bus has been suspended by the host
 155:lib/lufa/LUFA/Drivers/USB/Core/AVR8/../AVR8/../AVR8/Endpoint_AVR8.h **** 				                                                 *   no USB endpoint traffic can occur until th
 156:lib/lufa/LUFA/Drivers/USB/Core/AVR8/../AVR8/../AVR8/Endpoint_AVR8.h **** 				                                                 *   has resumed.
 157:lib/lufa/LUFA/Drivers/USB/Core/AVR8/../AVR8/../AVR8/Endpoint_AVR8.h **** 				                                                 */
 158:lib/lufa/LUFA/Drivers/USB/Core/AVR8/../AVR8/../AVR8/Endpoint_AVR8.h **** 				ENDPOINT_READYWAIT_Timeout                 = 4, /**< The host failed to accept or send the next
 159:lib/lufa/LUFA/Drivers/USB/Core/AVR8/../AVR8/../AVR8/Endpoint_AVR8.h **** 				                                                 *   within the software timeout period set by 
 160:lib/lufa/LUFA/Drivers/USB/Core/AVR8/../AVR8/../AVR8/Endpoint_AVR8.h **** 				                                                 *   \ref USB_STREAM_TIMEOUT_MS macro.
 161:lib/lufa/LUFA/Drivers/USB/Core/AVR8/../AVR8/../AVR8/Endpoint_AVR8.h **** 				                                                 */
 162:lib/lufa/LUFA/Drivers/USB/Core/AVR8/../AVR8/../AVR8/Endpoint_AVR8.h **** 			};
 163:lib/lufa/LUFA/Drivers/USB/Core/AVR8/../AVR8/../AVR8/Endpoint_AVR8.h **** 
 164:lib/lufa/LUFA/Drivers/USB/Core/AVR8/../AVR8/../AVR8/Endpoint_AVR8.h **** 		/* Inline Functions: */
 165:lib/lufa/LUFA/Drivers/USB/Core/AVR8/../AVR8/../AVR8/Endpoint_AVR8.h **** 			/** Configures the specified endpoint address with the given endpoint type, bank size and number
 166:lib/lufa/LUFA/Drivers/USB/Core/AVR8/../AVR8/../AVR8/Endpoint_AVR8.h **** 			 *  banks. Once configured, the endpoint may be read from or written to, depending on its direct
 167:lib/lufa/LUFA/Drivers/USB/Core/AVR8/../AVR8/../AVR8/Endpoint_AVR8.h **** 			 *
 168:lib/lufa/LUFA/Drivers/USB/Core/AVR8/../AVR8/../AVR8/Endpoint_AVR8.h **** 			 *  \param[in] Address    Endpoint address to configure.
 169:lib/lufa/LUFA/Drivers/USB/Core/AVR8/../AVR8/../AVR8/Endpoint_AVR8.h **** 			 *
 170:lib/lufa/LUFA/Drivers/USB/Core/AVR8/../AVR8/../AVR8/Endpoint_AVR8.h **** 			 *  \param[in] Type       Type of endpoint to configure, a \c EP_TYPE_* mask. Not all endpoint t
 171:lib/lufa/LUFA/Drivers/USB/Core/AVR8/../AVR8/../AVR8/Endpoint_AVR8.h **** 			 *                        are available on Low Speed USB devices - refer to the USB 2.0 specific
 172:lib/lufa/LUFA/Drivers/USB/Core/AVR8/../AVR8/../AVR8/Endpoint_AVR8.h **** 			 *
 173:lib/lufa/LUFA/Drivers/USB/Core/AVR8/../AVR8/../AVR8/Endpoint_AVR8.h **** 			 *  \param[in] Size       Size of the endpoint's bank, where packets are stored before they are 
 174:lib/lufa/LUFA/Drivers/USB/Core/AVR8/../AVR8/../AVR8/Endpoint_AVR8.h **** 			 *                        to the USB host, or after they have been received from the USB host (d
 175:lib/lufa/LUFA/Drivers/USB/Core/AVR8/../AVR8/../AVR8/Endpoint_AVR8.h **** 			 *                        the endpoint's data direction). The bank size must indicate the maximu
 176:lib/lufa/LUFA/Drivers/USB/Core/AVR8/../AVR8/../AVR8/Endpoint_AVR8.h **** 			 *                        that the endpoint can handle.
 177:lib/lufa/LUFA/Drivers/USB/Core/AVR8/../AVR8/../AVR8/Endpoint_AVR8.h **** 			 *
 178:lib/lufa/LUFA/Drivers/USB/Core/AVR8/../AVR8/../AVR8/Endpoint_AVR8.h **** 			 *  \param[in] Banks      Number of banks to use for the endpoint being configured.
 179:lib/lufa/LUFA/Drivers/USB/Core/AVR8/../AVR8/../AVR8/Endpoint_AVR8.h **** 			 *
 180:lib/lufa/LUFA/Drivers/USB/Core/AVR8/../AVR8/../AVR8/Endpoint_AVR8.h **** 			 *  \attention When the \c ORDERED_EP_CONFIG compile time option is used, Endpoints <b>must</b> 
 181:lib/lufa/LUFA/Drivers/USB/Core/AVR8/../AVR8/../AVR8/Endpoint_AVR8.h **** 			 *             ascending order, or bank corruption will occur.
 182:lib/lufa/LUFA/Drivers/USB/Core/AVR8/../AVR8/../AVR8/Endpoint_AVR8.h **** 			 *
 183:lib/lufa/LUFA/Drivers/USB/Core/AVR8/../AVR8/../AVR8/Endpoint_AVR8.h **** 			 *  \note Different endpoints may have different maximum packet sizes based on the endpoint's in
 184:lib/lufa/LUFA/Drivers/USB/Core/AVR8/../AVR8/../AVR8/Endpoint_AVR8.h **** 			 *        refer to the chosen microcontroller model's datasheet to determine the maximum bank si
 185:lib/lufa/LUFA/Drivers/USB/Core/AVR8/../AVR8/../AVR8/Endpoint_AVR8.h **** 			 *        \n\n
 186:lib/lufa/LUFA/Drivers/USB/Core/AVR8/../AVR8/../AVR8/Endpoint_AVR8.h **** 			 *
 187:lib/lufa/LUFA/Drivers/USB/Core/AVR8/../AVR8/../AVR8/Endpoint_AVR8.h **** 			 *  \note The default control endpoint should not be manually configured by the user application
 188:lib/lufa/LUFA/Drivers/USB/Core/AVR8/../AVR8/../AVR8/Endpoint_AVR8.h **** 			 *        it is automatically configured by the library internally.
 189:lib/lufa/LUFA/Drivers/USB/Core/AVR8/../AVR8/../AVR8/Endpoint_AVR8.h **** 			 *        \n\n
 190:lib/lufa/LUFA/Drivers/USB/Core/AVR8/../AVR8/../AVR8/Endpoint_AVR8.h **** 			 *
 191:lib/lufa/LUFA/Drivers/USB/Core/AVR8/../AVR8/../AVR8/Endpoint_AVR8.h **** 			 *  \note This routine will automatically select the specified endpoint upon success. Upon failu
 192:lib/lufa/LUFA/Drivers/USB/Core/AVR8/../AVR8/../AVR8/Endpoint_AVR8.h **** 			 *        which failed to reconfigure correctly will be selected.
 193:lib/lufa/LUFA/Drivers/USB/Core/AVR8/../AVR8/../AVR8/Endpoint_AVR8.h **** 			 *
 194:lib/lufa/LUFA/Drivers/USB/Core/AVR8/../AVR8/../AVR8/Endpoint_AVR8.h **** 			 *  \return Boolean \c true if the configuration succeeded, \c false otherwise.
 195:lib/lufa/LUFA/Drivers/USB/Core/AVR8/../AVR8/../AVR8/Endpoint_AVR8.h **** 			 */
 196:lib/lufa/LUFA/Drivers/USB/Core/AVR8/../AVR8/../AVR8/Endpoint_AVR8.h **** 			static inline bool Endpoint_ConfigureEndpoint(const uint8_t Address,
 197:lib/lufa/LUFA/Drivers/USB/Core/AVR8/../AVR8/../AVR8/Endpoint_AVR8.h **** 			                                              const uint8_t Type,
 198:lib/lufa/LUFA/Drivers/USB/Core/AVR8/../AVR8/../AVR8/Endpoint_AVR8.h **** 			                                              const uint16_t Size,
 199:lib/lufa/LUFA/Drivers/USB/Core/AVR8/../AVR8/../AVR8/Endpoint_AVR8.h **** 			                                              const uint8_t Banks) ATTR_ALWAYS_INLINE;
 200:lib/lufa/LUFA/Drivers/USB/Core/AVR8/../AVR8/../AVR8/Endpoint_AVR8.h **** 			static inline bool Endpoint_ConfigureEndpoint(const uint8_t Address,
 201:lib/lufa/LUFA/Drivers/USB/Core/AVR8/../AVR8/../AVR8/Endpoint_AVR8.h **** 			                                              const uint8_t Type,
 202:lib/lufa/LUFA/Drivers/USB/Core/AVR8/../AVR8/../AVR8/Endpoint_AVR8.h **** 			                                              const uint16_t Size,
 203:lib/lufa/LUFA/Drivers/USB/Core/AVR8/../AVR8/../AVR8/Endpoint_AVR8.h **** 			                                              const uint8_t Banks)
 204:lib/lufa/LUFA/Drivers/USB/Core/AVR8/../AVR8/../AVR8/Endpoint_AVR8.h **** 			{
 205:lib/lufa/LUFA/Drivers/USB/Core/AVR8/../AVR8/../AVR8/Endpoint_AVR8.h **** 				uint8_t Number = (Address & ENDPOINT_EPNUM_MASK);
 206:lib/lufa/LUFA/Drivers/USB/Core/AVR8/../AVR8/../AVR8/Endpoint_AVR8.h **** 
 207:lib/lufa/LUFA/Drivers/USB/Core/AVR8/../AVR8/../AVR8/Endpoint_AVR8.h **** 				if (Number >= ENDPOINT_TOTAL_ENDPOINTS)
 208:lib/lufa/LUFA/Drivers/USB/Core/AVR8/../AVR8/../AVR8/Endpoint_AVR8.h **** 				  return false;
 209:lib/lufa/LUFA/Drivers/USB/Core/AVR8/../AVR8/../AVR8/Endpoint_AVR8.h **** 
 210:lib/lufa/LUFA/Drivers/USB/Core/AVR8/../AVR8/../AVR8/Endpoint_AVR8.h **** 				return Endpoint_ConfigureEndpoint_Prv(Number,
 211:lib/lufa/LUFA/Drivers/USB/Core/AVR8/../AVR8/../AVR8/Endpoint_AVR8.h **** 				                                      ((Type << EPTYPE0) | ((Address & ENDPOINT_DIR_IN) ? (1 <<
 212:lib/lufa/LUFA/Drivers/USB/Core/AVR8/../AVR8/../AVR8/Endpoint_AVR8.h **** 				                                      ((1 << ALLOC) | ((Banks > 1) ? (1 << EPBK0) : 0) | Endpoi
 213:lib/lufa/LUFA/Drivers/USB/Core/AVR8/../AVR8/../AVR8/Endpoint_AVR8.h **** 			}
 214:lib/lufa/LUFA/Drivers/USB/Core/AVR8/../AVR8/../AVR8/Endpoint_AVR8.h **** 
 215:lib/lufa/LUFA/Drivers/USB/Core/AVR8/../AVR8/../AVR8/Endpoint_AVR8.h **** 			/** Indicates the number of bytes currently stored in the current endpoint's selected bank.
 216:lib/lufa/LUFA/Drivers/USB/Core/AVR8/../AVR8/../AVR8/Endpoint_AVR8.h **** 			 *
 217:lib/lufa/LUFA/Drivers/USB/Core/AVR8/../AVR8/../AVR8/Endpoint_AVR8.h **** 			 *  \ingroup Group_EndpointRW_AVR8
 218:lib/lufa/LUFA/Drivers/USB/Core/AVR8/../AVR8/../AVR8/Endpoint_AVR8.h **** 			 *
 219:lib/lufa/LUFA/Drivers/USB/Core/AVR8/../AVR8/../AVR8/Endpoint_AVR8.h **** 			 *  \return Total number of bytes in the currently selected Endpoint's FIFO buffer.
 220:lib/lufa/LUFA/Drivers/USB/Core/AVR8/../AVR8/../AVR8/Endpoint_AVR8.h **** 			 */
 221:lib/lufa/LUFA/Drivers/USB/Core/AVR8/../AVR8/../AVR8/Endpoint_AVR8.h **** 			static inline uint16_t Endpoint_BytesInEndpoint(void) ATTR_WARN_UNUSED_RESULT ATTR_ALWAYS_INLINE
 222:lib/lufa/LUFA/Drivers/USB/Core/AVR8/../AVR8/../AVR8/Endpoint_AVR8.h **** 			static inline uint16_t Endpoint_BytesInEndpoint(void)
 223:lib/lufa/LUFA/Drivers/USB/Core/AVR8/../AVR8/../AVR8/Endpoint_AVR8.h **** 			{
 224:lib/lufa/LUFA/Drivers/USB/Core/AVR8/../AVR8/../AVR8/Endpoint_AVR8.h **** 				#if (defined(USB_SERIES_6_AVR) || defined(USB_SERIES_7_AVR))
 225:lib/lufa/LUFA/Drivers/USB/Core/AVR8/../AVR8/../AVR8/Endpoint_AVR8.h **** 					return UEBCX;
 226:lib/lufa/LUFA/Drivers/USB/Core/AVR8/../AVR8/../AVR8/Endpoint_AVR8.h **** 				#elif defined(USB_SERIES_4_AVR)
 227:lib/lufa/LUFA/Drivers/USB/Core/AVR8/../AVR8/../AVR8/Endpoint_AVR8.h **** 					return (((uint16_t)UEBCHX << 8) | UEBCLX);
 228:lib/lufa/LUFA/Drivers/USB/Core/AVR8/../AVR8/../AVR8/Endpoint_AVR8.h **** 				#elif defined(USB_SERIES_2_AVR)
 229:lib/lufa/LUFA/Drivers/USB/Core/AVR8/../AVR8/../AVR8/Endpoint_AVR8.h **** 					return UEBCLX;
 230:lib/lufa/LUFA/Drivers/USB/Core/AVR8/../AVR8/../AVR8/Endpoint_AVR8.h **** 				#endif
 231:lib/lufa/LUFA/Drivers/USB/Core/AVR8/../AVR8/../AVR8/Endpoint_AVR8.h **** 			}
 232:lib/lufa/LUFA/Drivers/USB/Core/AVR8/../AVR8/../AVR8/Endpoint_AVR8.h **** 
 233:lib/lufa/LUFA/Drivers/USB/Core/AVR8/../AVR8/../AVR8/Endpoint_AVR8.h **** 			/** Determines the currently selected endpoint's direction.
 234:lib/lufa/LUFA/Drivers/USB/Core/AVR8/../AVR8/../AVR8/Endpoint_AVR8.h **** 			 *
 235:lib/lufa/LUFA/Drivers/USB/Core/AVR8/../AVR8/../AVR8/Endpoint_AVR8.h **** 			 *  \return The currently selected endpoint's direction, as a \c ENDPOINT_DIR_* mask.
 236:lib/lufa/LUFA/Drivers/USB/Core/AVR8/../AVR8/../AVR8/Endpoint_AVR8.h **** 			 */
 237:lib/lufa/LUFA/Drivers/USB/Core/AVR8/../AVR8/../AVR8/Endpoint_AVR8.h **** 			static inline uint8_t Endpoint_GetEndpointDirection(void) ATTR_WARN_UNUSED_RESULT ATTR_ALWAYS_IN
 238:lib/lufa/LUFA/Drivers/USB/Core/AVR8/../AVR8/../AVR8/Endpoint_AVR8.h **** 			static inline uint8_t Endpoint_GetEndpointDirection(void)
 239:lib/lufa/LUFA/Drivers/USB/Core/AVR8/../AVR8/../AVR8/Endpoint_AVR8.h **** 			{
 240:lib/lufa/LUFA/Drivers/USB/Core/AVR8/../AVR8/../AVR8/Endpoint_AVR8.h **** 				return (UECFG0X & (1 << EPDIR)) ? ENDPOINT_DIR_IN : ENDPOINT_DIR_OUT;
 241:lib/lufa/LUFA/Drivers/USB/Core/AVR8/../AVR8/../AVR8/Endpoint_AVR8.h **** 			}
 242:lib/lufa/LUFA/Drivers/USB/Core/AVR8/../AVR8/../AVR8/Endpoint_AVR8.h **** 
 243:lib/lufa/LUFA/Drivers/USB/Core/AVR8/../AVR8/../AVR8/Endpoint_AVR8.h **** 			/** Get the endpoint address of the currently selected endpoint. This is typically used to save
 244:lib/lufa/LUFA/Drivers/USB/Core/AVR8/../AVR8/../AVR8/Endpoint_AVR8.h **** 			 *  the currently selected endpoint so that it can be restored after another endpoint has been
 245:lib/lufa/LUFA/Drivers/USB/Core/AVR8/../AVR8/../AVR8/Endpoint_AVR8.h **** 			 *  manipulated.
 246:lib/lufa/LUFA/Drivers/USB/Core/AVR8/../AVR8/../AVR8/Endpoint_AVR8.h **** 			 *
 247:lib/lufa/LUFA/Drivers/USB/Core/AVR8/../AVR8/../AVR8/Endpoint_AVR8.h **** 			 *  \return Index of the currently selected endpoint.
 248:lib/lufa/LUFA/Drivers/USB/Core/AVR8/../AVR8/../AVR8/Endpoint_AVR8.h **** 			 */
 249:lib/lufa/LUFA/Drivers/USB/Core/AVR8/../AVR8/../AVR8/Endpoint_AVR8.h **** 			static inline uint8_t Endpoint_GetCurrentEndpoint(void) ATTR_WARN_UNUSED_RESULT ATTR_ALWAYS_INLI
 250:lib/lufa/LUFA/Drivers/USB/Core/AVR8/../AVR8/../AVR8/Endpoint_AVR8.h **** 			static inline uint8_t Endpoint_GetCurrentEndpoint(void)
 251:lib/lufa/LUFA/Drivers/USB/Core/AVR8/../AVR8/../AVR8/Endpoint_AVR8.h **** 			{
 252:lib/lufa/LUFA/Drivers/USB/Core/AVR8/../AVR8/../AVR8/Endpoint_AVR8.h **** 				#if !defined(CONTROL_ONLY_DEVICE)
 253:lib/lufa/LUFA/Drivers/USB/Core/AVR8/../AVR8/../AVR8/Endpoint_AVR8.h **** 					return ((UENUM & ENDPOINT_EPNUM_MASK) | Endpoint_GetEndpointDirection());
 254:lib/lufa/LUFA/Drivers/USB/Core/AVR8/../AVR8/../AVR8/Endpoint_AVR8.h **** 				#else
 255:lib/lufa/LUFA/Drivers/USB/Core/AVR8/../AVR8/../AVR8/Endpoint_AVR8.h **** 					return ENDPOINT_CONTROLEP;
 256:lib/lufa/LUFA/Drivers/USB/Core/AVR8/../AVR8/../AVR8/Endpoint_AVR8.h **** 				#endif
 257:lib/lufa/LUFA/Drivers/USB/Core/AVR8/../AVR8/../AVR8/Endpoint_AVR8.h **** 			}
 258:lib/lufa/LUFA/Drivers/USB/Core/AVR8/../AVR8/../AVR8/Endpoint_AVR8.h **** 
 259:lib/lufa/LUFA/Drivers/USB/Core/AVR8/../AVR8/../AVR8/Endpoint_AVR8.h **** 			/** Selects the given endpoint address.
 260:lib/lufa/LUFA/Drivers/USB/Core/AVR8/../AVR8/../AVR8/Endpoint_AVR8.h **** 			 *
 261:lib/lufa/LUFA/Drivers/USB/Core/AVR8/../AVR8/../AVR8/Endpoint_AVR8.h **** 			 *  Any endpoint operations which do not require the endpoint address to be indicated will opera
 262:lib/lufa/LUFA/Drivers/USB/Core/AVR8/../AVR8/../AVR8/Endpoint_AVR8.h **** 			 *  the currently selected endpoint.
 263:lib/lufa/LUFA/Drivers/USB/Core/AVR8/../AVR8/../AVR8/Endpoint_AVR8.h **** 			 *
 264:lib/lufa/LUFA/Drivers/USB/Core/AVR8/../AVR8/../AVR8/Endpoint_AVR8.h **** 			 *  \param[in] Address Endpoint address to select.
 265:lib/lufa/LUFA/Drivers/USB/Core/AVR8/../AVR8/../AVR8/Endpoint_AVR8.h **** 			 */
 266:lib/lufa/LUFA/Drivers/USB/Core/AVR8/../AVR8/../AVR8/Endpoint_AVR8.h **** 			static inline void Endpoint_SelectEndpoint(const uint8_t Address) ATTR_ALWAYS_INLINE;
 267:lib/lufa/LUFA/Drivers/USB/Core/AVR8/../AVR8/../AVR8/Endpoint_AVR8.h **** 			static inline void Endpoint_SelectEndpoint(const uint8_t Address)
 268:lib/lufa/LUFA/Drivers/USB/Core/AVR8/../AVR8/../AVR8/Endpoint_AVR8.h **** 			{
 269:lib/lufa/LUFA/Drivers/USB/Core/AVR8/../AVR8/../AVR8/Endpoint_AVR8.h **** 				#if !defined(CONTROL_ONLY_DEVICE)
 270:lib/lufa/LUFA/Drivers/USB/Core/AVR8/../AVR8/../AVR8/Endpoint_AVR8.h **** 					UENUM = (Address & ENDPOINT_EPNUM_MASK);
 271:lib/lufa/LUFA/Drivers/USB/Core/AVR8/../AVR8/../AVR8/Endpoint_AVR8.h **** 				#endif
 272:lib/lufa/LUFA/Drivers/USB/Core/AVR8/../AVR8/../AVR8/Endpoint_AVR8.h **** 			}
 273:lib/lufa/LUFA/Drivers/USB/Core/AVR8/../AVR8/../AVR8/Endpoint_AVR8.h **** 
 274:lib/lufa/LUFA/Drivers/USB/Core/AVR8/../AVR8/../AVR8/Endpoint_AVR8.h **** 			/** Resets the endpoint bank FIFO. This clears all the endpoint banks and resets the USB control
 275:lib/lufa/LUFA/Drivers/USB/Core/AVR8/../AVR8/../AVR8/Endpoint_AVR8.h **** 			 *  data In and Out pointers to the bank's contents.
 276:lib/lufa/LUFA/Drivers/USB/Core/AVR8/../AVR8/../AVR8/Endpoint_AVR8.h **** 			 *
 277:lib/lufa/LUFA/Drivers/USB/Core/AVR8/../AVR8/../AVR8/Endpoint_AVR8.h **** 			 *  \param[in] Address  Endpoint address whose FIFO buffers are to be reset.
 278:lib/lufa/LUFA/Drivers/USB/Core/AVR8/../AVR8/../AVR8/Endpoint_AVR8.h **** 			 */
 279:lib/lufa/LUFA/Drivers/USB/Core/AVR8/../AVR8/../AVR8/Endpoint_AVR8.h **** 			static inline void Endpoint_ResetEndpoint(const uint8_t Address) ATTR_ALWAYS_INLINE;
 280:lib/lufa/LUFA/Drivers/USB/Core/AVR8/../AVR8/../AVR8/Endpoint_AVR8.h **** 			static inline void Endpoint_ResetEndpoint(const uint8_t Address)
 281:lib/lufa/LUFA/Drivers/USB/Core/AVR8/../AVR8/../AVR8/Endpoint_AVR8.h **** 			{
 282:lib/lufa/LUFA/Drivers/USB/Core/AVR8/../AVR8/../AVR8/Endpoint_AVR8.h **** 				UERST = (1 << (Address & ENDPOINT_EPNUM_MASK));
 283:lib/lufa/LUFA/Drivers/USB/Core/AVR8/../AVR8/../AVR8/Endpoint_AVR8.h **** 				UERST = 0;
 284:lib/lufa/LUFA/Drivers/USB/Core/AVR8/../AVR8/../AVR8/Endpoint_AVR8.h **** 			}
 285:lib/lufa/LUFA/Drivers/USB/Core/AVR8/../AVR8/../AVR8/Endpoint_AVR8.h **** 
 286:lib/lufa/LUFA/Drivers/USB/Core/AVR8/../AVR8/../AVR8/Endpoint_AVR8.h **** 			/** Enables the currently selected endpoint so that data can be sent and received through it to
 287:lib/lufa/LUFA/Drivers/USB/Core/AVR8/../AVR8/../AVR8/Endpoint_AVR8.h **** 			 *  and from a host.
 288:lib/lufa/LUFA/Drivers/USB/Core/AVR8/../AVR8/../AVR8/Endpoint_AVR8.h **** 			 *
 289:lib/lufa/LUFA/Drivers/USB/Core/AVR8/../AVR8/../AVR8/Endpoint_AVR8.h **** 			 *  \note Endpoints must first be configured properly via \ref Endpoint_ConfigureEndpoint().
 290:lib/lufa/LUFA/Drivers/USB/Core/AVR8/../AVR8/../AVR8/Endpoint_AVR8.h **** 			 */
 291:lib/lufa/LUFA/Drivers/USB/Core/AVR8/../AVR8/../AVR8/Endpoint_AVR8.h **** 			static inline void Endpoint_EnableEndpoint(void) ATTR_ALWAYS_INLINE;
 292:lib/lufa/LUFA/Drivers/USB/Core/AVR8/../AVR8/../AVR8/Endpoint_AVR8.h **** 			static inline void Endpoint_EnableEndpoint(void)
 293:lib/lufa/LUFA/Drivers/USB/Core/AVR8/../AVR8/../AVR8/Endpoint_AVR8.h **** 			{
 294:lib/lufa/LUFA/Drivers/USB/Core/AVR8/../AVR8/../AVR8/Endpoint_AVR8.h **** 				UECONX |= (1 << EPEN);
 295:lib/lufa/LUFA/Drivers/USB/Core/AVR8/../AVR8/../AVR8/Endpoint_AVR8.h **** 			}
 296:lib/lufa/LUFA/Drivers/USB/Core/AVR8/../AVR8/../AVR8/Endpoint_AVR8.h **** 
 297:lib/lufa/LUFA/Drivers/USB/Core/AVR8/../AVR8/../AVR8/Endpoint_AVR8.h **** 			/** Disables the currently selected endpoint so that data cannot be sent and received through it
 298:lib/lufa/LUFA/Drivers/USB/Core/AVR8/../AVR8/../AVR8/Endpoint_AVR8.h **** 			 *  to and from a host.
 299:lib/lufa/LUFA/Drivers/USB/Core/AVR8/../AVR8/../AVR8/Endpoint_AVR8.h **** 			 */
 300:lib/lufa/LUFA/Drivers/USB/Core/AVR8/../AVR8/../AVR8/Endpoint_AVR8.h **** 			static inline void Endpoint_DisableEndpoint(void) ATTR_ALWAYS_INLINE;
 301:lib/lufa/LUFA/Drivers/USB/Core/AVR8/../AVR8/../AVR8/Endpoint_AVR8.h **** 			static inline void Endpoint_DisableEndpoint(void)
 302:lib/lufa/LUFA/Drivers/USB/Core/AVR8/../AVR8/../AVR8/Endpoint_AVR8.h **** 			{
 303:lib/lufa/LUFA/Drivers/USB/Core/AVR8/../AVR8/../AVR8/Endpoint_AVR8.h **** 				UECONX &= ~(1 << EPEN);
 304:lib/lufa/LUFA/Drivers/USB/Core/AVR8/../AVR8/../AVR8/Endpoint_AVR8.h **** 			}
 305:lib/lufa/LUFA/Drivers/USB/Core/AVR8/../AVR8/../AVR8/Endpoint_AVR8.h **** 
 306:lib/lufa/LUFA/Drivers/USB/Core/AVR8/../AVR8/../AVR8/Endpoint_AVR8.h **** 			/** Determines if the currently selected endpoint is enabled, but not necessarily configured.
 307:lib/lufa/LUFA/Drivers/USB/Core/AVR8/../AVR8/../AVR8/Endpoint_AVR8.h **** 			 *
 308:lib/lufa/LUFA/Drivers/USB/Core/AVR8/../AVR8/../AVR8/Endpoint_AVR8.h **** 			 * \return Boolean \c true if the currently selected endpoint is enabled, \c false otherwise.
 309:lib/lufa/LUFA/Drivers/USB/Core/AVR8/../AVR8/../AVR8/Endpoint_AVR8.h **** 			 */
 310:lib/lufa/LUFA/Drivers/USB/Core/AVR8/../AVR8/../AVR8/Endpoint_AVR8.h **** 			static inline bool Endpoint_IsEnabled(void) ATTR_WARN_UNUSED_RESULT ATTR_ALWAYS_INLINE;
 311:lib/lufa/LUFA/Drivers/USB/Core/AVR8/../AVR8/../AVR8/Endpoint_AVR8.h **** 			static inline bool Endpoint_IsEnabled(void)
 312:lib/lufa/LUFA/Drivers/USB/Core/AVR8/../AVR8/../AVR8/Endpoint_AVR8.h **** 			{
 313:lib/lufa/LUFA/Drivers/USB/Core/AVR8/../AVR8/../AVR8/Endpoint_AVR8.h **** 				return ((UECONX & (1 << EPEN)) ? true : false);
 314:lib/lufa/LUFA/Drivers/USB/Core/AVR8/../AVR8/../AVR8/Endpoint_AVR8.h **** 			}
 315:lib/lufa/LUFA/Drivers/USB/Core/AVR8/../AVR8/../AVR8/Endpoint_AVR8.h **** 
 316:lib/lufa/LUFA/Drivers/USB/Core/AVR8/../AVR8/../AVR8/Endpoint_AVR8.h **** 			/** Retrieves the number of busy banks in the currently selected endpoint, which have been queue
 317:lib/lufa/LUFA/Drivers/USB/Core/AVR8/../AVR8/../AVR8/Endpoint_AVR8.h **** 			 *  transmission via the \ref Endpoint_ClearIN() command, or are awaiting acknowledgment via the
 318:lib/lufa/LUFA/Drivers/USB/Core/AVR8/../AVR8/../AVR8/Endpoint_AVR8.h **** 			 *  \ref Endpoint_ClearOUT() command.
 319:lib/lufa/LUFA/Drivers/USB/Core/AVR8/../AVR8/../AVR8/Endpoint_AVR8.h **** 			 *
 320:lib/lufa/LUFA/Drivers/USB/Core/AVR8/../AVR8/../AVR8/Endpoint_AVR8.h **** 			 *  \ingroup Group_EndpointPacketManagement_AVR8
 321:lib/lufa/LUFA/Drivers/USB/Core/AVR8/../AVR8/../AVR8/Endpoint_AVR8.h **** 			 *
 322:lib/lufa/LUFA/Drivers/USB/Core/AVR8/../AVR8/../AVR8/Endpoint_AVR8.h **** 			 *  \return Total number of busy banks in the selected endpoint.
 323:lib/lufa/LUFA/Drivers/USB/Core/AVR8/../AVR8/../AVR8/Endpoint_AVR8.h **** 			 */
 324:lib/lufa/LUFA/Drivers/USB/Core/AVR8/../AVR8/../AVR8/Endpoint_AVR8.h **** 			static inline uint8_t Endpoint_GetBusyBanks(void) ATTR_ALWAYS_INLINE ATTR_WARN_UNUSED_RESULT;
 325:lib/lufa/LUFA/Drivers/USB/Core/AVR8/../AVR8/../AVR8/Endpoint_AVR8.h **** 			static inline uint8_t Endpoint_GetBusyBanks(void)
 326:lib/lufa/LUFA/Drivers/USB/Core/AVR8/../AVR8/../AVR8/Endpoint_AVR8.h **** 			{
 327:lib/lufa/LUFA/Drivers/USB/Core/AVR8/../AVR8/../AVR8/Endpoint_AVR8.h **** 				return (UESTA0X & (0x03 << NBUSYBK0));
 328:lib/lufa/LUFA/Drivers/USB/Core/AVR8/../AVR8/../AVR8/Endpoint_AVR8.h **** 			}
 329:lib/lufa/LUFA/Drivers/USB/Core/AVR8/../AVR8/../AVR8/Endpoint_AVR8.h **** 
 330:lib/lufa/LUFA/Drivers/USB/Core/AVR8/../AVR8/../AVR8/Endpoint_AVR8.h **** 			/** Aborts all pending IN transactions on the currently selected endpoint, once the bank
 331:lib/lufa/LUFA/Drivers/USB/Core/AVR8/../AVR8/../AVR8/Endpoint_AVR8.h **** 			 *  has been queued for transmission to the host via \ref Endpoint_ClearIN(). This function
 332:lib/lufa/LUFA/Drivers/USB/Core/AVR8/../AVR8/../AVR8/Endpoint_AVR8.h **** 			 *  will terminate all queued transactions, resetting the endpoint banks ready for a new
 333:lib/lufa/LUFA/Drivers/USB/Core/AVR8/../AVR8/../AVR8/Endpoint_AVR8.h **** 			 *  packet.
 334:lib/lufa/LUFA/Drivers/USB/Core/AVR8/../AVR8/../AVR8/Endpoint_AVR8.h **** 			 *
 335:lib/lufa/LUFA/Drivers/USB/Core/AVR8/../AVR8/../AVR8/Endpoint_AVR8.h **** 			 *  \ingroup Group_EndpointPacketManagement_AVR8
 336:lib/lufa/LUFA/Drivers/USB/Core/AVR8/../AVR8/../AVR8/Endpoint_AVR8.h **** 			 */
 337:lib/lufa/LUFA/Drivers/USB/Core/AVR8/../AVR8/../AVR8/Endpoint_AVR8.h **** 			static inline void Endpoint_AbortPendingIN(void)
 338:lib/lufa/LUFA/Drivers/USB/Core/AVR8/../AVR8/../AVR8/Endpoint_AVR8.h **** 			{
 339:lib/lufa/LUFA/Drivers/USB/Core/AVR8/../AVR8/../AVR8/Endpoint_AVR8.h **** 				while (Endpoint_GetBusyBanks() != 0)
 340:lib/lufa/LUFA/Drivers/USB/Core/AVR8/../AVR8/../AVR8/Endpoint_AVR8.h **** 				{
 341:lib/lufa/LUFA/Drivers/USB/Core/AVR8/../AVR8/../AVR8/Endpoint_AVR8.h **** 					UEINTX |= (1 << RXOUTI);
 342:lib/lufa/LUFA/Drivers/USB/Core/AVR8/../AVR8/../AVR8/Endpoint_AVR8.h **** 					while (UEINTX & (1 << RXOUTI));
 343:lib/lufa/LUFA/Drivers/USB/Core/AVR8/../AVR8/../AVR8/Endpoint_AVR8.h **** 				}
 344:lib/lufa/LUFA/Drivers/USB/Core/AVR8/../AVR8/../AVR8/Endpoint_AVR8.h **** 			}
 345:lib/lufa/LUFA/Drivers/USB/Core/AVR8/../AVR8/../AVR8/Endpoint_AVR8.h **** 
 346:lib/lufa/LUFA/Drivers/USB/Core/AVR8/../AVR8/../AVR8/Endpoint_AVR8.h **** 			/** Determines if the currently selected endpoint may be read from (if data is waiting in the en
 347:lib/lufa/LUFA/Drivers/USB/Core/AVR8/../AVR8/../AVR8/Endpoint_AVR8.h **** 			 *  bank and the endpoint is an OUT direction, or if the bank is not yet full if the endpoint is
 348:lib/lufa/LUFA/Drivers/USB/Core/AVR8/../AVR8/../AVR8/Endpoint_AVR8.h **** 			 *  direction). This function will return false if an error has occurred in the endpoint, if the
 349:lib/lufa/LUFA/Drivers/USB/Core/AVR8/../AVR8/../AVR8/Endpoint_AVR8.h **** 			 *  is an OUT direction and no packet (or an empty packet) has been received, or if the endpoint
 350:lib/lufa/LUFA/Drivers/USB/Core/AVR8/../AVR8/../AVR8/Endpoint_AVR8.h **** 			 *  direction and the endpoint bank is full.
 351:lib/lufa/LUFA/Drivers/USB/Core/AVR8/../AVR8/../AVR8/Endpoint_AVR8.h **** 			 *
 352:lib/lufa/LUFA/Drivers/USB/Core/AVR8/../AVR8/../AVR8/Endpoint_AVR8.h **** 			 *  \ingroup Group_EndpointPacketManagement_AVR8
 353:lib/lufa/LUFA/Drivers/USB/Core/AVR8/../AVR8/../AVR8/Endpoint_AVR8.h **** 			 *
 354:lib/lufa/LUFA/Drivers/USB/Core/AVR8/../AVR8/../AVR8/Endpoint_AVR8.h **** 			 *  \return Boolean \c true if the currently selected endpoint may be read from or written to, d
 355:lib/lufa/LUFA/Drivers/USB/Core/AVR8/../AVR8/../AVR8/Endpoint_AVR8.h **** 			 *          on its direction.
 356:lib/lufa/LUFA/Drivers/USB/Core/AVR8/../AVR8/../AVR8/Endpoint_AVR8.h **** 			 */
 357:lib/lufa/LUFA/Drivers/USB/Core/AVR8/../AVR8/../AVR8/Endpoint_AVR8.h **** 			static inline bool Endpoint_IsReadWriteAllowed(void) ATTR_WARN_UNUSED_RESULT ATTR_ALWAYS_INLINE;
 358:lib/lufa/LUFA/Drivers/USB/Core/AVR8/../AVR8/../AVR8/Endpoint_AVR8.h **** 			static inline bool Endpoint_IsReadWriteAllowed(void)
 359:lib/lufa/LUFA/Drivers/USB/Core/AVR8/../AVR8/../AVR8/Endpoint_AVR8.h **** 			{
 360:lib/lufa/LUFA/Drivers/USB/Core/AVR8/../AVR8/../AVR8/Endpoint_AVR8.h **** 				return ((UEINTX & (1 << RWAL)) ? true : false);
 361:lib/lufa/LUFA/Drivers/USB/Core/AVR8/../AVR8/../AVR8/Endpoint_AVR8.h **** 			}
 362:lib/lufa/LUFA/Drivers/USB/Core/AVR8/../AVR8/../AVR8/Endpoint_AVR8.h **** 
 363:lib/lufa/LUFA/Drivers/USB/Core/AVR8/../AVR8/../AVR8/Endpoint_AVR8.h **** 			/** Determines if the currently selected endpoint is configured.
 364:lib/lufa/LUFA/Drivers/USB/Core/AVR8/../AVR8/../AVR8/Endpoint_AVR8.h **** 			 *
 365:lib/lufa/LUFA/Drivers/USB/Core/AVR8/../AVR8/../AVR8/Endpoint_AVR8.h **** 			 *  \return Boolean \c true if the currently selected endpoint has been configured, \c false oth
 366:lib/lufa/LUFA/Drivers/USB/Core/AVR8/../AVR8/../AVR8/Endpoint_AVR8.h **** 			 */
 367:lib/lufa/LUFA/Drivers/USB/Core/AVR8/../AVR8/../AVR8/Endpoint_AVR8.h **** 			static inline bool Endpoint_IsConfigured(void) ATTR_WARN_UNUSED_RESULT ATTR_ALWAYS_INLINE;
 368:lib/lufa/LUFA/Drivers/USB/Core/AVR8/../AVR8/../AVR8/Endpoint_AVR8.h **** 			static inline bool Endpoint_IsConfigured(void)
 369:lib/lufa/LUFA/Drivers/USB/Core/AVR8/../AVR8/../AVR8/Endpoint_AVR8.h **** 			{
 370:lib/lufa/LUFA/Drivers/USB/Core/AVR8/../AVR8/../AVR8/Endpoint_AVR8.h **** 				return ((UESTA0X & (1 << CFGOK)) ? true : false);
 371:lib/lufa/LUFA/Drivers/USB/Core/AVR8/../AVR8/../AVR8/Endpoint_AVR8.h **** 			}
 372:lib/lufa/LUFA/Drivers/USB/Core/AVR8/../AVR8/../AVR8/Endpoint_AVR8.h **** 
 373:lib/lufa/LUFA/Drivers/USB/Core/AVR8/../AVR8/../AVR8/Endpoint_AVR8.h **** 			/** Returns a mask indicating which INTERRUPT type endpoints have interrupted - i.e. their
 374:lib/lufa/LUFA/Drivers/USB/Core/AVR8/../AVR8/../AVR8/Endpoint_AVR8.h **** 			 *  interrupt duration has elapsed. Which endpoints have interrupted can be determined by
 375:lib/lufa/LUFA/Drivers/USB/Core/AVR8/../AVR8/../AVR8/Endpoint_AVR8.h **** 			 *  masking the return value against <tt>(1 << <i>{Endpoint Number}</i>)</tt>.
 376:lib/lufa/LUFA/Drivers/USB/Core/AVR8/../AVR8/../AVR8/Endpoint_AVR8.h **** 			 *
 377:lib/lufa/LUFA/Drivers/USB/Core/AVR8/../AVR8/../AVR8/Endpoint_AVR8.h **** 			 *  \return Mask whose bits indicate which endpoints have interrupted.
 378:lib/lufa/LUFA/Drivers/USB/Core/AVR8/../AVR8/../AVR8/Endpoint_AVR8.h **** 			 */
 379:lib/lufa/LUFA/Drivers/USB/Core/AVR8/../AVR8/../AVR8/Endpoint_AVR8.h **** 			static inline uint8_t Endpoint_GetEndpointInterrupts(void) ATTR_WARN_UNUSED_RESULT ATTR_ALWAYS_I
 380:lib/lufa/LUFA/Drivers/USB/Core/AVR8/../AVR8/../AVR8/Endpoint_AVR8.h **** 			static inline uint8_t Endpoint_GetEndpointInterrupts(void)
 381:lib/lufa/LUFA/Drivers/USB/Core/AVR8/../AVR8/../AVR8/Endpoint_AVR8.h **** 			{
 382:lib/lufa/LUFA/Drivers/USB/Core/AVR8/../AVR8/../AVR8/Endpoint_AVR8.h **** 				return UEINT;
 383:lib/lufa/LUFA/Drivers/USB/Core/AVR8/../AVR8/../AVR8/Endpoint_AVR8.h **** 			}
 384:lib/lufa/LUFA/Drivers/USB/Core/AVR8/../AVR8/../AVR8/Endpoint_AVR8.h **** 
 385:lib/lufa/LUFA/Drivers/USB/Core/AVR8/../AVR8/../AVR8/Endpoint_AVR8.h **** 			/** Determines if the specified endpoint number has interrupted (valid only for INTERRUPT type
 386:lib/lufa/LUFA/Drivers/USB/Core/AVR8/../AVR8/../AVR8/Endpoint_AVR8.h **** 			 *  endpoints).
 387:lib/lufa/LUFA/Drivers/USB/Core/AVR8/../AVR8/../AVR8/Endpoint_AVR8.h **** 			 *
 388:lib/lufa/LUFA/Drivers/USB/Core/AVR8/../AVR8/../AVR8/Endpoint_AVR8.h **** 			 *  \param[in] Address  Address of the endpoint whose interrupt flag should be tested.
 389:lib/lufa/LUFA/Drivers/USB/Core/AVR8/../AVR8/../AVR8/Endpoint_AVR8.h **** 			 *
 390:lib/lufa/LUFA/Drivers/USB/Core/AVR8/../AVR8/../AVR8/Endpoint_AVR8.h **** 			 *  \return Boolean \c true if the specified endpoint has interrupted, \c false otherwise.
 391:lib/lufa/LUFA/Drivers/USB/Core/AVR8/../AVR8/../AVR8/Endpoint_AVR8.h **** 			 */
 392:lib/lufa/LUFA/Drivers/USB/Core/AVR8/../AVR8/../AVR8/Endpoint_AVR8.h **** 			static inline bool Endpoint_HasEndpointInterrupted(const uint8_t Address) ATTR_WARN_UNUSED_RESUL
 393:lib/lufa/LUFA/Drivers/USB/Core/AVR8/../AVR8/../AVR8/Endpoint_AVR8.h **** 			static inline bool Endpoint_HasEndpointInterrupted(const uint8_t Address)
 394:lib/lufa/LUFA/Drivers/USB/Core/AVR8/../AVR8/../AVR8/Endpoint_AVR8.h **** 			{
 395:lib/lufa/LUFA/Drivers/USB/Core/AVR8/../AVR8/../AVR8/Endpoint_AVR8.h **** 				return ((Endpoint_GetEndpointInterrupts() & (1 << (Address & ENDPOINT_EPNUM_MASK))) ? true : fa
 396:lib/lufa/LUFA/Drivers/USB/Core/AVR8/../AVR8/../AVR8/Endpoint_AVR8.h **** 			}
 397:lib/lufa/LUFA/Drivers/USB/Core/AVR8/../AVR8/../AVR8/Endpoint_AVR8.h **** 
 398:lib/lufa/LUFA/Drivers/USB/Core/AVR8/../AVR8/../AVR8/Endpoint_AVR8.h **** 			/** Determines if the selected IN endpoint is ready for a new packet to be sent to the host.
 399:lib/lufa/LUFA/Drivers/USB/Core/AVR8/../AVR8/../AVR8/Endpoint_AVR8.h **** 			 *
 400:lib/lufa/LUFA/Drivers/USB/Core/AVR8/../AVR8/../AVR8/Endpoint_AVR8.h **** 			 *  \ingroup Group_EndpointPacketManagement_AVR8
 401:lib/lufa/LUFA/Drivers/USB/Core/AVR8/../AVR8/../AVR8/Endpoint_AVR8.h **** 			 *
 402:lib/lufa/LUFA/Drivers/USB/Core/AVR8/../AVR8/../AVR8/Endpoint_AVR8.h **** 			 *  \return Boolean \c true if the current endpoint is ready for an IN packet, \c false otherwis
 403:lib/lufa/LUFA/Drivers/USB/Core/AVR8/../AVR8/../AVR8/Endpoint_AVR8.h **** 			 */
 404:lib/lufa/LUFA/Drivers/USB/Core/AVR8/../AVR8/../AVR8/Endpoint_AVR8.h **** 			static inline bool Endpoint_IsINReady(void) ATTR_WARN_UNUSED_RESULT ATTR_ALWAYS_INLINE;
 405:lib/lufa/LUFA/Drivers/USB/Core/AVR8/../AVR8/../AVR8/Endpoint_AVR8.h **** 			static inline bool Endpoint_IsINReady(void)
 406:lib/lufa/LUFA/Drivers/USB/Core/AVR8/../AVR8/../AVR8/Endpoint_AVR8.h **** 			{
 407:lib/lufa/LUFA/Drivers/USB/Core/AVR8/../AVR8/../AVR8/Endpoint_AVR8.h **** 				return ((UEINTX & (1 << TXINI)) ? true : false);
 408:lib/lufa/LUFA/Drivers/USB/Core/AVR8/../AVR8/../AVR8/Endpoint_AVR8.h **** 			}
 409:lib/lufa/LUFA/Drivers/USB/Core/AVR8/../AVR8/../AVR8/Endpoint_AVR8.h **** 
 410:lib/lufa/LUFA/Drivers/USB/Core/AVR8/../AVR8/../AVR8/Endpoint_AVR8.h **** 			/** Determines if the selected OUT endpoint has received new packet from the host.
 411:lib/lufa/LUFA/Drivers/USB/Core/AVR8/../AVR8/../AVR8/Endpoint_AVR8.h **** 			 *
 412:lib/lufa/LUFA/Drivers/USB/Core/AVR8/../AVR8/../AVR8/Endpoint_AVR8.h **** 			 *  \ingroup Group_EndpointPacketManagement_AVR8
 413:lib/lufa/LUFA/Drivers/USB/Core/AVR8/../AVR8/../AVR8/Endpoint_AVR8.h **** 			 *
 414:lib/lufa/LUFA/Drivers/USB/Core/AVR8/../AVR8/../AVR8/Endpoint_AVR8.h **** 			 *  \return Boolean \c true if current endpoint is has received an OUT packet, \c false otherwis
 415:lib/lufa/LUFA/Drivers/USB/Core/AVR8/../AVR8/../AVR8/Endpoint_AVR8.h **** 			 */
 416:lib/lufa/LUFA/Drivers/USB/Core/AVR8/../AVR8/../AVR8/Endpoint_AVR8.h **** 			static inline bool Endpoint_IsOUTReceived(void) ATTR_WARN_UNUSED_RESULT ATTR_ALWAYS_INLINE;
 417:lib/lufa/LUFA/Drivers/USB/Core/AVR8/../AVR8/../AVR8/Endpoint_AVR8.h **** 			static inline bool Endpoint_IsOUTReceived(void)
 418:lib/lufa/LUFA/Drivers/USB/Core/AVR8/../AVR8/../AVR8/Endpoint_AVR8.h **** 			{
 419:lib/lufa/LUFA/Drivers/USB/Core/AVR8/../AVR8/../AVR8/Endpoint_AVR8.h **** 				return ((UEINTX & (1 << RXOUTI)) ? true : false);
 420:lib/lufa/LUFA/Drivers/USB/Core/AVR8/../AVR8/../AVR8/Endpoint_AVR8.h **** 			}
 421:lib/lufa/LUFA/Drivers/USB/Core/AVR8/../AVR8/../AVR8/Endpoint_AVR8.h **** 
 422:lib/lufa/LUFA/Drivers/USB/Core/AVR8/../AVR8/../AVR8/Endpoint_AVR8.h **** 			/** Determines if the current CONTROL type endpoint has received a SETUP packet.
 423:lib/lufa/LUFA/Drivers/USB/Core/AVR8/../AVR8/../AVR8/Endpoint_AVR8.h **** 			 *
 424:lib/lufa/LUFA/Drivers/USB/Core/AVR8/../AVR8/../AVR8/Endpoint_AVR8.h **** 			 *  \ingroup Group_EndpointPacketManagement_AVR8
 425:lib/lufa/LUFA/Drivers/USB/Core/AVR8/../AVR8/../AVR8/Endpoint_AVR8.h **** 			 *
 426:lib/lufa/LUFA/Drivers/USB/Core/AVR8/../AVR8/../AVR8/Endpoint_AVR8.h **** 			 *  \return Boolean \c true if the selected endpoint has received a SETUP packet, \c false other
 427:lib/lufa/LUFA/Drivers/USB/Core/AVR8/../AVR8/../AVR8/Endpoint_AVR8.h **** 			 */
 428:lib/lufa/LUFA/Drivers/USB/Core/AVR8/../AVR8/../AVR8/Endpoint_AVR8.h **** 			static inline bool Endpoint_IsSETUPReceived(void) ATTR_WARN_UNUSED_RESULT ATTR_ALWAYS_INLINE;
 429:lib/lufa/LUFA/Drivers/USB/Core/AVR8/../AVR8/../AVR8/Endpoint_AVR8.h **** 			static inline bool Endpoint_IsSETUPReceived(void)
 430:lib/lufa/LUFA/Drivers/USB/Core/AVR8/../AVR8/../AVR8/Endpoint_AVR8.h **** 			{
 431:lib/lufa/LUFA/Drivers/USB/Core/AVR8/../AVR8/../AVR8/Endpoint_AVR8.h **** 				return ((UEINTX & (1 << RXSTPI)) ? true : false);
 432:lib/lufa/LUFA/Drivers/USB/Core/AVR8/../AVR8/../AVR8/Endpoint_AVR8.h **** 			}
 433:lib/lufa/LUFA/Drivers/USB/Core/AVR8/../AVR8/../AVR8/Endpoint_AVR8.h **** 
 434:lib/lufa/LUFA/Drivers/USB/Core/AVR8/../AVR8/../AVR8/Endpoint_AVR8.h **** 			/** Clears a received SETUP packet on the currently selected CONTROL type endpoint, freeing up t
 435:lib/lufa/LUFA/Drivers/USB/Core/AVR8/../AVR8/../AVR8/Endpoint_AVR8.h **** 			 *  endpoint for the next packet.
 436:lib/lufa/LUFA/Drivers/USB/Core/AVR8/../AVR8/../AVR8/Endpoint_AVR8.h **** 			 *
 437:lib/lufa/LUFA/Drivers/USB/Core/AVR8/../AVR8/../AVR8/Endpoint_AVR8.h **** 			 *  \ingroup Group_EndpointPacketManagement_AVR8
 438:lib/lufa/LUFA/Drivers/USB/Core/AVR8/../AVR8/../AVR8/Endpoint_AVR8.h **** 			 *
 439:lib/lufa/LUFA/Drivers/USB/Core/AVR8/../AVR8/../AVR8/Endpoint_AVR8.h **** 			 *  \note This is not applicable for non CONTROL type endpoints.
 440:lib/lufa/LUFA/Drivers/USB/Core/AVR8/../AVR8/../AVR8/Endpoint_AVR8.h **** 			 */
 441:lib/lufa/LUFA/Drivers/USB/Core/AVR8/../AVR8/../AVR8/Endpoint_AVR8.h **** 			static inline void Endpoint_ClearSETUP(void) ATTR_ALWAYS_INLINE;
 442:lib/lufa/LUFA/Drivers/USB/Core/AVR8/../AVR8/../AVR8/Endpoint_AVR8.h **** 			static inline void Endpoint_ClearSETUP(void)
 443:lib/lufa/LUFA/Drivers/USB/Core/AVR8/../AVR8/../AVR8/Endpoint_AVR8.h **** 			{
 444:lib/lufa/LUFA/Drivers/USB/Core/AVR8/../AVR8/../AVR8/Endpoint_AVR8.h **** 				UEINTX &= ~(1 << RXSTPI);
 445:lib/lufa/LUFA/Drivers/USB/Core/AVR8/../AVR8/../AVR8/Endpoint_AVR8.h **** 			}
 446:lib/lufa/LUFA/Drivers/USB/Core/AVR8/../AVR8/../AVR8/Endpoint_AVR8.h **** 
 447:lib/lufa/LUFA/Drivers/USB/Core/AVR8/../AVR8/../AVR8/Endpoint_AVR8.h **** 			/** Sends an IN packet to the host on the currently selected endpoint, freeing up the endpoint f
 448:lib/lufa/LUFA/Drivers/USB/Core/AVR8/../AVR8/../AVR8/Endpoint_AVR8.h **** 			 *  next packet and switching to the alternative endpoint bank if double banked.
 449:lib/lufa/LUFA/Drivers/USB/Core/AVR8/../AVR8/../AVR8/Endpoint_AVR8.h **** 			 *
 450:lib/lufa/LUFA/Drivers/USB/Core/AVR8/../AVR8/../AVR8/Endpoint_AVR8.h **** 			 *  \ingroup Group_EndpointPacketManagement_AVR8
 451:lib/lufa/LUFA/Drivers/USB/Core/AVR8/../AVR8/../AVR8/Endpoint_AVR8.h **** 			 */
 452:lib/lufa/LUFA/Drivers/USB/Core/AVR8/../AVR8/../AVR8/Endpoint_AVR8.h **** 			static inline void Endpoint_ClearIN(void) ATTR_ALWAYS_INLINE;
 453:lib/lufa/LUFA/Drivers/USB/Core/AVR8/../AVR8/../AVR8/Endpoint_AVR8.h **** 			static inline void Endpoint_ClearIN(void)
 454:lib/lufa/LUFA/Drivers/USB/Core/AVR8/../AVR8/../AVR8/Endpoint_AVR8.h **** 			{
 455:lib/lufa/LUFA/Drivers/USB/Core/AVR8/../AVR8/../AVR8/Endpoint_AVR8.h **** 				#if !defined(CONTROL_ONLY_DEVICE)
 456:lib/lufa/LUFA/Drivers/USB/Core/AVR8/../AVR8/../AVR8/Endpoint_AVR8.h **** 					UEINTX &= ~((1 << TXINI) | (1 << FIFOCON));
 457:lib/lufa/LUFA/Drivers/USB/Core/AVR8/../AVR8/../AVR8/Endpoint_AVR8.h **** 				#else
 458:lib/lufa/LUFA/Drivers/USB/Core/AVR8/../AVR8/../AVR8/Endpoint_AVR8.h **** 					UEINTX &= ~(1 << TXINI);
 459:lib/lufa/LUFA/Drivers/USB/Core/AVR8/../AVR8/../AVR8/Endpoint_AVR8.h **** 				#endif
 460:lib/lufa/LUFA/Drivers/USB/Core/AVR8/../AVR8/../AVR8/Endpoint_AVR8.h **** 			}
 461:lib/lufa/LUFA/Drivers/USB/Core/AVR8/../AVR8/../AVR8/Endpoint_AVR8.h **** 
 462:lib/lufa/LUFA/Drivers/USB/Core/AVR8/../AVR8/../AVR8/Endpoint_AVR8.h **** 			/** Acknowledges an OUT packet to the host on the currently selected endpoint, freeing up the en
 463:lib/lufa/LUFA/Drivers/USB/Core/AVR8/../AVR8/../AVR8/Endpoint_AVR8.h **** 			 *  for the next packet and switching to the alternative endpoint bank if double banked.
 464:lib/lufa/LUFA/Drivers/USB/Core/AVR8/../AVR8/../AVR8/Endpoint_AVR8.h **** 			 *
 465:lib/lufa/LUFA/Drivers/USB/Core/AVR8/../AVR8/../AVR8/Endpoint_AVR8.h **** 			 *  \ingroup Group_EndpointPacketManagement_AVR8
 466:lib/lufa/LUFA/Drivers/USB/Core/AVR8/../AVR8/../AVR8/Endpoint_AVR8.h **** 			 */
 467:lib/lufa/LUFA/Drivers/USB/Core/AVR8/../AVR8/../AVR8/Endpoint_AVR8.h **** 			static inline void Endpoint_ClearOUT(void) ATTR_ALWAYS_INLINE;
 468:lib/lufa/LUFA/Drivers/USB/Core/AVR8/../AVR8/../AVR8/Endpoint_AVR8.h **** 			static inline void Endpoint_ClearOUT(void)
 469:lib/lufa/LUFA/Drivers/USB/Core/AVR8/../AVR8/../AVR8/Endpoint_AVR8.h **** 			{
 470:lib/lufa/LUFA/Drivers/USB/Core/AVR8/../AVR8/../AVR8/Endpoint_AVR8.h **** 				#if !defined(CONTROL_ONLY_DEVICE)
 471:lib/lufa/LUFA/Drivers/USB/Core/AVR8/../AVR8/../AVR8/Endpoint_AVR8.h **** 					UEINTX &= ~((1 << RXOUTI) | (1 << FIFOCON));
 472:lib/lufa/LUFA/Drivers/USB/Core/AVR8/../AVR8/../AVR8/Endpoint_AVR8.h **** 				#else
 473:lib/lufa/LUFA/Drivers/USB/Core/AVR8/../AVR8/../AVR8/Endpoint_AVR8.h **** 					UEINTX &= ~(1 << RXOUTI);
 474:lib/lufa/LUFA/Drivers/USB/Core/AVR8/../AVR8/../AVR8/Endpoint_AVR8.h **** 				#endif
 475:lib/lufa/LUFA/Drivers/USB/Core/AVR8/../AVR8/../AVR8/Endpoint_AVR8.h **** 			}
 476:lib/lufa/LUFA/Drivers/USB/Core/AVR8/../AVR8/../AVR8/Endpoint_AVR8.h **** 
 477:lib/lufa/LUFA/Drivers/USB/Core/AVR8/../AVR8/../AVR8/Endpoint_AVR8.h **** 			/** Stalls the current endpoint, indicating to the host that a logical problem occurred with the
 478:lib/lufa/LUFA/Drivers/USB/Core/AVR8/../AVR8/../AVR8/Endpoint_AVR8.h **** 			 *  indicated endpoint and that the current transfer sequence should be aborted. This provides a
 479:lib/lufa/LUFA/Drivers/USB/Core/AVR8/../AVR8/../AVR8/Endpoint_AVR8.h **** 			 *  way for devices to indicate invalid commands to the host so that the current transfer can be
 480:lib/lufa/LUFA/Drivers/USB/Core/AVR8/../AVR8/../AVR8/Endpoint_AVR8.h **** 			 *  aborted and the host can begin its own recovery sequence.
 481:lib/lufa/LUFA/Drivers/USB/Core/AVR8/../AVR8/../AVR8/Endpoint_AVR8.h **** 			 *
 482:lib/lufa/LUFA/Drivers/USB/Core/AVR8/../AVR8/../AVR8/Endpoint_AVR8.h **** 			 *  The currently selected endpoint remains stalled until either the \ref Endpoint_ClearStall() 
 483:lib/lufa/LUFA/Drivers/USB/Core/AVR8/../AVR8/../AVR8/Endpoint_AVR8.h **** 			 *  is called, or the host issues a CLEAR FEATURE request to the device for the currently select
 484:lib/lufa/LUFA/Drivers/USB/Core/AVR8/../AVR8/../AVR8/Endpoint_AVR8.h **** 			 *  endpoint.
 485:lib/lufa/LUFA/Drivers/USB/Core/AVR8/../AVR8/../AVR8/Endpoint_AVR8.h **** 			 *
 486:lib/lufa/LUFA/Drivers/USB/Core/AVR8/../AVR8/../AVR8/Endpoint_AVR8.h **** 			 *  \ingroup Group_EndpointPacketManagement_AVR8
 487:lib/lufa/LUFA/Drivers/USB/Core/AVR8/../AVR8/../AVR8/Endpoint_AVR8.h **** 			 */
 488:lib/lufa/LUFA/Drivers/USB/Core/AVR8/../AVR8/../AVR8/Endpoint_AVR8.h **** 			static inline void Endpoint_StallTransaction(void) ATTR_ALWAYS_INLINE;
 489:lib/lufa/LUFA/Drivers/USB/Core/AVR8/../AVR8/../AVR8/Endpoint_AVR8.h **** 			static inline void Endpoint_StallTransaction(void)
 490:lib/lufa/LUFA/Drivers/USB/Core/AVR8/../AVR8/../AVR8/Endpoint_AVR8.h **** 			{
 491:lib/lufa/LUFA/Drivers/USB/Core/AVR8/../AVR8/../AVR8/Endpoint_AVR8.h **** 				UECONX |= (1 << STALLRQ);
 492:lib/lufa/LUFA/Drivers/USB/Core/AVR8/../AVR8/../AVR8/Endpoint_AVR8.h **** 			}
 493:lib/lufa/LUFA/Drivers/USB/Core/AVR8/../AVR8/../AVR8/Endpoint_AVR8.h **** 
 494:lib/lufa/LUFA/Drivers/USB/Core/AVR8/../AVR8/../AVR8/Endpoint_AVR8.h **** 			/** Clears the STALL condition on the currently selected endpoint.
 495:lib/lufa/LUFA/Drivers/USB/Core/AVR8/../AVR8/../AVR8/Endpoint_AVR8.h **** 			 *
 496:lib/lufa/LUFA/Drivers/USB/Core/AVR8/../AVR8/../AVR8/Endpoint_AVR8.h **** 			 *  \ingroup Group_EndpointPacketManagement_AVR8
 497:lib/lufa/LUFA/Drivers/USB/Core/AVR8/../AVR8/../AVR8/Endpoint_AVR8.h **** 			 */
 498:lib/lufa/LUFA/Drivers/USB/Core/AVR8/../AVR8/../AVR8/Endpoint_AVR8.h **** 			static inline void Endpoint_ClearStall(void) ATTR_ALWAYS_INLINE;
 499:lib/lufa/LUFA/Drivers/USB/Core/AVR8/../AVR8/../AVR8/Endpoint_AVR8.h **** 			static inline void Endpoint_ClearStall(void)
 500:lib/lufa/LUFA/Drivers/USB/Core/AVR8/../AVR8/../AVR8/Endpoint_AVR8.h **** 			{
 501:lib/lufa/LUFA/Drivers/USB/Core/AVR8/../AVR8/../AVR8/Endpoint_AVR8.h **** 				UECONX |= (1 << STALLRQC);
 502:lib/lufa/LUFA/Drivers/USB/Core/AVR8/../AVR8/../AVR8/Endpoint_AVR8.h **** 			}
 503:lib/lufa/LUFA/Drivers/USB/Core/AVR8/../AVR8/../AVR8/Endpoint_AVR8.h **** 
 504:lib/lufa/LUFA/Drivers/USB/Core/AVR8/../AVR8/../AVR8/Endpoint_AVR8.h **** 			/** Determines if the currently selected endpoint is stalled, \c false otherwise.
 505:lib/lufa/LUFA/Drivers/USB/Core/AVR8/../AVR8/../AVR8/Endpoint_AVR8.h **** 			 *
 506:lib/lufa/LUFA/Drivers/USB/Core/AVR8/../AVR8/../AVR8/Endpoint_AVR8.h **** 			 *  \ingroup Group_EndpointPacketManagement_AVR8
 507:lib/lufa/LUFA/Drivers/USB/Core/AVR8/../AVR8/../AVR8/Endpoint_AVR8.h **** 			 *
 508:lib/lufa/LUFA/Drivers/USB/Core/AVR8/../AVR8/../AVR8/Endpoint_AVR8.h **** 			 *  \return Boolean \c true if the currently selected endpoint is stalled, \c false otherwise.
 509:lib/lufa/LUFA/Drivers/USB/Core/AVR8/../AVR8/../AVR8/Endpoint_AVR8.h **** 			 */
 510:lib/lufa/LUFA/Drivers/USB/Core/AVR8/../AVR8/../AVR8/Endpoint_AVR8.h **** 			static inline bool Endpoint_IsStalled(void) ATTR_WARN_UNUSED_RESULT ATTR_ALWAYS_INLINE;
 511:lib/lufa/LUFA/Drivers/USB/Core/AVR8/../AVR8/../AVR8/Endpoint_AVR8.h **** 			static inline bool Endpoint_IsStalled(void)
 512:lib/lufa/LUFA/Drivers/USB/Core/AVR8/../AVR8/../AVR8/Endpoint_AVR8.h **** 			{
 513:lib/lufa/LUFA/Drivers/USB/Core/AVR8/../AVR8/../AVR8/Endpoint_AVR8.h **** 				return ((UECONX & (1 << STALLRQ)) ? true : false);
 514:lib/lufa/LUFA/Drivers/USB/Core/AVR8/../AVR8/../AVR8/Endpoint_AVR8.h **** 			}
 515:lib/lufa/LUFA/Drivers/USB/Core/AVR8/../AVR8/../AVR8/Endpoint_AVR8.h **** 
 516:lib/lufa/LUFA/Drivers/USB/Core/AVR8/../AVR8/../AVR8/Endpoint_AVR8.h **** 			/** Resets the data toggle of the currently selected endpoint. */
 517:lib/lufa/LUFA/Drivers/USB/Core/AVR8/../AVR8/../AVR8/Endpoint_AVR8.h **** 			static inline void Endpoint_ResetDataToggle(void) ATTR_ALWAYS_INLINE;
 518:lib/lufa/LUFA/Drivers/USB/Core/AVR8/../AVR8/../AVR8/Endpoint_AVR8.h **** 			static inline void Endpoint_ResetDataToggle(void)
 519:lib/lufa/LUFA/Drivers/USB/Core/AVR8/../AVR8/../AVR8/Endpoint_AVR8.h **** 			{
 520:lib/lufa/LUFA/Drivers/USB/Core/AVR8/../AVR8/../AVR8/Endpoint_AVR8.h **** 				UECONX |= (1 << RSTDT);
 521:lib/lufa/LUFA/Drivers/USB/Core/AVR8/../AVR8/../AVR8/Endpoint_AVR8.h **** 			}
 522:lib/lufa/LUFA/Drivers/USB/Core/AVR8/../AVR8/../AVR8/Endpoint_AVR8.h **** 
 523:lib/lufa/LUFA/Drivers/USB/Core/AVR8/../AVR8/../AVR8/Endpoint_AVR8.h **** 			/** Sets the direction of the currently selected endpoint.
 524:lib/lufa/LUFA/Drivers/USB/Core/AVR8/../AVR8/../AVR8/Endpoint_AVR8.h **** 			 *
 525:lib/lufa/LUFA/Drivers/USB/Core/AVR8/../AVR8/../AVR8/Endpoint_AVR8.h **** 			 *  \param[in] DirectionMask  New endpoint direction, as a \c ENDPOINT_DIR_* mask.
 526:lib/lufa/LUFA/Drivers/USB/Core/AVR8/../AVR8/../AVR8/Endpoint_AVR8.h **** 			 */
 527:lib/lufa/LUFA/Drivers/USB/Core/AVR8/../AVR8/../AVR8/Endpoint_AVR8.h **** 			static inline void Endpoint_SetEndpointDirection(const uint8_t DirectionMask) ATTR_ALWAYS_INLINE
 528:lib/lufa/LUFA/Drivers/USB/Core/AVR8/../AVR8/../AVR8/Endpoint_AVR8.h **** 			static inline void Endpoint_SetEndpointDirection(const uint8_t DirectionMask)
 529:lib/lufa/LUFA/Drivers/USB/Core/AVR8/../AVR8/../AVR8/Endpoint_AVR8.h **** 			{
 530:lib/lufa/LUFA/Drivers/USB/Core/AVR8/../AVR8/../AVR8/Endpoint_AVR8.h **** 				UECFG0X = ((UECFG0X & ~(1 << EPDIR)) | (DirectionMask ? (1 << EPDIR) : 0));
 531:lib/lufa/LUFA/Drivers/USB/Core/AVR8/../AVR8/../AVR8/Endpoint_AVR8.h **** 			}
 532:lib/lufa/LUFA/Drivers/USB/Core/AVR8/../AVR8/../AVR8/Endpoint_AVR8.h **** 
 533:lib/lufa/LUFA/Drivers/USB/Core/AVR8/../AVR8/../AVR8/Endpoint_AVR8.h **** 			/** Reads one byte from the currently selected endpoint's bank, for OUT direction endpoints.
 534:lib/lufa/LUFA/Drivers/USB/Core/AVR8/../AVR8/../AVR8/Endpoint_AVR8.h **** 			 *
 535:lib/lufa/LUFA/Drivers/USB/Core/AVR8/../AVR8/../AVR8/Endpoint_AVR8.h **** 			 *  \ingroup Group_EndpointPrimitiveRW_AVR8
 536:lib/lufa/LUFA/Drivers/USB/Core/AVR8/../AVR8/../AVR8/Endpoint_AVR8.h **** 			 *
 537:lib/lufa/LUFA/Drivers/USB/Core/AVR8/../AVR8/../AVR8/Endpoint_AVR8.h **** 			 *  \return Next byte in the currently selected endpoint's FIFO buffer.
 538:lib/lufa/LUFA/Drivers/USB/Core/AVR8/../AVR8/../AVR8/Endpoint_AVR8.h **** 			 */
 539:lib/lufa/LUFA/Drivers/USB/Core/AVR8/../AVR8/../AVR8/Endpoint_AVR8.h **** 			static inline uint8_t Endpoint_Read_8(void) ATTR_WARN_UNUSED_RESULT ATTR_ALWAYS_INLINE;
 540:lib/lufa/LUFA/Drivers/USB/Core/AVR8/../AVR8/../AVR8/Endpoint_AVR8.h **** 			static inline uint8_t Endpoint_Read_8(void)
 541:lib/lufa/LUFA/Drivers/USB/Core/AVR8/../AVR8/../AVR8/Endpoint_AVR8.h **** 			{
 542:lib/lufa/LUFA/Drivers/USB/Core/AVR8/../AVR8/../AVR8/Endpoint_AVR8.h **** 				return UEDATX;
 543:lib/lufa/LUFA/Drivers/USB/Core/AVR8/../AVR8/../AVR8/Endpoint_AVR8.h **** 			}
 544:lib/lufa/LUFA/Drivers/USB/Core/AVR8/../AVR8/../AVR8/Endpoint_AVR8.h **** 
 545:lib/lufa/LUFA/Drivers/USB/Core/AVR8/../AVR8/../AVR8/Endpoint_AVR8.h **** 			/** Writes one byte to the currently selected endpoint's bank, for IN direction endpoints.
 546:lib/lufa/LUFA/Drivers/USB/Core/AVR8/../AVR8/../AVR8/Endpoint_AVR8.h **** 			 *
 547:lib/lufa/LUFA/Drivers/USB/Core/AVR8/../AVR8/../AVR8/Endpoint_AVR8.h **** 			 *  \ingroup Group_EndpointPrimitiveRW_AVR8
 548:lib/lufa/LUFA/Drivers/USB/Core/AVR8/../AVR8/../AVR8/Endpoint_AVR8.h **** 			 *
 549:lib/lufa/LUFA/Drivers/USB/Core/AVR8/../AVR8/../AVR8/Endpoint_AVR8.h **** 			 *  \param[in] Data  Data to write into the the currently selected endpoint's FIFO buffer.
 550:lib/lufa/LUFA/Drivers/USB/Core/AVR8/../AVR8/../AVR8/Endpoint_AVR8.h **** 			 */
 551:lib/lufa/LUFA/Drivers/USB/Core/AVR8/../AVR8/../AVR8/Endpoint_AVR8.h **** 			static inline void Endpoint_Write_8(const uint8_t Data) ATTR_ALWAYS_INLINE;
 552:lib/lufa/LUFA/Drivers/USB/Core/AVR8/../AVR8/../AVR8/Endpoint_AVR8.h **** 			static inline void Endpoint_Write_8(const uint8_t Data)
 553:lib/lufa/LUFA/Drivers/USB/Core/AVR8/../AVR8/../AVR8/Endpoint_AVR8.h **** 			{
 554:lib/lufa/LUFA/Drivers/USB/Core/AVR8/../AVR8/../AVR8/Endpoint_AVR8.h **** 				UEDATX = Data;
 555:lib/lufa/LUFA/Drivers/USB/Core/AVR8/../AVR8/../AVR8/Endpoint_AVR8.h **** 			}
 556:lib/lufa/LUFA/Drivers/USB/Core/AVR8/../AVR8/../AVR8/Endpoint_AVR8.h **** 
 557:lib/lufa/LUFA/Drivers/USB/Core/AVR8/../AVR8/../AVR8/Endpoint_AVR8.h **** 			/** Discards one byte from the currently selected endpoint's bank, for OUT direction endpoints.
 558:lib/lufa/LUFA/Drivers/USB/Core/AVR8/../AVR8/../AVR8/Endpoint_AVR8.h **** 			 *
 559:lib/lufa/LUFA/Drivers/USB/Core/AVR8/../AVR8/../AVR8/Endpoint_AVR8.h **** 			 *  \ingroup Group_EndpointPrimitiveRW_AVR8
 560:lib/lufa/LUFA/Drivers/USB/Core/AVR8/../AVR8/../AVR8/Endpoint_AVR8.h **** 			 */
 561:lib/lufa/LUFA/Drivers/USB/Core/AVR8/../AVR8/../AVR8/Endpoint_AVR8.h **** 			static inline void Endpoint_Discard_8(void) ATTR_ALWAYS_INLINE;
 562:lib/lufa/LUFA/Drivers/USB/Core/AVR8/../AVR8/../AVR8/Endpoint_AVR8.h **** 			static inline void Endpoint_Discard_8(void)
 563:lib/lufa/LUFA/Drivers/USB/Core/AVR8/../AVR8/../AVR8/Endpoint_AVR8.h **** 			{
 564:lib/lufa/LUFA/Drivers/USB/Core/AVR8/../AVR8/../AVR8/Endpoint_AVR8.h **** 				uint8_t Dummy;
 565:lib/lufa/LUFA/Drivers/USB/Core/AVR8/../AVR8/../AVR8/Endpoint_AVR8.h **** 
 566:lib/lufa/LUFA/Drivers/USB/Core/AVR8/../AVR8/../AVR8/Endpoint_AVR8.h **** 				Dummy = UEDATX;
 102               		.loc 2 566 0
 103 004a 8091 F100 		lds r24,241
 104               	.LBE269:
 105               	.LBE268:
  69:lib/lufa/LUFA/Drivers/USB/Core/AVR8/EndpointStream_AVR8.c **** 		}
 106               		.loc 1 69 0
 107 004e 2196      		adiw r28,1
 108               	.LVL11:
 109               	.L4:
  51:lib/lufa/LUFA/Drivers/USB/Core/AVR8/EndpointStream_AVR8.c **** 	{
 110               		.loc 1 51 0
 111 0050 CC15      		cp r28,r12
 112 0052 DD05      		cpc r29,r13
 113 0054 00F4      		brsh .L1
 114               	.LBB270:
 115               	.LBB271:
 360:lib/lufa/LUFA/Drivers/USB/Core/AVR8/../AVR8/../AVR8/Endpoint_AVR8.h **** 			}
 116               		.loc 2 360 0
 117 0056 8091 E800 		lds r24,232
 118               	.LBE271:
 119               	.LBE270:
  53:lib/lufa/LUFA/Drivers/USB/Core/AVR8/EndpointStream_AVR8.c **** 		{
 120               		.loc 1 53 0
 121 005a 85FD      		sbrc r24,5
 122 005c 00C0      		rjmp .L5
 123               	.LBB272:
 124               	.LBB273:
 471:lib/lufa/LUFA/Drivers/USB/Core/AVR8/../AVR8/../AVR8/Endpoint_AVR8.h **** 				#else
 125               		.loc 2 471 0
 126 005e 8091 E800 		lds r24,232
 127 0062 8B77      		andi r24,lo8(123)
 128 0064 8093 E800 		sts 232,r24
 129               	.LBE273:
 130               	.LBE272:
  57:lib/lufa/LUFA/Drivers/USB/Core/AVR8/EndpointStream_AVR8.c **** 			{
 131               		.loc 1 57 0
 132 0068 E114      		cp r14,__zero_reg__
 133 006a F104      		cpc r15,__zero_reg__
 134 006c 01F0      		breq .L6
  59:lib/lufa/LUFA/Drivers/USB/Core/AVR8/EndpointStream_AVR8.c **** 				return ENDPOINT_RWSTREAM_IncompleteTransfer;
 135               		.loc 1 59 0
 136 006e F701      		movw r30,r14
 137 0070 D183      		std Z+1,r29
 138 0072 C083      		st Z,r28
  60:lib/lufa/LUFA/Drivers/USB/Core/AVR8/EndpointStream_AVR8.c **** 			}
 139               		.loc 1 60 0
 140 0074 15E0      		ldi r17,lo8(5)
 141 0076 00C0      		rjmp .L1
 142               		.cfi_endproc
 143               	.LFE85:
 145               		.section	.text.Endpoint_Null_Stream,"ax",@progbits
 146               	.global	Endpoint_Null_Stream
 148               	Endpoint_Null_Stream:
 149               	.LFB86:
  75:lib/lufa/LUFA/Drivers/USB/Core/AVR8/EndpointStream_AVR8.c **** 
  76:lib/lufa/LUFA/Drivers/USB/Core/AVR8/EndpointStream_AVR8.c **** uint8_t Endpoint_Null_Stream(uint16_t Length,
  77:lib/lufa/LUFA/Drivers/USB/Core/AVR8/EndpointStream_AVR8.c ****                              uint16_t* const BytesProcessed)
  78:lib/lufa/LUFA/Drivers/USB/Core/AVR8/EndpointStream_AVR8.c **** {
 150               		.loc 1 78 0
 151               		.cfi_startproc
 152               	.LVL12:
 153 0000 CF92      		push r12
 154               	.LCFI7:
 155               		.cfi_def_cfa_offset 3
 156               		.cfi_offset 12, -2
 157 0002 DF92      		push r13
 158               	.LCFI8:
 159               		.cfi_def_cfa_offset 4
 160               		.cfi_offset 13, -3
 161 0004 EF92      		push r14
 162               	.LCFI9:
 163               		.cfi_def_cfa_offset 5
 164               		.cfi_offset 14, -4
 165 0006 FF92      		push r15
 166               	.LCFI10:
 167               		.cfi_def_cfa_offset 6
 168               		.cfi_offset 15, -5
 169 0008 1F93      		push r17
 170               	.LCFI11:
 171               		.cfi_def_cfa_offset 7
 172               		.cfi_offset 17, -6
 173 000a CF93      		push r28
 174               	.LCFI12:
 175               		.cfi_def_cfa_offset 8
 176               		.cfi_offset 28, -7
 177 000c DF93      		push r29
 178               	.LCFI13:
 179               		.cfi_def_cfa_offset 9
 180               		.cfi_offset 29, -8
 181               	/* prologue: function */
 182               	/* frame size = 0 */
 183               	/* stack size = 7 */
 184               	.L__stack_usage = 7
 185 000e 6C01      		movw r12,r24
 186 0010 7B01      		movw r14,r22
  79:lib/lufa/LUFA/Drivers/USB/Core/AVR8/EndpointStream_AVR8.c **** 	uint8_t  ErrorCode;
  80:lib/lufa/LUFA/Drivers/USB/Core/AVR8/EndpointStream_AVR8.c **** 	uint16_t BytesInTransfer = BytesProcessed ? *BytesProcessed : 0;
 187               		.loc 1 80 0
 188 0012 D0E0      		ldi r29,0
 189 0014 C0E0      		ldi r28,0
 190 0016 6115      		cp r22,__zero_reg__
 191 0018 7105      		cpc r23,__zero_reg__
 192 001a 01F0      		breq .L12
 193               		.loc 1 80 0 is_stmt 0 discriminator 1
 194 001c FB01      		movw r30,r22
 195 001e C081      		ld r28,Z
 196 0020 D181      		ldd r29,Z+1
 197               	.LVL13:
 198               	.L12:
  81:lib/lufa/LUFA/Drivers/USB/Core/AVR8/EndpointStream_AVR8.c **** 
  82:lib/lufa/LUFA/Drivers/USB/Core/AVR8/EndpointStream_AVR8.c **** 	if ((ErrorCode = Endpoint_WaitUntilReady()))
 199               		.loc 1 82 0 is_stmt 1 discriminator 4
 200 0022 0E94 0000 		call Endpoint_WaitUntilReady
 201               	.LVL14:
 202 0026 182F      		mov r17,r24
 203               	.LVL15:
 204 0028 8823      		tst r24
 205 002a 01F0      		breq .L14
 206               	.LVL16:
 207               	.L11:
  83:lib/lufa/LUFA/Drivers/USB/Core/AVR8/EndpointStream_AVR8.c **** 	  return ErrorCode;
  84:lib/lufa/LUFA/Drivers/USB/Core/AVR8/EndpointStream_AVR8.c **** 
  85:lib/lufa/LUFA/Drivers/USB/Core/AVR8/EndpointStream_AVR8.c **** 	while (BytesInTransfer < Length)
  86:lib/lufa/LUFA/Drivers/USB/Core/AVR8/EndpointStream_AVR8.c **** 	{
  87:lib/lufa/LUFA/Drivers/USB/Core/AVR8/EndpointStream_AVR8.c **** 		if (!(Endpoint_IsReadWriteAllowed()))
  88:lib/lufa/LUFA/Drivers/USB/Core/AVR8/EndpointStream_AVR8.c **** 		{
  89:lib/lufa/LUFA/Drivers/USB/Core/AVR8/EndpointStream_AVR8.c **** 			Endpoint_ClearIN();
  90:lib/lufa/LUFA/Drivers/USB/Core/AVR8/EndpointStream_AVR8.c **** 
  91:lib/lufa/LUFA/Drivers/USB/Core/AVR8/EndpointStream_AVR8.c **** 			if (BytesProcessed != NULL)
  92:lib/lufa/LUFA/Drivers/USB/Core/AVR8/EndpointStream_AVR8.c **** 			{
  93:lib/lufa/LUFA/Drivers/USB/Core/AVR8/EndpointStream_AVR8.c **** 				*BytesProcessed = BytesInTransfer;
  94:lib/lufa/LUFA/Drivers/USB/Core/AVR8/EndpointStream_AVR8.c **** 				return ENDPOINT_RWSTREAM_IncompleteTransfer;
  95:lib/lufa/LUFA/Drivers/USB/Core/AVR8/EndpointStream_AVR8.c **** 			}
  96:lib/lufa/LUFA/Drivers/USB/Core/AVR8/EndpointStream_AVR8.c **** 
  97:lib/lufa/LUFA/Drivers/USB/Core/AVR8/EndpointStream_AVR8.c **** 			if ((ErrorCode = Endpoint_WaitUntilReady()))
  98:lib/lufa/LUFA/Drivers/USB/Core/AVR8/EndpointStream_AVR8.c **** 			  return ErrorCode;
  99:lib/lufa/LUFA/Drivers/USB/Core/AVR8/EndpointStream_AVR8.c **** 		}
 100:lib/lufa/LUFA/Drivers/USB/Core/AVR8/EndpointStream_AVR8.c **** 		else
 101:lib/lufa/LUFA/Drivers/USB/Core/AVR8/EndpointStream_AVR8.c **** 		{
 102:lib/lufa/LUFA/Drivers/USB/Core/AVR8/EndpointStream_AVR8.c **** 			Endpoint_Write_8(0);
 103:lib/lufa/LUFA/Drivers/USB/Core/AVR8/EndpointStream_AVR8.c **** 			BytesInTransfer++;
 104:lib/lufa/LUFA/Drivers/USB/Core/AVR8/EndpointStream_AVR8.c **** 		}
 105:lib/lufa/LUFA/Drivers/USB/Core/AVR8/EndpointStream_AVR8.c **** 	}
 106:lib/lufa/LUFA/Drivers/USB/Core/AVR8/EndpointStream_AVR8.c **** 
 107:lib/lufa/LUFA/Drivers/USB/Core/AVR8/EndpointStream_AVR8.c **** 	return ENDPOINT_RWSTREAM_NoError;
 108:lib/lufa/LUFA/Drivers/USB/Core/AVR8/EndpointStream_AVR8.c **** }
 208               		.loc 1 108 0
 209 002c 812F      		mov r24,r17
 210               	/* epilogue start */
 211 002e DF91      		pop r29
 212 0030 CF91      		pop r28
 213               	.LVL17:
 214 0032 1F91      		pop r17
 215 0034 FF90      		pop r15
 216 0036 EF90      		pop r14
 217               	.LVL18:
 218 0038 DF90      		pop r13
 219 003a CF90      		pop r12
 220               	.LVL19:
 221 003c 0895      		ret
 222               	.LVL20:
 223               	.L16:
  97:lib/lufa/LUFA/Drivers/USB/Core/AVR8/EndpointStream_AVR8.c **** 			  return ErrorCode;
 224               		.loc 1 97 0
 225 003e 0E94 0000 		call Endpoint_WaitUntilReady
 226               	.LVL21:
 227 0042 8823      		tst r24
 228 0044 01F0      		breq .L14
 229 0046 182F      		mov r17,r24
 230 0048 00C0      		rjmp .L11
 231               	.LVL22:
 232               	.L15:
 233               	.LBB274:
 234               	.LBB275:
 554:lib/lufa/LUFA/Drivers/USB/Core/AVR8/../AVR8/../AVR8/Endpoint_AVR8.h **** 			}
 235               		.loc 2 554 0
 236 004a 1092 F100 		sts 241,__zero_reg__
 237               	.LVL23:
 238               	.LBE275:
 239               	.LBE274:
 103:lib/lufa/LUFA/Drivers/USB/Core/AVR8/EndpointStream_AVR8.c **** 		}
 240               		.loc 1 103 0
 241 004e 2196      		adiw r28,1
 242               	.LVL24:
 243               	.L14:
  85:lib/lufa/LUFA/Drivers/USB/Core/AVR8/EndpointStream_AVR8.c **** 	{
 244               		.loc 1 85 0
 245 0050 CC15      		cp r28,r12
 246 0052 DD05      		cpc r29,r13
 247 0054 00F4      		brsh .L11
 248               	.LBB276:
 249               	.LBB277:
 360:lib/lufa/LUFA/Drivers/USB/Core/AVR8/../AVR8/../AVR8/Endpoint_AVR8.h **** 			}
 250               		.loc 2 360 0
 251 0056 8091 E800 		lds r24,232
 252               	.LBE277:
 253               	.LBE276:
  87:lib/lufa/LUFA/Drivers/USB/Core/AVR8/EndpointStream_AVR8.c **** 		{
 254               		.loc 1 87 0
 255 005a 85FD      		sbrc r24,5
 256 005c 00C0      		rjmp .L15
 257               	.LBB278:
 258               	.LBB279:
 456:lib/lufa/LUFA/Drivers/USB/Core/AVR8/../AVR8/../AVR8/Endpoint_AVR8.h **** 				#else
 259               		.loc 2 456 0
 260 005e 8091 E800 		lds r24,232
 261 0062 8E77      		andi r24,lo8(126)
 262 0064 8093 E800 		sts 232,r24
 263               	.LBE279:
 264               	.LBE278:
  91:lib/lufa/LUFA/Drivers/USB/Core/AVR8/EndpointStream_AVR8.c **** 			{
 265               		.loc 1 91 0
 266 0068 E114      		cp r14,__zero_reg__
 267 006a F104      		cpc r15,__zero_reg__
 268 006c 01F0      		breq .L16
  93:lib/lufa/LUFA/Drivers/USB/Core/AVR8/EndpointStream_AVR8.c **** 				return ENDPOINT_RWSTREAM_IncompleteTransfer;
 269               		.loc 1 93 0
 270 006e F701      		movw r30,r14
 271 0070 D183      		std Z+1,r29
 272 0072 C083      		st Z,r28
  94:lib/lufa/LUFA/Drivers/USB/Core/AVR8/EndpointStream_AVR8.c **** 			}
 273               		.loc 1 94 0
 274 0074 15E0      		ldi r17,lo8(5)
 275 0076 00C0      		rjmp .L11
 276               		.cfi_endproc
 277               	.LFE86:
 279               		.section	.text.Endpoint_Write_Stream_LE,"ax",@progbits
 280               	.global	Endpoint_Write_Stream_LE
 282               	Endpoint_Write_Stream_LE:
 283               	.LFB87:
 284               		.file 3 "lib/lufa/LUFA/Drivers/USB/Core/AVR8/Template/Template_Endpoint_RW.c"
   1:lib/lufa/LUFA/Drivers/USB/Core/AVR8/Template/Template_Endpoint_RW.c **** /*
   2:lib/lufa/LUFA/Drivers/USB/Core/AVR8/Template/Template_Endpoint_RW.c ****              LUFA Library
   3:lib/lufa/LUFA/Drivers/USB/Core/AVR8/Template/Template_Endpoint_RW.c ****      Copyright (C) Dean Camera, 2019.
   4:lib/lufa/LUFA/Drivers/USB/Core/AVR8/Template/Template_Endpoint_RW.c **** 
   5:lib/lufa/LUFA/Drivers/USB/Core/AVR8/Template/Template_Endpoint_RW.c ****   dean [at] fourwalledcubicle [dot] com
   6:lib/lufa/LUFA/Drivers/USB/Core/AVR8/Template/Template_Endpoint_RW.c ****            www.lufa-lib.org
   7:lib/lufa/LUFA/Drivers/USB/Core/AVR8/Template/Template_Endpoint_RW.c **** */
   8:lib/lufa/LUFA/Drivers/USB/Core/AVR8/Template/Template_Endpoint_RW.c **** 
   9:lib/lufa/LUFA/Drivers/USB/Core/AVR8/Template/Template_Endpoint_RW.c **** /*
  10:lib/lufa/LUFA/Drivers/USB/Core/AVR8/Template/Template_Endpoint_RW.c ****   Copyright 2019  Dean Camera (dean [at] fourwalledcubicle [dot] com)
  11:lib/lufa/LUFA/Drivers/USB/Core/AVR8/Template/Template_Endpoint_RW.c **** 
  12:lib/lufa/LUFA/Drivers/USB/Core/AVR8/Template/Template_Endpoint_RW.c ****   Permission to use, copy, modify, distribute, and sell this
  13:lib/lufa/LUFA/Drivers/USB/Core/AVR8/Template/Template_Endpoint_RW.c ****   software and its documentation for any purpose is hereby granted
  14:lib/lufa/LUFA/Drivers/USB/Core/AVR8/Template/Template_Endpoint_RW.c ****   without fee, provided that the above copyright notice appear in
  15:lib/lufa/LUFA/Drivers/USB/Core/AVR8/Template/Template_Endpoint_RW.c ****   all copies and that both that the copyright notice and this
  16:lib/lufa/LUFA/Drivers/USB/Core/AVR8/Template/Template_Endpoint_RW.c ****   permission notice and warranty disclaimer appear in supporting
  17:lib/lufa/LUFA/Drivers/USB/Core/AVR8/Template/Template_Endpoint_RW.c ****   documentation, and that the name of the author not be used in
  18:lib/lufa/LUFA/Drivers/USB/Core/AVR8/Template/Template_Endpoint_RW.c ****   advertising or publicity pertaining to distribution of the
  19:lib/lufa/LUFA/Drivers/USB/Core/AVR8/Template/Template_Endpoint_RW.c ****   software without specific, written prior permission.
  20:lib/lufa/LUFA/Drivers/USB/Core/AVR8/Template/Template_Endpoint_RW.c **** 
  21:lib/lufa/LUFA/Drivers/USB/Core/AVR8/Template/Template_Endpoint_RW.c ****   The author disclaims all warranties with regard to this
  22:lib/lufa/LUFA/Drivers/USB/Core/AVR8/Template/Template_Endpoint_RW.c ****   software, including all implied warranties of merchantability
  23:lib/lufa/LUFA/Drivers/USB/Core/AVR8/Template/Template_Endpoint_RW.c ****   and fitness.  In no event shall the author be liable for any
  24:lib/lufa/LUFA/Drivers/USB/Core/AVR8/Template/Template_Endpoint_RW.c ****   special, indirect or consequential damages or any damages
  25:lib/lufa/LUFA/Drivers/USB/Core/AVR8/Template/Template_Endpoint_RW.c ****   whatsoever resulting from loss of use, data or profits, whether
  26:lib/lufa/LUFA/Drivers/USB/Core/AVR8/Template/Template_Endpoint_RW.c ****   in an action of contract, negligence or other tortious action,
  27:lib/lufa/LUFA/Drivers/USB/Core/AVR8/Template/Template_Endpoint_RW.c ****   arising out of or in connection with the use or performance of
  28:lib/lufa/LUFA/Drivers/USB/Core/AVR8/Template/Template_Endpoint_RW.c ****   this software.
  29:lib/lufa/LUFA/Drivers/USB/Core/AVR8/Template/Template_Endpoint_RW.c **** */
  30:lib/lufa/LUFA/Drivers/USB/Core/AVR8/Template/Template_Endpoint_RW.c **** 
  31:lib/lufa/LUFA/Drivers/USB/Core/AVR8/Template/Template_Endpoint_RW.c **** #if defined(TEMPLATE_FUNC_NAME)
  32:lib/lufa/LUFA/Drivers/USB/Core/AVR8/Template/Template_Endpoint_RW.c **** 
  33:lib/lufa/LUFA/Drivers/USB/Core/AVR8/Template/Template_Endpoint_RW.c **** uint8_t TEMPLATE_FUNC_NAME (TEMPLATE_BUFFER_TYPE const Buffer,
  34:lib/lufa/LUFA/Drivers/USB/Core/AVR8/Template/Template_Endpoint_RW.c ****                             uint16_t Length,
  35:lib/lufa/LUFA/Drivers/USB/Core/AVR8/Template/Template_Endpoint_RW.c ****                             uint16_t* const BytesProcessed)
  36:lib/lufa/LUFA/Drivers/USB/Core/AVR8/Template/Template_Endpoint_RW.c **** {
 285               		.loc 3 36 0
 286               		.cfi_startproc
 287               	.LVL25:
 288 0000 AF92      		push r10
 289               	.LCFI14:
 290               		.cfi_def_cfa_offset 3
 291               		.cfi_offset 10, -2
 292 0002 BF92      		push r11
 293               	.LCFI15:
 294               		.cfi_def_cfa_offset 4
 295               		.cfi_offset 11, -3
 296 0004 CF92      		push r12
 297               	.LCFI16:
 298               		.cfi_def_cfa_offset 5
 299               		.cfi_offset 12, -4
 300 0006 DF92      		push r13
 301               	.LCFI17:
 302               		.cfi_def_cfa_offset 6
 303               		.cfi_offset 13, -5
 304 0008 FF92      		push r15
 305               	.LCFI18:
 306               		.cfi_def_cfa_offset 7
 307               		.cfi_offset 15, -6
 308 000a 0F93      		push r16
 309               	.LCFI19:
 310               		.cfi_def_cfa_offset 8
 311               		.cfi_offset 16, -7
 312 000c 1F93      		push r17
 313               	.LCFI20:
 314               		.cfi_def_cfa_offset 9
 315               		.cfi_offset 17, -8
 316 000e CF93      		push r28
 317               	.LCFI21:
 318               		.cfi_def_cfa_offset 10
 319               		.cfi_offset 28, -9
 320 0010 DF93      		push r29
 321               	.LCFI22:
 322               		.cfi_def_cfa_offset 11
 323               		.cfi_offset 29, -10
 324               	/* prologue: function */
 325               	/* frame size = 0 */
 326               	/* stack size = 9 */
 327               	.L__stack_usage = 9
 328 0012 6C01      		movw r12,r24
 329 0014 EB01      		movw r28,r22
 330 0016 8A01      		movw r16,r20
 331               	.LVL26:
  37:lib/lufa/LUFA/Drivers/USB/Core/AVR8/Template/Template_Endpoint_RW.c **** 	uint8_t* DataStream      = ((uint8_t*)Buffer + TEMPLATE_BUFFER_OFFSET(Length));
  38:lib/lufa/LUFA/Drivers/USB/Core/AVR8/Template/Template_Endpoint_RW.c **** 	uint16_t BytesInTransfer = 0;
  39:lib/lufa/LUFA/Drivers/USB/Core/AVR8/Template/Template_Endpoint_RW.c **** 	uint8_t  ErrorCode;
  40:lib/lufa/LUFA/Drivers/USB/Core/AVR8/Template/Template_Endpoint_RW.c **** 
  41:lib/lufa/LUFA/Drivers/USB/Core/AVR8/Template/Template_Endpoint_RW.c **** 	if ((ErrorCode = Endpoint_WaitUntilReady()))
 332               		.loc 3 41 0
 333 0018 0E94 0000 		call Endpoint_WaitUntilReady
 334               	.LVL27:
 335 001c F82E      		mov r15,r24
 336               	.LVL28:
 337 001e 8111      		cpse r24,__zero_reg__
 338 0020 00C0      		rjmp .L21
  42:lib/lufa/LUFA/Drivers/USB/Core/AVR8/Template/Template_Endpoint_RW.c **** 	  return ErrorCode;
  43:lib/lufa/LUFA/Drivers/USB/Core/AVR8/Template/Template_Endpoint_RW.c **** 
  44:lib/lufa/LUFA/Drivers/USB/Core/AVR8/Template/Template_Endpoint_RW.c **** 	if (BytesProcessed != NULL)
 339               		.loc 3 44 0
 340 0022 0115      		cp r16,__zero_reg__
 341 0024 1105      		cpc r17,__zero_reg__
 342 0026 01F0      		breq .L23
  45:lib/lufa/LUFA/Drivers/USB/Core/AVR8/Template/Template_Endpoint_RW.c **** 	{
  46:lib/lufa/LUFA/Drivers/USB/Core/AVR8/Template/Template_Endpoint_RW.c **** 		Length -= *BytesProcessed;
 343               		.loc 3 46 0
 344 0028 F801      		movw r30,r16
 345 002a 8081      		ld r24,Z
 346 002c 9181      		ldd r25,Z+1
 347 002e C81B      		sub r28,r24
 348 0030 D90B      		sbc r29,r25
 349               	.LVL29:
  47:lib/lufa/LUFA/Drivers/USB/Core/AVR8/Template/Template_Endpoint_RW.c **** 		TEMPLATE_BUFFER_MOVE(DataStream, *BytesProcessed);
 350               		.loc 3 47 0
 351 0032 C80E      		add r12,r24
 352 0034 D91E      		adc r13,r25
 353               	.LVL30:
 354               	.L23:
  36:lib/lufa/LUFA/Drivers/USB/Core/AVR8/Template/Template_Endpoint_RW.c **** 	uint8_t* DataStream      = ((uint8_t*)Buffer + TEMPLATE_BUFFER_OFFSET(Length));
 355               		.loc 3 36 0
 356 0036 B12C      		mov r11,__zero_reg__
 357 0038 A12C      		mov r10,__zero_reg__
 358               	.LVL31:
 359               	.L24:
  48:lib/lufa/LUFA/Drivers/USB/Core/AVR8/Template/Template_Endpoint_RW.c **** 	}
  49:lib/lufa/LUFA/Drivers/USB/Core/AVR8/Template/Template_Endpoint_RW.c **** 
  50:lib/lufa/LUFA/Drivers/USB/Core/AVR8/Template/Template_Endpoint_RW.c **** 	while (Length)
 360               		.loc 3 50 0
 361 003a 2097      		sbiw r28,0
 362 003c 01F0      		breq .L21
 363               	.LBB280:
 364               	.LBB281:
 360:lib/lufa/LUFA/Drivers/USB/Core/AVR8/../AVR8/../AVR8/Endpoint_AVR8.h **** 			}
 365               		.loc 2 360 0
 366 003e 8091 E800 		lds r24,232
 367               	.LBE281:
 368               	.LBE280:
  51:lib/lufa/LUFA/Drivers/USB/Core/AVR8/Template/Template_Endpoint_RW.c **** 	{
  52:lib/lufa/LUFA/Drivers/USB/Core/AVR8/Template/Template_Endpoint_RW.c **** 		if (!(Endpoint_IsReadWriteAllowed()))
 369               		.loc 3 52 0
 370 0042 85FD      		sbrc r24,5
 371 0044 00C0      		rjmp .L25
 372               	.LBB282:
 373               	.LBB283:
 456:lib/lufa/LUFA/Drivers/USB/Core/AVR8/../AVR8/../AVR8/Endpoint_AVR8.h **** 				#else
 374               		.loc 2 456 0
 375 0046 8091 E800 		lds r24,232
 376 004a 8E77      		andi r24,lo8(126)
 377 004c 8093 E800 		sts 232,r24
 378               	.LBE283:
 379               	.LBE282:
  53:lib/lufa/LUFA/Drivers/USB/Core/AVR8/Template/Template_Endpoint_RW.c **** 		{
  54:lib/lufa/LUFA/Drivers/USB/Core/AVR8/Template/Template_Endpoint_RW.c **** 			TEMPLATE_CLEAR_ENDPOINT();
  55:lib/lufa/LUFA/Drivers/USB/Core/AVR8/Template/Template_Endpoint_RW.c **** 
  56:lib/lufa/LUFA/Drivers/USB/Core/AVR8/Template/Template_Endpoint_RW.c **** 			#if !defined(INTERRUPT_CONTROL_ENDPOINT)
  57:lib/lufa/LUFA/Drivers/USB/Core/AVR8/Template/Template_Endpoint_RW.c **** 			USB_USBTask();
  58:lib/lufa/LUFA/Drivers/USB/Core/AVR8/Template/Template_Endpoint_RW.c **** 			#endif
  59:lib/lufa/LUFA/Drivers/USB/Core/AVR8/Template/Template_Endpoint_RW.c **** 
  60:lib/lufa/LUFA/Drivers/USB/Core/AVR8/Template/Template_Endpoint_RW.c **** 			if (BytesProcessed != NULL)
 380               		.loc 3 60 0
 381 0050 0115      		cp r16,__zero_reg__
 382 0052 1105      		cpc r17,__zero_reg__
 383 0054 01F0      		breq .L26
  61:lib/lufa/LUFA/Drivers/USB/Core/AVR8/Template/Template_Endpoint_RW.c **** 			{
  62:lib/lufa/LUFA/Drivers/USB/Core/AVR8/Template/Template_Endpoint_RW.c **** 				*BytesProcessed += BytesInTransfer;
 384               		.loc 3 62 0
 385 0056 F801      		movw r30,r16
 386 0058 8081      		ld r24,Z
 387 005a 9181      		ldd r25,Z+1
 388 005c A80E      		add r10,r24
 389 005e B91E      		adc r11,r25
 390               	.LVL32:
 391 0060 B182      		std Z+1,r11
 392 0062 A082      		st Z,r10
  63:lib/lufa/LUFA/Drivers/USB/Core/AVR8/Template/Template_Endpoint_RW.c **** 				return ENDPOINT_RWSTREAM_IncompleteTransfer;
 393               		.loc 3 63 0
 394 0064 85E0      		ldi r24,lo8(5)
 395 0066 F82E      		mov r15,r24
 396               	.L21:
  64:lib/lufa/LUFA/Drivers/USB/Core/AVR8/Template/Template_Endpoint_RW.c **** 			}
  65:lib/lufa/LUFA/Drivers/USB/Core/AVR8/Template/Template_Endpoint_RW.c **** 
  66:lib/lufa/LUFA/Drivers/USB/Core/AVR8/Template/Template_Endpoint_RW.c **** 			if ((ErrorCode = Endpoint_WaitUntilReady()))
  67:lib/lufa/LUFA/Drivers/USB/Core/AVR8/Template/Template_Endpoint_RW.c **** 			  return ErrorCode;
  68:lib/lufa/LUFA/Drivers/USB/Core/AVR8/Template/Template_Endpoint_RW.c **** 		}
  69:lib/lufa/LUFA/Drivers/USB/Core/AVR8/Template/Template_Endpoint_RW.c **** 		else
  70:lib/lufa/LUFA/Drivers/USB/Core/AVR8/Template/Template_Endpoint_RW.c **** 		{
  71:lib/lufa/LUFA/Drivers/USB/Core/AVR8/Template/Template_Endpoint_RW.c **** 			TEMPLATE_TRANSFER_BYTE(DataStream);
  72:lib/lufa/LUFA/Drivers/USB/Core/AVR8/Template/Template_Endpoint_RW.c **** 			TEMPLATE_BUFFER_MOVE(DataStream, 1);
  73:lib/lufa/LUFA/Drivers/USB/Core/AVR8/Template/Template_Endpoint_RW.c **** 			Length--;
  74:lib/lufa/LUFA/Drivers/USB/Core/AVR8/Template/Template_Endpoint_RW.c **** 			BytesInTransfer++;
  75:lib/lufa/LUFA/Drivers/USB/Core/AVR8/Template/Template_Endpoint_RW.c **** 		}
  76:lib/lufa/LUFA/Drivers/USB/Core/AVR8/Template/Template_Endpoint_RW.c **** 	}
  77:lib/lufa/LUFA/Drivers/USB/Core/AVR8/Template/Template_Endpoint_RW.c **** 
  78:lib/lufa/LUFA/Drivers/USB/Core/AVR8/Template/Template_Endpoint_RW.c **** 	return ENDPOINT_RWSTREAM_NoError;
  79:lib/lufa/LUFA/Drivers/USB/Core/AVR8/Template/Template_Endpoint_RW.c **** }
 397               		.loc 3 79 0
 398 0068 8F2D      		mov r24,r15
 399               	/* epilogue start */
 400 006a DF91      		pop r29
 401 006c CF91      		pop r28
 402               	.LVL33:
 403 006e 1F91      		pop r17
 404 0070 0F91      		pop r16
 405               	.LVL34:
 406 0072 FF90      		pop r15
 407 0074 DF90      		pop r13
 408 0076 CF90      		pop r12
 409               	.LVL35:
 410 0078 BF90      		pop r11
 411 007a AF90      		pop r10
 412 007c 0895      		ret
 413               	.LVL36:
 414               	.L26:
  66:lib/lufa/LUFA/Drivers/USB/Core/AVR8/Template/Template_Endpoint_RW.c **** 			  return ErrorCode;
 415               		.loc 3 66 0
 416 007e 0E94 0000 		call Endpoint_WaitUntilReady
 417               	.LVL37:
 418 0082 8823      		tst r24
 419 0084 01F0      		breq .L24
 420 0086 F82E      		mov r15,r24
 421 0088 00C0      		rjmp .L21
 422               	.LVL38:
 423               	.L25:
  71:lib/lufa/LUFA/Drivers/USB/Core/AVR8/Template/Template_Endpoint_RW.c **** 			TEMPLATE_BUFFER_MOVE(DataStream, 1);
 424               		.loc 3 71 0
 425 008a F601      		movw r30,r12
 426 008c 8191      		ld r24,Z+
 427 008e 6F01      		movw r12,r30
 428               	.LVL39:
 429               	.LBB284:
 430               	.LBB285:
 554:lib/lufa/LUFA/Drivers/USB/Core/AVR8/../AVR8/../AVR8/Endpoint_AVR8.h **** 			}
 431               		.loc 2 554 0
 432 0090 8093 F100 		sts 241,r24
 433               	.LVL40:
 434               	.LBE285:
 435               	.LBE284:
  73:lib/lufa/LUFA/Drivers/USB/Core/AVR8/Template/Template_Endpoint_RW.c **** 			BytesInTransfer++;
 436               		.loc 3 73 0
 437 0094 2197      		sbiw r28,1
 438               	.LVL41:
  74:lib/lufa/LUFA/Drivers/USB/Core/AVR8/Template/Template_Endpoint_RW.c **** 		}
 439               		.loc 3 74 0
 440 0096 FFEF      		ldi r31,-1
 441 0098 AF1A      		sub r10,r31
 442 009a BF0A      		sbc r11,r31
 443               	.LVL42:
 444 009c 00C0      		rjmp .L24
 445               		.cfi_endproc
 446               	.LFE87:
 448               		.section	.text.Endpoint_Write_Stream_BE,"ax",@progbits
 449               	.global	Endpoint_Write_Stream_BE
 451               	Endpoint_Write_Stream_BE:
 452               	.LFB88:
  36:lib/lufa/LUFA/Drivers/USB/Core/AVR8/Template/Template_Endpoint_RW.c **** 	uint8_t* DataStream      = ((uint8_t*)Buffer + TEMPLATE_BUFFER_OFFSET(Length));
 453               		.loc 3 36 0
 454               		.cfi_startproc
 455               	.LVL43:
 456 0000 AF92      		push r10
 457               	.LCFI23:
 458               		.cfi_def_cfa_offset 3
 459               		.cfi_offset 10, -2
 460 0002 BF92      		push r11
 461               	.LCFI24:
 462               		.cfi_def_cfa_offset 4
 463               		.cfi_offset 11, -3
 464 0004 DF92      		push r13
 465               	.LCFI25:
 466               		.cfi_def_cfa_offset 5
 467               		.cfi_offset 13, -4
 468 0006 EF92      		push r14
 469               	.LCFI26:
 470               		.cfi_def_cfa_offset 6
 471               		.cfi_offset 14, -5
 472 0008 FF92      		push r15
 473               	.LCFI27:
 474               		.cfi_def_cfa_offset 7
 475               		.cfi_offset 15, -6
 476 000a 0F93      		push r16
 477               	.LCFI28:
 478               		.cfi_def_cfa_offset 8
 479               		.cfi_offset 16, -7
 480 000c 1F93      		push r17
 481               	.LCFI29:
 482               		.cfi_def_cfa_offset 9
 483               		.cfi_offset 17, -8
 484 000e CF93      		push r28
 485               	.LCFI30:
 486               		.cfi_def_cfa_offset 10
 487               		.cfi_offset 28, -9
 488 0010 DF93      		push r29
 489               	.LCFI31:
 490               		.cfi_def_cfa_offset 11
 491               		.cfi_offset 29, -10
 492               	/* prologue: function */
 493               	/* frame size = 0 */
 494               	/* stack size = 9 */
 495               	.L__stack_usage = 9
 496 0012 EC01      		movw r28,r24
 497 0014 8B01      		movw r16,r22
 498 0016 7A01      		movw r14,r20
 499               	.LVL44:
  41:lib/lufa/LUFA/Drivers/USB/Core/AVR8/Template/Template_Endpoint_RW.c **** 	  return ErrorCode;
 500               		.loc 3 41 0
 501 0018 0E94 0000 		call Endpoint_WaitUntilReady
 502               	.LVL45:
 503 001c D82E      		mov r13,r24
 504               	.LVL46:
 505 001e 8111      		cpse r24,__zero_reg__
 506 0020 00C0      		rjmp .L33
  37:lib/lufa/LUFA/Drivers/USB/Core/AVR8/Template/Template_Endpoint_RW.c **** 	uint16_t BytesInTransfer = 0;
 507               		.loc 3 37 0
 508 0022 C801      		movw r24,r16
 509 0024 0197      		sbiw r24,1
 510               	.LVL47:
 511 0026 C80F      		add r28,r24
 512 0028 D91F      		adc r29,r25
 513               	.LVL48:
  44:lib/lufa/LUFA/Drivers/USB/Core/AVR8/Template/Template_Endpoint_RW.c **** 	{
 514               		.loc 3 44 0
 515 002a E114      		cp r14,__zero_reg__
 516 002c F104      		cpc r15,__zero_reg__
 517 002e 01F0      		breq .L35
  46:lib/lufa/LUFA/Drivers/USB/Core/AVR8/Template/Template_Endpoint_RW.c **** 		TEMPLATE_BUFFER_MOVE(DataStream, *BytesProcessed);
 518               		.loc 3 46 0
 519 0030 F701      		movw r30,r14
 520 0032 8081      		ld r24,Z
 521 0034 9181      		ldd r25,Z+1
 522               	.LVL49:
 523 0036 081B      		sub r16,r24
 524 0038 190B      		sbc r17,r25
 525               	.LVL50:
  47:lib/lufa/LUFA/Drivers/USB/Core/AVR8/Template/Template_Endpoint_RW.c **** 	}
 526               		.loc 3 47 0
 527 003a C81B      		sub r28,r24
 528 003c D90B      		sbc r29,r25
 529               	.LVL51:
 530               	.L35:
  36:lib/lufa/LUFA/Drivers/USB/Core/AVR8/Template/Template_Endpoint_RW.c **** 	uint8_t* DataStream      = ((uint8_t*)Buffer + TEMPLATE_BUFFER_OFFSET(Length));
 531               		.loc 3 36 0
 532 003e B12C      		mov r11,__zero_reg__
 533 0040 A12C      		mov r10,__zero_reg__
 534               	.LVL52:
 535               	.L36:
  50:lib/lufa/LUFA/Drivers/USB/Core/AVR8/Template/Template_Endpoint_RW.c **** 	{
 536               		.loc 3 50 0
 537 0042 0115      		cp r16,__zero_reg__
 538 0044 1105      		cpc r17,__zero_reg__
 539 0046 01F0      		breq .L33
 540               	.LBB286:
 541               	.LBB287:
 360:lib/lufa/LUFA/Drivers/USB/Core/AVR8/../AVR8/../AVR8/Endpoint_AVR8.h **** 			}
 542               		.loc 2 360 0
 543 0048 8091 E800 		lds r24,232
 544               	.LBE287:
 545               	.LBE286:
  52:lib/lufa/LUFA/Drivers/USB/Core/AVR8/Template/Template_Endpoint_RW.c **** 		{
 546               		.loc 3 52 0
 547 004c 85FD      		sbrc r24,5
 548 004e 00C0      		rjmp .L37
 549               	.LBB288:
 550               	.LBB289:
 456:lib/lufa/LUFA/Drivers/USB/Core/AVR8/../AVR8/../AVR8/Endpoint_AVR8.h **** 				#else
 551               		.loc 2 456 0
 552 0050 8091 E800 		lds r24,232
 553 0054 8E77      		andi r24,lo8(126)
 554 0056 8093 E800 		sts 232,r24
 555               	.LBE289:
 556               	.LBE288:
  60:lib/lufa/LUFA/Drivers/USB/Core/AVR8/Template/Template_Endpoint_RW.c **** 			{
 557               		.loc 3 60 0
 558 005a E114      		cp r14,__zero_reg__
 559 005c F104      		cpc r15,__zero_reg__
 560 005e 01F0      		breq .L38
  62:lib/lufa/LUFA/Drivers/USB/Core/AVR8/Template/Template_Endpoint_RW.c **** 				return ENDPOINT_RWSTREAM_IncompleteTransfer;
 561               		.loc 3 62 0
 562 0060 F701      		movw r30,r14
 563 0062 8081      		ld r24,Z
 564 0064 9181      		ldd r25,Z+1
 565 0066 A80E      		add r10,r24
 566 0068 B91E      		adc r11,r25
 567               	.LVL53:
 568 006a B182      		std Z+1,r11
 569 006c A082      		st Z,r10
  63:lib/lufa/LUFA/Drivers/USB/Core/AVR8/Template/Template_Endpoint_RW.c **** 			}
 570               		.loc 3 63 0
 571 006e 85E0      		ldi r24,lo8(5)
 572 0070 D82E      		mov r13,r24
 573               	.LVL54:
 574               	.L33:
 575               		.loc 3 79 0
 576 0072 8D2D      		mov r24,r13
 577               	/* epilogue start */
 578 0074 DF91      		pop r29
 579 0076 CF91      		pop r28
 580 0078 1F91      		pop r17
 581 007a 0F91      		pop r16
 582               	.LVL55:
 583 007c FF90      		pop r15
 584 007e EF90      		pop r14
 585               	.LVL56:
 586 0080 DF90      		pop r13
 587 0082 BF90      		pop r11
 588 0084 AF90      		pop r10
 589 0086 0895      		ret
 590               	.LVL57:
 591               	.L38:
  66:lib/lufa/LUFA/Drivers/USB/Core/AVR8/Template/Template_Endpoint_RW.c **** 			  return ErrorCode;
 592               		.loc 3 66 0
 593 0088 0E94 0000 		call Endpoint_WaitUntilReady
 594               	.LVL58:
 595 008c 8823      		tst r24
 596 008e 01F0      		breq .L36
 597 0090 D82E      		mov r13,r24
 598 0092 00C0      		rjmp .L33
 599               	.LVL59:
 600               	.L37:
  71:lib/lufa/LUFA/Drivers/USB/Core/AVR8/Template/Template_Endpoint_RW.c **** 			TEMPLATE_BUFFER_MOVE(DataStream, 1);
 601               		.loc 3 71 0
 602 0094 8881      		ld r24,Y
 603               	.LVL60:
 604               	.LBB290:
 605               	.LBB291:
 554:lib/lufa/LUFA/Drivers/USB/Core/AVR8/../AVR8/../AVR8/Endpoint_AVR8.h **** 			}
 606               		.loc 2 554 0
 607 0096 8093 F100 		sts 241,r24
 608               	.LVL61:
 609               	.LBE291:
 610               	.LBE290:
  72:lib/lufa/LUFA/Drivers/USB/Core/AVR8/Template/Template_Endpoint_RW.c **** 			Length--;
 611               		.loc 3 72 0
 612 009a 2197      		sbiw r28,1
 613               	.LVL62:
  73:lib/lufa/LUFA/Drivers/USB/Core/AVR8/Template/Template_Endpoint_RW.c **** 			BytesInTransfer++;
 614               		.loc 3 73 0
 615 009c 0150      		subi r16,1
 616 009e 1109      		sbc r17,__zero_reg__
 617               	.LVL63:
  74:lib/lufa/LUFA/Drivers/USB/Core/AVR8/Template/Template_Endpoint_RW.c **** 		}
 618               		.loc 3 74 0
 619 00a0 FFEF      		ldi r31,-1
 620 00a2 AF1A      		sub r10,r31
 621 00a4 BF0A      		sbc r11,r31
 622               	.LVL64:
 623 00a6 00C0      		rjmp .L36
 624               		.cfi_endproc
 625               	.LFE88:
 627               		.section	.text.Endpoint_Read_Stream_LE,"ax",@progbits
 628               	.global	Endpoint_Read_Stream_LE
 630               	Endpoint_Read_Stream_LE:
 631               	.LFB89:
  36:lib/lufa/LUFA/Drivers/USB/Core/AVR8/Template/Template_Endpoint_RW.c **** 	uint8_t* DataStream      = ((uint8_t*)Buffer + TEMPLATE_BUFFER_OFFSET(Length));
 632               		.loc 3 36 0
 633               		.cfi_startproc
 634               	.LVL65:
 635 0000 AF92      		push r10
 636               	.LCFI32:
 637               		.cfi_def_cfa_offset 3
 638               		.cfi_offset 10, -2
 639 0002 BF92      		push r11
 640               	.LCFI33:
 641               		.cfi_def_cfa_offset 4
 642               		.cfi_offset 11, -3
 643 0004 CF92      		push r12
 644               	.LCFI34:
 645               		.cfi_def_cfa_offset 5
 646               		.cfi_offset 12, -4
 647 0006 DF92      		push r13
 648               	.LCFI35:
 649               		.cfi_def_cfa_offset 6
 650               		.cfi_offset 13, -5
 651 0008 FF92      		push r15
 652               	.LCFI36:
 653               		.cfi_def_cfa_offset 7
 654               		.cfi_offset 15, -6
 655 000a 0F93      		push r16
 656               	.LCFI37:
 657               		.cfi_def_cfa_offset 8
 658               		.cfi_offset 16, -7
 659 000c 1F93      		push r17
 660               	.LCFI38:
 661               		.cfi_def_cfa_offset 9
 662               		.cfi_offset 17, -8
 663 000e CF93      		push r28
 664               	.LCFI39:
 665               		.cfi_def_cfa_offset 10
 666               		.cfi_offset 28, -9
 667 0010 DF93      		push r29
 668               	.LCFI40:
 669               		.cfi_def_cfa_offset 11
 670               		.cfi_offset 29, -10
 671               	/* prologue: function */
 672               	/* frame size = 0 */
 673               	/* stack size = 9 */
 674               	.L__stack_usage = 9
 675 0012 6C01      		movw r12,r24
 676 0014 EB01      		movw r28,r22
 677 0016 8A01      		movw r16,r20
 678               	.LVL66:
  41:lib/lufa/LUFA/Drivers/USB/Core/AVR8/Template/Template_Endpoint_RW.c **** 	  return ErrorCode;
 679               		.loc 3 41 0
 680 0018 0E94 0000 		call Endpoint_WaitUntilReady
 681               	.LVL67:
 682 001c F82E      		mov r15,r24
 683               	.LVL68:
 684 001e 8111      		cpse r24,__zero_reg__
 685 0020 00C0      		rjmp .L45
  44:lib/lufa/LUFA/Drivers/USB/Core/AVR8/Template/Template_Endpoint_RW.c **** 	{
 686               		.loc 3 44 0
 687 0022 0115      		cp r16,__zero_reg__
 688 0024 1105      		cpc r17,__zero_reg__
 689 0026 01F0      		breq .L47
  46:lib/lufa/LUFA/Drivers/USB/Core/AVR8/Template/Template_Endpoint_RW.c **** 		TEMPLATE_BUFFER_MOVE(DataStream, *BytesProcessed);
 690               		.loc 3 46 0
 691 0028 F801      		movw r30,r16
 692 002a 8081      		ld r24,Z
 693 002c 9181      		ldd r25,Z+1
 694 002e C81B      		sub r28,r24
 695 0030 D90B      		sbc r29,r25
 696               	.LVL69:
  47:lib/lufa/LUFA/Drivers/USB/Core/AVR8/Template/Template_Endpoint_RW.c **** 	}
 697               		.loc 3 47 0
 698 0032 C80E      		add r12,r24
 699 0034 D91E      		adc r13,r25
 700               	.LVL70:
 701               	.L47:
  36:lib/lufa/LUFA/Drivers/USB/Core/AVR8/Template/Template_Endpoint_RW.c **** 	uint8_t* DataStream      = ((uint8_t*)Buffer + TEMPLATE_BUFFER_OFFSET(Length));
 702               		.loc 3 36 0
 703 0036 B12C      		mov r11,__zero_reg__
 704 0038 A12C      		mov r10,__zero_reg__
 705               	.LVL71:
 706               	.L48:
  50:lib/lufa/LUFA/Drivers/USB/Core/AVR8/Template/Template_Endpoint_RW.c **** 	{
 707               		.loc 3 50 0
 708 003a 2097      		sbiw r28,0
 709 003c 01F0      		breq .L45
 710               	.LBB292:
 711               	.LBB293:
 360:lib/lufa/LUFA/Drivers/USB/Core/AVR8/../AVR8/../AVR8/Endpoint_AVR8.h **** 			}
 712               		.loc 2 360 0
 713 003e 8091 E800 		lds r24,232
 714               	.LBE293:
 715               	.LBE292:
  52:lib/lufa/LUFA/Drivers/USB/Core/AVR8/Template/Template_Endpoint_RW.c **** 		{
 716               		.loc 3 52 0
 717 0042 85FD      		sbrc r24,5
 718 0044 00C0      		rjmp .L49
 719               	.LBB294:
 720               	.LBB295:
 471:lib/lufa/LUFA/Drivers/USB/Core/AVR8/../AVR8/../AVR8/Endpoint_AVR8.h **** 				#else
 721               		.loc 2 471 0
 722 0046 8091 E800 		lds r24,232
 723 004a 8B77      		andi r24,lo8(123)
 724 004c 8093 E800 		sts 232,r24
 725               	.LBE295:
 726               	.LBE294:
  60:lib/lufa/LUFA/Drivers/USB/Core/AVR8/Template/Template_Endpoint_RW.c **** 			{
 727               		.loc 3 60 0
 728 0050 0115      		cp r16,__zero_reg__
 729 0052 1105      		cpc r17,__zero_reg__
 730 0054 01F0      		breq .L50
  62:lib/lufa/LUFA/Drivers/USB/Core/AVR8/Template/Template_Endpoint_RW.c **** 				return ENDPOINT_RWSTREAM_IncompleteTransfer;
 731               		.loc 3 62 0
 732 0056 F801      		movw r30,r16
 733 0058 8081      		ld r24,Z
 734 005a 9181      		ldd r25,Z+1
 735 005c A80E      		add r10,r24
 736 005e B91E      		adc r11,r25
 737               	.LVL72:
 738 0060 B182      		std Z+1,r11
 739 0062 A082      		st Z,r10
  63:lib/lufa/LUFA/Drivers/USB/Core/AVR8/Template/Template_Endpoint_RW.c **** 			}
 740               		.loc 3 63 0
 741 0064 85E0      		ldi r24,lo8(5)
 742 0066 F82E      		mov r15,r24
 743               	.L45:
 744               		.loc 3 79 0
 745 0068 8F2D      		mov r24,r15
 746               	/* epilogue start */
 747 006a DF91      		pop r29
 748 006c CF91      		pop r28
 749               	.LVL73:
 750 006e 1F91      		pop r17
 751 0070 0F91      		pop r16
 752               	.LVL74:
 753 0072 FF90      		pop r15
 754 0074 DF90      		pop r13
 755 0076 CF90      		pop r12
 756               	.LVL75:
 757 0078 BF90      		pop r11
 758 007a AF90      		pop r10
 759 007c 0895      		ret
 760               	.LVL76:
 761               	.L50:
  66:lib/lufa/LUFA/Drivers/USB/Core/AVR8/Template/Template_Endpoint_RW.c **** 			  return ErrorCode;
 762               		.loc 3 66 0
 763 007e 0E94 0000 		call Endpoint_WaitUntilReady
 764               	.LVL77:
 765 0082 8823      		tst r24
 766 0084 01F0      		breq .L48
 767 0086 F82E      		mov r15,r24
 768 0088 00C0      		rjmp .L45
 769               	.LVL78:
 770               	.L49:
 771               	.LBB296:
 772               	.LBB297:
 542:lib/lufa/LUFA/Drivers/USB/Core/AVR8/../AVR8/../AVR8/Endpoint_AVR8.h **** 			}
 773               		.loc 2 542 0
 774 008a 8091 F100 		lds r24,241
 775               	.LBE297:
 776               	.LBE296:
  71:lib/lufa/LUFA/Drivers/USB/Core/AVR8/Template/Template_Endpoint_RW.c **** 			TEMPLATE_BUFFER_MOVE(DataStream, 1);
 777               		.loc 3 71 0
 778 008e F601      		movw r30,r12
 779 0090 8193      		st Z+,r24
 780 0092 6F01      		movw r12,r30
 781               	.LVL79:
  73:lib/lufa/LUFA/Drivers/USB/Core/AVR8/Template/Template_Endpoint_RW.c **** 			BytesInTransfer++;
 782               		.loc 3 73 0
 783 0094 2197      		sbiw r28,1
 784               	.LVL80:
  74:lib/lufa/LUFA/Drivers/USB/Core/AVR8/Template/Template_Endpoint_RW.c **** 		}
 785               		.loc 3 74 0
 786 0096 FFEF      		ldi r31,-1
 787 0098 AF1A      		sub r10,r31
 788 009a BF0A      		sbc r11,r31
 789               	.LVL81:
 790 009c 00C0      		rjmp .L48
 791               		.cfi_endproc
 792               	.LFE89:
 794               		.section	.text.Endpoint_Read_Stream_BE,"ax",@progbits
 795               	.global	Endpoint_Read_Stream_BE
 797               	Endpoint_Read_Stream_BE:
 798               	.LFB90:
  36:lib/lufa/LUFA/Drivers/USB/Core/AVR8/Template/Template_Endpoint_RW.c **** 	uint8_t* DataStream      = ((uint8_t*)Buffer + TEMPLATE_BUFFER_OFFSET(Length));
 799               		.loc 3 36 0
 800               		.cfi_startproc
 801               	.LVL82:
 802 0000 AF92      		push r10
 803               	.LCFI41:
 804               		.cfi_def_cfa_offset 3
 805               		.cfi_offset 10, -2
 806 0002 BF92      		push r11
 807               	.LCFI42:
 808               		.cfi_def_cfa_offset 4
 809               		.cfi_offset 11, -3
 810 0004 DF92      		push r13
 811               	.LCFI43:
 812               		.cfi_def_cfa_offset 5
 813               		.cfi_offset 13, -4
 814 0006 EF92      		push r14
 815               	.LCFI44:
 816               		.cfi_def_cfa_offset 6
 817               		.cfi_offset 14, -5
 818 0008 FF92      		push r15
 819               	.LCFI45:
 820               		.cfi_def_cfa_offset 7
 821               		.cfi_offset 15, -6
 822 000a 0F93      		push r16
 823               	.LCFI46:
 824               		.cfi_def_cfa_offset 8
 825               		.cfi_offset 16, -7
 826 000c 1F93      		push r17
 827               	.LCFI47:
 828               		.cfi_def_cfa_offset 9
 829               		.cfi_offset 17, -8
 830 000e CF93      		push r28
 831               	.LCFI48:
 832               		.cfi_def_cfa_offset 10
 833               		.cfi_offset 28, -9
 834 0010 DF93      		push r29
 835               	.LCFI49:
 836               		.cfi_def_cfa_offset 11
 837               		.cfi_offset 29, -10
 838               	/* prologue: function */
 839               	/* frame size = 0 */
 840               	/* stack size = 9 */
 841               	.L__stack_usage = 9
 842 0012 EC01      		movw r28,r24
 843 0014 8B01      		movw r16,r22
 844 0016 7A01      		movw r14,r20
 845               	.LVL83:
  41:lib/lufa/LUFA/Drivers/USB/Core/AVR8/Template/Template_Endpoint_RW.c **** 	  return ErrorCode;
 846               		.loc 3 41 0
 847 0018 0E94 0000 		call Endpoint_WaitUntilReady
 848               	.LVL84:
 849 001c D82E      		mov r13,r24
 850               	.LVL85:
 851 001e 8111      		cpse r24,__zero_reg__
 852 0020 00C0      		rjmp .L57
  37:lib/lufa/LUFA/Drivers/USB/Core/AVR8/Template/Template_Endpoint_RW.c **** 	uint16_t BytesInTransfer = 0;
 853               		.loc 3 37 0
 854 0022 C801      		movw r24,r16
 855 0024 0197      		sbiw r24,1
 856               	.LVL86:
 857 0026 C80F      		add r28,r24
 858 0028 D91F      		adc r29,r25
 859               	.LVL87:
  44:lib/lufa/LUFA/Drivers/USB/Core/AVR8/Template/Template_Endpoint_RW.c **** 	{
 860               		.loc 3 44 0
 861 002a E114      		cp r14,__zero_reg__
 862 002c F104      		cpc r15,__zero_reg__
 863 002e 01F0      		breq .L59
  46:lib/lufa/LUFA/Drivers/USB/Core/AVR8/Template/Template_Endpoint_RW.c **** 		TEMPLATE_BUFFER_MOVE(DataStream, *BytesProcessed);
 864               		.loc 3 46 0
 865 0030 F701      		movw r30,r14
 866 0032 8081      		ld r24,Z
 867 0034 9181      		ldd r25,Z+1
 868               	.LVL88:
 869 0036 081B      		sub r16,r24
 870 0038 190B      		sbc r17,r25
 871               	.LVL89:
  47:lib/lufa/LUFA/Drivers/USB/Core/AVR8/Template/Template_Endpoint_RW.c **** 	}
 872               		.loc 3 47 0
 873 003a C81B      		sub r28,r24
 874 003c D90B      		sbc r29,r25
 875               	.LVL90:
 876               	.L59:
  36:lib/lufa/LUFA/Drivers/USB/Core/AVR8/Template/Template_Endpoint_RW.c **** 	uint8_t* DataStream      = ((uint8_t*)Buffer + TEMPLATE_BUFFER_OFFSET(Length));
 877               		.loc 3 36 0
 878 003e B12C      		mov r11,__zero_reg__
 879 0040 A12C      		mov r10,__zero_reg__
 880               	.LVL91:
 881               	.L60:
  50:lib/lufa/LUFA/Drivers/USB/Core/AVR8/Template/Template_Endpoint_RW.c **** 	{
 882               		.loc 3 50 0
 883 0042 0115      		cp r16,__zero_reg__
 884 0044 1105      		cpc r17,__zero_reg__
 885 0046 01F0      		breq .L57
 886               	.LBB298:
 887               	.LBB299:
 360:lib/lufa/LUFA/Drivers/USB/Core/AVR8/../AVR8/../AVR8/Endpoint_AVR8.h **** 			}
 888               		.loc 2 360 0
 889 0048 8091 E800 		lds r24,232
 890               	.LBE299:
 891               	.LBE298:
  52:lib/lufa/LUFA/Drivers/USB/Core/AVR8/Template/Template_Endpoint_RW.c **** 		{
 892               		.loc 3 52 0
 893 004c 85FD      		sbrc r24,5
 894 004e 00C0      		rjmp .L61
 895               	.LBB300:
 896               	.LBB301:
 471:lib/lufa/LUFA/Drivers/USB/Core/AVR8/../AVR8/../AVR8/Endpoint_AVR8.h **** 				#else
 897               		.loc 2 471 0
 898 0050 8091 E800 		lds r24,232
 899 0054 8B77      		andi r24,lo8(123)
 900 0056 8093 E800 		sts 232,r24
 901               	.LBE301:
 902               	.LBE300:
  60:lib/lufa/LUFA/Drivers/USB/Core/AVR8/Template/Template_Endpoint_RW.c **** 			{
 903               		.loc 3 60 0
 904 005a E114      		cp r14,__zero_reg__
 905 005c F104      		cpc r15,__zero_reg__
 906 005e 01F0      		breq .L62
  62:lib/lufa/LUFA/Drivers/USB/Core/AVR8/Template/Template_Endpoint_RW.c **** 				return ENDPOINT_RWSTREAM_IncompleteTransfer;
 907               		.loc 3 62 0
 908 0060 F701      		movw r30,r14
 909 0062 8081      		ld r24,Z
 910 0064 9181      		ldd r25,Z+1
 911 0066 A80E      		add r10,r24
 912 0068 B91E      		adc r11,r25
 913               	.LVL92:
 914 006a B182      		std Z+1,r11
 915 006c A082      		st Z,r10
  63:lib/lufa/LUFA/Drivers/USB/Core/AVR8/Template/Template_Endpoint_RW.c **** 			}
 916               		.loc 3 63 0
 917 006e 85E0      		ldi r24,lo8(5)
 918 0070 D82E      		mov r13,r24
 919               	.LVL93:
 920               	.L57:
 921               		.loc 3 79 0
 922 0072 8D2D      		mov r24,r13
 923               	/* epilogue start */
 924 0074 DF91      		pop r29
 925 0076 CF91      		pop r28
 926 0078 1F91      		pop r17
 927 007a 0F91      		pop r16
 928               	.LVL94:
 929 007c FF90      		pop r15
 930 007e EF90      		pop r14
 931               	.LVL95:
 932 0080 DF90      		pop r13
 933 0082 BF90      		pop r11
 934 0084 AF90      		pop r10
 935 0086 0895      		ret
 936               	.LVL96:
 937               	.L62:
  66:lib/lufa/LUFA/Drivers/USB/Core/AVR8/Template/Template_Endpoint_RW.c **** 			  return ErrorCode;
 938               		.loc 3 66 0
 939 0088 0E94 0000 		call Endpoint_WaitUntilReady
 940               	.LVL97:
 941 008c 8823      		tst r24
 942 008e 01F0      		breq .L60
 943 0090 D82E      		mov r13,r24
 944 0092 00C0      		rjmp .L57
 945               	.LVL98:
 946               	.L61:
 947               	.LBB302:
 948               	.LBB303:
 542:lib/lufa/LUFA/Drivers/USB/Core/AVR8/../AVR8/../AVR8/Endpoint_AVR8.h **** 			}
 949               		.loc 2 542 0
 950 0094 8091 F100 		lds r24,241
 951               	.LBE303:
 952               	.LBE302:
  71:lib/lufa/LUFA/Drivers/USB/Core/AVR8/Template/Template_Endpoint_RW.c **** 			TEMPLATE_BUFFER_MOVE(DataStream, 1);
 953               		.loc 3 71 0
 954 0098 8883      		st Y,r24
  72:lib/lufa/LUFA/Drivers/USB/Core/AVR8/Template/Template_Endpoint_RW.c **** 			Length--;
 955               		.loc 3 72 0
 956 009a 2197      		sbiw r28,1
 957               	.LVL99:
  73:lib/lufa/LUFA/Drivers/USB/Core/AVR8/Template/Template_Endpoint_RW.c **** 			BytesInTransfer++;
 958               		.loc 3 73 0
 959 009c 0150      		subi r16,1
 960 009e 1109      		sbc r17,__zero_reg__
 961               	.LVL100:
  74:lib/lufa/LUFA/Drivers/USB/Core/AVR8/Template/Template_Endpoint_RW.c **** 		}
 962               		.loc 3 74 0
 963 00a0 FFEF      		ldi r31,-1
 964 00a2 AF1A      		sub r10,r31
 965 00a4 BF0A      		sbc r11,r31
 966               	.LVL101:
 967 00a6 00C0      		rjmp .L60
 968               		.cfi_endproc
 969               	.LFE90:
 971               		.section	.text.Endpoint_Write_PStream_LE,"ax",@progbits
 972               	.global	Endpoint_Write_PStream_LE
 974               	Endpoint_Write_PStream_LE:
 975               	.LFB91:
  36:lib/lufa/LUFA/Drivers/USB/Core/AVR8/Template/Template_Endpoint_RW.c **** 	uint8_t* DataStream      = ((uint8_t*)Buffer + TEMPLATE_BUFFER_OFFSET(Length));
 976               		.loc 3 36 0
 977               		.cfi_startproc
 978               	.LVL102:
 979 0000 AF92      		push r10
 980               	.LCFI50:
 981               		.cfi_def_cfa_offset 3
 982               		.cfi_offset 10, -2
 983 0002 BF92      		push r11
 984               	.LCFI51:
 985               		.cfi_def_cfa_offset 4
 986               		.cfi_offset 11, -3
 987 0004 DF92      		push r13
 988               	.LCFI52:
 989               		.cfi_def_cfa_offset 5
 990               		.cfi_offset 13, -4
 991 0006 EF92      		push r14
 992               	.LCFI53:
 993               		.cfi_def_cfa_offset 6
 994               		.cfi_offset 14, -5
 995 0008 FF92      		push r15
 996               	.LCFI54:
 997               		.cfi_def_cfa_offset 7
 998               		.cfi_offset 15, -6
 999 000a 0F93      		push r16
 1000               	.LCFI55:
 1001               		.cfi_def_cfa_offset 8
 1002               		.cfi_offset 16, -7
 1003 000c 1F93      		push r17
 1004               	.LCFI56:
 1005               		.cfi_def_cfa_offset 9
 1006               		.cfi_offset 17, -8
 1007 000e CF93      		push r28
 1008               	.LCFI57:
 1009               		.cfi_def_cfa_offset 10
 1010               		.cfi_offset 28, -9
 1011 0010 DF93      		push r29
 1012               	.LCFI58:
 1013               		.cfi_def_cfa_offset 11
 1014               		.cfi_offset 29, -10
 1015               	/* prologue: function */
 1016               	/* frame size = 0 */
 1017               	/* stack size = 9 */
 1018               	.L__stack_usage = 9
 1019 0012 8C01      		movw r16,r24
 1020 0014 EB01      		movw r28,r22
 1021 0016 7A01      		movw r14,r20
 1022               	.LVL103:
  41:lib/lufa/LUFA/Drivers/USB/Core/AVR8/Template/Template_Endpoint_RW.c **** 	  return ErrorCode;
 1023               		.loc 3 41 0
 1024 0018 0E94 0000 		call Endpoint_WaitUntilReady
 1025               	.LVL104:
 1026 001c D82E      		mov r13,r24
 1027               	.LVL105:
 1028 001e 8111      		cpse r24,__zero_reg__
 1029 0020 00C0      		rjmp .L69
  44:lib/lufa/LUFA/Drivers/USB/Core/AVR8/Template/Template_Endpoint_RW.c **** 	{
 1030               		.loc 3 44 0
 1031 0022 E114      		cp r14,__zero_reg__
 1032 0024 F104      		cpc r15,__zero_reg__
 1033 0026 01F0      		breq .L71
  46:lib/lufa/LUFA/Drivers/USB/Core/AVR8/Template/Template_Endpoint_RW.c **** 		TEMPLATE_BUFFER_MOVE(DataStream, *BytesProcessed);
 1034               		.loc 3 46 0
 1035 0028 F701      		movw r30,r14
 1036 002a 8081      		ld r24,Z
 1037 002c 9181      		ldd r25,Z+1
 1038 002e C81B      		sub r28,r24
 1039 0030 D90B      		sbc r29,r25
 1040               	.LVL106:
  47:lib/lufa/LUFA/Drivers/USB/Core/AVR8/Template/Template_Endpoint_RW.c **** 	}
 1041               		.loc 3 47 0
 1042 0032 080F      		add r16,r24
 1043 0034 191F      		adc r17,r25
 1044               	.LVL107:
 1045               	.L71:
  36:lib/lufa/LUFA/Drivers/USB/Core/AVR8/Template/Template_Endpoint_RW.c **** 	uint8_t* DataStream      = ((uint8_t*)Buffer + TEMPLATE_BUFFER_OFFSET(Length));
 1046               		.loc 3 36 0
 1047 0036 B12C      		mov r11,__zero_reg__
 1048 0038 A12C      		mov r10,__zero_reg__
 1049               	.LVL108:
 1050               	.L72:
  50:lib/lufa/LUFA/Drivers/USB/Core/AVR8/Template/Template_Endpoint_RW.c **** 	{
 1051               		.loc 3 50 0
 1052 003a 2097      		sbiw r28,0
 1053 003c 01F0      		breq .L69
 1054               	.LBB304:
 1055               	.LBB305:
 360:lib/lufa/LUFA/Drivers/USB/Core/AVR8/../AVR8/../AVR8/Endpoint_AVR8.h **** 			}
 1056               		.loc 2 360 0
 1057 003e 8091 E800 		lds r24,232
 1058               	.LBE305:
 1059               	.LBE304:
  52:lib/lufa/LUFA/Drivers/USB/Core/AVR8/Template/Template_Endpoint_RW.c **** 		{
 1060               		.loc 3 52 0
 1061 0042 85FD      		sbrc r24,5
 1062 0044 00C0      		rjmp .L73
 1063               	.LBB306:
 1064               	.LBB307:
 456:lib/lufa/LUFA/Drivers/USB/Core/AVR8/../AVR8/../AVR8/Endpoint_AVR8.h **** 				#else
 1065               		.loc 2 456 0
 1066 0046 8091 E800 		lds r24,232
 1067 004a 8E77      		andi r24,lo8(126)
 1068 004c 8093 E800 		sts 232,r24
 1069               	.LBE307:
 1070               	.LBE306:
  60:lib/lufa/LUFA/Drivers/USB/Core/AVR8/Template/Template_Endpoint_RW.c **** 			{
 1071               		.loc 3 60 0
 1072 0050 E114      		cp r14,__zero_reg__
 1073 0052 F104      		cpc r15,__zero_reg__
 1074 0054 01F0      		breq .L74
  62:lib/lufa/LUFA/Drivers/USB/Core/AVR8/Template/Template_Endpoint_RW.c **** 				return ENDPOINT_RWSTREAM_IncompleteTransfer;
 1075               		.loc 3 62 0
 1076 0056 F701      		movw r30,r14
 1077 0058 8081      		ld r24,Z
 1078 005a 9181      		ldd r25,Z+1
 1079 005c A80E      		add r10,r24
 1080 005e B91E      		adc r11,r25
 1081               	.LVL109:
 1082 0060 B182      		std Z+1,r11
 1083 0062 A082      		st Z,r10
  63:lib/lufa/LUFA/Drivers/USB/Core/AVR8/Template/Template_Endpoint_RW.c **** 			}
 1084               		.loc 3 63 0
 1085 0064 85E0      		ldi r24,lo8(5)
 1086 0066 D82E      		mov r13,r24
 1087               	.L69:
 1088               		.loc 3 79 0
 1089 0068 8D2D      		mov r24,r13
 1090               	/* epilogue start */
 1091 006a DF91      		pop r29
 1092 006c CF91      		pop r28
 1093               	.LVL110:
 1094 006e 1F91      		pop r17
 1095 0070 0F91      		pop r16
 1096               	.LVL111:
 1097 0072 FF90      		pop r15
 1098 0074 EF90      		pop r14
 1099               	.LVL112:
 1100 0076 DF90      		pop r13
 1101 0078 BF90      		pop r11
 1102 007a AF90      		pop r10
 1103 007c 0895      		ret
 1104               	.LVL113:
 1105               	.L74:
  66:lib/lufa/LUFA/Drivers/USB/Core/AVR8/Template/Template_Endpoint_RW.c **** 			  return ErrorCode;
 1106               		.loc 3 66 0
 1107 007e 0E94 0000 		call Endpoint_WaitUntilReady
 1108               	.LVL114:
 1109 0082 8823      		tst r24
 1110 0084 01F0      		breq .L72
 1111 0086 D82E      		mov r13,r24
 1112 0088 00C0      		rjmp .L69
 1113               	.LVL115:
 1114               	.L73:
 1115               	.LBB308:
  71:lib/lufa/LUFA/Drivers/USB/Core/AVR8/Template/Template_Endpoint_RW.c **** 			TEMPLATE_BUFFER_MOVE(DataStream, 1);
 1116               		.loc 3 71 0
 1117 008a F801      		movw r30,r16
 1118               	/* #APP */
 1119               	 ;  71 "lib/lufa/LUFA/Drivers/USB/Core/AVR8/Template/Template_Endpoint_RW.c" 1
 1120 008c 8491      		lpm r24, Z
 1121               		
 1122               	 ;  0 "" 2
 1123               	.LVL116:
 1124               	/* #NOAPP */
 1125               	.LBE308:
 1126               	.LBB309:
 1127               	.LBB310:
 554:lib/lufa/LUFA/Drivers/USB/Core/AVR8/../AVR8/../AVR8/Endpoint_AVR8.h **** 			}
 1128               		.loc 2 554 0
 1129 008e 8093 F100 		sts 241,r24
 1130               	.LVL117:
 1131               	.LBE310:
 1132               	.LBE309:
  72:lib/lufa/LUFA/Drivers/USB/Core/AVR8/Template/Template_Endpoint_RW.c **** 			Length--;
 1133               		.loc 3 72 0
 1134 0092 0F5F      		subi r16,-1
 1135 0094 1F4F      		sbci r17,-1
 1136               	.LVL118:
  73:lib/lufa/LUFA/Drivers/USB/Core/AVR8/Template/Template_Endpoint_RW.c **** 			BytesInTransfer++;
 1137               		.loc 3 73 0
 1138 0096 2197      		sbiw r28,1
 1139               	.LVL119:
  74:lib/lufa/LUFA/Drivers/USB/Core/AVR8/Template/Template_Endpoint_RW.c **** 		}
 1140               		.loc 3 74 0
 1141 0098 FFEF      		ldi r31,-1
 1142 009a AF1A      		sub r10,r31
 1143 009c BF0A      		sbc r11,r31
 1144               	.LVL120:
 1145 009e 00C0      		rjmp .L72
 1146               		.cfi_endproc
 1147               	.LFE91:
 1149               		.section	.text.Endpoint_Write_PStream_BE,"ax",@progbits
 1150               	.global	Endpoint_Write_PStream_BE
 1152               	Endpoint_Write_PStream_BE:
 1153               	.LFB92:
  36:lib/lufa/LUFA/Drivers/USB/Core/AVR8/Template/Template_Endpoint_RW.c **** 	uint8_t* DataStream      = ((uint8_t*)Buffer + TEMPLATE_BUFFER_OFFSET(Length));
 1154               		.loc 3 36 0
 1155               		.cfi_startproc
 1156               	.LVL121:
 1157 0000 AF92      		push r10
 1158               	.LCFI59:
 1159               		.cfi_def_cfa_offset 3
 1160               		.cfi_offset 10, -2
 1161 0002 BF92      		push r11
 1162               	.LCFI60:
 1163               		.cfi_def_cfa_offset 4
 1164               		.cfi_offset 11, -3
 1165 0004 DF92      		push r13
 1166               	.LCFI61:
 1167               		.cfi_def_cfa_offset 5
 1168               		.cfi_offset 13, -4
 1169 0006 EF92      		push r14
 1170               	.LCFI62:
 1171               		.cfi_def_cfa_offset 6
 1172               		.cfi_offset 14, -5
 1173 0008 FF92      		push r15
 1174               	.LCFI63:
 1175               		.cfi_def_cfa_offset 7
 1176               		.cfi_offset 15, -6
 1177 000a 0F93      		push r16
 1178               	.LCFI64:
 1179               		.cfi_def_cfa_offset 8
 1180               		.cfi_offset 16, -7
 1181 000c 1F93      		push r17
 1182               	.LCFI65:
 1183               		.cfi_def_cfa_offset 9
 1184               		.cfi_offset 17, -8
 1185 000e CF93      		push r28
 1186               	.LCFI66:
 1187               		.cfi_def_cfa_offset 10
 1188               		.cfi_offset 28, -9
 1189 0010 DF93      		push r29
 1190               	.LCFI67:
 1191               		.cfi_def_cfa_offset 11
 1192               		.cfi_offset 29, -10
 1193               	/* prologue: function */
 1194               	/* frame size = 0 */
 1195               	/* stack size = 9 */
 1196               	.L__stack_usage = 9
 1197 0012 EC01      		movw r28,r24
 1198 0014 8B01      		movw r16,r22
 1199 0016 7A01      		movw r14,r20
 1200               	.LVL122:
  41:lib/lufa/LUFA/Drivers/USB/Core/AVR8/Template/Template_Endpoint_RW.c **** 	  return ErrorCode;
 1201               		.loc 3 41 0
 1202 0018 0E94 0000 		call Endpoint_WaitUntilReady
 1203               	.LVL123:
 1204 001c D82E      		mov r13,r24
 1205               	.LVL124:
 1206 001e 8111      		cpse r24,__zero_reg__
 1207 0020 00C0      		rjmp .L81
  37:lib/lufa/LUFA/Drivers/USB/Core/AVR8/Template/Template_Endpoint_RW.c **** 	uint16_t BytesInTransfer = 0;
 1208               		.loc 3 37 0
 1209 0022 C801      		movw r24,r16
 1210 0024 0197      		sbiw r24,1
 1211               	.LVL125:
 1212 0026 C80F      		add r28,r24
 1213 0028 D91F      		adc r29,r25
 1214               	.LVL126:
  44:lib/lufa/LUFA/Drivers/USB/Core/AVR8/Template/Template_Endpoint_RW.c **** 	{
 1215               		.loc 3 44 0
 1216 002a E114      		cp r14,__zero_reg__
 1217 002c F104      		cpc r15,__zero_reg__
 1218 002e 01F0      		breq .L83
  46:lib/lufa/LUFA/Drivers/USB/Core/AVR8/Template/Template_Endpoint_RW.c **** 		TEMPLATE_BUFFER_MOVE(DataStream, *BytesProcessed);
 1219               		.loc 3 46 0
 1220 0030 F701      		movw r30,r14
 1221 0032 8081      		ld r24,Z
 1222 0034 9181      		ldd r25,Z+1
 1223               	.LVL127:
 1224 0036 081B      		sub r16,r24
 1225 0038 190B      		sbc r17,r25
 1226               	.LVL128:
  47:lib/lufa/LUFA/Drivers/USB/Core/AVR8/Template/Template_Endpoint_RW.c **** 	}
 1227               		.loc 3 47 0
 1228 003a C81B      		sub r28,r24
 1229 003c D90B      		sbc r29,r25
 1230               	.LVL129:
 1231               	.L83:
  36:lib/lufa/LUFA/Drivers/USB/Core/AVR8/Template/Template_Endpoint_RW.c **** 	uint8_t* DataStream      = ((uint8_t*)Buffer + TEMPLATE_BUFFER_OFFSET(Length));
 1232               		.loc 3 36 0
 1233 003e B12C      		mov r11,__zero_reg__
 1234 0040 A12C      		mov r10,__zero_reg__
 1235               	.LVL130:
 1236               	.L84:
  50:lib/lufa/LUFA/Drivers/USB/Core/AVR8/Template/Template_Endpoint_RW.c **** 	{
 1237               		.loc 3 50 0
 1238 0042 0115      		cp r16,__zero_reg__
 1239 0044 1105      		cpc r17,__zero_reg__
 1240 0046 01F0      		breq .L81
 1241               	.LBB311:
 1242               	.LBB312:
 360:lib/lufa/LUFA/Drivers/USB/Core/AVR8/../AVR8/../AVR8/Endpoint_AVR8.h **** 			}
 1243               		.loc 2 360 0
 1244 0048 8091 E800 		lds r24,232
 1245               	.LBE312:
 1246               	.LBE311:
  52:lib/lufa/LUFA/Drivers/USB/Core/AVR8/Template/Template_Endpoint_RW.c **** 		{
 1247               		.loc 3 52 0
 1248 004c 85FD      		sbrc r24,5
 1249 004e 00C0      		rjmp .L85
 1250               	.LBB313:
 1251               	.LBB314:
 456:lib/lufa/LUFA/Drivers/USB/Core/AVR8/../AVR8/../AVR8/Endpoint_AVR8.h **** 				#else
 1252               		.loc 2 456 0
 1253 0050 8091 E800 		lds r24,232
 1254 0054 8E77      		andi r24,lo8(126)
 1255 0056 8093 E800 		sts 232,r24
 1256               	.LBE314:
 1257               	.LBE313:
  60:lib/lufa/LUFA/Drivers/USB/Core/AVR8/Template/Template_Endpoint_RW.c **** 			{
 1258               		.loc 3 60 0
 1259 005a E114      		cp r14,__zero_reg__
 1260 005c F104      		cpc r15,__zero_reg__
 1261 005e 01F0      		breq .L86
  62:lib/lufa/LUFA/Drivers/USB/Core/AVR8/Template/Template_Endpoint_RW.c **** 				return ENDPOINT_RWSTREAM_IncompleteTransfer;
 1262               		.loc 3 62 0
 1263 0060 F701      		movw r30,r14
 1264 0062 8081      		ld r24,Z
 1265 0064 9181      		ldd r25,Z+1
 1266 0066 A80E      		add r10,r24
 1267 0068 B91E      		adc r11,r25
 1268               	.LVL131:
 1269 006a B182      		std Z+1,r11
 1270 006c A082      		st Z,r10
  63:lib/lufa/LUFA/Drivers/USB/Core/AVR8/Template/Template_Endpoint_RW.c **** 			}
 1271               		.loc 3 63 0
 1272 006e 85E0      		ldi r24,lo8(5)
 1273 0070 D82E      		mov r13,r24
 1274               	.LVL132:
 1275               	.L81:
 1276               		.loc 3 79 0
 1277 0072 8D2D      		mov r24,r13
 1278               	/* epilogue start */
 1279 0074 DF91      		pop r29
 1280 0076 CF91      		pop r28
 1281 0078 1F91      		pop r17
 1282 007a 0F91      		pop r16
 1283               	.LVL133:
 1284 007c FF90      		pop r15
 1285 007e EF90      		pop r14
 1286               	.LVL134:
 1287 0080 DF90      		pop r13
 1288 0082 BF90      		pop r11
 1289 0084 AF90      		pop r10
 1290 0086 0895      		ret
 1291               	.LVL135:
 1292               	.L86:
  66:lib/lufa/LUFA/Drivers/USB/Core/AVR8/Template/Template_Endpoint_RW.c **** 			  return ErrorCode;
 1293               		.loc 3 66 0
 1294 0088 0E94 0000 		call Endpoint_WaitUntilReady
 1295               	.LVL136:
 1296 008c 8823      		tst r24
 1297 008e 01F0      		breq .L84
 1298 0090 D82E      		mov r13,r24
 1299 0092 00C0      		rjmp .L81
 1300               	.LVL137:
 1301               	.L85:
 1302               	.LBB315:
  71:lib/lufa/LUFA/Drivers/USB/Core/AVR8/Template/Template_Endpoint_RW.c **** 			TEMPLATE_BUFFER_MOVE(DataStream, 1);
 1303               		.loc 3 71 0
 1304 0094 FE01      		movw r30,r28
 1305               	/* #APP */
 1306               	 ;  71 "lib/lufa/LUFA/Drivers/USB/Core/AVR8/Template/Template_Endpoint_RW.c" 1
 1307 0096 8491      		lpm r24, Z
 1308               		
 1309               	 ;  0 "" 2
 1310               	.LVL138:
 1311               	/* #NOAPP */
 1312               	.LBE315:
 1313               	.LBB316:
 1314               	.LBB317:
 554:lib/lufa/LUFA/Drivers/USB/Core/AVR8/../AVR8/../AVR8/Endpoint_AVR8.h **** 			}
 1315               		.loc 2 554 0
 1316 0098 8093 F100 		sts 241,r24
 1317               	.LVL139:
 1318               	.LBE317:
 1319               	.LBE316:
  72:lib/lufa/LUFA/Drivers/USB/Core/AVR8/Template/Template_Endpoint_RW.c **** 			Length--;
 1320               		.loc 3 72 0
 1321 009c 2197      		sbiw r28,1
 1322               	.LVL140:
  73:lib/lufa/LUFA/Drivers/USB/Core/AVR8/Template/Template_Endpoint_RW.c **** 			BytesInTransfer++;
 1323               		.loc 3 73 0
 1324 009e 0150      		subi r16,1
 1325 00a0 1109      		sbc r17,__zero_reg__
 1326               	.LVL141:
  74:lib/lufa/LUFA/Drivers/USB/Core/AVR8/Template/Template_Endpoint_RW.c **** 		}
 1327               		.loc 3 74 0
 1328 00a2 FFEF      		ldi r31,-1
 1329 00a4 AF1A      		sub r10,r31
 1330 00a6 BF0A      		sbc r11,r31
 1331               	.LVL142:
 1332 00a8 00C0      		rjmp .L84
 1333               		.cfi_endproc
 1334               	.LFE92:
 1336               		.section	.text.Endpoint_Write_EStream_LE,"ax",@progbits
 1337               	.global	Endpoint_Write_EStream_LE
 1339               	Endpoint_Write_EStream_LE:
 1340               	.LFB93:
  36:lib/lufa/LUFA/Drivers/USB/Core/AVR8/Template/Template_Endpoint_RW.c **** 	uint8_t* DataStream      = ((uint8_t*)Buffer + TEMPLATE_BUFFER_OFFSET(Length));
 1341               		.loc 3 36 0
 1342               		.cfi_startproc
 1343               	.LVL143:
 1344 0000 AF92      		push r10
 1345               	.LCFI68:
 1346               		.cfi_def_cfa_offset 3
 1347               		.cfi_offset 10, -2
 1348 0002 BF92      		push r11
 1349               	.LCFI69:
 1350               		.cfi_def_cfa_offset 4
 1351               		.cfi_offset 11, -3
 1352 0004 DF92      		push r13
 1353               	.LCFI70:
 1354               		.cfi_def_cfa_offset 5
 1355               		.cfi_offset 13, -4
 1356 0006 EF92      		push r14
 1357               	.LCFI71:
 1358               		.cfi_def_cfa_offset 6
 1359               		.cfi_offset 14, -5
 1360 0008 FF92      		push r15
 1361               	.LCFI72:
 1362               		.cfi_def_cfa_offset 7
 1363               		.cfi_offset 15, -6
 1364 000a 0F93      		push r16
 1365               	.LCFI73:
 1366               		.cfi_def_cfa_offset 8
 1367               		.cfi_offset 16, -7
 1368 000c 1F93      		push r17
 1369               	.LCFI74:
 1370               		.cfi_def_cfa_offset 9
 1371               		.cfi_offset 17, -8
 1372 000e CF93      		push r28
 1373               	.LCFI75:
 1374               		.cfi_def_cfa_offset 10
 1375               		.cfi_offset 28, -9
 1376 0010 DF93      		push r29
 1377               	.LCFI76:
 1378               		.cfi_def_cfa_offset 11
 1379               		.cfi_offset 29, -10
 1380               	/* prologue: function */
 1381               	/* frame size = 0 */
 1382               	/* stack size = 9 */
 1383               	.L__stack_usage = 9
 1384 0012 8C01      		movw r16,r24
 1385 0014 EB01      		movw r28,r22
 1386 0016 7A01      		movw r14,r20
 1387               	.LVL144:
  41:lib/lufa/LUFA/Drivers/USB/Core/AVR8/Template/Template_Endpoint_RW.c **** 	  return ErrorCode;
 1388               		.loc 3 41 0
 1389 0018 0E94 0000 		call Endpoint_WaitUntilReady
 1390               	.LVL145:
 1391 001c D82E      		mov r13,r24
 1392               	.LVL146:
 1393 001e 8111      		cpse r24,__zero_reg__
 1394 0020 00C0      		rjmp .L93
  44:lib/lufa/LUFA/Drivers/USB/Core/AVR8/Template/Template_Endpoint_RW.c **** 	{
 1395               		.loc 3 44 0
 1396 0022 E114      		cp r14,__zero_reg__
 1397 0024 F104      		cpc r15,__zero_reg__
 1398 0026 01F0      		breq .L95
  46:lib/lufa/LUFA/Drivers/USB/Core/AVR8/Template/Template_Endpoint_RW.c **** 		TEMPLATE_BUFFER_MOVE(DataStream, *BytesProcessed);
 1399               		.loc 3 46 0
 1400 0028 F701      		movw r30,r14
 1401 002a 8081      		ld r24,Z
 1402 002c 9181      		ldd r25,Z+1
 1403 002e C81B      		sub r28,r24
 1404 0030 D90B      		sbc r29,r25
 1405               	.LVL147:
  47:lib/lufa/LUFA/Drivers/USB/Core/AVR8/Template/Template_Endpoint_RW.c **** 	}
 1406               		.loc 3 47 0
 1407 0032 080F      		add r16,r24
 1408 0034 191F      		adc r17,r25
 1409               	.LVL148:
 1410               	.L95:
  36:lib/lufa/LUFA/Drivers/USB/Core/AVR8/Template/Template_Endpoint_RW.c **** 	uint8_t* DataStream      = ((uint8_t*)Buffer + TEMPLATE_BUFFER_OFFSET(Length));
 1411               		.loc 3 36 0
 1412 0036 B12C      		mov r11,__zero_reg__
 1413 0038 A12C      		mov r10,__zero_reg__
 1414               	.LVL149:
 1415               	.L96:
  50:lib/lufa/LUFA/Drivers/USB/Core/AVR8/Template/Template_Endpoint_RW.c **** 	{
 1416               		.loc 3 50 0
 1417 003a 2097      		sbiw r28,0
 1418 003c 01F0      		breq .L93
 1419               	.LBB318:
 1420               	.LBB319:
 360:lib/lufa/LUFA/Drivers/USB/Core/AVR8/../AVR8/../AVR8/Endpoint_AVR8.h **** 			}
 1421               		.loc 2 360 0
 1422 003e 8091 E800 		lds r24,232
 1423               	.LBE319:
 1424               	.LBE318:
  52:lib/lufa/LUFA/Drivers/USB/Core/AVR8/Template/Template_Endpoint_RW.c **** 		{
 1425               		.loc 3 52 0
 1426 0042 85FD      		sbrc r24,5
 1427 0044 00C0      		rjmp .L97
 1428               	.LBB320:
 1429               	.LBB321:
 456:lib/lufa/LUFA/Drivers/USB/Core/AVR8/../AVR8/../AVR8/Endpoint_AVR8.h **** 				#else
 1430               		.loc 2 456 0
 1431 0046 8091 E800 		lds r24,232
 1432 004a 8E77      		andi r24,lo8(126)
 1433 004c 8093 E800 		sts 232,r24
 1434               	.LBE321:
 1435               	.LBE320:
  60:lib/lufa/LUFA/Drivers/USB/Core/AVR8/Template/Template_Endpoint_RW.c **** 			{
 1436               		.loc 3 60 0
 1437 0050 E114      		cp r14,__zero_reg__
 1438 0052 F104      		cpc r15,__zero_reg__
 1439 0054 01F0      		breq .L98
  62:lib/lufa/LUFA/Drivers/USB/Core/AVR8/Template/Template_Endpoint_RW.c **** 				return ENDPOINT_RWSTREAM_IncompleteTransfer;
 1440               		.loc 3 62 0
 1441 0056 F701      		movw r30,r14
 1442 0058 8081      		ld r24,Z
 1443 005a 9181      		ldd r25,Z+1
 1444 005c A80E      		add r10,r24
 1445 005e B91E      		adc r11,r25
 1446               	.LVL150:
 1447 0060 B182      		std Z+1,r11
 1448 0062 A082      		st Z,r10
  63:lib/lufa/LUFA/Drivers/USB/Core/AVR8/Template/Template_Endpoint_RW.c **** 			}
 1449               		.loc 3 63 0
 1450 0064 85E0      		ldi r24,lo8(5)
 1451 0066 D82E      		mov r13,r24
 1452               	.L93:
 1453               		.loc 3 79 0
 1454 0068 8D2D      		mov r24,r13
 1455               	/* epilogue start */
 1456 006a DF91      		pop r29
 1457 006c CF91      		pop r28
 1458               	.LVL151:
 1459 006e 1F91      		pop r17
 1460 0070 0F91      		pop r16
 1461               	.LVL152:
 1462 0072 FF90      		pop r15
 1463 0074 EF90      		pop r14
 1464               	.LVL153:
 1465 0076 DF90      		pop r13
 1466 0078 BF90      		pop r11
 1467 007a AF90      		pop r10
 1468 007c 0895      		ret
 1469               	.LVL154:
 1470               	.L98:
  66:lib/lufa/LUFA/Drivers/USB/Core/AVR8/Template/Template_Endpoint_RW.c **** 			  return ErrorCode;
 1471               		.loc 3 66 0
 1472 007e 0E94 0000 		call Endpoint_WaitUntilReady
 1473               	.LVL155:
 1474 0082 8823      		tst r24
 1475 0084 01F0      		breq .L96
 1476 0086 D82E      		mov r13,r24
 1477 0088 00C0      		rjmp .L93
 1478               	.LVL156:
 1479               	.L97:
  71:lib/lufa/LUFA/Drivers/USB/Core/AVR8/Template/Template_Endpoint_RW.c **** 			TEMPLATE_BUFFER_MOVE(DataStream, 1);
 1480               		.loc 3 71 0
 1481 008a C801      		movw r24,r16
 1482 008c 0E94 0000 		call eeprom_read_byte
 1483               	.LVL157:
 1484               	.LBB322:
 1485               	.LBB323:
 554:lib/lufa/LUFA/Drivers/USB/Core/AVR8/../AVR8/../AVR8/Endpoint_AVR8.h **** 			}
 1486               		.loc 2 554 0
 1487 0090 8093 F100 		sts 241,r24
 1488               	.LVL158:
 1489               	.LBE323:
 1490               	.LBE322:
  72:lib/lufa/LUFA/Drivers/USB/Core/AVR8/Template/Template_Endpoint_RW.c **** 			Length--;
 1491               		.loc 3 72 0
 1492 0094 0F5F      		subi r16,-1
 1493 0096 1F4F      		sbci r17,-1
 1494               	.LVL159:
  73:lib/lufa/LUFA/Drivers/USB/Core/AVR8/Template/Template_Endpoint_RW.c **** 			BytesInTransfer++;
 1495               		.loc 3 73 0
 1496 0098 2197      		sbiw r28,1
 1497               	.LVL160:
  74:lib/lufa/LUFA/Drivers/USB/Core/AVR8/Template/Template_Endpoint_RW.c **** 		}
 1498               		.loc 3 74 0
 1499 009a FFEF      		ldi r31,-1
 1500 009c AF1A      		sub r10,r31
 1501 009e BF0A      		sbc r11,r31
 1502               	.LVL161:
 1503 00a0 00C0      		rjmp .L96
 1504               		.cfi_endproc
 1505               	.LFE93:
 1507               		.section	.text.Endpoint_Write_EStream_BE,"ax",@progbits
 1508               	.global	Endpoint_Write_EStream_BE
 1510               	Endpoint_Write_EStream_BE:
 1511               	.LFB94:
  36:lib/lufa/LUFA/Drivers/USB/Core/AVR8/Template/Template_Endpoint_RW.c **** 	uint8_t* DataStream      = ((uint8_t*)Buffer + TEMPLATE_BUFFER_OFFSET(Length));
 1512               		.loc 3 36 0
 1513               		.cfi_startproc
 1514               	.LVL162:
 1515 0000 AF92      		push r10
 1516               	.LCFI77:
 1517               		.cfi_def_cfa_offset 3
 1518               		.cfi_offset 10, -2
 1519 0002 BF92      		push r11
 1520               	.LCFI78:
 1521               		.cfi_def_cfa_offset 4
 1522               		.cfi_offset 11, -3
 1523 0004 DF92      		push r13
 1524               	.LCFI79:
 1525               		.cfi_def_cfa_offset 5
 1526               		.cfi_offset 13, -4
 1527 0006 EF92      		push r14
 1528               	.LCFI80:
 1529               		.cfi_def_cfa_offset 6
 1530               		.cfi_offset 14, -5
 1531 0008 FF92      		push r15
 1532               	.LCFI81:
 1533               		.cfi_def_cfa_offset 7
 1534               		.cfi_offset 15, -6
 1535 000a 0F93      		push r16
 1536               	.LCFI82:
 1537               		.cfi_def_cfa_offset 8
 1538               		.cfi_offset 16, -7
 1539 000c 1F93      		push r17
 1540               	.LCFI83:
 1541               		.cfi_def_cfa_offset 9
 1542               		.cfi_offset 17, -8
 1543 000e CF93      		push r28
 1544               	.LCFI84:
 1545               		.cfi_def_cfa_offset 10
 1546               		.cfi_offset 28, -9
 1547 0010 DF93      		push r29
 1548               	.LCFI85:
 1549               		.cfi_def_cfa_offset 11
 1550               		.cfi_offset 29, -10
 1551               	/* prologue: function */
 1552               	/* frame size = 0 */
 1553               	/* stack size = 9 */
 1554               	.L__stack_usage = 9
 1555 0012 EC01      		movw r28,r24
 1556 0014 8B01      		movw r16,r22
 1557 0016 7A01      		movw r14,r20
 1558               	.LVL163:
  41:lib/lufa/LUFA/Drivers/USB/Core/AVR8/Template/Template_Endpoint_RW.c **** 	  return ErrorCode;
 1559               		.loc 3 41 0
 1560 0018 0E94 0000 		call Endpoint_WaitUntilReady
 1561               	.LVL164:
 1562 001c D82E      		mov r13,r24
 1563               	.LVL165:
 1564 001e 8111      		cpse r24,__zero_reg__
 1565 0020 00C0      		rjmp .L105
  37:lib/lufa/LUFA/Drivers/USB/Core/AVR8/Template/Template_Endpoint_RW.c **** 	uint16_t BytesInTransfer = 0;
 1566               		.loc 3 37 0
 1567 0022 C801      		movw r24,r16
 1568 0024 0197      		sbiw r24,1
 1569               	.LVL166:
 1570 0026 C80F      		add r28,r24
 1571 0028 D91F      		adc r29,r25
 1572               	.LVL167:
  44:lib/lufa/LUFA/Drivers/USB/Core/AVR8/Template/Template_Endpoint_RW.c **** 	{
 1573               		.loc 3 44 0
 1574 002a E114      		cp r14,__zero_reg__
 1575 002c F104      		cpc r15,__zero_reg__
 1576 002e 01F0      		breq .L107
  46:lib/lufa/LUFA/Drivers/USB/Core/AVR8/Template/Template_Endpoint_RW.c **** 		TEMPLATE_BUFFER_MOVE(DataStream, *BytesProcessed);
 1577               		.loc 3 46 0
 1578 0030 F701      		movw r30,r14
 1579 0032 8081      		ld r24,Z
 1580 0034 9181      		ldd r25,Z+1
 1581               	.LVL168:
 1582 0036 081B      		sub r16,r24
 1583 0038 190B      		sbc r17,r25
 1584               	.LVL169:
  47:lib/lufa/LUFA/Drivers/USB/Core/AVR8/Template/Template_Endpoint_RW.c **** 	}
 1585               		.loc 3 47 0
 1586 003a C81B      		sub r28,r24
 1587 003c D90B      		sbc r29,r25
 1588               	.LVL170:
 1589               	.L107:
  36:lib/lufa/LUFA/Drivers/USB/Core/AVR8/Template/Template_Endpoint_RW.c **** 	uint8_t* DataStream      = ((uint8_t*)Buffer + TEMPLATE_BUFFER_OFFSET(Length));
 1590               		.loc 3 36 0
 1591 003e B12C      		mov r11,__zero_reg__
 1592 0040 A12C      		mov r10,__zero_reg__
 1593               	.LVL171:
 1594               	.L108:
  50:lib/lufa/LUFA/Drivers/USB/Core/AVR8/Template/Template_Endpoint_RW.c **** 	{
 1595               		.loc 3 50 0
 1596 0042 0115      		cp r16,__zero_reg__
 1597 0044 1105      		cpc r17,__zero_reg__
 1598 0046 01F0      		breq .L105
 1599               	.LBB324:
 1600               	.LBB325:
 360:lib/lufa/LUFA/Drivers/USB/Core/AVR8/../AVR8/../AVR8/Endpoint_AVR8.h **** 			}
 1601               		.loc 2 360 0
 1602 0048 8091 E800 		lds r24,232
 1603               	.LBE325:
 1604               	.LBE324:
  52:lib/lufa/LUFA/Drivers/USB/Core/AVR8/Template/Template_Endpoint_RW.c **** 		{
 1605               		.loc 3 52 0
 1606 004c 85FD      		sbrc r24,5
 1607 004e 00C0      		rjmp .L109
 1608               	.LBB326:
 1609               	.LBB327:
 456:lib/lufa/LUFA/Drivers/USB/Core/AVR8/../AVR8/../AVR8/Endpoint_AVR8.h **** 				#else
 1610               		.loc 2 456 0
 1611 0050 8091 E800 		lds r24,232
 1612 0054 8E77      		andi r24,lo8(126)
 1613 0056 8093 E800 		sts 232,r24
 1614               	.LBE327:
 1615               	.LBE326:
  60:lib/lufa/LUFA/Drivers/USB/Core/AVR8/Template/Template_Endpoint_RW.c **** 			{
 1616               		.loc 3 60 0
 1617 005a E114      		cp r14,__zero_reg__
 1618 005c F104      		cpc r15,__zero_reg__
 1619 005e 01F0      		breq .L110
  62:lib/lufa/LUFA/Drivers/USB/Core/AVR8/Template/Template_Endpoint_RW.c **** 				return ENDPOINT_RWSTREAM_IncompleteTransfer;
 1620               		.loc 3 62 0
 1621 0060 F701      		movw r30,r14
 1622 0062 8081      		ld r24,Z
 1623 0064 9181      		ldd r25,Z+1
 1624 0066 A80E      		add r10,r24
 1625 0068 B91E      		adc r11,r25
 1626               	.LVL172:
 1627 006a B182      		std Z+1,r11
 1628 006c A082      		st Z,r10
  63:lib/lufa/LUFA/Drivers/USB/Core/AVR8/Template/Template_Endpoint_RW.c **** 			}
 1629               		.loc 3 63 0
 1630 006e 85E0      		ldi r24,lo8(5)
 1631 0070 D82E      		mov r13,r24
 1632               	.LVL173:
 1633               	.L105:
 1634               		.loc 3 79 0
 1635 0072 8D2D      		mov r24,r13
 1636               	/* epilogue start */
 1637 0074 DF91      		pop r29
 1638 0076 CF91      		pop r28
 1639 0078 1F91      		pop r17
 1640 007a 0F91      		pop r16
 1641               	.LVL174:
 1642 007c FF90      		pop r15
 1643 007e EF90      		pop r14
 1644               	.LVL175:
 1645 0080 DF90      		pop r13
 1646 0082 BF90      		pop r11
 1647 0084 AF90      		pop r10
 1648 0086 0895      		ret
 1649               	.LVL176:
 1650               	.L110:
  66:lib/lufa/LUFA/Drivers/USB/Core/AVR8/Template/Template_Endpoint_RW.c **** 			  return ErrorCode;
 1651               		.loc 3 66 0
 1652 0088 0E94 0000 		call Endpoint_WaitUntilReady
 1653               	.LVL177:
 1654 008c 8823      		tst r24
 1655 008e 01F0      		breq .L108
 1656 0090 D82E      		mov r13,r24
 1657 0092 00C0      		rjmp .L105
 1658               	.LVL178:
 1659               	.L109:
  71:lib/lufa/LUFA/Drivers/USB/Core/AVR8/Template/Template_Endpoint_RW.c **** 			TEMPLATE_BUFFER_MOVE(DataStream, 1);
 1660               		.loc 3 71 0
 1661 0094 CE01      		movw r24,r28
 1662 0096 0E94 0000 		call eeprom_read_byte
 1663               	.LVL179:
 1664               	.LBB328:
 1665               	.LBB329:
 554:lib/lufa/LUFA/Drivers/USB/Core/AVR8/../AVR8/../AVR8/Endpoint_AVR8.h **** 			}
 1666               		.loc 2 554 0
 1667 009a 8093 F100 		sts 241,r24
 1668               	.LVL180:
 1669               	.LBE329:
 1670               	.LBE328:
  72:lib/lufa/LUFA/Drivers/USB/Core/AVR8/Template/Template_Endpoint_RW.c **** 			Length--;
 1671               		.loc 3 72 0
 1672 009e 2197      		sbiw r28,1
 1673               	.LVL181:
  73:lib/lufa/LUFA/Drivers/USB/Core/AVR8/Template/Template_Endpoint_RW.c **** 			BytesInTransfer++;
 1674               		.loc 3 73 0
 1675 00a0 0150      		subi r16,1
 1676 00a2 1109      		sbc r17,__zero_reg__
 1677               	.LVL182:
  74:lib/lufa/LUFA/Drivers/USB/Core/AVR8/Template/Template_Endpoint_RW.c **** 		}
 1678               		.loc 3 74 0
 1679 00a4 FFEF      		ldi r31,-1
 1680 00a6 AF1A      		sub r10,r31
 1681 00a8 BF0A      		sbc r11,r31
 1682               	.LVL183:
 1683 00aa 00C0      		rjmp .L108
 1684               		.cfi_endproc
 1685               	.LFE94:
 1687               		.section	.text.Endpoint_Read_EStream_LE,"ax",@progbits
 1688               	.global	Endpoint_Read_EStream_LE
 1690               	Endpoint_Read_EStream_LE:
 1691               	.LFB95:
  36:lib/lufa/LUFA/Drivers/USB/Core/AVR8/Template/Template_Endpoint_RW.c **** 	uint8_t* DataStream      = ((uint8_t*)Buffer + TEMPLATE_BUFFER_OFFSET(Length));
 1692               		.loc 3 36 0
 1693               		.cfi_startproc
 1694               	.LVL184:
 1695 0000 AF92      		push r10
 1696               	.LCFI86:
 1697               		.cfi_def_cfa_offset 3
 1698               		.cfi_offset 10, -2
 1699 0002 BF92      		push r11
 1700               	.LCFI87:
 1701               		.cfi_def_cfa_offset 4
 1702               		.cfi_offset 11, -3
 1703 0004 DF92      		push r13
 1704               	.LCFI88:
 1705               		.cfi_def_cfa_offset 5
 1706               		.cfi_offset 13, -4
 1707 0006 EF92      		push r14
 1708               	.LCFI89:
 1709               		.cfi_def_cfa_offset 6
 1710               		.cfi_offset 14, -5
 1711 0008 FF92      		push r15
 1712               	.LCFI90:
 1713               		.cfi_def_cfa_offset 7
 1714               		.cfi_offset 15, -6
 1715 000a 0F93      		push r16
 1716               	.LCFI91:
 1717               		.cfi_def_cfa_offset 8
 1718               		.cfi_offset 16, -7
 1719 000c 1F93      		push r17
 1720               	.LCFI92:
 1721               		.cfi_def_cfa_offset 9
 1722               		.cfi_offset 17, -8
 1723 000e CF93      		push r28
 1724               	.LCFI93:
 1725               		.cfi_def_cfa_offset 10
 1726               		.cfi_offset 28, -9
 1727 0010 DF93      		push r29
 1728               	.LCFI94:
 1729               		.cfi_def_cfa_offset 11
 1730               		.cfi_offset 29, -10
 1731               	/* prologue: function */
 1732               	/* frame size = 0 */
 1733               	/* stack size = 9 */
 1734               	.L__stack_usage = 9
 1735 0012 8C01      		movw r16,r24
 1736 0014 EB01      		movw r28,r22
 1737 0016 7A01      		movw r14,r20
 1738               	.LVL185:
  41:lib/lufa/LUFA/Drivers/USB/Core/AVR8/Template/Template_Endpoint_RW.c **** 	  return ErrorCode;
 1739               		.loc 3 41 0
 1740 0018 0E94 0000 		call Endpoint_WaitUntilReady
 1741               	.LVL186:
 1742 001c D82E      		mov r13,r24
 1743               	.LVL187:
 1744 001e 8111      		cpse r24,__zero_reg__
 1745 0020 00C0      		rjmp .L117
  44:lib/lufa/LUFA/Drivers/USB/Core/AVR8/Template/Template_Endpoint_RW.c **** 	{
 1746               		.loc 3 44 0
 1747 0022 E114      		cp r14,__zero_reg__
 1748 0024 F104      		cpc r15,__zero_reg__
 1749 0026 01F0      		breq .L119
  46:lib/lufa/LUFA/Drivers/USB/Core/AVR8/Template/Template_Endpoint_RW.c **** 		TEMPLATE_BUFFER_MOVE(DataStream, *BytesProcessed);
 1750               		.loc 3 46 0
 1751 0028 F701      		movw r30,r14
 1752 002a 8081      		ld r24,Z
 1753 002c 9181      		ldd r25,Z+1
 1754 002e C81B      		sub r28,r24
 1755 0030 D90B      		sbc r29,r25
 1756               	.LVL188:
  47:lib/lufa/LUFA/Drivers/USB/Core/AVR8/Template/Template_Endpoint_RW.c **** 	}
 1757               		.loc 3 47 0
 1758 0032 080F      		add r16,r24
 1759 0034 191F      		adc r17,r25
 1760               	.LVL189:
 1761               	.L119:
  36:lib/lufa/LUFA/Drivers/USB/Core/AVR8/Template/Template_Endpoint_RW.c **** 	uint8_t* DataStream      = ((uint8_t*)Buffer + TEMPLATE_BUFFER_OFFSET(Length));
 1762               		.loc 3 36 0
 1763 0036 B12C      		mov r11,__zero_reg__
 1764 0038 A12C      		mov r10,__zero_reg__
 1765               	.LVL190:
 1766               	.L120:
  50:lib/lufa/LUFA/Drivers/USB/Core/AVR8/Template/Template_Endpoint_RW.c **** 	{
 1767               		.loc 3 50 0
 1768 003a 2097      		sbiw r28,0
 1769 003c 01F0      		breq .L117
 1770               	.LBB330:
 1771               	.LBB331:
 360:lib/lufa/LUFA/Drivers/USB/Core/AVR8/../AVR8/../AVR8/Endpoint_AVR8.h **** 			}
 1772               		.loc 2 360 0
 1773 003e 8091 E800 		lds r24,232
 1774               	.LBE331:
 1775               	.LBE330:
  52:lib/lufa/LUFA/Drivers/USB/Core/AVR8/Template/Template_Endpoint_RW.c **** 		{
 1776               		.loc 3 52 0
 1777 0042 85FD      		sbrc r24,5
 1778 0044 00C0      		rjmp .L121
 1779               	.LBB332:
 1780               	.LBB333:
 471:lib/lufa/LUFA/Drivers/USB/Core/AVR8/../AVR8/../AVR8/Endpoint_AVR8.h **** 				#else
 1781               		.loc 2 471 0
 1782 0046 8091 E800 		lds r24,232
 1783 004a 8B77      		andi r24,lo8(123)
 1784 004c 8093 E800 		sts 232,r24
 1785               	.LBE333:
 1786               	.LBE332:
  60:lib/lufa/LUFA/Drivers/USB/Core/AVR8/Template/Template_Endpoint_RW.c **** 			{
 1787               		.loc 3 60 0
 1788 0050 E114      		cp r14,__zero_reg__
 1789 0052 F104      		cpc r15,__zero_reg__
 1790 0054 01F0      		breq .L122
  62:lib/lufa/LUFA/Drivers/USB/Core/AVR8/Template/Template_Endpoint_RW.c **** 				return ENDPOINT_RWSTREAM_IncompleteTransfer;
 1791               		.loc 3 62 0
 1792 0056 F701      		movw r30,r14
 1793 0058 8081      		ld r24,Z
 1794 005a 9181      		ldd r25,Z+1
 1795 005c A80E      		add r10,r24
 1796 005e B91E      		adc r11,r25
 1797               	.LVL191:
 1798 0060 B182      		std Z+1,r11
 1799 0062 A082      		st Z,r10
  63:lib/lufa/LUFA/Drivers/USB/Core/AVR8/Template/Template_Endpoint_RW.c **** 			}
 1800               		.loc 3 63 0
 1801 0064 85E0      		ldi r24,lo8(5)
 1802 0066 D82E      		mov r13,r24
 1803               	.L117:
 1804               		.loc 3 79 0
 1805 0068 8D2D      		mov r24,r13
 1806               	/* epilogue start */
 1807 006a DF91      		pop r29
 1808 006c CF91      		pop r28
 1809               	.LVL192:
 1810 006e 1F91      		pop r17
 1811 0070 0F91      		pop r16
 1812               	.LVL193:
 1813 0072 FF90      		pop r15
 1814 0074 EF90      		pop r14
 1815               	.LVL194:
 1816 0076 DF90      		pop r13
 1817 0078 BF90      		pop r11
 1818 007a AF90      		pop r10
 1819 007c 0895      		ret
 1820               	.LVL195:
 1821               	.L122:
  66:lib/lufa/LUFA/Drivers/USB/Core/AVR8/Template/Template_Endpoint_RW.c **** 			  return ErrorCode;
 1822               		.loc 3 66 0
 1823 007e 0E94 0000 		call Endpoint_WaitUntilReady
 1824               	.LVL196:
 1825 0082 8823      		tst r24
 1826 0084 01F0      		breq .L120
 1827 0086 D82E      		mov r13,r24
 1828 0088 00C0      		rjmp .L117
 1829               	.LVL197:
 1830               	.L121:
 1831               	.LBB334:
 1832               	.LBB335:
 542:lib/lufa/LUFA/Drivers/USB/Core/AVR8/../AVR8/../AVR8/Endpoint_AVR8.h **** 			}
 1833               		.loc 2 542 0
 1834 008a 6091 F100 		lds r22,241
 1835               	.LBE335:
 1836               	.LBE334:
  71:lib/lufa/LUFA/Drivers/USB/Core/AVR8/Template/Template_Endpoint_RW.c **** 			TEMPLATE_BUFFER_MOVE(DataStream, 1);
 1837               		.loc 3 71 0
 1838 008e C801      		movw r24,r16
 1839 0090 0E94 0000 		call eeprom_update_byte
 1840               	.LVL198:
  72:lib/lufa/LUFA/Drivers/USB/Core/AVR8/Template/Template_Endpoint_RW.c **** 			Length--;
 1841               		.loc 3 72 0
 1842 0094 0F5F      		subi r16,-1
 1843 0096 1F4F      		sbci r17,-1
 1844               	.LVL199:
  73:lib/lufa/LUFA/Drivers/USB/Core/AVR8/Template/Template_Endpoint_RW.c **** 			BytesInTransfer++;
 1845               		.loc 3 73 0
 1846 0098 2197      		sbiw r28,1
 1847               	.LVL200:
  74:lib/lufa/LUFA/Drivers/USB/Core/AVR8/Template/Template_Endpoint_RW.c **** 		}
 1848               		.loc 3 74 0
 1849 009a FFEF      		ldi r31,-1
 1850 009c AF1A      		sub r10,r31
 1851 009e BF0A      		sbc r11,r31
 1852               	.LVL201:
 1853 00a0 00C0      		rjmp .L120
 1854               		.cfi_endproc
 1855               	.LFE95:
 1857               		.section	.text.Endpoint_Read_EStream_BE,"ax",@progbits
 1858               	.global	Endpoint_Read_EStream_BE
 1860               	Endpoint_Read_EStream_BE:
 1861               	.LFB96:
  36:lib/lufa/LUFA/Drivers/USB/Core/AVR8/Template/Template_Endpoint_RW.c **** 	uint8_t* DataStream      = ((uint8_t*)Buffer + TEMPLATE_BUFFER_OFFSET(Length));
 1862               		.loc 3 36 0
 1863               		.cfi_startproc
 1864               	.LVL202:
 1865 0000 AF92      		push r10
 1866               	.LCFI95:
 1867               		.cfi_def_cfa_offset 3
 1868               		.cfi_offset 10, -2
 1869 0002 BF92      		push r11
 1870               	.LCFI96:
 1871               		.cfi_def_cfa_offset 4
 1872               		.cfi_offset 11, -3
 1873 0004 DF92      		push r13
 1874               	.LCFI97:
 1875               		.cfi_def_cfa_offset 5
 1876               		.cfi_offset 13, -4
 1877 0006 EF92      		push r14
 1878               	.LCFI98:
 1879               		.cfi_def_cfa_offset 6
 1880               		.cfi_offset 14, -5
 1881 0008 FF92      		push r15
 1882               	.LCFI99:
 1883               		.cfi_def_cfa_offset 7
 1884               		.cfi_offset 15, -6
 1885 000a 0F93      		push r16
 1886               	.LCFI100:
 1887               		.cfi_def_cfa_offset 8
 1888               		.cfi_offset 16, -7
 1889 000c 1F93      		push r17
 1890               	.LCFI101:
 1891               		.cfi_def_cfa_offset 9
 1892               		.cfi_offset 17, -8
 1893 000e CF93      		push r28
 1894               	.LCFI102:
 1895               		.cfi_def_cfa_offset 10
 1896               		.cfi_offset 28, -9
 1897 0010 DF93      		push r29
 1898               	.LCFI103:
 1899               		.cfi_def_cfa_offset 11
 1900               		.cfi_offset 29, -10
 1901               	/* prologue: function */
 1902               	/* frame size = 0 */
 1903               	/* stack size = 9 */
 1904               	.L__stack_usage = 9
 1905 0012 EC01      		movw r28,r24
 1906 0014 8B01      		movw r16,r22
 1907 0016 7A01      		movw r14,r20
 1908               	.LVL203:
  41:lib/lufa/LUFA/Drivers/USB/Core/AVR8/Template/Template_Endpoint_RW.c **** 	  return ErrorCode;
 1909               		.loc 3 41 0
 1910 0018 0E94 0000 		call Endpoint_WaitUntilReady
 1911               	.LVL204:
 1912 001c D82E      		mov r13,r24
 1913               	.LVL205:
 1914 001e 8111      		cpse r24,__zero_reg__
 1915 0020 00C0      		rjmp .L129
  37:lib/lufa/LUFA/Drivers/USB/Core/AVR8/Template/Template_Endpoint_RW.c **** 	uint16_t BytesInTransfer = 0;
 1916               		.loc 3 37 0
 1917 0022 C801      		movw r24,r16
 1918 0024 0197      		sbiw r24,1
 1919               	.LVL206:
 1920 0026 C80F      		add r28,r24
 1921 0028 D91F      		adc r29,r25
 1922               	.LVL207:
  44:lib/lufa/LUFA/Drivers/USB/Core/AVR8/Template/Template_Endpoint_RW.c **** 	{
 1923               		.loc 3 44 0
 1924 002a E114      		cp r14,__zero_reg__
 1925 002c F104      		cpc r15,__zero_reg__
 1926 002e 01F0      		breq .L131
  46:lib/lufa/LUFA/Drivers/USB/Core/AVR8/Template/Template_Endpoint_RW.c **** 		TEMPLATE_BUFFER_MOVE(DataStream, *BytesProcessed);
 1927               		.loc 3 46 0
 1928 0030 F701      		movw r30,r14
 1929 0032 8081      		ld r24,Z
 1930 0034 9181      		ldd r25,Z+1
 1931               	.LVL208:
 1932 0036 081B      		sub r16,r24
 1933 0038 190B      		sbc r17,r25
 1934               	.LVL209:
  47:lib/lufa/LUFA/Drivers/USB/Core/AVR8/Template/Template_Endpoint_RW.c **** 	}
 1935               		.loc 3 47 0
 1936 003a C81B      		sub r28,r24
 1937 003c D90B      		sbc r29,r25
 1938               	.LVL210:
 1939               	.L131:
  36:lib/lufa/LUFA/Drivers/USB/Core/AVR8/Template/Template_Endpoint_RW.c **** 	uint8_t* DataStream      = ((uint8_t*)Buffer + TEMPLATE_BUFFER_OFFSET(Length));
 1940               		.loc 3 36 0
 1941 003e B12C      		mov r11,__zero_reg__
 1942 0040 A12C      		mov r10,__zero_reg__
 1943               	.LVL211:
 1944               	.L132:
  50:lib/lufa/LUFA/Drivers/USB/Core/AVR8/Template/Template_Endpoint_RW.c **** 	{
 1945               		.loc 3 50 0
 1946 0042 0115      		cp r16,__zero_reg__
 1947 0044 1105      		cpc r17,__zero_reg__
 1948 0046 01F0      		breq .L129
 1949               	.LBB336:
 1950               	.LBB337:
 360:lib/lufa/LUFA/Drivers/USB/Core/AVR8/../AVR8/../AVR8/Endpoint_AVR8.h **** 			}
 1951               		.loc 2 360 0
 1952 0048 8091 E800 		lds r24,232
 1953               	.LBE337:
 1954               	.LBE336:
  52:lib/lufa/LUFA/Drivers/USB/Core/AVR8/Template/Template_Endpoint_RW.c **** 		{
 1955               		.loc 3 52 0
 1956 004c 85FD      		sbrc r24,5
 1957 004e 00C0      		rjmp .L133
 1958               	.LBB338:
 1959               	.LBB339:
 471:lib/lufa/LUFA/Drivers/USB/Core/AVR8/../AVR8/../AVR8/Endpoint_AVR8.h **** 				#else
 1960               		.loc 2 471 0
 1961 0050 8091 E800 		lds r24,232
 1962 0054 8B77      		andi r24,lo8(123)
 1963 0056 8093 E800 		sts 232,r24
 1964               	.LBE339:
 1965               	.LBE338:
  60:lib/lufa/LUFA/Drivers/USB/Core/AVR8/Template/Template_Endpoint_RW.c **** 			{
 1966               		.loc 3 60 0
 1967 005a E114      		cp r14,__zero_reg__
 1968 005c F104      		cpc r15,__zero_reg__
 1969 005e 01F0      		breq .L134
  62:lib/lufa/LUFA/Drivers/USB/Core/AVR8/Template/Template_Endpoint_RW.c **** 				return ENDPOINT_RWSTREAM_IncompleteTransfer;
 1970               		.loc 3 62 0
 1971 0060 F701      		movw r30,r14
 1972 0062 8081      		ld r24,Z
 1973 0064 9181      		ldd r25,Z+1
 1974 0066 A80E      		add r10,r24
 1975 0068 B91E      		adc r11,r25
 1976               	.LVL212:
 1977 006a B182      		std Z+1,r11
 1978 006c A082      		st Z,r10
  63:lib/lufa/LUFA/Drivers/USB/Core/AVR8/Template/Template_Endpoint_RW.c **** 			}
 1979               		.loc 3 63 0
 1980 006e 85E0      		ldi r24,lo8(5)
 1981 0070 D82E      		mov r13,r24
 1982               	.LVL213:
 1983               	.L129:
 1984               		.loc 3 79 0
 1985 0072 8D2D      		mov r24,r13
 1986               	/* epilogue start */
 1987 0074 DF91      		pop r29
 1988 0076 CF91      		pop r28
 1989 0078 1F91      		pop r17
 1990 007a 0F91      		pop r16
 1991               	.LVL214:
 1992 007c FF90      		pop r15
 1993 007e EF90      		pop r14
 1994               	.LVL215:
 1995 0080 DF90      		pop r13
 1996 0082 BF90      		pop r11
 1997 0084 AF90      		pop r10
 1998 0086 0895      		ret
 1999               	.LVL216:
 2000               	.L134:
  66:lib/lufa/LUFA/Drivers/USB/Core/AVR8/Template/Template_Endpoint_RW.c **** 			  return ErrorCode;
 2001               		.loc 3 66 0
 2002 0088 0E94 0000 		call Endpoint_WaitUntilReady
 2003               	.LVL217:
 2004 008c 8823      		tst r24
 2005 008e 01F0      		breq .L132
 2006 0090 D82E      		mov r13,r24
 2007 0092 00C0      		rjmp .L129
 2008               	.LVL218:
 2009               	.L133:
 2010               	.LBB340:
 2011               	.LBB341:
 542:lib/lufa/LUFA/Drivers/USB/Core/AVR8/../AVR8/../AVR8/Endpoint_AVR8.h **** 			}
 2012               		.loc 2 542 0
 2013 0094 6091 F100 		lds r22,241
 2014               	.LBE341:
 2015               	.LBE340:
  71:lib/lufa/LUFA/Drivers/USB/Core/AVR8/Template/Template_Endpoint_RW.c **** 			TEMPLATE_BUFFER_MOVE(DataStream, 1);
 2016               		.loc 3 71 0
 2017 0098 CE01      		movw r24,r28
 2018 009a 0E94 0000 		call eeprom_update_byte
 2019               	.LVL219:
  72:lib/lufa/LUFA/Drivers/USB/Core/AVR8/Template/Template_Endpoint_RW.c **** 			Length--;
 2020               		.loc 3 72 0
 2021 009e 2197      		sbiw r28,1
 2022               	.LVL220:
  73:lib/lufa/LUFA/Drivers/USB/Core/AVR8/Template/Template_Endpoint_RW.c **** 			BytesInTransfer++;
 2023               		.loc 3 73 0
 2024 00a0 0150      		subi r16,1
 2025 00a2 1109      		sbc r17,__zero_reg__
 2026               	.LVL221:
  74:lib/lufa/LUFA/Drivers/USB/Core/AVR8/Template/Template_Endpoint_RW.c **** 		}
 2027               		.loc 3 74 0
 2028 00a4 FFEF      		ldi r31,-1
 2029 00a6 AF1A      		sub r10,r31
 2030 00a8 BF0A      		sbc r11,r31
 2031               	.LVL222:
 2032 00aa 00C0      		rjmp .L132
 2033               		.cfi_endproc
 2034               	.LFE96:
 2036               		.section	.text.Endpoint_Write_Control_Stream_LE,"ax",@progbits
 2037               	.global	Endpoint_Write_Control_Stream_LE
 2039               	Endpoint_Write_Control_Stream_LE:
 2040               	.LFB97:
 2041               		.file 4 "lib/lufa/LUFA/Drivers/USB/Core/AVR8/Template/Template_Endpoint_Control_W.c"
   1:lib/lufa/LUFA/Drivers/USB/Core/AVR8/Template/Template_Endpoint_Control_W.c **** /*
   2:lib/lufa/LUFA/Drivers/USB/Core/AVR8/Template/Template_Endpoint_Control_W.c ****              LUFA Library
   3:lib/lufa/LUFA/Drivers/USB/Core/AVR8/Template/Template_Endpoint_Control_W.c ****      Copyright (C) Dean Camera, 2019.
   4:lib/lufa/LUFA/Drivers/USB/Core/AVR8/Template/Template_Endpoint_Control_W.c **** 
   5:lib/lufa/LUFA/Drivers/USB/Core/AVR8/Template/Template_Endpoint_Control_W.c ****   dean [at] fourwalledcubicle [dot] com
   6:lib/lufa/LUFA/Drivers/USB/Core/AVR8/Template/Template_Endpoint_Control_W.c ****            www.lufa-lib.org
   7:lib/lufa/LUFA/Drivers/USB/Core/AVR8/Template/Template_Endpoint_Control_W.c **** */
   8:lib/lufa/LUFA/Drivers/USB/Core/AVR8/Template/Template_Endpoint_Control_W.c **** 
   9:lib/lufa/LUFA/Drivers/USB/Core/AVR8/Template/Template_Endpoint_Control_W.c **** /*
  10:lib/lufa/LUFA/Drivers/USB/Core/AVR8/Template/Template_Endpoint_Control_W.c ****   Copyright 2019  Dean Camera (dean [at] fourwalledcubicle [dot] com)
  11:lib/lufa/LUFA/Drivers/USB/Core/AVR8/Template/Template_Endpoint_Control_W.c **** 
  12:lib/lufa/LUFA/Drivers/USB/Core/AVR8/Template/Template_Endpoint_Control_W.c ****   Permission to use, copy, modify, distribute, and sell this
  13:lib/lufa/LUFA/Drivers/USB/Core/AVR8/Template/Template_Endpoint_Control_W.c ****   software and its documentation for any purpose is hereby granted
  14:lib/lufa/LUFA/Drivers/USB/Core/AVR8/Template/Template_Endpoint_Control_W.c ****   without fee, provided that the above copyright notice appear in
  15:lib/lufa/LUFA/Drivers/USB/Core/AVR8/Template/Template_Endpoint_Control_W.c ****   all copies and that both that the copyright notice and this
  16:lib/lufa/LUFA/Drivers/USB/Core/AVR8/Template/Template_Endpoint_Control_W.c ****   permission notice and warranty disclaimer appear in supporting
  17:lib/lufa/LUFA/Drivers/USB/Core/AVR8/Template/Template_Endpoint_Control_W.c ****   documentation, and that the name of the author not be used in
  18:lib/lufa/LUFA/Drivers/USB/Core/AVR8/Template/Template_Endpoint_Control_W.c ****   advertising or publicity pertaining to distribution of the
  19:lib/lufa/LUFA/Drivers/USB/Core/AVR8/Template/Template_Endpoint_Control_W.c ****   software without specific, written prior permission.
  20:lib/lufa/LUFA/Drivers/USB/Core/AVR8/Template/Template_Endpoint_Control_W.c **** 
  21:lib/lufa/LUFA/Drivers/USB/Core/AVR8/Template/Template_Endpoint_Control_W.c ****   The author disclaims all warranties with regard to this
  22:lib/lufa/LUFA/Drivers/USB/Core/AVR8/Template/Template_Endpoint_Control_W.c ****   software, including all implied warranties of merchantability
  23:lib/lufa/LUFA/Drivers/USB/Core/AVR8/Template/Template_Endpoint_Control_W.c ****   and fitness.  In no event shall the author be liable for any
  24:lib/lufa/LUFA/Drivers/USB/Core/AVR8/Template/Template_Endpoint_Control_W.c ****   special, indirect or consequential damages or any damages
  25:lib/lufa/LUFA/Drivers/USB/Core/AVR8/Template/Template_Endpoint_Control_W.c ****   whatsoever resulting from loss of use, data or profits, whether
  26:lib/lufa/LUFA/Drivers/USB/Core/AVR8/Template/Template_Endpoint_Control_W.c ****   in an action of contract, negligence or other tortious action,
  27:lib/lufa/LUFA/Drivers/USB/Core/AVR8/Template/Template_Endpoint_Control_W.c ****   arising out of or in connection with the use or performance of
  28:lib/lufa/LUFA/Drivers/USB/Core/AVR8/Template/Template_Endpoint_Control_W.c ****   this software.
  29:lib/lufa/LUFA/Drivers/USB/Core/AVR8/Template/Template_Endpoint_Control_W.c **** */
  30:lib/lufa/LUFA/Drivers/USB/Core/AVR8/Template/Template_Endpoint_Control_W.c **** 
  31:lib/lufa/LUFA/Drivers/USB/Core/AVR8/Template/Template_Endpoint_Control_W.c **** #if defined(TEMPLATE_FUNC_NAME)
  32:lib/lufa/LUFA/Drivers/USB/Core/AVR8/Template/Template_Endpoint_Control_W.c **** 
  33:lib/lufa/LUFA/Drivers/USB/Core/AVR8/Template/Template_Endpoint_Control_W.c **** uint8_t TEMPLATE_FUNC_NAME (const void* const Buffer,
  34:lib/lufa/LUFA/Drivers/USB/Core/AVR8/Template/Template_Endpoint_Control_W.c ****                             uint16_t Length)
  35:lib/lufa/LUFA/Drivers/USB/Core/AVR8/Template/Template_Endpoint_Control_W.c **** {
 2042               		.loc 4 35 0
 2043               		.cfi_startproc
 2044               	.LVL223:
 2045               	/* prologue: function */
 2046               	/* frame size = 0 */
 2047               	/* stack size = 0 */
 2048               	.L__stack_usage = 0
 2049 0000 FC01      		movw r30,r24
 2050               	.LVL224:
  36:lib/lufa/LUFA/Drivers/USB/Core/AVR8/Template/Template_Endpoint_Control_W.c **** 	uint8_t* DataStream     = ((uint8_t*)Buffer + TEMPLATE_BUFFER_OFFSET(Length));
  37:lib/lufa/LUFA/Drivers/USB/Core/AVR8/Template/Template_Endpoint_Control_W.c **** 	bool     LastPacketFull = false;
  38:lib/lufa/LUFA/Drivers/USB/Core/AVR8/Template/Template_Endpoint_Control_W.c **** 
  39:lib/lufa/LUFA/Drivers/USB/Core/AVR8/Template/Template_Endpoint_Control_W.c **** 	if (Length > USB_ControlRequest.wLength)
 2051               		.loc 4 39 0
 2052 0002 8091 0000 		lds r24,USB_ControlRequest+6
 2053 0006 9091 0000 		lds r25,USB_ControlRequest+6+1
 2054               	.LVL225:
 2055 000a 8617      		cp r24,r22
 2056 000c 9707      		cpc r25,r23
 2057 000e 00F0      		brlo .L153
  40:lib/lufa/LUFA/Drivers/USB/Core/AVR8/Template/Template_Endpoint_Control_W.c **** 	  Length = USB_ControlRequest.wLength;
  41:lib/lufa/LUFA/Drivers/USB/Core/AVR8/Template/Template_Endpoint_Control_W.c **** 	else if (!(Length))
 2058               		.loc 4 41 0
 2059 0010 6115      		cp r22,__zero_reg__
 2060 0012 7105      		cpc r23,__zero_reg__
 2061 0014 01F4      		brne .L142
 2062               	.LBB342:
 2063               	.LBB343:
 456:lib/lufa/LUFA/Drivers/USB/Core/AVR8/../AVR8/../AVR8/Endpoint_AVR8.h **** 				#else
 2064               		.loc 2 456 0
 2065 0016 9091 E800 		lds r25,232
 2066 001a 9E77      		andi r25,lo8(126)
 2067 001c 9093 E800 		sts 232,r25
 2068               	.LVL226:
 2069               	.L142:
 2070               	.LBE343:
 2071               	.LBE342:
 2072 0020 90E0      		ldi r25,0
 2073               	.LVL227:
 2074               	.L146:
  42:lib/lufa/LUFA/Drivers/USB/Core/AVR8/Template/Template_Endpoint_Control_W.c **** 	  Endpoint_ClearIN();
  43:lib/lufa/LUFA/Drivers/USB/Core/AVR8/Template/Template_Endpoint_Control_W.c **** 
  44:lib/lufa/LUFA/Drivers/USB/Core/AVR8/Template/Template_Endpoint_Control_W.c **** 	while (Length || LastPacketFull)
 2075               		.loc 4 44 0
 2076 0022 6115      		cp r22,__zero_reg__
 2077 0024 7105      		cpc r23,__zero_reg__
 2078 0026 01F4      		brne .L151
 2079               		.loc 4 44 0 is_stmt 0 discriminator 1
 2080 0028 9111      		cpse r25,__zero_reg__
 2081 002a 00C0      		rjmp .L151
 2082               	.L165:
 2083               	.LBB344:
 2084               	.LBB345:
 419:lib/lufa/LUFA/Drivers/USB/Core/AVR8/../AVR8/../AVR8/Endpoint_AVR8.h **** 			}
 2085               		.loc 2 419 0 is_stmt 1
 2086 002c 8091 E800 		lds r24,232
 2087               	.LBE345:
 2088               	.LBE344:
  45:lib/lufa/LUFA/Drivers/USB/Core/AVR8/Template/Template_Endpoint_Control_W.c **** 	{
  46:lib/lufa/LUFA/Drivers/USB/Core/AVR8/Template/Template_Endpoint_Control_W.c **** 		uint8_t USB_DeviceState_LCL = USB_DeviceState;
  47:lib/lufa/LUFA/Drivers/USB/Core/AVR8/Template/Template_Endpoint_Control_W.c **** 
  48:lib/lufa/LUFA/Drivers/USB/Core/AVR8/Template/Template_Endpoint_Control_W.c **** 		if (USB_DeviceState_LCL == DEVICE_STATE_Unattached)
  49:lib/lufa/LUFA/Drivers/USB/Core/AVR8/Template/Template_Endpoint_Control_W.c **** 		  return ENDPOINT_RWCSTREAM_DeviceDisconnected;
  50:lib/lufa/LUFA/Drivers/USB/Core/AVR8/Template/Template_Endpoint_Control_W.c **** 		else if (USB_DeviceState_LCL == DEVICE_STATE_Suspended)
  51:lib/lufa/LUFA/Drivers/USB/Core/AVR8/Template/Template_Endpoint_Control_W.c **** 		  return ENDPOINT_RWCSTREAM_BusSuspended;
  52:lib/lufa/LUFA/Drivers/USB/Core/AVR8/Template/Template_Endpoint_Control_W.c **** 		else if (Endpoint_IsSETUPReceived())
  53:lib/lufa/LUFA/Drivers/USB/Core/AVR8/Template/Template_Endpoint_Control_W.c **** 		  return ENDPOINT_RWCSTREAM_HostAborted;
  54:lib/lufa/LUFA/Drivers/USB/Core/AVR8/Template/Template_Endpoint_Control_W.c **** 		else if (Endpoint_IsOUTReceived())
  55:lib/lufa/LUFA/Drivers/USB/Core/AVR8/Template/Template_Endpoint_Control_W.c **** 		  break;
  56:lib/lufa/LUFA/Drivers/USB/Core/AVR8/Template/Template_Endpoint_Control_W.c **** 
  57:lib/lufa/LUFA/Drivers/USB/Core/AVR8/Template/Template_Endpoint_Control_W.c **** 		if (Endpoint_IsINReady())
  58:lib/lufa/LUFA/Drivers/USB/Core/AVR8/Template/Template_Endpoint_Control_W.c **** 		{
  59:lib/lufa/LUFA/Drivers/USB/Core/AVR8/Template/Template_Endpoint_Control_W.c **** 			uint16_t BytesInEndpoint = Endpoint_BytesInEndpoint();
  60:lib/lufa/LUFA/Drivers/USB/Core/AVR8/Template/Template_Endpoint_Control_W.c **** 
  61:lib/lufa/LUFA/Drivers/USB/Core/AVR8/Template/Template_Endpoint_Control_W.c **** 			while (Length && (BytesInEndpoint < USB_Device_ControlEndpointSize))
  62:lib/lufa/LUFA/Drivers/USB/Core/AVR8/Template/Template_Endpoint_Control_W.c **** 			{
  63:lib/lufa/LUFA/Drivers/USB/Core/AVR8/Template/Template_Endpoint_Control_W.c **** 				TEMPLATE_TRANSFER_BYTE(DataStream);
  64:lib/lufa/LUFA/Drivers/USB/Core/AVR8/Template/Template_Endpoint_Control_W.c **** 				TEMPLATE_BUFFER_MOVE(DataStream, 1);
  65:lib/lufa/LUFA/Drivers/USB/Core/AVR8/Template/Template_Endpoint_Control_W.c **** 				Length--;
  66:lib/lufa/LUFA/Drivers/USB/Core/AVR8/Template/Template_Endpoint_Control_W.c **** 				BytesInEndpoint++;
  67:lib/lufa/LUFA/Drivers/USB/Core/AVR8/Template/Template_Endpoint_Control_W.c **** 			}
  68:lib/lufa/LUFA/Drivers/USB/Core/AVR8/Template/Template_Endpoint_Control_W.c **** 
  69:lib/lufa/LUFA/Drivers/USB/Core/AVR8/Template/Template_Endpoint_Control_W.c **** 			LastPacketFull = (BytesInEndpoint == USB_Device_ControlEndpointSize);
  70:lib/lufa/LUFA/Drivers/USB/Core/AVR8/Template/Template_Endpoint_Control_W.c **** 			Endpoint_ClearIN();
  71:lib/lufa/LUFA/Drivers/USB/Core/AVR8/Template/Template_Endpoint_Control_W.c **** 		}
  72:lib/lufa/LUFA/Drivers/USB/Core/AVR8/Template/Template_Endpoint_Control_W.c **** 	}
  73:lib/lufa/LUFA/Drivers/USB/Core/AVR8/Template/Template_Endpoint_Control_W.c **** 
  74:lib/lufa/LUFA/Drivers/USB/Core/AVR8/Template/Template_Endpoint_Control_W.c **** 	while (!(Endpoint_IsOUTReceived()))
 2089               		.loc 4 74 0
 2090 0030 82FF      		sbrs r24,2
 2091 0032 00C0      		rjmp .L152
  75:lib/lufa/LUFA/Drivers/USB/Core/AVR8/Template/Template_Endpoint_Control_W.c **** 	{
  76:lib/lufa/LUFA/Drivers/USB/Core/AVR8/Template/Template_Endpoint_Control_W.c **** 		uint8_t USB_DeviceState_LCL = USB_DeviceState;
  77:lib/lufa/LUFA/Drivers/USB/Core/AVR8/Template/Template_Endpoint_Control_W.c **** 
  78:lib/lufa/LUFA/Drivers/USB/Core/AVR8/Template/Template_Endpoint_Control_W.c **** 		if (USB_DeviceState_LCL == DEVICE_STATE_Unattached)
  79:lib/lufa/LUFA/Drivers/USB/Core/AVR8/Template/Template_Endpoint_Control_W.c **** 		  return ENDPOINT_RWCSTREAM_DeviceDisconnected;
  80:lib/lufa/LUFA/Drivers/USB/Core/AVR8/Template/Template_Endpoint_Control_W.c **** 		else if (USB_DeviceState_LCL == DEVICE_STATE_Suspended)
  81:lib/lufa/LUFA/Drivers/USB/Core/AVR8/Template/Template_Endpoint_Control_W.c **** 		  return ENDPOINT_RWCSTREAM_BusSuspended;
  82:lib/lufa/LUFA/Drivers/USB/Core/AVR8/Template/Template_Endpoint_Control_W.c **** 		else if (Endpoint_IsSETUPReceived())
  83:lib/lufa/LUFA/Drivers/USB/Core/AVR8/Template/Template_Endpoint_Control_W.c **** 		  return ENDPOINT_RWCSTREAM_HostAborted;
  84:lib/lufa/LUFA/Drivers/USB/Core/AVR8/Template/Template_Endpoint_Control_W.c **** 	}
  85:lib/lufa/LUFA/Drivers/USB/Core/AVR8/Template/Template_Endpoint_Control_W.c **** 
  86:lib/lufa/LUFA/Drivers/USB/Core/AVR8/Template/Template_Endpoint_Control_W.c **** 	return ENDPOINT_RWCSTREAM_NoError;
 2092               		.loc 4 86 0
 2093 0034 80E0      		ldi r24,0
 2094 0036 0895      		ret
 2095               	.LVL228:
 2096               	.L153:
 2097 0038 BC01      		movw r22,r24
 2098               	.LVL229:
 2099 003a 00C0      		rjmp .L142
 2100               	.LVL230:
 2101               	.L151:
 2102               	.LBB346:
  46:lib/lufa/LUFA/Drivers/USB/Core/AVR8/Template/Template_Endpoint_Control_W.c **** 
 2103               		.loc 4 46 0
 2104 003c 8091 0000 		lds r24,USB_DeviceState
 2105               	.LVL231:
  48:lib/lufa/LUFA/Drivers/USB/Core/AVR8/Template/Template_Endpoint_Control_W.c **** 		  return ENDPOINT_RWCSTREAM_DeviceDisconnected;
 2106               		.loc 4 48 0
 2107 0040 8823      		tst r24
 2108 0042 01F0      		breq .L157
  50:lib/lufa/LUFA/Drivers/USB/Core/AVR8/Template/Template_Endpoint_Control_W.c **** 		  return ENDPOINT_RWCSTREAM_BusSuspended;
 2109               		.loc 4 50 0
 2110 0044 8530      		cpi r24,lo8(5)
 2111 0046 01F0      		breq .L158
 2112               	.LBB347:
 2113               	.LBB348:
 431:lib/lufa/LUFA/Drivers/USB/Core/AVR8/../AVR8/../AVR8/Endpoint_AVR8.h **** 			}
 2114               		.loc 2 431 0
 2115 0048 8091 E800 		lds r24,232
 2116               	.LVL232:
 2117               	.LBE348:
 2118               	.LBE347:
  52:lib/lufa/LUFA/Drivers/USB/Core/AVR8/Template/Template_Endpoint_Control_W.c **** 		  return ENDPOINT_RWCSTREAM_HostAborted;
 2119               		.loc 4 52 0
 2120 004c 83FD      		sbrc r24,3
 2121 004e 00C0      		rjmp .L159
 2122               	.LBB349:
 2123               	.LBB350:
 419:lib/lufa/LUFA/Drivers/USB/Core/AVR8/../AVR8/../AVR8/Endpoint_AVR8.h **** 			}
 2124               		.loc 2 419 0
 2125 0050 8091 E800 		lds r24,232
 2126               	.LBE350:
 2127               	.LBE349:
  54:lib/lufa/LUFA/Drivers/USB/Core/AVR8/Template/Template_Endpoint_Control_W.c **** 		  break;
 2128               		.loc 4 54 0
 2129 0054 82FD      		sbrc r24,2
 2130 0056 00C0      		rjmp .L165
 2131               	.LBB351:
 2132               	.LBB352:
 407:lib/lufa/LUFA/Drivers/USB/Core/AVR8/../AVR8/../AVR8/Endpoint_AVR8.h **** 			}
 2133               		.loc 2 407 0
 2134 0058 8091 E800 		lds r24,232
 2135               	.LBE352:
 2136               	.LBE351:
  57:lib/lufa/LUFA/Drivers/USB/Core/AVR8/Template/Template_Endpoint_Control_W.c **** 		{
 2137               		.loc 4 57 0
 2138 005c 80FF      		sbrs r24,0
 2139 005e 00C0      		rjmp .L146
 2140               	.LBB353:
 2141               	.LBB354:
 2142               	.LBB355:
 227:lib/lufa/LUFA/Drivers/USB/Core/AVR8/../AVR8/../AVR8/Endpoint_AVR8.h **** 				#elif defined(USB_SERIES_2_AVR)
 2143               		.loc 2 227 0
 2144 0060 2091 F300 		lds r18,243
 2145 0064 8091 F200 		lds r24,242
 2146 0068 322F      		mov r19,r18
 2147 006a 282F      		mov r18,r24
 2148               	.L147:
 2149               	.LVL233:
 2150               	.LBE355:
 2151               	.LBE354:
  61:lib/lufa/LUFA/Drivers/USB/Core/AVR8/Template/Template_Endpoint_Control_W.c **** 			{
 2152               		.loc 4 61 0
 2153 006c 6115      		cp r22,__zero_reg__
 2154 006e 7105      		cpc r23,__zero_reg__
 2155 0070 01F0      		breq .L148
  61:lib/lufa/LUFA/Drivers/USB/Core/AVR8/Template/Template_Endpoint_Control_W.c **** 			{
 2156               		.loc 4 61 0 is_stmt 0 discriminator 1
 2157 0072 2830      		cpi r18,8
 2158 0074 3105      		cpc r19,__zero_reg__
 2159 0076 00F0      		brlo .L149
 2160               	.L148:
  69:lib/lufa/LUFA/Drivers/USB/Core/AVR8/Template/Template_Endpoint_Control_W.c **** 			Endpoint_ClearIN();
 2161               		.loc 4 69 0 is_stmt 1
 2162 0078 91E0      		ldi r25,lo8(1)
 2163               	.LVL234:
 2164 007a 2830      		cpi r18,8
 2165 007c 3105      		cpc r19,__zero_reg__
 2166 007e 01F0      		breq .L150
 2167 0080 90E0      		ldi r25,0
 2168               	.L150:
 2169               	.LVL235:
 2170               	.LBB356:
 2171               	.LBB357:
 456:lib/lufa/LUFA/Drivers/USB/Core/AVR8/../AVR8/../AVR8/Endpoint_AVR8.h **** 				#else
 2172               		.loc 2 456 0
 2173 0082 2091 E800 		lds r18,232
 2174               	.LVL236:
 2175 0086 2E77      		andi r18,lo8(126)
 2176 0088 2093 E800 		sts 232,r18
 2177 008c 00C0      		rjmp .L146
 2178               	.LVL237:
 2179               	.L149:
 2180               	.LBE357:
 2181               	.LBE356:
  63:lib/lufa/LUFA/Drivers/USB/Core/AVR8/Template/Template_Endpoint_Control_W.c **** 				TEMPLATE_BUFFER_MOVE(DataStream, 1);
 2182               		.loc 4 63 0
 2183 008e 8191      		ld r24,Z+
 2184               	.LVL238:
 2185               	.LBB358:
 2186               	.LBB359:
 554:lib/lufa/LUFA/Drivers/USB/Core/AVR8/../AVR8/../AVR8/Endpoint_AVR8.h **** 			}
 2187               		.loc 2 554 0
 2188 0090 8093 F100 		sts 241,r24
 2189               	.LVL239:
 2190               	.LBE359:
 2191               	.LBE358:
  65:lib/lufa/LUFA/Drivers/USB/Core/AVR8/Template/Template_Endpoint_Control_W.c **** 				BytesInEndpoint++;
 2192               		.loc 4 65 0
 2193 0094 6150      		subi r22,1
 2194 0096 7109      		sbc r23,__zero_reg__
 2195               	.LVL240:
  66:lib/lufa/LUFA/Drivers/USB/Core/AVR8/Template/Template_Endpoint_Control_W.c **** 			}
 2196               		.loc 4 66 0
 2197 0098 2F5F      		subi r18,-1
 2198 009a 3F4F      		sbci r19,-1
 2199               	.LVL241:
 2200 009c 00C0      		rjmp .L147
 2201               	.LVL242:
 2202               	.L152:
 2203               	.LBE353:
 2204               	.LBE346:
 2205               	.LBB360:
  76:lib/lufa/LUFA/Drivers/USB/Core/AVR8/Template/Template_Endpoint_Control_W.c **** 
 2206               		.loc 4 76 0
 2207 009e 8091 0000 		lds r24,USB_DeviceState
 2208               	.LVL243:
  78:lib/lufa/LUFA/Drivers/USB/Core/AVR8/Template/Template_Endpoint_Control_W.c **** 		  return ENDPOINT_RWCSTREAM_DeviceDisconnected;
 2209               		.loc 4 78 0
 2210 00a2 8823      		tst r24
 2211 00a4 01F0      		breq .L157
  80:lib/lufa/LUFA/Drivers/USB/Core/AVR8/Template/Template_Endpoint_Control_W.c **** 		  return ENDPOINT_RWCSTREAM_BusSuspended;
 2212               		.loc 4 80 0
 2213 00a6 8530      		cpi r24,lo8(5)
 2214 00a8 01F0      		breq .L158
 2215               	.LBB361:
 2216               	.LBB362:
 431:lib/lufa/LUFA/Drivers/USB/Core/AVR8/../AVR8/../AVR8/Endpoint_AVR8.h **** 			}
 2217               		.loc 2 431 0
 2218 00aa 8091 E800 		lds r24,232
 2219               	.LVL244:
 2220               	.LBE362:
 2221               	.LBE361:
  82:lib/lufa/LUFA/Drivers/USB/Core/AVR8/Template/Template_Endpoint_Control_W.c **** 		  return ENDPOINT_RWCSTREAM_HostAborted;
 2222               		.loc 4 82 0
 2223 00ae 83FF      		sbrs r24,3
 2224 00b0 00C0      		rjmp .L165
 2225               	.L159:
 2226               	.LBE360:
 2227               	.LBB363:
  53:lib/lufa/LUFA/Drivers/USB/Core/AVR8/Template/Template_Endpoint_Control_W.c **** 		else if (Endpoint_IsOUTReceived())
 2228               		.loc 4 53 0
 2229 00b2 81E0      		ldi r24,lo8(1)
 2230               	/* epilogue start */
 2231               	.LBE363:
  87:lib/lufa/LUFA/Drivers/USB/Core/AVR8/Template/Template_Endpoint_Control_W.c **** }
 2232               		.loc 4 87 0
 2233 00b4 0895      		ret
 2234               	.L157:
 2235               	.LBB364:
  49:lib/lufa/LUFA/Drivers/USB/Core/AVR8/Template/Template_Endpoint_Control_W.c **** 		else if (USB_DeviceState_LCL == DEVICE_STATE_Suspended)
 2236               		.loc 4 49 0
 2237 00b6 82E0      		ldi r24,lo8(2)
 2238 00b8 0895      		ret
 2239               	.L158:
  51:lib/lufa/LUFA/Drivers/USB/Core/AVR8/Template/Template_Endpoint_Control_W.c **** 		else if (Endpoint_IsSETUPReceived())
 2240               		.loc 4 51 0
 2241 00ba 83E0      		ldi r24,lo8(3)
 2242 00bc 0895      		ret
 2243               	.LBE364:
 2244               		.cfi_endproc
 2245               	.LFE97:
 2247               		.section	.text.Endpoint_Write_Control_Stream_BE,"ax",@progbits
 2248               	.global	Endpoint_Write_Control_Stream_BE
 2250               	Endpoint_Write_Control_Stream_BE:
 2251               	.LFB98:
  35:lib/lufa/LUFA/Drivers/USB/Core/AVR8/Template/Template_Endpoint_Control_W.c **** 	uint8_t* DataStream     = ((uint8_t*)Buffer + TEMPLATE_BUFFER_OFFSET(Length));
 2252               		.loc 4 35 0
 2253               		.cfi_startproc
 2254               	.LVL245:
 2255               	/* prologue: function */
 2256               	/* frame size = 0 */
 2257               	/* stack size = 0 */
 2258               	.L__stack_usage = 0
  36:lib/lufa/LUFA/Drivers/USB/Core/AVR8/Template/Template_Endpoint_Control_W.c **** 	bool     LastPacketFull = false;
 2259               		.loc 4 36 0
 2260 0000 9B01      		movw r18,r22
 2261 0002 2150      		subi r18,1
 2262 0004 3109      		sbc r19,__zero_reg__
 2263 0006 820F      		add r24,r18
 2264 0008 931F      		adc r25,r19
 2265               	.LVL246:
  39:lib/lufa/LUFA/Drivers/USB/Core/AVR8/Template/Template_Endpoint_Control_W.c **** 	  Length = USB_ControlRequest.wLength;
 2266               		.loc 4 39 0
 2267 000a 2091 0000 		lds r18,USB_ControlRequest+6
 2268 000e 3091 0000 		lds r19,USB_ControlRequest+6+1
 2269 0012 2617      		cp r18,r22
 2270 0014 3707      		cpc r19,r23
 2271 0016 00F0      		brlo .L181
  41:lib/lufa/LUFA/Drivers/USB/Core/AVR8/Template/Template_Endpoint_Control_W.c **** 	  Endpoint_ClearIN();
 2272               		.loc 4 41 0
 2273 0018 6115      		cp r22,__zero_reg__
 2274 001a 7105      		cpc r23,__zero_reg__
 2275 001c 01F4      		brne .L170
 2276               	.LBB365:
 2277               	.LBB366:
 456:lib/lufa/LUFA/Drivers/USB/Core/AVR8/../AVR8/../AVR8/Endpoint_AVR8.h **** 				#else
 2278               		.loc 2 456 0
 2279 001e 2091 E800 		lds r18,232
 2280 0022 2E77      		andi r18,lo8(126)
 2281 0024 2093 E800 		sts 232,r18
 2282               	.LVL247:
 2283               	.L170:
 2284               	.LBE366:
 2285               	.LBE365:
 2286 0028 40E0      		ldi r20,0
 2287               	.LVL248:
 2288               	.L174:
  44:lib/lufa/LUFA/Drivers/USB/Core/AVR8/Template/Template_Endpoint_Control_W.c **** 	{
 2289               		.loc 4 44 0
 2290 002a 6115      		cp r22,__zero_reg__
 2291 002c 7105      		cpc r23,__zero_reg__
 2292 002e 01F4      		brne .L179
  44:lib/lufa/LUFA/Drivers/USB/Core/AVR8/Template/Template_Endpoint_Control_W.c **** 	{
 2293               		.loc 4 44 0 is_stmt 0 discriminator 1
 2294 0030 4111      		cpse r20,__zero_reg__
 2295 0032 00C0      		rjmp .L179
 2296               	.LVL249:
 2297               	.L193:
 2298               	.LBB367:
 2299               	.LBB368:
 419:lib/lufa/LUFA/Drivers/USB/Core/AVR8/../AVR8/../AVR8/Endpoint_AVR8.h **** 			}
 2300               		.loc 2 419 0 is_stmt 1
 2301 0034 8091 E800 		lds r24,232
 2302               	.LBE368:
 2303               	.LBE367:
  74:lib/lufa/LUFA/Drivers/USB/Core/AVR8/Template/Template_Endpoint_Control_W.c **** 	{
 2304               		.loc 4 74 0
 2305 0038 82FF      		sbrs r24,2
 2306 003a 00C0      		rjmp .L180
  86:lib/lufa/LUFA/Drivers/USB/Core/AVR8/Template/Template_Endpoint_Control_W.c **** }
 2307               		.loc 4 86 0
 2308 003c 80E0      		ldi r24,0
 2309 003e 0895      		ret
 2310               	.LVL250:
 2311               	.L181:
 2312 0040 B901      		movw r22,r18
 2313               	.LVL251:
 2314 0042 00C0      		rjmp .L170
 2315               	.LVL252:
 2316               	.L179:
 2317               	.LBB369:
  46:lib/lufa/LUFA/Drivers/USB/Core/AVR8/Template/Template_Endpoint_Control_W.c **** 
 2318               		.loc 4 46 0
 2319 0044 2091 0000 		lds r18,USB_DeviceState
 2320               	.LVL253:
  48:lib/lufa/LUFA/Drivers/USB/Core/AVR8/Template/Template_Endpoint_Control_W.c **** 		  return ENDPOINT_RWCSTREAM_DeviceDisconnected;
 2321               		.loc 4 48 0
 2322 0048 2223      		tst r18
 2323 004a 01F0      		breq .L185
  50:lib/lufa/LUFA/Drivers/USB/Core/AVR8/Template/Template_Endpoint_Control_W.c **** 		  return ENDPOINT_RWCSTREAM_BusSuspended;
 2324               		.loc 4 50 0
 2325 004c 2530      		cpi r18,lo8(5)
 2326 004e 01F0      		breq .L186
 2327               	.LBB370:
 2328               	.LBB371:
 431:lib/lufa/LUFA/Drivers/USB/Core/AVR8/../AVR8/../AVR8/Endpoint_AVR8.h **** 			}
 2329               		.loc 2 431 0
 2330 0050 2091 E800 		lds r18,232
 2331               	.LVL254:
 2332               	.LBE371:
 2333               	.LBE370:
  52:lib/lufa/LUFA/Drivers/USB/Core/AVR8/Template/Template_Endpoint_Control_W.c **** 		  return ENDPOINT_RWCSTREAM_HostAborted;
 2334               		.loc 4 52 0
 2335 0054 23FD      		sbrc r18,3
 2336 0056 00C0      		rjmp .L187
 2337               	.LBB372:
 2338               	.LBB373:
 419:lib/lufa/LUFA/Drivers/USB/Core/AVR8/../AVR8/../AVR8/Endpoint_AVR8.h **** 			}
 2339               		.loc 2 419 0
 2340 0058 2091 E800 		lds r18,232
 2341               	.LBE373:
 2342               	.LBE372:
  54:lib/lufa/LUFA/Drivers/USB/Core/AVR8/Template/Template_Endpoint_Control_W.c **** 		  break;
 2343               		.loc 4 54 0
 2344 005c 22FD      		sbrc r18,2
 2345 005e 00C0      		rjmp .L193
 2346               	.LBB374:
 2347               	.LBB375:
 407:lib/lufa/LUFA/Drivers/USB/Core/AVR8/../AVR8/../AVR8/Endpoint_AVR8.h **** 			}
 2348               		.loc 2 407 0
 2349 0060 2091 E800 		lds r18,232
 2350               	.LBE375:
 2351               	.LBE374:
  57:lib/lufa/LUFA/Drivers/USB/Core/AVR8/Template/Template_Endpoint_Control_W.c **** 		{
 2352               		.loc 4 57 0
 2353 0064 20FF      		sbrs r18,0
 2354 0066 00C0      		rjmp .L174
 2355               	.LBB376:
 2356               	.LBB377:
 2357               	.LBB378:
 227:lib/lufa/LUFA/Drivers/USB/Core/AVR8/../AVR8/../AVR8/Endpoint_AVR8.h **** 				#elif defined(USB_SERIES_2_AVR)
 2358               		.loc 2 227 0
 2359 0068 2091 F300 		lds r18,243
 2360 006c 3091 F200 		lds r19,242
 2361 0070 2327      		eor r18,r19
 2362 0072 3227      		eor r19,r18
 2363 0074 2327      		eor r18,r19
 2364               	.LVL255:
 2365               	.L175:
 2366               	.LBE378:
 2367               	.LBE377:
  61:lib/lufa/LUFA/Drivers/USB/Core/AVR8/Template/Template_Endpoint_Control_W.c **** 			{
 2368               		.loc 4 61 0
 2369 0076 6115      		cp r22,__zero_reg__
 2370 0078 7105      		cpc r23,__zero_reg__
 2371 007a 01F0      		breq .L176
  61:lib/lufa/LUFA/Drivers/USB/Core/AVR8/Template/Template_Endpoint_Control_W.c **** 			{
 2372               		.loc 4 61 0 is_stmt 0 discriminator 1
 2373 007c 2830      		cpi r18,8
 2374 007e 3105      		cpc r19,__zero_reg__
 2375 0080 00F0      		brlo .L177
 2376               	.L176:
  69:lib/lufa/LUFA/Drivers/USB/Core/AVR8/Template/Template_Endpoint_Control_W.c **** 			Endpoint_ClearIN();
 2377               		.loc 4 69 0 is_stmt 1
 2378 0082 41E0      		ldi r20,lo8(1)
 2379 0084 2830      		cpi r18,8
 2380 0086 3105      		cpc r19,__zero_reg__
 2381 0088 01F0      		breq .L178
 2382 008a 40E0      		ldi r20,0
 2383               	.L178:
 2384               	.LVL256:
 2385               	.LBB379:
 2386               	.LBB380:
 456:lib/lufa/LUFA/Drivers/USB/Core/AVR8/../AVR8/../AVR8/Endpoint_AVR8.h **** 				#else
 2387               		.loc 2 456 0
 2388 008c 2091 E800 		lds r18,232
 2389               	.LVL257:
 2390 0090 2E77      		andi r18,lo8(126)
 2391 0092 2093 E800 		sts 232,r18
 2392 0096 00C0      		rjmp .L174
 2393               	.LVL258:
 2394               	.L177:
 2395               	.LBE380:
 2396               	.LBE379:
  63:lib/lufa/LUFA/Drivers/USB/Core/AVR8/Template/Template_Endpoint_Control_W.c **** 				TEMPLATE_BUFFER_MOVE(DataStream, 1);
 2397               		.loc 4 63 0
 2398 0098 FC01      		movw r30,r24
 2399 009a 4081      		ld r20,Z
 2400               	.LVL259:
 2401               	.LBB381:
 2402               	.LBB382:
 554:lib/lufa/LUFA/Drivers/USB/Core/AVR8/../AVR8/../AVR8/Endpoint_AVR8.h **** 			}
 2403               		.loc 2 554 0
 2404 009c 4093 F100 		sts 241,r20
 2405               	.LVL260:
 2406               	.LBE382:
 2407               	.LBE381:
  64:lib/lufa/LUFA/Drivers/USB/Core/AVR8/Template/Template_Endpoint_Control_W.c **** 				Length--;
 2408               		.loc 4 64 0
 2409 00a0 0197      		sbiw r24,1
 2410               	.LVL261:
  65:lib/lufa/LUFA/Drivers/USB/Core/AVR8/Template/Template_Endpoint_Control_W.c **** 				BytesInEndpoint++;
 2411               		.loc 4 65 0
 2412 00a2 6150      		subi r22,1
 2413 00a4 7109      		sbc r23,__zero_reg__
 2414               	.LVL262:
  66:lib/lufa/LUFA/Drivers/USB/Core/AVR8/Template/Template_Endpoint_Control_W.c **** 			}
 2415               		.loc 4 66 0
 2416 00a6 2F5F      		subi r18,-1
 2417 00a8 3F4F      		sbci r19,-1
 2418               	.LVL263:
 2419 00aa 00C0      		rjmp .L175
 2420               	.LVL264:
 2421               	.L180:
 2422               	.LBE376:
 2423               	.LBE369:
 2424               	.LBB383:
  76:lib/lufa/LUFA/Drivers/USB/Core/AVR8/Template/Template_Endpoint_Control_W.c **** 
 2425               		.loc 4 76 0
 2426 00ac 8091 0000 		lds r24,USB_DeviceState
 2427               	.LVL265:
  78:lib/lufa/LUFA/Drivers/USB/Core/AVR8/Template/Template_Endpoint_Control_W.c **** 		  return ENDPOINT_RWCSTREAM_DeviceDisconnected;
 2428               		.loc 4 78 0
 2429 00b0 8823      		tst r24
 2430 00b2 01F0      		breq .L185
  80:lib/lufa/LUFA/Drivers/USB/Core/AVR8/Template/Template_Endpoint_Control_W.c **** 		  return ENDPOINT_RWCSTREAM_BusSuspended;
 2431               		.loc 4 80 0
 2432 00b4 8530      		cpi r24,lo8(5)
 2433 00b6 01F0      		breq .L186
 2434               	.LBB384:
 2435               	.LBB385:
 431:lib/lufa/LUFA/Drivers/USB/Core/AVR8/../AVR8/../AVR8/Endpoint_AVR8.h **** 			}
 2436               		.loc 2 431 0
 2437 00b8 8091 E800 		lds r24,232
 2438               	.LVL266:
 2439               	.LBE385:
 2440               	.LBE384:
  82:lib/lufa/LUFA/Drivers/USB/Core/AVR8/Template/Template_Endpoint_Control_W.c **** 		  return ENDPOINT_RWCSTREAM_HostAborted;
 2441               		.loc 4 82 0
 2442 00bc 83FF      		sbrs r24,3
 2443 00be 00C0      		rjmp .L193
 2444               	.L187:
 2445               	.LBE383:
 2446               	.LBB386:
  53:lib/lufa/LUFA/Drivers/USB/Core/AVR8/Template/Template_Endpoint_Control_W.c **** 		else if (Endpoint_IsOUTReceived())
 2447               		.loc 4 53 0
 2448 00c0 81E0      		ldi r24,lo8(1)
 2449               	/* epilogue start */
 2450               	.LBE386:
 2451               		.loc 4 87 0
 2452 00c2 0895      		ret
 2453               	.L185:
 2454               	.LBB387:
  49:lib/lufa/LUFA/Drivers/USB/Core/AVR8/Template/Template_Endpoint_Control_W.c **** 		else if (USB_DeviceState_LCL == DEVICE_STATE_Suspended)
 2455               		.loc 4 49 0
 2456 00c4 82E0      		ldi r24,lo8(2)
 2457 00c6 0895      		ret
 2458               	.L186:
  51:lib/lufa/LUFA/Drivers/USB/Core/AVR8/Template/Template_Endpoint_Control_W.c **** 		else if (Endpoint_IsSETUPReceived())
 2459               		.loc 4 51 0
 2460 00c8 83E0      		ldi r24,lo8(3)
 2461 00ca 0895      		ret
 2462               	.LBE387:
 2463               		.cfi_endproc
 2464               	.LFE98:
 2466               		.section	.text.Endpoint_Read_Control_Stream_LE,"ax",@progbits
 2467               	.global	Endpoint_Read_Control_Stream_LE
 2469               	Endpoint_Read_Control_Stream_LE:
 2470               	.LFB99:
 2471               		.file 5 "lib/lufa/LUFA/Drivers/USB/Core/AVR8/Template/Template_Endpoint_Control_R.c"
   1:lib/lufa/LUFA/Drivers/USB/Core/AVR8/Template/Template_Endpoint_Control_R.c **** /*
   2:lib/lufa/LUFA/Drivers/USB/Core/AVR8/Template/Template_Endpoint_Control_R.c ****              LUFA Library
   3:lib/lufa/LUFA/Drivers/USB/Core/AVR8/Template/Template_Endpoint_Control_R.c ****      Copyright (C) Dean Camera, 2019.
   4:lib/lufa/LUFA/Drivers/USB/Core/AVR8/Template/Template_Endpoint_Control_R.c **** 
   5:lib/lufa/LUFA/Drivers/USB/Core/AVR8/Template/Template_Endpoint_Control_R.c ****   dean [at] fourwalledcubicle [dot] com
   6:lib/lufa/LUFA/Drivers/USB/Core/AVR8/Template/Template_Endpoint_Control_R.c ****            www.lufa-lib.org
   7:lib/lufa/LUFA/Drivers/USB/Core/AVR8/Template/Template_Endpoint_Control_R.c **** */
   8:lib/lufa/LUFA/Drivers/USB/Core/AVR8/Template/Template_Endpoint_Control_R.c **** 
   9:lib/lufa/LUFA/Drivers/USB/Core/AVR8/Template/Template_Endpoint_Control_R.c **** /*
  10:lib/lufa/LUFA/Drivers/USB/Core/AVR8/Template/Template_Endpoint_Control_R.c ****   Copyright 2019  Dean Camera (dean [at] fourwalledcubicle [dot] com)
  11:lib/lufa/LUFA/Drivers/USB/Core/AVR8/Template/Template_Endpoint_Control_R.c **** 
  12:lib/lufa/LUFA/Drivers/USB/Core/AVR8/Template/Template_Endpoint_Control_R.c ****   Permission to use, copy, modify, distribute, and sell this
  13:lib/lufa/LUFA/Drivers/USB/Core/AVR8/Template/Template_Endpoint_Control_R.c ****   software and its documentation for any purpose is hereby granted
  14:lib/lufa/LUFA/Drivers/USB/Core/AVR8/Template/Template_Endpoint_Control_R.c ****   without fee, provided that the above copyright notice appear in
  15:lib/lufa/LUFA/Drivers/USB/Core/AVR8/Template/Template_Endpoint_Control_R.c ****   all copies and that both that the copyright notice and this
  16:lib/lufa/LUFA/Drivers/USB/Core/AVR8/Template/Template_Endpoint_Control_R.c ****   permission notice and warranty disclaimer appear in supporting
  17:lib/lufa/LUFA/Drivers/USB/Core/AVR8/Template/Template_Endpoint_Control_R.c ****   documentation, and that the name of the author not be used in
  18:lib/lufa/LUFA/Drivers/USB/Core/AVR8/Template/Template_Endpoint_Control_R.c ****   advertising or publicity pertaining to distribution of the
  19:lib/lufa/LUFA/Drivers/USB/Core/AVR8/Template/Template_Endpoint_Control_R.c ****   software without specific, written prior permission.
  20:lib/lufa/LUFA/Drivers/USB/Core/AVR8/Template/Template_Endpoint_Control_R.c **** 
  21:lib/lufa/LUFA/Drivers/USB/Core/AVR8/Template/Template_Endpoint_Control_R.c ****   The author disclaims all warranties with regard to this
  22:lib/lufa/LUFA/Drivers/USB/Core/AVR8/Template/Template_Endpoint_Control_R.c ****   software, including all implied warranties of merchantability
  23:lib/lufa/LUFA/Drivers/USB/Core/AVR8/Template/Template_Endpoint_Control_R.c ****   and fitness.  In no event shall the author be liable for any
  24:lib/lufa/LUFA/Drivers/USB/Core/AVR8/Template/Template_Endpoint_Control_R.c ****   special, indirect or consequential damages or any damages
  25:lib/lufa/LUFA/Drivers/USB/Core/AVR8/Template/Template_Endpoint_Control_R.c ****   whatsoever resulting from loss of use, data or profits, whether
  26:lib/lufa/LUFA/Drivers/USB/Core/AVR8/Template/Template_Endpoint_Control_R.c ****   in an action of contract, negligence or other tortious action,
  27:lib/lufa/LUFA/Drivers/USB/Core/AVR8/Template/Template_Endpoint_Control_R.c ****   arising out of or in connection with the use or performance of
  28:lib/lufa/LUFA/Drivers/USB/Core/AVR8/Template/Template_Endpoint_Control_R.c ****   this software.
  29:lib/lufa/LUFA/Drivers/USB/Core/AVR8/Template/Template_Endpoint_Control_R.c **** */
  30:lib/lufa/LUFA/Drivers/USB/Core/AVR8/Template/Template_Endpoint_Control_R.c **** 
  31:lib/lufa/LUFA/Drivers/USB/Core/AVR8/Template/Template_Endpoint_Control_R.c **** #if defined(TEMPLATE_FUNC_NAME)
  32:lib/lufa/LUFA/Drivers/USB/Core/AVR8/Template/Template_Endpoint_Control_R.c **** 
  33:lib/lufa/LUFA/Drivers/USB/Core/AVR8/Template/Template_Endpoint_Control_R.c **** uint8_t TEMPLATE_FUNC_NAME (void* const Buffer,
  34:lib/lufa/LUFA/Drivers/USB/Core/AVR8/Template/Template_Endpoint_Control_R.c ****                             uint16_t Length)
  35:lib/lufa/LUFA/Drivers/USB/Core/AVR8/Template/Template_Endpoint_Control_R.c **** {
 2472               		.loc 5 35 0
 2473               		.cfi_startproc
 2474               	.LVL267:
 2475               	/* prologue: function */
 2476               	/* frame size = 0 */
 2477               	/* stack size = 0 */
 2478               	.L__stack_usage = 0
 2479 0000 FC01      		movw r30,r24
 2480               	.LVL268:
  36:lib/lufa/LUFA/Drivers/USB/Core/AVR8/Template/Template_Endpoint_Control_R.c **** 	uint8_t* DataStream = ((uint8_t*)Buffer + TEMPLATE_BUFFER_OFFSET(Length));
  37:lib/lufa/LUFA/Drivers/USB/Core/AVR8/Template/Template_Endpoint_Control_R.c **** 
  38:lib/lufa/LUFA/Drivers/USB/Core/AVR8/Template/Template_Endpoint_Control_R.c **** 	if (!(Length))
 2481               		.loc 5 38 0
 2482 0002 6115      		cp r22,__zero_reg__
 2483 0004 7105      		cpc r23,__zero_reg__
 2484 0006 01F4      		brne .L202
 2485               	.LVL269:
 2486               	.L203:
 2487               	.LBB388:
 2488               	.LBB389:
 2489               	.LBB390:
 471:lib/lufa/LUFA/Drivers/USB/Core/AVR8/../AVR8/../AVR8/Endpoint_AVR8.h **** 				#else
 2490               		.loc 2 471 0
 2491 0008 9091 E800 		lds r25,232
 2492 000c 9B77      		andi r25,lo8(123)
 2493 000e 9093 E800 		sts 232,r25
 2494               	.L202:
 2495               	.LBE390:
 2496               	.LBE389:
 2497               	.LBE388:
  39:lib/lufa/LUFA/Drivers/USB/Core/AVR8/Template/Template_Endpoint_Control_R.c **** 	  Endpoint_ClearOUT();
  40:lib/lufa/LUFA/Drivers/USB/Core/AVR8/Template/Template_Endpoint_Control_R.c **** 
  41:lib/lufa/LUFA/Drivers/USB/Core/AVR8/Template/Template_Endpoint_Control_R.c **** 	while (Length)
 2498               		.loc 5 41 0
 2499 0012 6115      		cp r22,__zero_reg__
 2500 0014 7105      		cpc r23,__zero_reg__
 2501 0016 01F4      		brne .L205
 2502               	.L206:
 2503               	.LBB399:
 2504               	.LBB400:
 407:lib/lufa/LUFA/Drivers/USB/Core/AVR8/../AVR8/../AVR8/Endpoint_AVR8.h **** 			}
 2505               		.loc 2 407 0
 2506 0018 8091 E800 		lds r24,232
 2507               	.LBE400:
 2508               	.LBE399:
  42:lib/lufa/LUFA/Drivers/USB/Core/AVR8/Template/Template_Endpoint_Control_R.c **** 	{
  43:lib/lufa/LUFA/Drivers/USB/Core/AVR8/Template/Template_Endpoint_Control_R.c **** 		uint8_t USB_DeviceState_LCL = USB_DeviceState;
  44:lib/lufa/LUFA/Drivers/USB/Core/AVR8/Template/Template_Endpoint_Control_R.c **** 
  45:lib/lufa/LUFA/Drivers/USB/Core/AVR8/Template/Template_Endpoint_Control_R.c **** 		if (USB_DeviceState_LCL == DEVICE_STATE_Unattached)
  46:lib/lufa/LUFA/Drivers/USB/Core/AVR8/Template/Template_Endpoint_Control_R.c **** 		  return ENDPOINT_RWCSTREAM_DeviceDisconnected;
  47:lib/lufa/LUFA/Drivers/USB/Core/AVR8/Template/Template_Endpoint_Control_R.c **** 		else if (USB_DeviceState_LCL == DEVICE_STATE_Suspended)
  48:lib/lufa/LUFA/Drivers/USB/Core/AVR8/Template/Template_Endpoint_Control_R.c **** 		  return ENDPOINT_RWCSTREAM_BusSuspended;
  49:lib/lufa/LUFA/Drivers/USB/Core/AVR8/Template/Template_Endpoint_Control_R.c **** 		else if (Endpoint_IsSETUPReceived())
  50:lib/lufa/LUFA/Drivers/USB/Core/AVR8/Template/Template_Endpoint_Control_R.c **** 		  return ENDPOINT_RWCSTREAM_HostAborted;
  51:lib/lufa/LUFA/Drivers/USB/Core/AVR8/Template/Template_Endpoint_Control_R.c **** 
  52:lib/lufa/LUFA/Drivers/USB/Core/AVR8/Template/Template_Endpoint_Control_R.c **** 		if (Endpoint_IsOUTReceived())
  53:lib/lufa/LUFA/Drivers/USB/Core/AVR8/Template/Template_Endpoint_Control_R.c **** 		{
  54:lib/lufa/LUFA/Drivers/USB/Core/AVR8/Template/Template_Endpoint_Control_R.c **** 			while (Length && Endpoint_BytesInEndpoint())
  55:lib/lufa/LUFA/Drivers/USB/Core/AVR8/Template/Template_Endpoint_Control_R.c **** 			{
  56:lib/lufa/LUFA/Drivers/USB/Core/AVR8/Template/Template_Endpoint_Control_R.c **** 				TEMPLATE_TRANSFER_BYTE(DataStream);
  57:lib/lufa/LUFA/Drivers/USB/Core/AVR8/Template/Template_Endpoint_Control_R.c **** 				TEMPLATE_BUFFER_MOVE(DataStream, 1);
  58:lib/lufa/LUFA/Drivers/USB/Core/AVR8/Template/Template_Endpoint_Control_R.c **** 				Length--;
  59:lib/lufa/LUFA/Drivers/USB/Core/AVR8/Template/Template_Endpoint_Control_R.c **** 			}
  60:lib/lufa/LUFA/Drivers/USB/Core/AVR8/Template/Template_Endpoint_Control_R.c **** 
  61:lib/lufa/LUFA/Drivers/USB/Core/AVR8/Template/Template_Endpoint_Control_R.c **** 			Endpoint_ClearOUT();
  62:lib/lufa/LUFA/Drivers/USB/Core/AVR8/Template/Template_Endpoint_Control_R.c **** 		}
  63:lib/lufa/LUFA/Drivers/USB/Core/AVR8/Template/Template_Endpoint_Control_R.c **** 	}
  64:lib/lufa/LUFA/Drivers/USB/Core/AVR8/Template/Template_Endpoint_Control_R.c **** 
  65:lib/lufa/LUFA/Drivers/USB/Core/AVR8/Template/Template_Endpoint_Control_R.c **** 	while (!(Endpoint_IsINReady()))
 2509               		.loc 5 65 0
 2510 001c 80FF      		sbrs r24,0
 2511 001e 00C0      		rjmp .L207
  66:lib/lufa/LUFA/Drivers/USB/Core/AVR8/Template/Template_Endpoint_Control_R.c **** 	{
  67:lib/lufa/LUFA/Drivers/USB/Core/AVR8/Template/Template_Endpoint_Control_R.c **** 		uint8_t USB_DeviceState_LCL = USB_DeviceState;
  68:lib/lufa/LUFA/Drivers/USB/Core/AVR8/Template/Template_Endpoint_Control_R.c **** 
  69:lib/lufa/LUFA/Drivers/USB/Core/AVR8/Template/Template_Endpoint_Control_R.c **** 		if (USB_DeviceState_LCL == DEVICE_STATE_Unattached)
  70:lib/lufa/LUFA/Drivers/USB/Core/AVR8/Template/Template_Endpoint_Control_R.c **** 		  return ENDPOINT_RWCSTREAM_DeviceDisconnected;
  71:lib/lufa/LUFA/Drivers/USB/Core/AVR8/Template/Template_Endpoint_Control_R.c **** 		else if (USB_DeviceState_LCL == DEVICE_STATE_Suspended)
  72:lib/lufa/LUFA/Drivers/USB/Core/AVR8/Template/Template_Endpoint_Control_R.c **** 		  return ENDPOINT_RWCSTREAM_BusSuspended;
  73:lib/lufa/LUFA/Drivers/USB/Core/AVR8/Template/Template_Endpoint_Control_R.c **** 	}
  74:lib/lufa/LUFA/Drivers/USB/Core/AVR8/Template/Template_Endpoint_Control_R.c **** 
  75:lib/lufa/LUFA/Drivers/USB/Core/AVR8/Template/Template_Endpoint_Control_R.c **** 	return ENDPOINT_RWCSTREAM_NoError;
 2512               		.loc 5 75 0
 2513 0020 80E0      		ldi r24,0
 2514 0022 0895      		ret
 2515               	.L205:
 2516               	.LBB401:
  43:lib/lufa/LUFA/Drivers/USB/Core/AVR8/Template/Template_Endpoint_Control_R.c **** 
 2517               		.loc 5 43 0
 2518 0024 8091 0000 		lds r24,USB_DeviceState
 2519               	.LVL270:
  45:lib/lufa/LUFA/Drivers/USB/Core/AVR8/Template/Template_Endpoint_Control_R.c **** 		  return ENDPOINT_RWCSTREAM_DeviceDisconnected;
 2520               		.loc 5 45 0
 2521 0028 8823      		tst r24
 2522 002a 01F0      		breq .L211
  47:lib/lufa/LUFA/Drivers/USB/Core/AVR8/Template/Template_Endpoint_Control_R.c **** 		  return ENDPOINT_RWCSTREAM_BusSuspended;
 2523               		.loc 5 47 0
 2524 002c 8530      		cpi r24,lo8(5)
 2525 002e 01F0      		breq .L212
 2526               	.LBB391:
 2527               	.LBB392:
 431:lib/lufa/LUFA/Drivers/USB/Core/AVR8/../AVR8/../AVR8/Endpoint_AVR8.h **** 			}
 2528               		.loc 2 431 0
 2529 0030 8091 E800 		lds r24,232
 2530               	.LVL271:
 2531               	.LBE392:
 2532               	.LBE391:
  49:lib/lufa/LUFA/Drivers/USB/Core/AVR8/Template/Template_Endpoint_Control_R.c **** 		  return ENDPOINT_RWCSTREAM_HostAborted;
 2533               		.loc 5 49 0
 2534 0034 83FD      		sbrc r24,3
 2535 0036 00C0      		rjmp .L210
 2536               	.LBB393:
 2537               	.LBB394:
 419:lib/lufa/LUFA/Drivers/USB/Core/AVR8/../AVR8/../AVR8/Endpoint_AVR8.h **** 			}
 2538               		.loc 2 419 0
 2539 0038 8091 E800 		lds r24,232
 2540               	.LBE394:
 2541               	.LBE393:
  52:lib/lufa/LUFA/Drivers/USB/Core/AVR8/Template/Template_Endpoint_Control_R.c **** 		{
 2542               		.loc 5 52 0
 2543 003c 82FF      		sbrs r24,2
 2544 003e 00C0      		rjmp .L202
 2545               	.L201:
 2546               	.LBB395:
 2547               	.LBB396:
 227:lib/lufa/LUFA/Drivers/USB/Core/AVR8/../AVR8/../AVR8/Endpoint_AVR8.h **** 				#elif defined(USB_SERIES_2_AVR)
 2548               		.loc 2 227 0
 2549 0040 2091 F300 		lds r18,243
 2550 0044 8091 F200 		lds r24,242
 2551 0048 322F      		mov r19,r18
 2552 004a 282F      		mov r18,r24
 2553               	.LBE396:
 2554               	.LBE395:
  54:lib/lufa/LUFA/Drivers/USB/Core/AVR8/Template/Template_Endpoint_Control_R.c **** 			{
 2555               		.loc 5 54 0
 2556 004c 232B      		or r18,r19
 2557 004e 01F0      		breq .L203
 2558               	.LBB397:
 2559               	.LBB398:
 542:lib/lufa/LUFA/Drivers/USB/Core/AVR8/../AVR8/../AVR8/Endpoint_AVR8.h **** 			}
 2560               		.loc 2 542 0
 2561 0050 8091 F100 		lds r24,241
 2562               	.LBE398:
 2563               	.LBE397:
  56:lib/lufa/LUFA/Drivers/USB/Core/AVR8/Template/Template_Endpoint_Control_R.c **** 				TEMPLATE_BUFFER_MOVE(DataStream, 1);
 2564               		.loc 5 56 0
 2565 0054 8193      		st Z+,r24
 2566               	.LVL272:
  58:lib/lufa/LUFA/Drivers/USB/Core/AVR8/Template/Template_Endpoint_Control_R.c **** 			}
 2567               		.loc 5 58 0
 2568 0056 6150      		subi r22,1
 2569 0058 7109      		sbc r23,__zero_reg__
 2570               	.LVL273:
  54:lib/lufa/LUFA/Drivers/USB/Core/AVR8/Template/Template_Endpoint_Control_R.c **** 			{
 2571               		.loc 5 54 0
 2572 005a 01F4      		brne .L201
 2573 005c 00C0      		rjmp .L203
 2574               	.L207:
 2575               	.LBE401:
 2576               	.LBB402:
  67:lib/lufa/LUFA/Drivers/USB/Core/AVR8/Template/Template_Endpoint_Control_R.c **** 
 2577               		.loc 5 67 0
 2578 005e 8091 0000 		lds r24,USB_DeviceState
 2579               	.LVL274:
  69:lib/lufa/LUFA/Drivers/USB/Core/AVR8/Template/Template_Endpoint_Control_R.c **** 		  return ENDPOINT_RWCSTREAM_DeviceDisconnected;
 2580               		.loc 5 69 0
 2581 0062 8823      		tst r24
 2582 0064 01F0      		breq .L211
  71:lib/lufa/LUFA/Drivers/USB/Core/AVR8/Template/Template_Endpoint_Control_R.c **** 		  return ENDPOINT_RWCSTREAM_BusSuspended;
 2583               		.loc 5 71 0
 2584 0066 8530      		cpi r24,lo8(5)
 2585 0068 01F4      		brne .L206
 2586               	.LVL275:
 2587               	.L212:
 2588               	.LBE402:
 2589               	.LBB403:
  48:lib/lufa/LUFA/Drivers/USB/Core/AVR8/Template/Template_Endpoint_Control_R.c **** 		else if (Endpoint_IsSETUPReceived())
 2590               		.loc 5 48 0
 2591 006a 83E0      		ldi r24,lo8(3)
 2592               	/* epilogue start */
 2593               	.LBE403:
  76:lib/lufa/LUFA/Drivers/USB/Core/AVR8/Template/Template_Endpoint_Control_R.c **** }
 2594               		.loc 5 76 0
 2595 006c 0895      		ret
 2596               	.L210:
 2597               	.LBB404:
  50:lib/lufa/LUFA/Drivers/USB/Core/AVR8/Template/Template_Endpoint_Control_R.c **** 
 2598               		.loc 5 50 0
 2599 006e 81E0      		ldi r24,lo8(1)
 2600 0070 0895      		ret
 2601               	.L211:
  46:lib/lufa/LUFA/Drivers/USB/Core/AVR8/Template/Template_Endpoint_Control_R.c **** 		else if (USB_DeviceState_LCL == DEVICE_STATE_Suspended)
 2602               		.loc 5 46 0
 2603 0072 82E0      		ldi r24,lo8(2)
 2604 0074 0895      		ret
 2605               	.LBE404:
 2606               		.cfi_endproc
 2607               	.LFE99:
 2609               		.section	.text.Endpoint_Read_Control_Stream_BE,"ax",@progbits
 2610               	.global	Endpoint_Read_Control_Stream_BE
 2612               	Endpoint_Read_Control_Stream_BE:
 2613               	.LFB100:
  35:lib/lufa/LUFA/Drivers/USB/Core/AVR8/Template/Template_Endpoint_Control_R.c **** 	uint8_t* DataStream = ((uint8_t*)Buffer + TEMPLATE_BUFFER_OFFSET(Length));
 2614               		.loc 5 35 0
 2615               		.cfi_startproc
 2616               	.LVL276:
 2617               	/* prologue: function */
 2618               	/* frame size = 0 */
 2619               	/* stack size = 0 */
 2620               	.L__stack_usage = 0
  36:lib/lufa/LUFA/Drivers/USB/Core/AVR8/Template/Template_Endpoint_Control_R.c **** 
 2621               		.loc 5 36 0
 2622 0000 9B01      		movw r18,r22
 2623 0002 2150      		subi r18,1
 2624 0004 3109      		sbc r19,__zero_reg__
 2625 0006 820F      		add r24,r18
 2626 0008 931F      		adc r25,r19
 2627               	.LVL277:
  38:lib/lufa/LUFA/Drivers/USB/Core/AVR8/Template/Template_Endpoint_Control_R.c **** 	  Endpoint_ClearOUT();
 2628               		.loc 5 38 0
 2629 000a 6115      		cp r22,__zero_reg__
 2630 000c 7105      		cpc r23,__zero_reg__
 2631 000e 01F4      		brne .L222
 2632               	.L223:
 2633               	.LBB405:
 2634               	.LBB406:
 2635               	.LBB407:
 471:lib/lufa/LUFA/Drivers/USB/Core/AVR8/../AVR8/../AVR8/Endpoint_AVR8.h **** 				#else
 2636               		.loc 2 471 0
 2637 0010 2091 E800 		lds r18,232
 2638 0014 2B77      		andi r18,lo8(123)
 2639 0016 2093 E800 		sts 232,r18
 2640               	.L222:
 2641               	.LBE407:
 2642               	.LBE406:
 2643               	.LBE405:
  41:lib/lufa/LUFA/Drivers/USB/Core/AVR8/Template/Template_Endpoint_Control_R.c **** 	{
 2644               		.loc 5 41 0
 2645 001a 6115      		cp r22,__zero_reg__
 2646 001c 7105      		cpc r23,__zero_reg__
 2647 001e 01F4      		brne .L225
 2648               	.LVL278:
 2649               	.L226:
 2650               	.LBB416:
 2651               	.LBB417:
 407:lib/lufa/LUFA/Drivers/USB/Core/AVR8/../AVR8/../AVR8/Endpoint_AVR8.h **** 			}
 2652               		.loc 2 407 0
 2653 0020 8091 E800 		lds r24,232
 2654               	.LBE417:
 2655               	.LBE416:
  65:lib/lufa/LUFA/Drivers/USB/Core/AVR8/Template/Template_Endpoint_Control_R.c **** 	{
 2656               		.loc 5 65 0
 2657 0024 80FF      		sbrs r24,0
 2658 0026 00C0      		rjmp .L227
  75:lib/lufa/LUFA/Drivers/USB/Core/AVR8/Template/Template_Endpoint_Control_R.c **** }
 2659               		.loc 5 75 0
 2660 0028 80E0      		ldi r24,0
 2661 002a 0895      		ret
 2662               	.LVL279:
 2663               	.L225:
 2664               	.LBB418:
  43:lib/lufa/LUFA/Drivers/USB/Core/AVR8/Template/Template_Endpoint_Control_R.c **** 
 2665               		.loc 5 43 0
 2666 002c 2091 0000 		lds r18,USB_DeviceState
 2667               	.LVL280:
  45:lib/lufa/LUFA/Drivers/USB/Core/AVR8/Template/Template_Endpoint_Control_R.c **** 		  return ENDPOINT_RWCSTREAM_DeviceDisconnected;
 2668               		.loc 5 45 0
 2669 0030 2223      		tst r18
 2670 0032 01F0      		breq .L231
  47:lib/lufa/LUFA/Drivers/USB/Core/AVR8/Template/Template_Endpoint_Control_R.c **** 		  return ENDPOINT_RWCSTREAM_BusSuspended;
 2671               		.loc 5 47 0
 2672 0034 2530      		cpi r18,lo8(5)
 2673 0036 01F0      		breq .L232
 2674               	.LBB408:
 2675               	.LBB409:
 431:lib/lufa/LUFA/Drivers/USB/Core/AVR8/../AVR8/../AVR8/Endpoint_AVR8.h **** 			}
 2676               		.loc 2 431 0
 2677 0038 2091 E800 		lds r18,232
 2678               	.LVL281:
 2679               	.LBE409:
 2680               	.LBE408:
  49:lib/lufa/LUFA/Drivers/USB/Core/AVR8/Template/Template_Endpoint_Control_R.c **** 		  return ENDPOINT_RWCSTREAM_HostAborted;
 2681               		.loc 5 49 0
 2682 003c 23FD      		sbrc r18,3
 2683 003e 00C0      		rjmp .L230
 2684               	.LBB410:
 2685               	.LBB411:
 419:lib/lufa/LUFA/Drivers/USB/Core/AVR8/../AVR8/../AVR8/Endpoint_AVR8.h **** 			}
 2686               		.loc 2 419 0
 2687 0040 2091 E800 		lds r18,232
 2688               	.LBE411:
 2689               	.LBE410:
  52:lib/lufa/LUFA/Drivers/USB/Core/AVR8/Template/Template_Endpoint_Control_R.c **** 		{
 2690               		.loc 5 52 0
 2691 0044 22FF      		sbrs r18,2
 2692 0046 00C0      		rjmp .L222
 2693               	.L221:
 2694               	.LBB412:
 2695               	.LBB413:
 227:lib/lufa/LUFA/Drivers/USB/Core/AVR8/../AVR8/../AVR8/Endpoint_AVR8.h **** 				#elif defined(USB_SERIES_2_AVR)
 2696               		.loc 2 227 0
 2697 0048 2091 F300 		lds r18,243
 2698 004c 3091 F200 		lds r19,242
 2699 0050 2327      		eor r18,r19
 2700 0052 3227      		eor r19,r18
 2701 0054 2327      		eor r18,r19
 2702               	.LBE413:
 2703               	.LBE412:
  54:lib/lufa/LUFA/Drivers/USB/Core/AVR8/Template/Template_Endpoint_Control_R.c **** 			{
 2704               		.loc 5 54 0
 2705 0056 232B      		or r18,r19
 2706 0058 01F0      		breq .L223
 2707               	.LBB414:
 2708               	.LBB415:
 542:lib/lufa/LUFA/Drivers/USB/Core/AVR8/../AVR8/../AVR8/Endpoint_AVR8.h **** 			}
 2709               		.loc 2 542 0
 2710 005a 2091 F100 		lds r18,241
 2711               	.LBE415:
 2712               	.LBE414:
  56:lib/lufa/LUFA/Drivers/USB/Core/AVR8/Template/Template_Endpoint_Control_R.c **** 				TEMPLATE_BUFFER_MOVE(DataStream, 1);
 2713               		.loc 5 56 0
 2714 005e FC01      		movw r30,r24
 2715 0060 2083      		st Z,r18
  57:lib/lufa/LUFA/Drivers/USB/Core/AVR8/Template/Template_Endpoint_Control_R.c **** 				Length--;
 2716               		.loc 5 57 0
 2717 0062 0197      		sbiw r24,1
 2718               	.LVL282:
  58:lib/lufa/LUFA/Drivers/USB/Core/AVR8/Template/Template_Endpoint_Control_R.c **** 			}
 2719               		.loc 5 58 0
 2720 0064 6150      		subi r22,1
 2721 0066 7109      		sbc r23,__zero_reg__
 2722               	.LVL283:
  54:lib/lufa/LUFA/Drivers/USB/Core/AVR8/Template/Template_Endpoint_Control_R.c **** 			{
 2723               		.loc 5 54 0
 2724 0068 01F4      		brne .L221
 2725 006a 00C0      		rjmp .L223
 2726               	.LVL284:
 2727               	.L227:
 2728               	.LBE418:
 2729               	.LBB419:
  67:lib/lufa/LUFA/Drivers/USB/Core/AVR8/Template/Template_Endpoint_Control_R.c **** 
 2730               		.loc 5 67 0
 2731 006c 8091 0000 		lds r24,USB_DeviceState
 2732               	.LVL285:
  69:lib/lufa/LUFA/Drivers/USB/Core/AVR8/Template/Template_Endpoint_Control_R.c **** 		  return ENDPOINT_RWCSTREAM_DeviceDisconnected;
 2733               		.loc 5 69 0
 2734 0070 8823      		tst r24
 2735 0072 01F0      		breq .L231
  71:lib/lufa/LUFA/Drivers/USB/Core/AVR8/Template/Template_Endpoint_Control_R.c **** 		  return ENDPOINT_RWCSTREAM_BusSuspended;
 2736               		.loc 5 71 0
 2737 0074 8530      		cpi r24,lo8(5)
 2738 0076 01F4      		brne .L226
 2739               	.LVL286:
 2740               	.L232:
 2741               	.LBE419:
 2742               	.LBB420:
  48:lib/lufa/LUFA/Drivers/USB/Core/AVR8/Template/Template_Endpoint_Control_R.c **** 		else if (Endpoint_IsSETUPReceived())
 2743               		.loc 5 48 0
 2744 0078 83E0      		ldi r24,lo8(3)
 2745               	/* epilogue start */
 2746               	.LBE420:
 2747               		.loc 5 76 0
 2748 007a 0895      		ret
 2749               	.LVL287:
 2750               	.L230:
 2751               	.LBB421:
  50:lib/lufa/LUFA/Drivers/USB/Core/AVR8/Template/Template_Endpoint_Control_R.c **** 
 2752               		.loc 5 50 0
 2753 007c 81E0      		ldi r24,lo8(1)
 2754               	.LVL288:
 2755 007e 0895      		ret
 2756               	.L231:
  46:lib/lufa/LUFA/Drivers/USB/Core/AVR8/Template/Template_Endpoint_Control_R.c **** 		else if (USB_DeviceState_LCL == DEVICE_STATE_Suspended)
 2757               		.loc 5 46 0
 2758 0080 82E0      		ldi r24,lo8(2)
 2759 0082 0895      		ret
 2760               	.LBE421:
 2761               		.cfi_endproc
 2762               	.LFE100:
 2764               		.section	.text.Endpoint_Write_Control_PStream_LE,"ax",@progbits
 2765               	.global	Endpoint_Write_Control_PStream_LE
 2767               	Endpoint_Write_Control_PStream_LE:
 2768               	.LFB101:
  35:lib/lufa/LUFA/Drivers/USB/Core/AVR8/Template/Template_Endpoint_Control_W.c **** 	uint8_t* DataStream     = ((uint8_t*)Buffer + TEMPLATE_BUFFER_OFFSET(Length));
 2769               		.loc 4 35 0
 2770               		.cfi_startproc
 2771               	.LVL289:
 2772               	/* prologue: function */
 2773               	/* frame size = 0 */
 2774               	/* stack size = 0 */
 2775               	.L__stack_usage = 0
 2776 0000 FC01      		movw r30,r24
 2777               	.LVL290:
  39:lib/lufa/LUFA/Drivers/USB/Core/AVR8/Template/Template_Endpoint_Control_W.c **** 	  Length = USB_ControlRequest.wLength;
 2778               		.loc 4 39 0
 2779 0002 8091 0000 		lds r24,USB_ControlRequest+6
 2780 0006 9091 0000 		lds r25,USB_ControlRequest+6+1
 2781               	.LVL291:
 2782 000a 8617      		cp r24,r22
 2783 000c 9707      		cpc r25,r23
 2784 000e 00F0      		brlo .L249
  41:lib/lufa/LUFA/Drivers/USB/Core/AVR8/Template/Template_Endpoint_Control_W.c **** 	  Endpoint_ClearIN();
 2785               		.loc 4 41 0
 2786 0010 6115      		cp r22,__zero_reg__
 2787 0012 7105      		cpc r23,__zero_reg__
 2788 0014 01F4      		brne .L238
 2789               	.LBB422:
 2790               	.LBB423:
 456:lib/lufa/LUFA/Drivers/USB/Core/AVR8/../AVR8/../AVR8/Endpoint_AVR8.h **** 				#else
 2791               		.loc 2 456 0
 2792 0016 8091 E800 		lds r24,232
 2793 001a 8E77      		andi r24,lo8(126)
 2794 001c 8093 E800 		sts 232,r24
 2795               	.LVL292:
 2796               	.L238:
 2797               	.LBE423:
 2798               	.LBE422:
 2799 0020 90E0      		ldi r25,0
 2800               	.LVL293:
 2801               	.L242:
  44:lib/lufa/LUFA/Drivers/USB/Core/AVR8/Template/Template_Endpoint_Control_W.c **** 	{
 2802               		.loc 4 44 0
 2803 0022 6115      		cp r22,__zero_reg__
 2804 0024 7105      		cpc r23,__zero_reg__
 2805 0026 01F4      		brne .L247
  44:lib/lufa/LUFA/Drivers/USB/Core/AVR8/Template/Template_Endpoint_Control_W.c **** 	{
 2806               		.loc 4 44 0 is_stmt 0 discriminator 1
 2807 0028 9111      		cpse r25,__zero_reg__
 2808 002a 00C0      		rjmp .L247
 2809               	.L261:
 2810               	.LBB424:
 2811               	.LBB425:
 419:lib/lufa/LUFA/Drivers/USB/Core/AVR8/../AVR8/../AVR8/Endpoint_AVR8.h **** 			}
 2812               		.loc 2 419 0 is_stmt 1
 2813 002c 8091 E800 		lds r24,232
 2814               	.LBE425:
 2815               	.LBE424:
  74:lib/lufa/LUFA/Drivers/USB/Core/AVR8/Template/Template_Endpoint_Control_W.c **** 	{
 2816               		.loc 4 74 0
 2817 0030 82FF      		sbrs r24,2
 2818 0032 00C0      		rjmp .L248
  86:lib/lufa/LUFA/Drivers/USB/Core/AVR8/Template/Template_Endpoint_Control_W.c **** }
 2819               		.loc 4 86 0
 2820 0034 80E0      		ldi r24,0
 2821 0036 0895      		ret
 2822               	.LVL294:
 2823               	.L249:
 2824 0038 BC01      		movw r22,r24
 2825               	.LVL295:
 2826 003a 00C0      		rjmp .L238
 2827               	.LVL296:
 2828               	.L247:
 2829               	.LBB426:
  46:lib/lufa/LUFA/Drivers/USB/Core/AVR8/Template/Template_Endpoint_Control_W.c **** 
 2830               		.loc 4 46 0
 2831 003c 8091 0000 		lds r24,USB_DeviceState
 2832               	.LVL297:
  48:lib/lufa/LUFA/Drivers/USB/Core/AVR8/Template/Template_Endpoint_Control_W.c **** 		  return ENDPOINT_RWCSTREAM_DeviceDisconnected;
 2833               		.loc 4 48 0
 2834 0040 8823      		tst r24
 2835 0042 01F0      		breq .L253
  50:lib/lufa/LUFA/Drivers/USB/Core/AVR8/Template/Template_Endpoint_Control_W.c **** 		  return ENDPOINT_RWCSTREAM_BusSuspended;
 2836               		.loc 4 50 0
 2837 0044 8530      		cpi r24,lo8(5)
 2838 0046 01F0      		breq .L254
 2839               	.LBB427:
 2840               	.LBB428:
 431:lib/lufa/LUFA/Drivers/USB/Core/AVR8/../AVR8/../AVR8/Endpoint_AVR8.h **** 			}
 2841               		.loc 2 431 0
 2842 0048 8091 E800 		lds r24,232
 2843               	.LVL298:
 2844               	.LBE428:
 2845               	.LBE427:
  52:lib/lufa/LUFA/Drivers/USB/Core/AVR8/Template/Template_Endpoint_Control_W.c **** 		  return ENDPOINT_RWCSTREAM_HostAborted;
 2846               		.loc 4 52 0
 2847 004c 83FD      		sbrc r24,3
 2848 004e 00C0      		rjmp .L255
 2849               	.LBB429:
 2850               	.LBB430:
 419:lib/lufa/LUFA/Drivers/USB/Core/AVR8/../AVR8/../AVR8/Endpoint_AVR8.h **** 			}
 2851               		.loc 2 419 0
 2852 0050 8091 E800 		lds r24,232
 2853               	.LBE430:
 2854               	.LBE429:
  54:lib/lufa/LUFA/Drivers/USB/Core/AVR8/Template/Template_Endpoint_Control_W.c **** 		  break;
 2855               		.loc 4 54 0
 2856 0054 82FD      		sbrc r24,2
 2857 0056 00C0      		rjmp .L261
 2858               	.LBB431:
 2859               	.LBB432:
 407:lib/lufa/LUFA/Drivers/USB/Core/AVR8/../AVR8/../AVR8/Endpoint_AVR8.h **** 			}
 2860               		.loc 2 407 0
 2861 0058 8091 E800 		lds r24,232
 2862               	.LBE432:
 2863               	.LBE431:
  57:lib/lufa/LUFA/Drivers/USB/Core/AVR8/Template/Template_Endpoint_Control_W.c **** 		{
 2864               		.loc 4 57 0
 2865 005c 80FF      		sbrs r24,0
 2866 005e 00C0      		rjmp .L242
 2867               	.LBB433:
 2868               	.LBB434:
 2869               	.LBB435:
 227:lib/lufa/LUFA/Drivers/USB/Core/AVR8/../AVR8/../AVR8/Endpoint_AVR8.h **** 				#elif defined(USB_SERIES_2_AVR)
 2870               		.loc 2 227 0
 2871 0060 2091 F300 		lds r18,243
 2872 0064 8091 F200 		lds r24,242
 2873 0068 322F      		mov r19,r18
 2874 006a 282F      		mov r18,r24
 2875               	.L243:
 2876               	.LVL299:
 2877               	.LBE435:
 2878               	.LBE434:
  61:lib/lufa/LUFA/Drivers/USB/Core/AVR8/Template/Template_Endpoint_Control_W.c **** 			{
 2879               		.loc 4 61 0
 2880 006c 6115      		cp r22,__zero_reg__
 2881 006e 7105      		cpc r23,__zero_reg__
 2882 0070 01F0      		breq .L244
  61:lib/lufa/LUFA/Drivers/USB/Core/AVR8/Template/Template_Endpoint_Control_W.c **** 			{
 2883               		.loc 4 61 0 is_stmt 0 discriminator 1
 2884 0072 2830      		cpi r18,8
 2885 0074 3105      		cpc r19,__zero_reg__
 2886 0076 00F0      		brlo .L245
 2887               	.L244:
  69:lib/lufa/LUFA/Drivers/USB/Core/AVR8/Template/Template_Endpoint_Control_W.c **** 			Endpoint_ClearIN();
 2888               		.loc 4 69 0 is_stmt 1
 2889 0078 91E0      		ldi r25,lo8(1)
 2890               	.LVL300:
 2891 007a 2830      		cpi r18,8
 2892 007c 3105      		cpc r19,__zero_reg__
 2893 007e 01F0      		breq .L246
 2894 0080 90E0      		ldi r25,0
 2895               	.L246:
 2896               	.LVL301:
 2897               	.LBB436:
 2898               	.LBB437:
 456:lib/lufa/LUFA/Drivers/USB/Core/AVR8/../AVR8/../AVR8/Endpoint_AVR8.h **** 				#else
 2899               		.loc 2 456 0
 2900 0082 8091 E800 		lds r24,232
 2901 0086 8E77      		andi r24,lo8(126)
 2902 0088 8093 E800 		sts 232,r24
 2903 008c 00C0      		rjmp .L242
 2904               	.L245:
 2905               	.LVL302:
 2906               	.LBE437:
 2907               	.LBE436:
 2908               	.LBB438:
  63:lib/lufa/LUFA/Drivers/USB/Core/AVR8/Template/Template_Endpoint_Control_W.c **** 				TEMPLATE_BUFFER_MOVE(DataStream, 1);
 2909               		.loc 4 63 0
 2910               	/* #APP */
 2911               	 ;  63 "lib/lufa/LUFA/Drivers/USB/Core/AVR8/Template/Template_Endpoint_Control_W.c" 1
 2912 008e 8491      		lpm r24, Z
 2913               		
 2914               	 ;  0 "" 2
 2915               	.LVL303:
 2916               	/* #NOAPP */
 2917               	.LBE438:
 2918               	.LBB439:
 2919               	.LBB440:
 554:lib/lufa/LUFA/Drivers/USB/Core/AVR8/../AVR8/../AVR8/Endpoint_AVR8.h **** 			}
 2920               		.loc 2 554 0
 2921 0090 8093 F100 		sts 241,r24
 2922               	.LVL304:
 2923               	.LBE440:
 2924               	.LBE439:
  64:lib/lufa/LUFA/Drivers/USB/Core/AVR8/Template/Template_Endpoint_Control_W.c **** 				Length--;
 2925               		.loc 4 64 0
 2926 0094 3196      		adiw r30,1
 2927               	.LVL305:
  65:lib/lufa/LUFA/Drivers/USB/Core/AVR8/Template/Template_Endpoint_Control_W.c **** 				BytesInEndpoint++;
 2928               		.loc 4 65 0
 2929 0096 6150      		subi r22,1
 2930 0098 7109      		sbc r23,__zero_reg__
 2931               	.LVL306:
  66:lib/lufa/LUFA/Drivers/USB/Core/AVR8/Template/Template_Endpoint_Control_W.c **** 			}
 2932               		.loc 4 66 0
 2933 009a 2F5F      		subi r18,-1
 2934 009c 3F4F      		sbci r19,-1
 2935               	.LVL307:
 2936 009e 00C0      		rjmp .L243
 2937               	.LVL308:
 2938               	.L248:
 2939               	.LBE433:
 2940               	.LBE426:
 2941               	.LBB441:
  76:lib/lufa/LUFA/Drivers/USB/Core/AVR8/Template/Template_Endpoint_Control_W.c **** 
 2942               		.loc 4 76 0
 2943 00a0 8091 0000 		lds r24,USB_DeviceState
 2944               	.LVL309:
  78:lib/lufa/LUFA/Drivers/USB/Core/AVR8/Template/Template_Endpoint_Control_W.c **** 		  return ENDPOINT_RWCSTREAM_DeviceDisconnected;
 2945               		.loc 4 78 0
 2946 00a4 8823      		tst r24
 2947 00a6 01F0      		breq .L253
  80:lib/lufa/LUFA/Drivers/USB/Core/AVR8/Template/Template_Endpoint_Control_W.c **** 		  return ENDPOINT_RWCSTREAM_BusSuspended;
 2948               		.loc 4 80 0
 2949 00a8 8530      		cpi r24,lo8(5)
 2950 00aa 01F0      		breq .L254
 2951               	.LBB442:
 2952               	.LBB443:
 431:lib/lufa/LUFA/Drivers/USB/Core/AVR8/../AVR8/../AVR8/Endpoint_AVR8.h **** 			}
 2953               		.loc 2 431 0
 2954 00ac 8091 E800 		lds r24,232
 2955               	.LVL310:
 2956               	.LBE443:
 2957               	.LBE442:
  82:lib/lufa/LUFA/Drivers/USB/Core/AVR8/Template/Template_Endpoint_Control_W.c **** 		  return ENDPOINT_RWCSTREAM_HostAborted;
 2958               		.loc 4 82 0
 2959 00b0 83FF      		sbrs r24,3
 2960 00b2 00C0      		rjmp .L261
 2961               	.L255:
 2962               	.LBE441:
 2963               	.LBB444:
  53:lib/lufa/LUFA/Drivers/USB/Core/AVR8/Template/Template_Endpoint_Control_W.c **** 		else if (Endpoint_IsOUTReceived())
 2964               		.loc 4 53 0
 2965 00b4 81E0      		ldi r24,lo8(1)
 2966               	/* epilogue start */
 2967               	.LBE444:
 2968               		.loc 4 87 0
 2969 00b6 0895      		ret
 2970               	.L253:
 2971               	.LBB445:
  49:lib/lufa/LUFA/Drivers/USB/Core/AVR8/Template/Template_Endpoint_Control_W.c **** 		else if (USB_DeviceState_LCL == DEVICE_STATE_Suspended)
 2972               		.loc 4 49 0
 2973 00b8 82E0      		ldi r24,lo8(2)
 2974 00ba 0895      		ret
 2975               	.L254:
  51:lib/lufa/LUFA/Drivers/USB/Core/AVR8/Template/Template_Endpoint_Control_W.c **** 		else if (Endpoint_IsSETUPReceived())
 2976               		.loc 4 51 0
 2977 00bc 83E0      		ldi r24,lo8(3)
 2978 00be 0895      		ret
 2979               	.LBE445:
 2980               		.cfi_endproc
 2981               	.LFE101:
 2983               		.section	.text.Endpoint_Write_Control_PStream_BE,"ax",@progbits
 2984               	.global	Endpoint_Write_Control_PStream_BE
 2986               	Endpoint_Write_Control_PStream_BE:
 2987               	.LFB102:
  35:lib/lufa/LUFA/Drivers/USB/Core/AVR8/Template/Template_Endpoint_Control_W.c **** 	uint8_t* DataStream     = ((uint8_t*)Buffer + TEMPLATE_BUFFER_OFFSET(Length));
 2988               		.loc 4 35 0
 2989               		.cfi_startproc
 2990               	.LVL311:
 2991               	/* prologue: function */
 2992               	/* frame size = 0 */
 2993               	/* stack size = 0 */
 2994               	.L__stack_usage = 0
  36:lib/lufa/LUFA/Drivers/USB/Core/AVR8/Template/Template_Endpoint_Control_W.c **** 	bool     LastPacketFull = false;
 2995               		.loc 4 36 0
 2996 0000 FB01      		movw r30,r22
 2997 0002 3197      		sbiw r30,1
 2998 0004 E80F      		add r30,r24
 2999 0006 F91F      		adc r31,r25
 3000               	.LVL312:
  39:lib/lufa/LUFA/Drivers/USB/Core/AVR8/Template/Template_Endpoint_Control_W.c **** 	  Length = USB_ControlRequest.wLength;
 3001               		.loc 4 39 0
 3002 0008 2091 0000 		lds r18,USB_ControlRequest+6
 3003 000c 3091 0000 		lds r19,USB_ControlRequest+6+1
 3004 0010 2617      		cp r18,r22
 3005 0012 3707      		cpc r19,r23
 3006 0014 00F0      		brlo .L277
  41:lib/lufa/LUFA/Drivers/USB/Core/AVR8/Template/Template_Endpoint_Control_W.c **** 	  Endpoint_ClearIN();
 3007               		.loc 4 41 0
 3008 0016 6115      		cp r22,__zero_reg__
 3009 0018 7105      		cpc r23,__zero_reg__
 3010 001a 01F4      		brne .L266
 3011               	.LBB446:
 3012               	.LBB447:
 456:lib/lufa/LUFA/Drivers/USB/Core/AVR8/../AVR8/../AVR8/Endpoint_AVR8.h **** 				#else
 3013               		.loc 2 456 0
 3014 001c 2091 E800 		lds r18,232
 3015 0020 2E77      		andi r18,lo8(126)
 3016 0022 2093 E800 		sts 232,r18
 3017               	.LVL313:
 3018               	.L266:
 3019               	.LBE447:
 3020               	.LBE446:
 3021 0026 40E0      		ldi r20,0
 3022               	.LVL314:
 3023               	.L270:
  44:lib/lufa/LUFA/Drivers/USB/Core/AVR8/Template/Template_Endpoint_Control_W.c **** 	{
 3024               		.loc 4 44 0
 3025 0028 6115      		cp r22,__zero_reg__
 3026 002a 7105      		cpc r23,__zero_reg__
 3027 002c 01F4      		brne .L275
  44:lib/lufa/LUFA/Drivers/USB/Core/AVR8/Template/Template_Endpoint_Control_W.c **** 	{
 3028               		.loc 4 44 0 is_stmt 0 discriminator 1
 3029 002e 4111      		cpse r20,__zero_reg__
 3030 0030 00C0      		rjmp .L275
 3031               	.LVL315:
 3032               	.L289:
 3033               	.LBB448:
 3034               	.LBB449:
 419:lib/lufa/LUFA/Drivers/USB/Core/AVR8/../AVR8/../AVR8/Endpoint_AVR8.h **** 			}
 3035               		.loc 2 419 0 is_stmt 1
 3036 0032 8091 E800 		lds r24,232
 3037               	.LBE449:
 3038               	.LBE448:
  74:lib/lufa/LUFA/Drivers/USB/Core/AVR8/Template/Template_Endpoint_Control_W.c **** 	{
 3039               		.loc 4 74 0
 3040 0036 82FF      		sbrs r24,2
 3041 0038 00C0      		rjmp .L276
  86:lib/lufa/LUFA/Drivers/USB/Core/AVR8/Template/Template_Endpoint_Control_W.c **** }
 3042               		.loc 4 86 0
 3043 003a 80E0      		ldi r24,0
 3044 003c 0895      		ret
 3045               	.LVL316:
 3046               	.L277:
 3047 003e B901      		movw r22,r18
 3048               	.LVL317:
 3049 0040 00C0      		rjmp .L266
 3050               	.LVL318:
 3051               	.L275:
 3052               	.LBB450:
  46:lib/lufa/LUFA/Drivers/USB/Core/AVR8/Template/Template_Endpoint_Control_W.c **** 
 3053               		.loc 4 46 0
 3054 0042 2091 0000 		lds r18,USB_DeviceState
 3055               	.LVL319:
  48:lib/lufa/LUFA/Drivers/USB/Core/AVR8/Template/Template_Endpoint_Control_W.c **** 		  return ENDPOINT_RWCSTREAM_DeviceDisconnected;
 3056               		.loc 4 48 0
 3057 0046 2223      		tst r18
 3058 0048 01F0      		breq .L281
  50:lib/lufa/LUFA/Drivers/USB/Core/AVR8/Template/Template_Endpoint_Control_W.c **** 		  return ENDPOINT_RWCSTREAM_BusSuspended;
 3059               		.loc 4 50 0
 3060 004a 2530      		cpi r18,lo8(5)
 3061 004c 01F0      		breq .L282
 3062               	.LBB451:
 3063               	.LBB452:
 431:lib/lufa/LUFA/Drivers/USB/Core/AVR8/../AVR8/../AVR8/Endpoint_AVR8.h **** 			}
 3064               		.loc 2 431 0
 3065 004e 2091 E800 		lds r18,232
 3066               	.LVL320:
 3067               	.LBE452:
 3068               	.LBE451:
  52:lib/lufa/LUFA/Drivers/USB/Core/AVR8/Template/Template_Endpoint_Control_W.c **** 		  return ENDPOINT_RWCSTREAM_HostAborted;
 3069               		.loc 4 52 0
 3070 0052 23FD      		sbrc r18,3
 3071 0054 00C0      		rjmp .L283
 3072               	.LBB453:
 3073               	.LBB454:
 419:lib/lufa/LUFA/Drivers/USB/Core/AVR8/../AVR8/../AVR8/Endpoint_AVR8.h **** 			}
 3074               		.loc 2 419 0
 3075 0056 2091 E800 		lds r18,232
 3076               	.LBE454:
 3077               	.LBE453:
  54:lib/lufa/LUFA/Drivers/USB/Core/AVR8/Template/Template_Endpoint_Control_W.c **** 		  break;
 3078               		.loc 4 54 0
 3079 005a 22FD      		sbrc r18,2
 3080 005c 00C0      		rjmp .L289
 3081               	.LBB455:
 3082               	.LBB456:
 407:lib/lufa/LUFA/Drivers/USB/Core/AVR8/../AVR8/../AVR8/Endpoint_AVR8.h **** 			}
 3083               		.loc 2 407 0
 3084 005e 2091 E800 		lds r18,232
 3085               	.LBE456:
 3086               	.LBE455:
  57:lib/lufa/LUFA/Drivers/USB/Core/AVR8/Template/Template_Endpoint_Control_W.c **** 		{
 3087               		.loc 4 57 0
 3088 0062 20FF      		sbrs r18,0
 3089 0064 00C0      		rjmp .L270
 3090               	.LBB457:
 3091               	.LBB458:
 3092               	.LBB459:
 227:lib/lufa/LUFA/Drivers/USB/Core/AVR8/../AVR8/../AVR8/Endpoint_AVR8.h **** 				#elif defined(USB_SERIES_2_AVR)
 3093               		.loc 2 227 0
 3094 0066 2091 F300 		lds r18,243
 3095 006a 3091 F200 		lds r19,242
 3096 006e 2327      		eor r18,r19
 3097 0070 3227      		eor r19,r18
 3098 0072 2327      		eor r18,r19
 3099               	.LVL321:
 3100               	.L271:
 3101               	.LBE459:
 3102               	.LBE458:
  61:lib/lufa/LUFA/Drivers/USB/Core/AVR8/Template/Template_Endpoint_Control_W.c **** 			{
 3103               		.loc 4 61 0
 3104 0074 6115      		cp r22,__zero_reg__
 3105 0076 7105      		cpc r23,__zero_reg__
 3106 0078 01F0      		breq .L272
  61:lib/lufa/LUFA/Drivers/USB/Core/AVR8/Template/Template_Endpoint_Control_W.c **** 			{
 3107               		.loc 4 61 0 is_stmt 0 discriminator 1
 3108 007a 2830      		cpi r18,8
 3109 007c 3105      		cpc r19,__zero_reg__
 3110 007e 00F0      		brlo .L273
 3111               	.L272:
  69:lib/lufa/LUFA/Drivers/USB/Core/AVR8/Template/Template_Endpoint_Control_W.c **** 			Endpoint_ClearIN();
 3112               		.loc 4 69 0 is_stmt 1
 3113 0080 41E0      		ldi r20,lo8(1)
 3114 0082 2830      		cpi r18,8
 3115 0084 3105      		cpc r19,__zero_reg__
 3116 0086 01F0      		breq .L274
 3117 0088 40E0      		ldi r20,0
 3118               	.L274:
 3119               	.LVL322:
 3120               	.LBB460:
 3121               	.LBB461:
 456:lib/lufa/LUFA/Drivers/USB/Core/AVR8/../AVR8/../AVR8/Endpoint_AVR8.h **** 				#else
 3122               		.loc 2 456 0
 3123 008a 2091 E800 		lds r18,232
 3124               	.LVL323:
 3125 008e 2E77      		andi r18,lo8(126)
 3126 0090 2093 E800 		sts 232,r18
 3127 0094 00C0      		rjmp .L270
 3128               	.LVL324:
 3129               	.L273:
 3130               	.LBE461:
 3131               	.LBE460:
 3132               	.LBB462:
