   1              		.cpu cortex-m4
   2              		.eabi_attribute 20, 1
   3              		.eabi_attribute 21, 1
   4              		.eabi_attribute 23, 3
   5              		.eabi_attribute 24, 1
   6              		.eabi_attribute 25, 1
   7              		.eabi_attribute 26, 1
   8              		.eabi_attribute 30, 4
   9              		.eabi_attribute 34, 1
  10              		.eabi_attribute 18, 2
  11              		.file	"nvic.c"
  12              		.text
  13              	.Ltext0:
  14              		.cfi_sections	.debug_frame
  15              		.section	.text.nvicEnableVector,"ax",%progbits
  16              		.align	1
  17              		.global	nvicEnableVector
  18              		.syntax unified
  19              		.thumb
  20              		.thumb_func
  21              		.fpu softvfp
  23              	nvicEnableVector:
  24              	.LFB279:
  25              		.file 1 "lib/chibios/os/hal/ports/common/ARMCMx/nvic.c"
   1:lib/chibios/os/hal/ports/common/ARMCMx/nvic.c **** /*
   2:lib/chibios/os/hal/ports/common/ARMCMx/nvic.c ****     ChibiOS - Copyright (C) 2006..2016 Giovanni Di Sirio
   3:lib/chibios/os/hal/ports/common/ARMCMx/nvic.c **** 
   4:lib/chibios/os/hal/ports/common/ARMCMx/nvic.c ****     Licensed under the Apache License, Version 2.0 (the "License");
   5:lib/chibios/os/hal/ports/common/ARMCMx/nvic.c ****     you may not use this file except in compliance with the License.
   6:lib/chibios/os/hal/ports/common/ARMCMx/nvic.c ****     You may obtain a copy of the License at
   7:lib/chibios/os/hal/ports/common/ARMCMx/nvic.c **** 
   8:lib/chibios/os/hal/ports/common/ARMCMx/nvic.c ****         http://www.apache.org/licenses/LICENSE-2.0
   9:lib/chibios/os/hal/ports/common/ARMCMx/nvic.c **** 
  10:lib/chibios/os/hal/ports/common/ARMCMx/nvic.c ****     Unless required by applicable law or agreed to in writing, software
  11:lib/chibios/os/hal/ports/common/ARMCMx/nvic.c ****     distributed under the License is distributed on an "AS IS" BASIS,
  12:lib/chibios/os/hal/ports/common/ARMCMx/nvic.c ****     WITHOUT WARRANTIES OR CONDITIONS OF ANY KIND, either express or implied.
  13:lib/chibios/os/hal/ports/common/ARMCMx/nvic.c ****     See the License for the specific language governing permissions and
  14:lib/chibios/os/hal/ports/common/ARMCMx/nvic.c ****     limitations under the License.
  15:lib/chibios/os/hal/ports/common/ARMCMx/nvic.c **** */
  16:lib/chibios/os/hal/ports/common/ARMCMx/nvic.c **** 
  17:lib/chibios/os/hal/ports/common/ARMCMx/nvic.c **** /**
  18:lib/chibios/os/hal/ports/common/ARMCMx/nvic.c ****  * @file    common/ARMCMx/nvic.c
  19:lib/chibios/os/hal/ports/common/ARMCMx/nvic.c ****  * @brief   Cortex-Mx NVIC support code.
  20:lib/chibios/os/hal/ports/common/ARMCMx/nvic.c ****  *
  21:lib/chibios/os/hal/ports/common/ARMCMx/nvic.c ****  * @addtogroup COMMON_ARMCMx_NVIC
  22:lib/chibios/os/hal/ports/common/ARMCMx/nvic.c ****  * @{
  23:lib/chibios/os/hal/ports/common/ARMCMx/nvic.c ****  */
  24:lib/chibios/os/hal/ports/common/ARMCMx/nvic.c **** 
  25:lib/chibios/os/hal/ports/common/ARMCMx/nvic.c **** #include "hal.h"
  26:lib/chibios/os/hal/ports/common/ARMCMx/nvic.c **** 
  27:lib/chibios/os/hal/ports/common/ARMCMx/nvic.c **** /*===========================================================================*/
  28:lib/chibios/os/hal/ports/common/ARMCMx/nvic.c **** /* Driver local definitions.                                                 */
  29:lib/chibios/os/hal/ports/common/ARMCMx/nvic.c **** /*===========================================================================*/
  30:lib/chibios/os/hal/ports/common/ARMCMx/nvic.c **** 
  31:lib/chibios/os/hal/ports/common/ARMCMx/nvic.c **** /*===========================================================================*/
  32:lib/chibios/os/hal/ports/common/ARMCMx/nvic.c **** /* Driver exported variables.                                                */
  33:lib/chibios/os/hal/ports/common/ARMCMx/nvic.c **** /*===========================================================================*/
  34:lib/chibios/os/hal/ports/common/ARMCMx/nvic.c **** 
  35:lib/chibios/os/hal/ports/common/ARMCMx/nvic.c **** /*===========================================================================*/
  36:lib/chibios/os/hal/ports/common/ARMCMx/nvic.c **** /* Driver local types.                                                       */
  37:lib/chibios/os/hal/ports/common/ARMCMx/nvic.c **** /*===========================================================================*/
  38:lib/chibios/os/hal/ports/common/ARMCMx/nvic.c **** 
  39:lib/chibios/os/hal/ports/common/ARMCMx/nvic.c **** /*===========================================================================*/
  40:lib/chibios/os/hal/ports/common/ARMCMx/nvic.c **** /* Driver local variables.                                                   */
  41:lib/chibios/os/hal/ports/common/ARMCMx/nvic.c **** /*===========================================================================*/
  42:lib/chibios/os/hal/ports/common/ARMCMx/nvic.c **** 
  43:lib/chibios/os/hal/ports/common/ARMCMx/nvic.c **** /*===========================================================================*/
  44:lib/chibios/os/hal/ports/common/ARMCMx/nvic.c **** /* Driver local functions.                                                   */
  45:lib/chibios/os/hal/ports/common/ARMCMx/nvic.c **** /*===========================================================================*/
  46:lib/chibios/os/hal/ports/common/ARMCMx/nvic.c **** 
  47:lib/chibios/os/hal/ports/common/ARMCMx/nvic.c **** /*===========================================================================*/
  48:lib/chibios/os/hal/ports/common/ARMCMx/nvic.c **** /* Driver exported functions.                                                */
  49:lib/chibios/os/hal/ports/common/ARMCMx/nvic.c **** /*===========================================================================*/
  50:lib/chibios/os/hal/ports/common/ARMCMx/nvic.c **** 
  51:lib/chibios/os/hal/ports/common/ARMCMx/nvic.c **** /**
  52:lib/chibios/os/hal/ports/common/ARMCMx/nvic.c ****  * @brief   Sets the priority of an interrupt handler and enables it.
  53:lib/chibios/os/hal/ports/common/ARMCMx/nvic.c ****  *
  54:lib/chibios/os/hal/ports/common/ARMCMx/nvic.c ****  * @param[in] n         the interrupt number
  55:lib/chibios/os/hal/ports/common/ARMCMx/nvic.c ****  * @param[in] prio      the interrupt priority
  56:lib/chibios/os/hal/ports/common/ARMCMx/nvic.c ****  */
  57:lib/chibios/os/hal/ports/common/ARMCMx/nvic.c **** void nvicEnableVector(uint32_t n, uint32_t prio) {
  26              		.loc 1 57 0
  27              		.cfi_startproc
  28              		@ args = 0, pretend = 0, frame = 0
  29              		@ frame_needed = 0, uses_anonymous_args = 0
  30              		@ link register save eliminated.
  31              	.LVL0:
  58:lib/chibios/os/hal/ports/common/ARMCMx/nvic.c **** 
  59:lib/chibios/os/hal/ports/common/ARMCMx/nvic.c **** #if defined(__CORE_CM0_H_GENERIC)
  60:lib/chibios/os/hal/ports/common/ARMCMx/nvic.c ****   NVIC->IP[_IP_IDX(n)] = (NVIC->IP[_IP_IDX(n)] & ~(0xFFU << _BIT_SHIFT(n))) |
  61:lib/chibios/os/hal/ports/common/ARMCMx/nvic.c ****                          (NVIC_PRIORITY_MASK(prio) << _BIT_SHIFT(n));
  62:lib/chibios/os/hal/ports/common/ARMCMx/nvic.c **** #else
  63:lib/chibios/os/hal/ports/common/ARMCMx/nvic.c ****   NVIC->IP[n] = NVIC_PRIORITY_MASK(prio);
  32              		.loc 1 63 0
  33 0000 00F16043 		add	r3, r0, #-536870912
  64:lib/chibios/os/hal/ports/common/ARMCMx/nvic.c **** #endif
  65:lib/chibios/os/hal/ports/common/ARMCMx/nvic.c ****   NVIC->ICPR[n >> 5U] = 1U << (n & 0x1FU);
  34              		.loc 1 65 0
  35 0004 00F01F02 		and	r2, r0, #31
  36 0008 4009     		lsrs	r0, r0, #5
  37              	.LVL1:
  63:lib/chibios/os/hal/ports/common/ARMCMx/nvic.c **** #endif
  38              		.loc 1 63 0
  39 000a 03F56143 		add	r3, r3, #57600
  40              	.LVL2:
  41 000e 0901     		lsls	r1, r1, #4
  42              	.LVL3:
  43 0010 8000     		lsls	r0, r0, #2
  44 0012 C9B2     		uxtb	r1, r1
  45 0014 00F16040 		add	r0, r0, #-536870912
  46 0018 83F80013 		strb	r1, [r3, #768]
  47 001c 00F56140 		add	r0, r0, #57600
  48              		.loc 1 65 0
  49 0020 0123     		movs	r3, #1
  50              	.LVL4:
  51 0022 9340     		lsls	r3, r3, r2
  52 0024 C0F88031 		str	r3, [r0, #384]
  66:lib/chibios/os/hal/ports/common/ARMCMx/nvic.c ****   NVIC->ISER[n >> 5U] = 1U << (n & 0x1FU);
  53              		.loc 1 66 0
  54 0028 0360     		str	r3, [r0]
  67:lib/chibios/os/hal/ports/common/ARMCMx/nvic.c **** }
  55              		.loc 1 67 0
  56 002a 7047     		bx	lr
  57              		.cfi_endproc
  58              	.LFE279:
  60              		.section	.text.nvicDisableVector,"ax",%progbits
  61              		.align	1
  62              		.global	nvicDisableVector
  63              		.syntax unified
  64              		.thumb
  65              		.thumb_func
  66              		.fpu softvfp
  68              	nvicDisableVector:
  69              	.LFB280:
  68:lib/chibios/os/hal/ports/common/ARMCMx/nvic.c **** 
  69:lib/chibios/os/hal/ports/common/ARMCMx/nvic.c **** /**
  70:lib/chibios/os/hal/ports/common/ARMCMx/nvic.c ****  * @brief   Disables an interrupt handler.
  71:lib/chibios/os/hal/ports/common/ARMCMx/nvic.c ****  *
  72:lib/chibios/os/hal/ports/common/ARMCMx/nvic.c ****  * @param[in] n         the interrupt number
  73:lib/chibios/os/hal/ports/common/ARMCMx/nvic.c ****  */
  74:lib/chibios/os/hal/ports/common/ARMCMx/nvic.c **** void nvicDisableVector(uint32_t n) {
  70              		.loc 1 74 0
  71              		.cfi_startproc
  72              		@ args = 0, pretend = 0, frame = 0
  73              		@ frame_needed = 0, uses_anonymous_args = 0
  74              		@ link register save eliminated.
  75              	.LVL5:
  75:lib/chibios/os/hal/ports/common/ARMCMx/nvic.c **** 
  76:lib/chibios/os/hal/ports/common/ARMCMx/nvic.c ****   NVIC->ICER[n >> 5U] = 1U << (n & 0x1FU);
  76              		.loc 1 76 0
  77 0000 00F01F03 		and	r3, r0, #31
  78 0004 4209     		lsrs	r2, r0, #5
  79 0006 0121     		movs	r1, #1
  80 0008 9940     		lsls	r1, r1, r3
  81 000a 2032     		adds	r2, r2, #32
  82 000c 034B     		ldr	r3, .L3
  83 000e 43F82210 		str	r1, [r3, r2, lsl #2]
  77:lib/chibios/os/hal/ports/common/ARMCMx/nvic.c **** #if defined(__CORE_CM0_H_GENERIC)
  78:lib/chibios/os/hal/ports/common/ARMCMx/nvic.c ****   NVIC->IP[_IP_IDX(n)] = NVIC->IP[_IP_IDX(n)] & ~(0xFFU << _BIT_SHIFT(n));
  79:lib/chibios/os/hal/ports/common/ARMCMx/nvic.c **** #else
  80:lib/chibios/os/hal/ports/common/ARMCMx/nvic.c ****   NVIC->IP[n] = 0U;
  84              		.loc 1 80 0
  85 0012 0344     		add	r3, r3, r0
  86 0014 0022     		movs	r2, #0
  87 0016 83F80023 		strb	r2, [r3, #768]
  81:lib/chibios/os/hal/ports/common/ARMCMx/nvic.c **** #endif
  82:lib/chibios/os/hal/ports/common/ARMCMx/nvic.c **** }
  88              		.loc 1 82 0
  89 001a 7047     		bx	lr
  90              	.L4:
  91              		.align	2
  92              	.L3:
  93 001c 00E100E0 		.word	-536813312
  94              		.cfi_endproc
  95              	.LFE280:
  97              		.section	.text.nvicSetSystemHandlerPriority,"ax",%progbits
  98              		.align	1
  99              		.global	nvicSetSystemHandlerPriority
 100              		.syntax unified
 101              		.thumb
 102              		.thumb_func
 103              		.fpu softvfp
 105              	nvicSetSystemHandlerPriority:
 106              	.LFB281:
  83:lib/chibios/os/hal/ports/common/ARMCMx/nvic.c **** 
  84:lib/chibios/os/hal/ports/common/ARMCMx/nvic.c **** /**
  85:lib/chibios/os/hal/ports/common/ARMCMx/nvic.c ****  * @brief   Changes the priority of a system handler.
  86:lib/chibios/os/hal/ports/common/ARMCMx/nvic.c ****  *
  87:lib/chibios/os/hal/ports/common/ARMCMx/nvic.c ****  * @param[in] handler   the system handler number
  88:lib/chibios/os/hal/ports/common/ARMCMx/nvic.c ****  * @param[in] prio      the system handler priority
  89:lib/chibios/os/hal/ports/common/ARMCMx/nvic.c ****  */
  90:lib/chibios/os/hal/ports/common/ARMCMx/nvic.c **** void nvicSetSystemHandlerPriority(uint32_t handler, uint32_t prio) {
 107              		.loc 1 90 0
 108              		.cfi_startproc
 109              		@ args = 0, pretend = 0, frame = 0
 110              		@ frame_needed = 0, uses_anonymous_args = 0
 111              		@ link register save eliminated.
 112              	.LVL6:
  91:lib/chibios/os/hal/ports/common/ARMCMx/nvic.c **** 
  92:lib/chibios/os/hal/ports/common/ARMCMx/nvic.c ****   osalDbgCheck(handler < 12U);
  93:lib/chibios/os/hal/ports/common/ARMCMx/nvic.c **** 
  94:lib/chibios/os/hal/ports/common/ARMCMx/nvic.c **** #if defined(__CORE_CM0_H_GENERIC)
  95:lib/chibios/os/hal/ports/common/ARMCMx/nvic.c ****   SCB->SHP[_SHP_IDX(handler)] = (SCB->SHP[_SHP_IDX(handler)] & ~(0xFFU << _BIT_SHIFT(handler))) |
  96:lib/chibios/os/hal/ports/common/ARMCMx/nvic.c ****                                 (NVIC_PRIORITY_MASK(prio) << _BIT_SHIFT(handler));
  97:lib/chibios/os/hal/ports/common/ARMCMx/nvic.c **** #elif defined(__CORE_CM7_H_GENERIC)
  98:lib/chibios/os/hal/ports/common/ARMCMx/nvic.c ****   SCB->SHPR[handler] = NVIC_PRIORITY_MASK(prio);
  99:lib/chibios/os/hal/ports/common/ARMCMx/nvic.c **** #else
 100:lib/chibios/os/hal/ports/common/ARMCMx/nvic.c ****   SCB->SHP[handler] = NVIC_PRIORITY_MASK(prio);
 113              		.loc 1 100 0
 114 0000 00F16040 		add	r0, r0, #-536870912
 115              	.LVL7:
 116 0004 0901     		lsls	r1, r1, #4
 117              	.LVL8:
 118 0006 00F56D40 		add	r0, r0, #60672
 119              	.LVL9:
 120 000a C9B2     		uxtb	r1, r1
 121 000c 0176     		strb	r1, [r0, #24]
 101:lib/chibios/os/hal/ports/common/ARMCMx/nvic.c **** #endif
 102:lib/chibios/os/hal/ports/common/ARMCMx/nvic.c **** }
 122              		.loc 1 102 0
 123 000e 7047     		bx	lr
 124              		.cfi_endproc
 125              	.LFE281:
 127              		.section	.text.nvicClearPending,"ax",%progbits
 128              		.align	1
 129              		.global	nvicClearPending
 130              		.syntax unified
 131              		.thumb
 132              		.thumb_func
 133              		.fpu softvfp
 135              	nvicClearPending:
 136              	.LFB282:
 103:lib/chibios/os/hal/ports/common/ARMCMx/nvic.c **** 
 104:lib/chibios/os/hal/ports/common/ARMCMx/nvic.c **** /**
 105:lib/chibios/os/hal/ports/common/ARMCMx/nvic.c ****  * @brief   Clears a pending interrupt source.
 106:lib/chibios/os/hal/ports/common/ARMCMx/nvic.c ****  *
 107:lib/chibios/os/hal/ports/common/ARMCMx/nvic.c ****  * @param[in] n         the interrupt number
 108:lib/chibios/os/hal/ports/common/ARMCMx/nvic.c ****  */
 109:lib/chibios/os/hal/ports/common/ARMCMx/nvic.c **** void nvicClearPending(uint32_t n) {
 137              		.loc 1 109 0
 138              		.cfi_startproc
 139              		@ args = 0, pretend = 0, frame = 0
 140              		@ frame_needed = 0, uses_anonymous_args = 0
 141              		@ link register save eliminated.
 142              	.LVL10:
 110:lib/chibios/os/hal/ports/common/ARMCMx/nvic.c **** 
 111:lib/chibios/os/hal/ports/common/ARMCMx/nvic.c ****   NVIC->ICPR[n >> 5] = 1 << (n & 0x1F);
 143              		.loc 1 111 0
 144 0000 4309     		lsrs	r3, r0, #5
 145 0002 0122     		movs	r2, #1
 146 0004 00F01F00 		and	r0, r0, #31
 147              	.LVL11:
 148 0008 02FA00F0 		lsl	r0, r2, r0
 149 000c 6033     		adds	r3, r3, #96
 150 000e 024A     		ldr	r2, .L7
 151 0010 42F82300 		str	r0, [r2, r3, lsl #2]
 112:lib/chibios/os/hal/ports/common/ARMCMx/nvic.c **** }
 152              		.loc 1 112 0
 153 0014 7047     		bx	lr
 154              	.L8:
 155 0016 00BF     		.align	2
 156              	.L7:
 157 0018 00E100E0 		.word	-536813312
 158              		.cfi_endproc
 159              	.LFE282:
 161              		.text
 162              	.Letext0:
 163              		.file 2 "/usr/local/Cellar/gcc-arm-none-eabi/20180627/lib/gcc/arm-none-eabi/7.3.1/include/stddef.h
 164              		.file 3 "/usr/local/Cellar/gcc-arm-none-eabi/20180627/arm-none-eabi/include/machine/_default_types
 165              		.file 4 "/usr/local/Cellar/gcc-arm-none-eabi/20180627/arm-none-eabi/include/sys/_stdint.h"
 166              		.file 5 "./lib/chibios/os/common/ports/ARMCMx/compilers/GCC/chtypes.h"
 167              		.file 6 "./lib/chibios/os/rt/include/chsystypes.h"
 168              		.file 7 "./lib/chibios/os/rt/include/chschd.h"
 169              		.file 8 "./lib/chibios/os/common/ext/CMSIS/include/core_cm4.h"
 170              		.file 9 "./lib/chibios/os/common/ext/CMSIS/ST/STM32F3xx/system_stm32f3xx.h"
 171              		.file 10 "./lib/chibios/os/common/ext/CMSIS/ST/STM32F3xx/stm32f303xc.h"
 172              		.file 11 "./lib/chibios/os/common/ports/ARMCMx/chcore.h"
 173              		.file 12 "./lib/chibios/os/common/ports/ARMCMx/chcore_v7m.h"
 174              		.file 13 "./lib/chibios/os/hal/ports/STM32/LLD/TIMv1/stm32_tim.h"
 175              		.file 14 "./lib/chibios/os/rt/include/chtm.h"
 176              		.file 15 "./lib/chibios/os/rt/include/chsem.h"
 177              		.file 16 "./lib/chibios/os/rt/include/chmtx.h"
 178              		.file 17 "./lib/chibios/os/rt/include/chsys.h"
 179              		.file 18 "./lib/chibios/os/rt/include/chregistry.h"
 180              		.file 19 "./lib/chibios/os/common/oslib/include/chmemcore.h"
 181              		.file 20 "./lib/chibios/os/hal/ports/STM32/LLD/DMAv1/stm32_dma.h"
 182              		.file 21 "./lib/chibios/os/hal/ports/STM32/LLD/GPIOv2/hal_pal_lld.h"
 183              		.file 22 "./lib/chibios/os/hal/include/hal_dac.h"
 184              		.file 23 "./lib/chibios/os/hal/ports/STM32/LLD/DACv1/hal_dac_lld.h"
 185              		.file 24 "./lib/chibios/os/hal/include/hal_gpt.h"
 186              		.file 25 "./lib/chibios/os/hal/ports/STM32/LLD/TIMv1/hal_gpt_lld.h"
 187              		.file 26 "./lib/chibios/os/hal/include/hal_i2c.h"
 188              		.file 27 "./lib/chibios/os/hal/ports/STM32/LLD/I2Cv2/hal_i2c_lld.h"
 189              		.file 28 "./lib/chibios/os/hal/include/hal_pwm.h"
 190              		.file 29 "./lib/chibios/os/hal/ports/STM32/LLD/TIMv1/hal_pwm_lld.h"
 191              		.file 30 "./lib/chibios/os/hal/include/hal_usb.h"
 192              		.file 31 "./lib/chibios/os/hal/ports/STM32/LLD/USBv1/hal_usb_lld.h"