   1              		.cpu cortex-m4
   2              		.eabi_attribute 20, 1
   3              		.eabi_attribute 21, 1
   4              		.eabi_attribute 23, 3
   5              		.eabi_attribute 24, 1
   6              		.eabi_attribute 25, 1
   7              		.eabi_attribute 26, 1
   8              		.eabi_attribute 30, 4
   9              		.eabi_attribute 34, 1
  10              		.eabi_attribute 18, 2
  11              		.file	"memstreams.c"
  12              		.text
  13              	.Ltext0:
  14              		.cfi_sections	.debug_frame
  15              		.section	.text._put,"ax",%progbits
  16              		.align	1
  17              		.syntax unified
  18              		.thumb
  19              		.thumb_func
  20              		.fpu softvfp
  22              	_put:
  23              	.LFB281:
  24              		.file 1 "lib/chibios/os/hal/lib/streams/memstreams.c"
   1:lib/chibios/os/hal/lib/streams/memstreams.c **** /*
   2:lib/chibios/os/hal/lib/streams/memstreams.c ****     ChibiOS - Copyright (C) 2006..2016 Giovanni Di Sirio
   3:lib/chibios/os/hal/lib/streams/memstreams.c **** 
   4:lib/chibios/os/hal/lib/streams/memstreams.c ****     Licensed under the Apache License, Version 2.0 (the "License");
   5:lib/chibios/os/hal/lib/streams/memstreams.c ****     you may not use this file except in compliance with the License.
   6:lib/chibios/os/hal/lib/streams/memstreams.c ****     You may obtain a copy of the License at
   7:lib/chibios/os/hal/lib/streams/memstreams.c **** 
   8:lib/chibios/os/hal/lib/streams/memstreams.c ****         http://www.apache.org/licenses/LICENSE-2.0
   9:lib/chibios/os/hal/lib/streams/memstreams.c **** 
  10:lib/chibios/os/hal/lib/streams/memstreams.c ****     Unless required by applicable law or agreed to in writing, software
  11:lib/chibios/os/hal/lib/streams/memstreams.c ****     distributed under the License is distributed on an "AS IS" BASIS,
  12:lib/chibios/os/hal/lib/streams/memstreams.c ****     WITHOUT WARRANTIES OR CONDITIONS OF ANY KIND, either express or implied.
  13:lib/chibios/os/hal/lib/streams/memstreams.c ****     See the License for the specific language governing permissions and
  14:lib/chibios/os/hal/lib/streams/memstreams.c ****     limitations under the License.
  15:lib/chibios/os/hal/lib/streams/memstreams.c **** */
  16:lib/chibios/os/hal/lib/streams/memstreams.c **** 
  17:lib/chibios/os/hal/lib/streams/memstreams.c **** /**
  18:lib/chibios/os/hal/lib/streams/memstreams.c ****  * @file    memstreams.c
  19:lib/chibios/os/hal/lib/streams/memstreams.c ****  * @brief   Memory streams code.
  20:lib/chibios/os/hal/lib/streams/memstreams.c ****  *
  21:lib/chibios/os/hal/lib/streams/memstreams.c ****  * @addtogroup memory_streams
  22:lib/chibios/os/hal/lib/streams/memstreams.c ****  * @{
  23:lib/chibios/os/hal/lib/streams/memstreams.c ****  */
  24:lib/chibios/os/hal/lib/streams/memstreams.c **** 
  25:lib/chibios/os/hal/lib/streams/memstreams.c **** #include <string.h>
  26:lib/chibios/os/hal/lib/streams/memstreams.c **** 
  27:lib/chibios/os/hal/lib/streams/memstreams.c **** #include "hal.h"
  28:lib/chibios/os/hal/lib/streams/memstreams.c **** #include "memstreams.h"
  29:lib/chibios/os/hal/lib/streams/memstreams.c **** 
  30:lib/chibios/os/hal/lib/streams/memstreams.c **** /*===========================================================================*/
  31:lib/chibios/os/hal/lib/streams/memstreams.c **** /* Driver local definitions.                                                 */
  32:lib/chibios/os/hal/lib/streams/memstreams.c **** /*===========================================================================*/
  33:lib/chibios/os/hal/lib/streams/memstreams.c **** 
  34:lib/chibios/os/hal/lib/streams/memstreams.c **** /*===========================================================================*/
  35:lib/chibios/os/hal/lib/streams/memstreams.c **** /* Driver exported variables.                                                */
  36:lib/chibios/os/hal/lib/streams/memstreams.c **** /*===========================================================================*/
  37:lib/chibios/os/hal/lib/streams/memstreams.c **** 
  38:lib/chibios/os/hal/lib/streams/memstreams.c **** /*===========================================================================*/
  39:lib/chibios/os/hal/lib/streams/memstreams.c **** /* Driver local variables.                                                   */
  40:lib/chibios/os/hal/lib/streams/memstreams.c **** /*===========================================================================*/
  41:lib/chibios/os/hal/lib/streams/memstreams.c **** 
  42:lib/chibios/os/hal/lib/streams/memstreams.c **** /*===========================================================================*/
  43:lib/chibios/os/hal/lib/streams/memstreams.c **** /* Driver local functions.                                                   */
  44:lib/chibios/os/hal/lib/streams/memstreams.c **** /*===========================================================================*/
  45:lib/chibios/os/hal/lib/streams/memstreams.c **** 
  46:lib/chibios/os/hal/lib/streams/memstreams.c **** static size_t _writes(void *ip, const uint8_t *bp, size_t n) {
  47:lib/chibios/os/hal/lib/streams/memstreams.c ****   MemoryStream *msp = ip;
  48:lib/chibios/os/hal/lib/streams/memstreams.c **** 
  49:lib/chibios/os/hal/lib/streams/memstreams.c ****   if (msp->size - msp->eos < n)
  50:lib/chibios/os/hal/lib/streams/memstreams.c ****     n = msp->size - msp->eos;
  51:lib/chibios/os/hal/lib/streams/memstreams.c ****   memcpy(msp->buffer + msp->eos, bp, n);
  52:lib/chibios/os/hal/lib/streams/memstreams.c ****   msp->eos += n;
  53:lib/chibios/os/hal/lib/streams/memstreams.c ****   return n;
  54:lib/chibios/os/hal/lib/streams/memstreams.c **** }
  55:lib/chibios/os/hal/lib/streams/memstreams.c **** 
  56:lib/chibios/os/hal/lib/streams/memstreams.c **** static size_t _reads(void *ip, uint8_t *bp, size_t n) {
  57:lib/chibios/os/hal/lib/streams/memstreams.c ****   MemoryStream *msp = ip;
  58:lib/chibios/os/hal/lib/streams/memstreams.c **** 
  59:lib/chibios/os/hal/lib/streams/memstreams.c ****   if (msp->eos - msp->offset < n)
  60:lib/chibios/os/hal/lib/streams/memstreams.c ****     n = msp->eos - msp->offset;
  61:lib/chibios/os/hal/lib/streams/memstreams.c ****   memcpy(bp, msp->buffer + msp->offset, n);
  62:lib/chibios/os/hal/lib/streams/memstreams.c ****   msp->offset += n;
  63:lib/chibios/os/hal/lib/streams/memstreams.c ****   return n;
  64:lib/chibios/os/hal/lib/streams/memstreams.c **** }
  65:lib/chibios/os/hal/lib/streams/memstreams.c **** 
  66:lib/chibios/os/hal/lib/streams/memstreams.c **** static msg_t _put(void *ip, uint8_t b) {
  25              		.loc 1 66 0
  26              		.cfi_startproc
  27              		@ args = 0, pretend = 0, frame = 0
  28              		@ frame_needed = 0, uses_anonymous_args = 0
  29              		@ link register save eliminated.
  30              	.LVL0:
  67:lib/chibios/os/hal/lib/streams/memstreams.c ****   MemoryStream *msp = ip;
  68:lib/chibios/os/hal/lib/streams/memstreams.c **** 
  69:lib/chibios/os/hal/lib/streams/memstreams.c ****   if (msp->size - msp->eos <= 0)
  31              		.loc 1 69 0
  32 0000 D0E90223 		ldrd	r2, r3, [r0, #8]
  33 0004 9A42     		cmp	r2, r3
  70:lib/chibios/os/hal/lib/streams/memstreams.c ****     return MSG_RESET;
  71:lib/chibios/os/hal/lib/streams/memstreams.c ****   *(msp->buffer + msp->eos) = b;
  34              		.loc 1 71 0
  35 0006 1FBF     		itttt	ne
  36 0008 4268     		ldrne	r2, [r0, #4]
  37 000a D154     		strbne	r1, [r2, r3]
  72:lib/chibios/os/hal/lib/streams/memstreams.c ****   msp->eos += 1;
  38              		.loc 1 72 0
  39 000c C368     		ldrne	r3, [r0, #12]
  40 000e 0133     		addne	r3, r3, #1
  41 0010 1ABF     		itte	ne
  42 0012 C360     		strne	r3, [r0, #12]
  73:lib/chibios/os/hal/lib/streams/memstreams.c ****   return MSG_OK;
  43              		.loc 1 73 0
  44 0014 0020     		movne	r0, #0
  45              	.LVL1:
  70:lib/chibios/os/hal/lib/streams/memstreams.c ****     return MSG_RESET;
  46              		.loc 1 70 0
  47 0016 6FF00100 		mvneq	r0, #1
  74:lib/chibios/os/hal/lib/streams/memstreams.c **** }
  48              		.loc 1 74 0
  49 001a 7047     		bx	lr
  50              		.cfi_endproc
  51              	.LFE281:
  53              		.section	.text._get,"ax",%progbits
  54              		.align	1
  55              		.syntax unified
  56              		.thumb
  57              		.thumb_func
  58              		.fpu softvfp
  60              	_get:
  61              	.LFB282:
  75:lib/chibios/os/hal/lib/streams/memstreams.c **** 
  76:lib/chibios/os/hal/lib/streams/memstreams.c **** static msg_t _get(void *ip) {
  62              		.loc 1 76 0
  63              		.cfi_startproc
  64              		@ args = 0, pretend = 0, frame = 0
  65              		@ frame_needed = 0, uses_anonymous_args = 0
  66              		@ link register save eliminated.
  67              	.LVL2:
  77:lib/chibios/os/hal/lib/streams/memstreams.c ****   uint8_t b;
  78:lib/chibios/os/hal/lib/streams/memstreams.c ****   MemoryStream *msp = ip;
  79:lib/chibios/os/hal/lib/streams/memstreams.c **** 
  80:lib/chibios/os/hal/lib/streams/memstreams.c ****   if (msp->eos - msp->offset <= 0)
  68              		.loc 1 80 0
  69 0000 D0E90323 		ldrd	r2, r3, [r0, #12]
  70 0004 9A42     		cmp	r2, r3
  81:lib/chibios/os/hal/lib/streams/memstreams.c ****     return MSG_RESET;
  82:lib/chibios/os/hal/lib/streams/memstreams.c ****   b = *(msp->buffer + msp->offset);
  71              		.loc 1 82 0
  72 0006 1FBF     		itttt	ne
  73 0008 4268     		ldrne	r2, [r0, #4]
  74 000a D25C     		ldrbne	r2, [r2, r3]	@ zero_extendqisi2
  75              	.LVL3:
  83:lib/chibios/os/hal/lib/streams/memstreams.c ****   msp->offset += 1;
  76              		.loc 1 83 0
  77 000c 0133     		addne	r3, r3, #1
  78 000e 0361     		strne	r3, [r0, #16]
  84:lib/chibios/os/hal/lib/streams/memstreams.c ****   return b;
  79              		.loc 1 84 0
  80 0010 14BF     		ite	ne
  81 0012 1046     		movne	r0, r2
  82              	.LVL4:
  81:lib/chibios/os/hal/lib/streams/memstreams.c ****     return MSG_RESET;
  83              		.loc 1 81 0
  84 0014 6FF00100 		mvneq	r0, #1
  85:lib/chibios/os/hal/lib/streams/memstreams.c **** }
  85              		.loc 1 85 0
  86 0018 7047     		bx	lr
  87              		.cfi_endproc
  88              	.LFE282:
  90              		.section	.text._reads,"ax",%progbits
  91              		.align	1
  92              		.syntax unified
  93              		.thumb
  94              		.thumb_func
  95              		.fpu softvfp
  97              	_reads:
  98              	.LFB280:
  56:lib/chibios/os/hal/lib/streams/memstreams.c ****   MemoryStream *msp = ip;
  99              		.loc 1 56 0
 100              		.cfi_startproc
 101              		@ args = 0, pretend = 0, frame = 0
 102              		@ frame_needed = 0, uses_anonymous_args = 0
 103              	.LVL5:
 104 0000 38B5     		push	{r3, r4, r5, lr}
 105              		.cfi_def_cfa_offset 16
 106              		.cfi_offset 3, -16
 107              		.cfi_offset 4, -12
 108              		.cfi_offset 5, -8
 109              		.cfi_offset 14, -4
  56:lib/chibios/os/hal/lib/streams/memstreams.c ****   MemoryStream *msp = ip;
 110              		.loc 1 56 0
 111 0002 0546     		mov	r5, r0
 112              	.LVL6:
  59:lib/chibios/os/hal/lib/streams/memstreams.c ****     n = msp->eos - msp->offset;
 113              		.loc 1 59 0
 114 0004 D5E90343 		ldrd	r4, r3, [r5, #12]
 115 0008 E41A     		subs	r4, r4, r3
 116 000a 9442     		cmp	r4, r2
  56:lib/chibios/os/hal/lib/streams/memstreams.c ****   MemoryStream *msp = ip;
 117              		.loc 1 56 0
 118 000c 0846     		mov	r0, r1
 119              	.LVL7:
  61:lib/chibios/os/hal/lib/streams/memstreams.c ****   msp->offset += n;
 120              		.loc 1 61 0
 121 000e 6968     		ldr	r1, [r5, #4]
 122              	.LVL8:
 123 0010 28BF     		it	cs
 124 0012 1446     		movcs	r4, r2
 125              	.LVL9:
 126 0014 1944     		add	r1, r1, r3
 127 0016 2246     		mov	r2, r4
 128 0018 FFF7FEFF 		bl	memcpy
 129              	.LVL10:
  62:lib/chibios/os/hal/lib/streams/memstreams.c ****   return n;
 130              		.loc 1 62 0
 131 001c 2B69     		ldr	r3, [r5, #16]
 132 001e 2344     		add	r3, r3, r4
 133 0020 2B61     		str	r3, [r5, #16]
  64:lib/chibios/os/hal/lib/streams/memstreams.c **** 
 134              		.loc 1 64 0
 135 0022 2046     		mov	r0, r4
 136 0024 38BD     		pop	{r3, r4, r5, pc}
 137              		.cfi_endproc
 138              	.LFE280:
 140              		.section	.text._writes,"ax",%progbits
 141              		.align	1
 142              		.syntax unified
 143              		.thumb
 144              		.thumb_func
 145              		.fpu softvfp
 147              	_writes:
 148              	.LFB279:
  46:lib/chibios/os/hal/lib/streams/memstreams.c ****   MemoryStream *msp = ip;
 149              		.loc 1 46 0
 150              		.cfi_startproc
 151              		@ args = 0, pretend = 0, frame = 0
 152              		@ frame_needed = 0, uses_anonymous_args = 0
 153              	.LVL11:
 154 0000 38B5     		push	{r3, r4, r5, lr}
 155              		.cfi_def_cfa_offset 16
 156              		.cfi_offset 3, -16
 157              		.cfi_offset 4, -12
 158              		.cfi_offset 5, -8
 159              		.cfi_offset 14, -4
  49:lib/chibios/os/hal/lib/streams/memstreams.c ****     n = msp->size - msp->eos;
 160              		.loc 1 49 0
 161 0002 D0E90243 		ldrd	r4, r3, [r0, #8]
 162 0006 E41A     		subs	r4, r4, r3
  46:lib/chibios/os/hal/lib/streams/memstreams.c ****   MemoryStream *msp = ip;
 163              		.loc 1 46 0
 164 0008 0546     		mov	r5, r0
 165 000a 9442     		cmp	r4, r2
  51:lib/chibios/os/hal/lib/streams/memstreams.c ****   msp->eos += n;
 166              		.loc 1 51 0
 167 000c 4068     		ldr	r0, [r0, #4]
 168              	.LVL12:
 169 000e 28BF     		it	cs
 170 0010 1446     		movcs	r4, r2
 171              	.LVL13:
 172 0012 2246     		mov	r2, r4
 173 0014 1844     		add	r0, r0, r3
 174 0016 FFF7FEFF 		bl	memcpy
 175              	.LVL14:
  52:lib/chibios/os/hal/lib/streams/memstreams.c ****   return n;
 176              		.loc 1 52 0
 177 001a EB68     		ldr	r3, [r5, #12]
 178 001c 2344     		add	r3, r3, r4
 179 001e EB60     		str	r3, [r5, #12]
  54:lib/chibios/os/hal/lib/streams/memstreams.c **** 
 180              		.loc 1 54 0
 181 0020 2046     		mov	r0, r4
 182 0022 38BD     		pop	{r3, r4, r5, pc}
 183              		.cfi_endproc
 184              	.LFE279:
 186              		.section	.text.msObjectInit,"ax",%progbits
 187              		.align	1
 188              		.global	msObjectInit
 189              		.syntax unified
 190              		.thumb
 191              		.thumb_func
 192              		.fpu softvfp
 194              	msObjectInit:
 195              	.LFB283:
  86:lib/chibios/os/hal/lib/streams/memstreams.c **** 
  87:lib/chibios/os/hal/lib/streams/memstreams.c **** static const struct MemStreamVMT vmt = {_writes, _reads, _put, _get};
  88:lib/chibios/os/hal/lib/streams/memstreams.c **** 
  89:lib/chibios/os/hal/lib/streams/memstreams.c **** /*===========================================================================*/
  90:lib/chibios/os/hal/lib/streams/memstreams.c **** /* Driver exported functions.                                                */
  91:lib/chibios/os/hal/lib/streams/memstreams.c **** /*===========================================================================*/
  92:lib/chibios/os/hal/lib/streams/memstreams.c **** 
  93:lib/chibios/os/hal/lib/streams/memstreams.c **** /**
  94:lib/chibios/os/hal/lib/streams/memstreams.c ****  * @brief   Memory stream object initialization.
  95:lib/chibios/os/hal/lib/streams/memstreams.c ****  *
  96:lib/chibios/os/hal/lib/streams/memstreams.c ****  * @param[out] msp      pointer to the @p MemoryStream object to be initialized
  97:lib/chibios/os/hal/lib/streams/memstreams.c ****  * @param[in] buffer    pointer to the memory buffer for the memory stream
  98:lib/chibios/os/hal/lib/streams/memstreams.c ****  * @param[in] size      total size of the memory stream buffer
  99:lib/chibios/os/hal/lib/streams/memstreams.c ****  * @param[in] eos       initial End Of Stream offset. Normally you need to
 100:lib/chibios/os/hal/lib/streams/memstreams.c ****  *                      put this to zero for RAM buffers or equal to @p size
 101:lib/chibios/os/hal/lib/streams/memstreams.c ****  *                      for ROM streams.
 102:lib/chibios/os/hal/lib/streams/memstreams.c ****  */
 103:lib/chibios/os/hal/lib/streams/memstreams.c **** void msObjectInit(MemoryStream *msp, uint8_t *buffer,
 104:lib/chibios/os/hal/lib/streams/memstreams.c ****                   size_t size, size_t eos) {
 196              		.loc 1 104 0
 197              		.cfi_startproc
 198              		@ args = 0, pretend = 0, frame = 0
 199              		@ frame_needed = 0, uses_anonymous_args = 0
 200              	.LVL15:
 201 0000 10B5     		push	{r4, lr}
 202              		.cfi_def_cfa_offset 8
 203              		.cfi_offset 4, -8
 204              		.cfi_offset 14, -4
 105:lib/chibios/os/hal/lib/streams/memstreams.c **** 
 106:lib/chibios/os/hal/lib/streams/memstreams.c ****   msp->vmt    = &vmt;
 205              		.loc 1 106 0
 206 0002 044C     		ldr	r4, .L10
 107:lib/chibios/os/hal/lib/streams/memstreams.c ****   msp->buffer = buffer;
 108:lib/chibios/os/hal/lib/streams/memstreams.c ****   msp->size   = size;
 109:lib/chibios/os/hal/lib/streams/memstreams.c ****   msp->eos    = eos;
 207              		.loc 1 109 0
 208 0004 C0E90223 		strd	r2, r3, [r0, #8]
 110:lib/chibios/os/hal/lib/streams/memstreams.c ****   msp->offset = 0;
 209              		.loc 1 110 0
 210 0008 0023     		movs	r3, #0
 211              	.LVL16:
 107:lib/chibios/os/hal/lib/streams/memstreams.c ****   msp->buffer = buffer;
 212              		.loc 1 107 0
 213 000a C0E90041 		strd	r4, r1, [r0]
 214              		.loc 1 110 0
 215 000e 0361     		str	r3, [r0, #16]
 111:lib/chibios/os/hal/lib/streams/memstreams.c **** }
 216              		.loc 1 111 0
 217 0010 10BD     		pop	{r4, pc}
 218              	.L11:
 219 0012 00BF     		.align	2
 220              	.L10:
 221 0014 00000000 		.word	.LANCHOR0
 222              		.cfi_endproc
 223              	.LFE283:
 225              		.section	.rodata.vmt,"a",%progbits
 226              		.align	2
 227              		.set	.LANCHOR0,. + 0
 230              	vmt:
 231 0000 00000000 		.word	_writes
 232 0004 00000000 		.word	_reads
 233 0008 00000000 		.word	_put
 234 000c 00000000 		.word	_get
 235              		.text
 236              	.Letext0:
 237              		.file 2 "/usr/local/Cellar/gcc-arm-none-eabi/20180627/lib/gcc/arm-none-eabi/7.3.1/include/stddef.h
 238              		.file 3 "/usr/local/Cellar/gcc-arm-none-eabi/20180627/arm-none-eabi/include/machine/_default_types
 239              		.file 4 "/usr/local/Cellar/gcc-arm-none-eabi/20180627/arm-none-eabi/include/sys/lock.h"
 240              		.file 5 "/usr/local/Cellar/gcc-arm-none-eabi/20180627/arm-none-eabi/include/sys/_types.h"
 241              		.file 6 "/usr/local/Cellar/gcc-arm-none-eabi/20180627/arm-none-eabi/include/sys/reent.h"
 242              		.file 7 "/usr/local/Cellar/gcc-arm-none-eabi/20180627/arm-none-eabi/include/sys/_stdint.h"
 243              		.file 8 "./lib/chibios/os/common/ports/ARMCMx/compilers/GCC/chtypes.h"
 244              		.file 9 "./lib/chibios/os/rt/include/chsystypes.h"
 245              		.file 10 "./lib/chibios/os/rt/include/chschd.h"
 246              		.file 11 "./lib/chibios/os/common/ext/CMSIS/include/core_cm4.h"
 247              		.file 12 "./lib/chibios/os/common/ext/CMSIS/ST/STM32F3xx/system_stm32f3xx.h"
 248              		.file 13 "./lib/chibios/os/common/ext/CMSIS/ST/STM32F3xx/stm32f303xc.h"
 249              		.file 14 "./lib/chibios/os/common/ports/ARMCMx/chcore.h"
 250              		.file 15 "./lib/chibios/os/common/ports/ARMCMx/chcore_v7m.h"
 251              		.file 16 "./lib/chibios/os/hal/ports/STM32/LLD/TIMv1/stm32_tim.h"
 252              		.file 17 "./lib/chibios/os/rt/include/chtm.h"
 253              		.file 18 "./lib/chibios/os/rt/include/chsem.h"
 254              		.file 19 "./lib/chibios/os/rt/include/chmtx.h"
 255              		.file 20 "./lib/chibios/os/rt/include/chsys.h"
 256              		.file 21 "./lib/chibios/os/rt/include/chregistry.h"
 257              		.file 22 "./lib/chibios/os/common/oslib/include/chmemcore.h"
 258              		.file 23 "./lib/chibios/os/hal/ports/STM32/LLD/DMAv1/stm32_dma.h"
 259              		.file 24 "./lib/chibios/os/hal/ports/STM32/LLD/GPIOv2/hal_pal_lld.h"
 260              		.file 25 "./lib/chibios/os/hal/include/hal_dac.h"
 261              		.file 26 "./lib/chibios/os/hal/ports/STM32/LLD/DACv1/hal_dac_lld.h"
 262              		.file 27 "./lib/chibios/os/hal/include/hal_gpt.h"
 263              		.file 28 "./lib/chibios/os/hal/ports/STM32/LLD/TIMv1/hal_gpt_lld.h"
 264              		.file 29 "./lib/chibios/os/hal/include/hal_i2c.h"
 265              		.file 30 "./lib/chibios/os/hal/ports/STM32/LLD/I2Cv2/hal_i2c_lld.h"
 266              		.file 31 "./lib/chibios/os/hal/include/hal_pwm.h"
 267              		.file 32 "./lib/chibios/os/hal/ports/STM32/LLD/TIMv1/hal_pwm_lld.h"
 268              		.file 33 "./lib/chibios/os/hal/include/hal_usb.h"
 269              		.file 34 "./lib/chibios/os/hal/ports/STM32/LLD/USBv1/hal_usb_lld.h"
 270              		.file 35 "lib/chibios/os/hal/lib/streams/memstreams.h"
 271              		.file 36 "<built-in>"