   1              		.cpu cortex-m4
   2              		.eabi_attribute 20, 1
   3              		.eabi_attribute 21, 1
   4              		.eabi_attribute 23, 3
   5              		.eabi_attribute 24, 1
   6              		.eabi_attribute 25, 1
   7              		.eabi_attribute 26, 1
   8              		.eabi_attribute 30, 4
   9              		.eabi_attribute 34, 1
  10              		.eabi_attribute 18, 2
  11              		.file	"process_audio.c"
  12              		.text
  13              	.Ltext0:
  14              		.cfi_sections	.debug_frame
  15              		.global	__aeabi_i2d
  16              		.global	__aeabi_ddiv
  17              		.global	__aeabi_dmul
  18              		.global	__aeabi_d2f
  19              		.section	.text.compute_freq_for_midi_note,"ax",%progbits
  20              		.align	1
  21              		.global	compute_freq_for_midi_note
  22              		.syntax unified
  23              		.thumb
  24              		.thumb_func
  25              		.fpu softvfp
  27              	compute_freq_for_midi_note:
  28              	.LFB287:
  29              		.file 1 "quantum/process_keycode/process_audio.c"
   1:quantum/process_keycode/process_audio.c **** #include "audio.h"
   2:quantum/process_keycode/process_audio.c **** #include "process_audio.h"
   3:quantum/process_keycode/process_audio.c **** 
   4:quantum/process_keycode/process_audio.c **** #ifndef VOICE_CHANGE_SONG
   5:quantum/process_keycode/process_audio.c **** #    define VOICE_CHANGE_SONG SONG(VOICE_CHANGE_SOUND)
   6:quantum/process_keycode/process_audio.c **** #endif
   7:quantum/process_keycode/process_audio.c **** float voice_change_song[][2] = VOICE_CHANGE_SONG;
   8:quantum/process_keycode/process_audio.c **** 
   9:quantum/process_keycode/process_audio.c **** #ifndef PITCH_STANDARD_A
  10:quantum/process_keycode/process_audio.c **** #    define PITCH_STANDARD_A 440.0f
  11:quantum/process_keycode/process_audio.c **** #endif
  12:quantum/process_keycode/process_audio.c **** 
  13:quantum/process_keycode/process_audio.c **** float compute_freq_for_midi_note(uint8_t note) {
  30              		.loc 1 13 0
  31              		.cfi_startproc
  32              		@ args = 0, pretend = 0, frame = 0
  33              		@ frame_needed = 0, uses_anonymous_args = 0
  34              	.LVL0:
  35 0000 08B5     		push	{r3, lr}
  36              		.cfi_def_cfa_offset 8
  37              		.cfi_offset 3, -8
  38              		.cfi_offset 14, -4
  14:quantum/process_keycode/process_audio.c ****     // https://en.wikipedia.org/wiki/MIDI_tuning_standard
  15:quantum/process_keycode/process_audio.c ****     return pow(2.0, (note - 69) / 12.0) * PITCH_STANDARD_A;
  39              		.loc 1 15 0
  40 0002 4538     		subs	r0, r0, #69
  41              	.LVL1:
  42 0004 FFF7FEFF 		bl	__aeabi_i2d
  43              	.LVL2:
  44 0008 0022     		movs	r2, #0
  45 000a 084B     		ldr	r3, .L2
  46 000c FFF7FEFF 		bl	__aeabi_ddiv
  47              	.LVL3:
  48 0010 0246     		mov	r2, r0
  49 0012 0B46     		mov	r3, r1
  50 0014 0020     		movs	r0, #0
  51 0016 4FF08041 		mov	r1, #1073741824
  52 001a FFF7FEFF 		bl	pow
  53              	.LVL4:
  54 001e 0022     		movs	r2, #0
  55 0020 034B     		ldr	r3, .L2+4
  56 0022 FFF7FEFF 		bl	__aeabi_dmul
  57              	.LVL5:
  58 0026 FFF7FEFF 		bl	__aeabi_d2f
  59              	.LVL6:
  16:quantum/process_keycode/process_audio.c **** }
  60              		.loc 1 16 0
  61 002a 08BD     		pop	{r3, pc}
  62              	.L3:
  63              		.align	2
  64              	.L2:
  65 002c 00002840 		.word	1076363264
  66 0030 00807B40 		.word	1081835520
  67              		.cfi_endproc
  68              	.LFE287:
  70              		.section	.text.process_audio,"ax",%progbits
  71              		.align	1
  72              		.global	process_audio
  73              		.syntax unified
  74              		.thumb
  75              		.thumb_func
  76              		.fpu softvfp
  78              	process_audio:
  79              	.LFB288:
  17:quantum/process_keycode/process_audio.c **** 
  18:quantum/process_keycode/process_audio.c **** bool process_audio(uint16_t keycode, keyrecord_t *record) {
  80              		.loc 1 18 0
  81              		.cfi_startproc
  82              		@ args = 0, pretend = 0, frame = 0
  83              		@ frame_needed = 0, uses_anonymous_args = 0
  84              	.LVL7:
  85 0000 08B5     		push	{r3, lr}
  86              		.cfi_def_cfa_offset 8
  87              		.cfi_offset 3, -8
  88              		.cfi_offset 14, -4
  19:quantum/process_keycode/process_audio.c ****     if (keycode == AU_ON && record->event.pressed) {
  89              		.loc 1 19 0
  90 0002 45F61D43 		movw	r3, #23581
  91 0006 9842     		cmp	r0, r3
  92 0008 05D1     		bne	.L5
  93              		.loc 1 19 0 is_stmt 0 discriminator 1
  94 000a 8B78     		ldrb	r3, [r1, #2]	@ zero_extendqisi2
  95 000c 73B3     		cbz	r3, .L17
  96              	.LVL8:
  97              	.L10:
  20:quantum/process_keycode/process_audio.c ****         audio_on();
  98              		.loc 1 20 0 is_stmt 1
  99 000e FFF7FEFF 		bl	audio_on
 100              	.LVL9:
 101              	.L18:
  21:quantum/process_keycode/process_audio.c ****         return false;
  22:quantum/process_keycode/process_audio.c ****     }
  23:quantum/process_keycode/process_audio.c **** 
  24:quantum/process_keycode/process_audio.c ****     if (keycode == AU_OFF && record->event.pressed) {
  25:quantum/process_keycode/process_audio.c ****         audio_off();
  26:quantum/process_keycode/process_audio.c ****         return false;
  27:quantum/process_keycode/process_audio.c ****     }
  28:quantum/process_keycode/process_audio.c **** 
  29:quantum/process_keycode/process_audio.c ****     if (keycode == AU_TOG && record->event.pressed) {
  30:quantum/process_keycode/process_audio.c ****         if (is_audio_on()) {
  31:quantum/process_keycode/process_audio.c ****             audio_off();
  32:quantum/process_keycode/process_audio.c ****         } else {
  33:quantum/process_keycode/process_audio.c ****             audio_on();
  34:quantum/process_keycode/process_audio.c ****         }
  35:quantum/process_keycode/process_audio.c ****         return false;
  36:quantum/process_keycode/process_audio.c ****     }
  37:quantum/process_keycode/process_audio.c **** 
  38:quantum/process_keycode/process_audio.c ****     if (keycode == MUV_IN && record->event.pressed) {
  39:quantum/process_keycode/process_audio.c ****         voice_iterate();
  40:quantum/process_keycode/process_audio.c ****         PLAY_SONG(voice_change_song);
  41:quantum/process_keycode/process_audio.c ****         return false;
  42:quantum/process_keycode/process_audio.c ****     }
  43:quantum/process_keycode/process_audio.c **** 
  44:quantum/process_keycode/process_audio.c ****     if (keycode == MUV_DE && record->event.pressed) {
  45:quantum/process_keycode/process_audio.c ****         voice_deiterate();
  46:quantum/process_keycode/process_audio.c ****         PLAY_SONG(voice_change_song);
  47:quantum/process_keycode/process_audio.c ****         return false;
 102              		.loc 1 47 0
 103 0012 0020     		movs	r0, #0
 104              	.L6:
  48:quantum/process_keycode/process_audio.c ****     }
  49:quantum/process_keycode/process_audio.c **** 
  50:quantum/process_keycode/process_audio.c ****     return true;
  51:quantum/process_keycode/process_audio.c **** }
 105              		.loc 1 51 0
 106 0014 08BD     		pop	{r3, pc}
 107              	.LVL10:
 108              	.L5:
  24:quantum/process_keycode/process_audio.c ****         audio_off();
 109              		.loc 1 24 0
 110 0016 45F61E43 		movw	r3, #23582
 111 001a 9842     		cmp	r0, r3
 112 001c 04D1     		bne	.L7
  24:quantum/process_keycode/process_audio.c ****         audio_off();
 113              		.loc 1 24 0 is_stmt 0 discriminator 1
 114 001e 8B78     		ldrb	r3, [r1, #2]	@ zero_extendqisi2
 115 0020 23B3     		cbz	r3, .L17
 116              	.LVL11:
 117              	.L9:
  25:quantum/process_keycode/process_audio.c ****         return false;
 118              		.loc 1 25 0 is_stmt 1
 119 0022 FFF7FEFF 		bl	audio_off
 120              	.LVL12:
 121 0026 F4E7     		b	.L18
 122              	.LVL13:
 123              	.L7:
  29:quantum/process_keycode/process_audio.c ****         if (is_audio_on()) {
 124              		.loc 1 29 0
 125 0028 45F61F43 		movw	r3, #23583
 126 002c 9842     		cmp	r0, r3
 127 002e 06D1     		bne	.L8
  29:quantum/process_keycode/process_audio.c ****         if (is_audio_on()) {
 128              		.loc 1 29 0 is_stmt 0 discriminator 1
 129 0030 8B78     		ldrb	r3, [r1, #2]	@ zero_extendqisi2
 130 0032 DBB1     		cbz	r3, .L17
  30:quantum/process_keycode/process_audio.c ****             audio_off();
 131              		.loc 1 30 0 is_stmt 1
 132 0034 FFF7FEFF 		bl	is_audio_on
 133              	.LVL14:
 134 0038 0028     		cmp	r0, #0
 135 003a F2D1     		bne	.L9
 136 003c E7E7     		b	.L10
 137              	.LVL15:
 138              	.L8:
  38:quantum/process_keycode/process_audio.c ****         voice_iterate();
 139              		.loc 1 38 0
 140 003e 45F62A43 		movw	r3, #23594
 141 0042 9842     		cmp	r0, r3
 142 0044 09D1     		bne	.L11
  38:quantum/process_keycode/process_audio.c ****         voice_iterate();
 143              		.loc 1 38 0 is_stmt 0 discriminator 1
 144 0046 8B78     		ldrb	r3, [r1, #2]	@ zero_extendqisi2
 145 0048 83B1     		cbz	r3, .L17
  39:quantum/process_keycode/process_audio.c ****         PLAY_SONG(voice_change_song);
 146              		.loc 1 39 0 is_stmt 1
 147 004a FFF7FEFF 		bl	voice_iterate
 148              	.LVL16:
 149              	.L19:
  46:quantum/process_keycode/process_audio.c ****         return false;
 150              		.loc 1 46 0
 151 004e 0022     		movs	r2, #0
 152 0050 0421     		movs	r1, #4
 153 0052 0748     		ldr	r0, .L20
 154 0054 FFF7FEFF 		bl	play_notes
 155              	.LVL17:
 156 0058 DBE7     		b	.L18
 157              	.LVL18:
 158              	.L11:
  44:quantum/process_keycode/process_audio.c ****         voice_deiterate();
 159              		.loc 1 44 0
 160 005a 45F62B43 		movw	r3, #23595
 161 005e 9842     		cmp	r0, r3
 162 0060 04D1     		bne	.L17
  44:quantum/process_keycode/process_audio.c ****         voice_deiterate();
 163              		.loc 1 44 0 is_stmt 0 discriminator 1
 164 0062 8B78     		ldrb	r3, [r1, #2]	@ zero_extendqisi2
 165 0064 13B1     		cbz	r3, .L17
  45:quantum/process_keycode/process_audio.c ****         PLAY_SONG(voice_change_song);
 166              		.loc 1 45 0 is_stmt 1
 167 0066 FFF7FEFF 		bl	voice_deiterate
 168              	.LVL19:
 169 006a F0E7     		b	.L19
 170              	.LVL20:
 171              	.L17:
  50:quantum/process_keycode/process_audio.c **** }
 172              		.loc 1 50 0
 173 006c 0120     		movs	r0, #1
 174              	.LVL21:
 175 006e D1E7     		b	.L6
 176              	.L21:
 177              		.align	2
 178              	.L20:
 179 0070 00000000 		.word	.LANCHOR0
 180              		.cfi_endproc
 181              	.LFE288:
 183              		.section	.text.process_audio_noteon,"ax",%progbits
 184              		.align	1
 185              		.global	process_audio_noteon
 186              		.syntax unified
 187              		.thumb
 188              		.thumb_func
 189              		.fpu softvfp
 191              	process_audio_noteon:
 192              	.LFB289:
  52:quantum/process_keycode/process_audio.c **** 
  53:quantum/process_keycode/process_audio.c **** void process_audio_noteon(uint8_t note) { play_note(compute_freq_for_midi_note(note), 0xF); }
 193              		.loc 1 53 0
 194              		.cfi_startproc
 195              		@ args = 0, pretend = 0, frame = 0
 196              		@ frame_needed = 0, uses_anonymous_args = 0
 197              	.LVL22:
 198 0000 08B5     		push	{r3, lr}
 199              		.cfi_def_cfa_offset 8
 200              		.cfi_offset 3, -8
 201              		.cfi_offset 14, -4
 202              		.loc 1 53 0
 203 0002 FFF7FEFF 		bl	compute_freq_for_midi_note
 204              	.LVL23:
 205 0006 0F21     		movs	r1, #15
 206 0008 BDE80840 		pop	{r3, lr}
 207              		.cfi_restore 14
 208              		.cfi_restore 3
 209              		.cfi_def_cfa_offset 0
 210 000c FFF7FEBF 		b	play_note
 211              	.LVL24:
 212              		.cfi_endproc
 213              	.LFE289:
 215              		.section	.text.process_audio_noteoff,"ax",%progbits
 216              		.align	1
 217              		.global	process_audio_noteoff
 218              		.syntax unified
 219              		.thumb
 220              		.thumb_func
 221              		.fpu softvfp
 223              	process_audio_noteoff:
 224              	.LFB290:
  54:quantum/process_keycode/process_audio.c **** 
  55:quantum/process_keycode/process_audio.c **** void process_audio_noteoff(uint8_t note) { stop_note(compute_freq_for_midi_note(note)); }
 225              		.loc 1 55 0
 226              		.cfi_startproc
 227              		@ args = 0, pretend = 0, frame = 0
 228              		@ frame_needed = 0, uses_anonymous_args = 0
 229              	.LVL25:
 230 0000 08B5     		push	{r3, lr}
 231              		.cfi_def_cfa_offset 8
 232              		.cfi_offset 3, -8
 233              		.cfi_offset 14, -4
 234              		.loc 1 55 0
 235 0002 FFF7FEFF 		bl	compute_freq_for_midi_note
 236              	.LVL26:
 237 0006 BDE80840 		pop	{r3, lr}
 238              		.cfi_restore 14
 239              		.cfi_restore 3
 240              		.cfi_def_cfa_offset 0
 241 000a FFF7FEBF 		b	stop_note
 242              	.LVL27:
 243              		.cfi_endproc
 244              	.LFE290:
 246              		.section	.text.process_audio_all_notes_off,"ax",%progbits
 247              		.align	1
 248              		.global	process_audio_all_notes_off
 249              		.syntax unified
 250              		.thumb
 251              		.thumb_func
 252              		.fpu softvfp
 254              	process_audio_all_notes_off:
 255              	.LFB291:
  56:quantum/process_keycode/process_audio.c **** 
  57:quantum/process_keycode/process_audio.c **** void process_audio_all_notes_off(void) { stop_all_notes(); }
 256              		.loc 1 57 0
 257              		.cfi_startproc
 258              		@ args = 0, pretend = 0, frame = 0
 259              		@ frame_needed = 0, uses_anonymous_args = 0
 260              		@ link register save eliminated.
 261              		.loc 1 57 0
 262 0000 FFF7FEBF 		b	stop_all_notes
 263              	.LVL28:
 264              		.cfi_endproc
 265              	.LFE291:
 267              		.section	.text.audio_on_user,"ax",%progbits
 268              		.align	1
 269              		.weak	audio_on_user
 270              		.syntax unified
 271              		.thumb
 272              		.thumb_func
 273              		.fpu softvfp
 275              	audio_on_user:
 276              	.LFB292:
  58:quantum/process_keycode/process_audio.c **** 
  59:quantum/process_keycode/process_audio.c **** __attribute__((weak)) void audio_on_user() {}
 277              		.loc 1 59 0
 278              		.cfi_startproc
 279              		@ args = 0, pretend = 0, frame = 0
 280              		@ frame_needed = 0, uses_anonymous_args = 0
 281              		@ link register save eliminated.
 282              		.loc 1 59 0
 283 0000 7047     		bx	lr
 284              		.cfi_endproc
 285              	.LFE292:
 287              		.global	voice_change_song
 288              		.section	.data.voice_change_song,"aw",%progbits
 289              		.align	2
 290              		.set	.LANCHOR0,. + 0
 293              	voice_change_song:
 294 0000 00005C44 		.word	1146880000
 295 0004 00008041 		.word	1098907648
 296 0008 5C978A44 		.word	1149933404
 297 000c 00008041 		.word	1098907648
 298 0010 52D0A444 		.word	1151651922
 299 0014 00008041 		.word	1098907648
 300 0018 0000DC44 		.word	1155268608
 301 001c 00008041 		.word	1098907648
 302              		.text
 303              	.Letext0:
 304              		.file 2 "/usr/local/Cellar/gcc-arm-none-eabi/20180627/arm-none-eabi/include/machine/_default_types
 305              		.file 3 "/usr/local/Cellar/gcc-arm-none-eabi/20180627/arm-none-eabi/include/sys/_stdint.h"
 306              		.file 4 "/usr/local/Cellar/gcc-arm-none-eabi/20180627/lib/gcc/arm-none-eabi/7.3.1/include/stddef.h
 307              		.file 5 "./lib/chibios/os/common/ports/ARMCMx/compilers/GCC/chtypes.h"
 308              		.file 6 "./lib/chibios/os/rt/include/chsystypes.h"
 309              		.file 7 "./lib/chibios/os/rt/include/chschd.h"
 310              		.file 8 "./lib/chibios/os/common/ext/CMSIS/include/core_cm4.h"
 311              		.file 9 "./lib/chibios/os/common/ext/CMSIS/ST/STM32F3xx/system_stm32f3xx.h"
 312              		.file 10 "./lib/chibios/os/common/ext/CMSIS/ST/STM32F3xx/stm32f303xc.h"
 313              		.file 11 "./lib/chibios/os/common/ports/ARMCMx/chcore.h"
 314              		.file 12 "./lib/chibios/os/common/ports/ARMCMx/chcore_v7m.h"
 315              		.file 13 "./lib/chibios/os/hal/ports/STM32/LLD/TIMv1/stm32_tim.h"
 316              		.file 14 "./lib/chibios/os/rt/include/chtm.h"
 317              		.file 15 "./lib/chibios/os/rt/include/chsem.h"
 318              		.file 16 "./lib/chibios/os/rt/include/chmtx.h"
 319              		.file 17 "./lib/chibios/os/rt/include/chsys.h"
 320              		.file 18 "./lib/chibios/os/rt/include/chregistry.h"
 321              		.file 19 "./lib/chibios/os/common/oslib/include/chmemcore.h"
 322              		.file 20 "./lib/chibios/os/hal/ports/STM32/LLD/DMAv1/stm32_dma.h"
 323              		.file 21 "./lib/chibios/os/hal/ports/STM32/LLD/GPIOv2/hal_pal_lld.h"
 324              		.file 22 "./lib/chibios/os/hal/include/hal_dac.h"
 325              		.file 23 "./lib/chibios/os/hal/ports/STM32/LLD/DACv1/hal_dac_lld.h"
 326              		.file 24 "./lib/chibios/os/hal/include/hal_gpt.h"
 327              		.file 25 "./lib/chibios/os/hal/ports/STM32/LLD/TIMv1/hal_gpt_lld.h"
 328              		.file 26 "./lib/chibios/os/hal/include/hal_i2c.h"
 329              		.file 27 "./lib/chibios/os/hal/ports/STM32/LLD/I2Cv2/hal_i2c_lld.h"
 330              		.file 28 "./lib/chibios/os/hal/include/hal_pwm.h"
 331              		.file 29 "./lib/chibios/os/hal/ports/STM32/LLD/TIMv1/hal_pwm_lld.h"
 332              		.file 30 "./lib/chibios/os/hal/include/hal_usb.h"
 333              		.file 31 "./lib/chibios/os/hal/ports/STM32/LLD/USBv1/hal_usb_lld.h"
 334              		.file 32 "quantum/audio/luts.h"
 335              		.file 33 "tmk_core/common/keyboard.h"
 336              		.file 34 "tmk_core/common/action.h"
 337              		.file 35 "tmk_core/common/report.h"
 338              		.file 36 "tmk_core/common/host.h"
 339              		.file 37 "tmk_core/common/debug.h"
 340              		.file 38 "quantum/keycode_config.h"
 341              		.file 39 "quantum/keymap.h"
 342              		.file 40 "tmk_core/common/action_layer.h"
 343              		.file 41 "tmk_core/common/timer.h"
 344              		.file 42 "tmk_core/common/action_util.h"
 345              		.file 43 "/usr/local/Cellar/gcc-arm-none-eabi/20180627/arm-none-eabi/include/sys/lock.h"
 346              		.file 44 "/usr/local/Cellar/gcc-arm-none-eabi/20180627/arm-none-eabi/include/sys/_types.h"
 347              		.file 45 "/usr/local/Cellar/gcc-arm-none-eabi/20180627/arm-none-eabi/include/sys/reent.h"
 348              		.file 46 "/usr/local/Cellar/gcc-arm-none-eabi/20180627/arm-none-eabi/include/stdlib.h"
 349              		.file 47 "quantum/process_keycode/process_music.h"
 350              		.file 48 "quantum/quantum.h"
 351              		.file 49 "quantum/quantum_keycodes.h"
 352              		.file 50 "/usr/local/Cellar/gcc-arm-none-eabi/20180627/arm-none-eabi/include/math.h"
 353              		.file 51 "quantum/audio/audio.h"
 354              		.file 52 "quantum/audio/voices.h"