Archive member included to satisfy reference by file (symbol)

/usr/local/Cellar/gcc-arm-none-eabi/20180627/bin/../lib/gcc/arm-none-eabi/7.3.1/thumb/v7e-m/fpv4-sp/hard/libgcc.a(_arm_addsubdf3.o)
                              .build/obj_massdrop_alt_default_md/protocol/arm_atsam/main_arm_atsam.o (__aeabi_dadd)
/usr/local/Cellar/gcc-arm-none-eabi/20180627/bin/../lib/gcc/arm-none-eabi/7.3.1/thumb/v7e-m/fpv4-sp/hard/libgcc.a(_arm_muldivdf3.o)
                              .build/obj_massdrop_alt_default_md/protocol/arm_atsam/led_matrix.o (__aeabi_dmul)
/usr/local/Cellar/gcc-arm-none-eabi/20180627/bin/../lib/gcc/arm-none-eabi/7.3.1/thumb/v7e-m/fpv4-sp/hard/libgcc.a(_arm_fixunsdfsi.o)
                              .build/obj_massdrop_alt_default_md/protocol/arm_atsam/main_arm_atsam.o (__aeabi_d2uiz)
/usr/local/Cellar/gcc-arm-none-eabi/20180627/bin/../lib/gcc/arm-none-eabi/7.3.1/thumb/v7e-m/fpv4-sp/hard/libgcc.a(_arm_truncdfsf2.o)
                              .build/obj_massdrop_alt_default_md/protocol/arm_atsam/led_matrix.o (__aeabi_d2f)
/usr/local/Cellar/gcc-arm-none-eabi/20180627/bin/../lib/gcc/arm-none-eabi/7.3.1/thumb/v7e-m/fpv4-sp/hard/libgcc.a(_aeabi_ldivmod.o)
                              .build/obj_massdrop_alt_default_md/protocol/arm_atsam/usb/usb_util.o (__aeabi_ldivmod)
/usr/local/Cellar/gcc-arm-none-eabi/20180627/bin/../lib/gcc/arm-none-eabi/7.3.1/thumb/v7e-m/fpv4-sp/hard/libgcc.a(_aeabi_uldivmod.o)
                              .build/obj_massdrop_alt_default_md/protocol/arm_atsam/usb/usb2422.o (__aeabi_uldivmod)
/usr/local/Cellar/gcc-arm-none-eabi/20180627/bin/../lib/gcc/arm-none-eabi/7.3.1/thumb/v7e-m/fpv4-sp/hard/libgcc.a(_udivmoddi4.o)
                              /usr/local/Cellar/gcc-arm-none-eabi/20180627/bin/../lib/gcc/arm-none-eabi/7.3.1/thumb/v7e-m/fpv4-sp/hard/libgcc.a(_aeabi_ldivmod.o) (__udivmoddi4)
/usr/local/Cellar/gcc-arm-none-eabi/20180627/bin/../lib/gcc/arm-none-eabi/7.3.1/thumb/v7e-m/fpv4-sp/hard/libgcc.a(_dvmd_tls.o)
                              /usr/local/Cellar/gcc-arm-none-eabi/20180627/bin/../lib/gcc/arm-none-eabi/7.3.1/thumb/v7e-m/fpv4-sp/hard/libgcc.a(_aeabi_ldivmod.o) (__aeabi_ldiv0)
/usr/local/Cellar/gcc-arm-none-eabi/20180627/bin/../lib/gcc/arm-none-eabi/7.3.1/../../../../arm-none-eabi/lib/thumb/v7e-m/fpv4-sp/hard/libg.a(lib_a-exit.o)
                              /usr/local/Cellar/gcc-arm-none-eabi/20180627/bin/../lib/gcc/arm-none-eabi/7.3.1/../../../../arm-none-eabi/lib/thumb/v7e-m/fpv4-sp/hard/rdimon-crt0.o (exit)
/usr/local/Cellar/gcc-arm-none-eabi/20180627/bin/../lib/gcc/arm-none-eabi/7.3.1/../../../../arm-none-eabi/lib/thumb/v7e-m/fpv4-sp/hard/libg.a(lib_a-impure.o)
                              /usr/local/Cellar/gcc-arm-none-eabi/20180627/bin/../lib/gcc/arm-none-eabi/7.3.1/../../../../arm-none-eabi/lib/thumb/v7e-m/fpv4-sp/hard/libg.a(lib_a-exit.o) (_global_impure_ptr)
/usr/local/Cellar/gcc-arm-none-eabi/20180627/bin/../lib/gcc/arm-none-eabi/7.3.1/../../../../arm-none-eabi/lib/thumb/v7e-m/fpv4-sp/hard/libg.a(lib_a-init.o)
                              /usr/local/Cellar/gcc-arm-none-eabi/20180627/bin/../lib/gcc/arm-none-eabi/7.3.1/../../../../arm-none-eabi/lib/thumb/v7e-m/fpv4-sp/hard/rdimon-crt0.o (__libc_init_array)
/usr/local/Cellar/gcc-arm-none-eabi/20180627/bin/../lib/gcc/arm-none-eabi/7.3.1/../../../../arm-none-eabi/lib/thumb/v7e-m/fpv4-sp/hard/libg.a(lib_a-memcpy.o)
                              .build/obj_massdrop_alt_default_md/quantum/rgb_matrix.o (memcpy)
/usr/local/Cellar/gcc-arm-none-eabi/20180627/bin/../lib/gcc/arm-none-eabi/7.3.1/../../../../arm-none-eabi/lib/thumb/v7e-m/fpv4-sp/hard/libg.a(lib_a-memset.o)
                              /usr/local/Cellar/gcc-arm-none-eabi/20180627/bin/../lib/gcc/arm-none-eabi/7.3.1/../../../../arm-none-eabi/lib/thumb/v7e-m/fpv4-sp/hard/rdimon-crt0.o (memset)
/usr/local/Cellar/gcc-arm-none-eabi/20180627/bin/../lib/gcc/arm-none-eabi/7.3.1/../../../../arm-none-eabi/lib/thumb/v7e-m/fpv4-sp/hard/libg.a(lib_a-rand.o)
                              .build/obj_massdrop_alt_default_md/quantum/quantum.o (rand)
/usr/local/Cellar/gcc-arm-none-eabi/20180627/bin/../lib/gcc/arm-none-eabi/7.3.1/../../../../arm-none-eabi/lib/thumb/v7e-m/fpv4-sp/hard/libg.a(lib_a-__call_atexit.o)
                              /usr/local/Cellar/gcc-arm-none-eabi/20180627/bin/../lib/gcc/arm-none-eabi/7.3.1/../../../../arm-none-eabi/lib/thumb/v7e-m/fpv4-sp/hard/libg.a(lib_a-exit.o) (__call_exitprocs)
/usr/local/Cellar/gcc-arm-none-eabi/20180627/bin/../lib/gcc/arm-none-eabi/7.3.1/../../../../arm-none-eabi/lib/thumb/v7e-m/fpv4-sp/hard/libg.a(lib_a-atexit.o)
                              /usr/local/Cellar/gcc-arm-none-eabi/20180627/bin/../lib/gcc/arm-none-eabi/7.3.1/../../../../arm-none-eabi/lib/thumb/v7e-m/fpv4-sp/hard/libg.a(lib_a-__call_atexit.o) (atexit)
/usr/local/Cellar/gcc-arm-none-eabi/20180627/bin/../lib/gcc/arm-none-eabi/7.3.1/../../../../arm-none-eabi/lib/thumb/v7e-m/fpv4-sp/hard/libg.a(lib_a-fini.o)
                              /usr/local/Cellar/gcc-arm-none-eabi/20180627/bin/../lib/gcc/arm-none-eabi/7.3.1/../../../../arm-none-eabi/lib/thumb/v7e-m/fpv4-sp/hard/libg.a(lib_a-__call_atexit.o) (__libc_fini_array)
/usr/local/Cellar/gcc-arm-none-eabi/20180627/bin/../lib/gcc/arm-none-eabi/7.3.1/../../../../arm-none-eabi/lib/thumb/v7e-m/fpv4-sp/hard/libg.a(lib_a-lock.o)
                              /usr/local/Cellar/gcc-arm-none-eabi/20180627/bin/../lib/gcc/arm-none-eabi/7.3.1/../../../../arm-none-eabi/lib/thumb/v7e-m/fpv4-sp/hard/libg.a(lib_a-__call_atexit.o) (__retarget_lock_acquire_recursive)
/usr/local/Cellar/gcc-arm-none-eabi/20180627/bin/../lib/gcc/arm-none-eabi/7.3.1/../../../../arm-none-eabi/lib/thumb/v7e-m/fpv4-sp/hard/libg.a(lib_a-__atexit.o)
                              /usr/local/Cellar/gcc-arm-none-eabi/20180627/bin/../lib/gcc/arm-none-eabi/7.3.1/../../../../arm-none-eabi/lib/thumb/v7e-m/fpv4-sp/hard/libg.a(lib_a-atexit.o) (__register_exitproc)
/usr/local/Cellar/gcc-arm-none-eabi/20180627/bin/../lib/gcc/arm-none-eabi/7.3.1/../../../../arm-none-eabi/lib/thumb/v7e-m/fpv4-sp/hard/librdimon.a(rdimon-syscalls.o)
                              /usr/local/Cellar/gcc-arm-none-eabi/20180627/bin/../lib/gcc/arm-none-eabi/7.3.1/../../../../arm-none-eabi/lib/thumb/v7e-m/fpv4-sp/hard/rdimon-crt0.o (initialise_monitor_handles)
/usr/local/Cellar/gcc-arm-none-eabi/20180627/bin/../lib/gcc/arm-none-eabi/7.3.1/../../../../arm-none-eabi/lib/thumb/v7e-m/fpv4-sp/hard/librdimon.a(rdimon-_exit.o)
                              /usr/local/Cellar/gcc-arm-none-eabi/20180627/bin/../lib/gcc/arm-none-eabi/7.3.1/../../../../arm-none-eabi/lib/thumb/v7e-m/fpv4-sp/hard/libg.a(lib_a-exit.o) (_exit)
/usr/local/Cellar/gcc-arm-none-eabi/20180627/bin/../lib/gcc/arm-none-eabi/7.3.1/../../../../arm-none-eabi/lib/thumb/v7e-m/fpv4-sp/hard/librdimon.a(rdimon-_kill.o)
                              /usr/local/Cellar/gcc-arm-none-eabi/20180627/bin/../lib/gcc/arm-none-eabi/7.3.1/../../../../arm-none-eabi/lib/thumb/v7e-m/fpv4-sp/hard/librdimon.a(rdimon-_exit.o) (_kill)
/usr/local/Cellar/gcc-arm-none-eabi/20180627/bin/../lib/gcc/arm-none-eabi/7.3.1/../../../../arm-none-eabi/lib/thumb/v7e-m/fpv4-sp/hard/libc.a(lib_a-errno.o)
                              /usr/local/Cellar/gcc-arm-none-eabi/20180627/bin/../lib/gcc/arm-none-eabi/7.3.1/../../../../arm-none-eabi/lib/thumb/v7e-m/fpv4-sp/hard/librdimon.a(rdimon-syscalls.o) (__errno)
/usr/local/Cellar/gcc-arm-none-eabi/20180627/bin/../lib/gcc/arm-none-eabi/7.3.1/../../../../arm-none-eabi/lib/thumb/v7e-m/fpv4-sp/hard/libc.a(lib_a-findfp.o)
                              /usr/local/Cellar/gcc-arm-none-eabi/20180627/bin/../lib/gcc/arm-none-eabi/7.3.1/../../../../arm-none-eabi/lib/thumb/v7e-m/fpv4-sp/hard/librdimon.a(rdimon-syscalls.o) (__sinit)
/usr/local/Cellar/gcc-arm-none-eabi/20180627/bin/../lib/gcc/arm-none-eabi/7.3.1/../../../../arm-none-eabi/lib/thumb/v7e-m/fpv4-sp/hard/libc.a(lib_a-fwalk.o)
                              /usr/local/Cellar/gcc-arm-none-eabi/20180627/bin/../lib/gcc/arm-none-eabi/7.3.1/../../../../arm-none-eabi/lib/thumb/v7e-m/fpv4-sp/hard/libc.a(lib_a-findfp.o) (_fwalk)
/usr/local/Cellar/gcc-arm-none-eabi/20180627/bin/../lib/gcc/arm-none-eabi/7.3.1/../../../../arm-none-eabi/lib/thumb/v7e-m/fpv4-sp/hard/libc.a(lib_a-mallocr.o)
                              /usr/local/Cellar/gcc-arm-none-eabi/20180627/bin/../lib/gcc/arm-none-eabi/7.3.1/../../../../arm-none-eabi/lib/thumb/v7e-m/fpv4-sp/hard/libc.a(lib_a-findfp.o) (_malloc_r)
/usr/local/Cellar/gcc-arm-none-eabi/20180627/bin/../lib/gcc/arm-none-eabi/7.3.1/../../../../arm-none-eabi/lib/thumb/v7e-m/fpv4-sp/hard/libc.a(lib_a-mlock.o)
                              /usr/local/Cellar/gcc-arm-none-eabi/20180627/bin/../lib/gcc/arm-none-eabi/7.3.1/../../../../arm-none-eabi/lib/thumb/v7e-m/fpv4-sp/hard/libc.a(lib_a-mallocr.o) (__malloc_lock)
/usr/local/Cellar/gcc-arm-none-eabi/20180627/bin/../lib/gcc/arm-none-eabi/7.3.1/../../../../arm-none-eabi/lib/thumb/v7e-m/fpv4-sp/hard/libc.a(lib_a-sbrkr.o)
                              /usr/local/Cellar/gcc-arm-none-eabi/20180627/bin/../lib/gcc/arm-none-eabi/7.3.1/../../../../arm-none-eabi/lib/thumb/v7e-m/fpv4-sp/hard/libc.a(lib_a-mallocr.o) (_sbrk_r)
/usr/local/Cellar/gcc-arm-none-eabi/20180627/bin/../lib/gcc/arm-none-eabi/7.3.1/../../../../arm-none-eabi/lib/thumb/v7e-m/fpv4-sp/hard/libc.a(lib_a-stdio.o)
                              /usr/local/Cellar/gcc-arm-none-eabi/20180627/bin/../lib/gcc/arm-none-eabi/7.3.1/../../../../arm-none-eabi/lib/thumb/v7e-m/fpv4-sp/hard/libc.a(lib_a-findfp.o) (__sread)
/usr/local/Cellar/gcc-arm-none-eabi/20180627/bin/../lib/gcc/arm-none-eabi/7.3.1/../../../../arm-none-eabi/lib/thumb/v7e-m/fpv4-sp/hard/libc.a(lib_a-strlen.o)
                              /usr/local/Cellar/gcc-arm-none-eabi/20180627/bin/../lib/gcc/arm-none-eabi/7.3.1/../../../../arm-none-eabi/lib/thumb/v7e-m/fpv4-sp/hard/librdimon.a(rdimon-syscalls.o) (strlen)
/usr/local/Cellar/gcc-arm-none-eabi/20180627/bin/../lib/gcc/arm-none-eabi/7.3.1/../../../../arm-none-eabi/lib/thumb/v7e-m/fpv4-sp/hard/libc.a(lib_a-writer.o)
                              /usr/local/Cellar/gcc-arm-none-eabi/20180627/bin/../lib/gcc/arm-none-eabi/7.3.1/../../../../arm-none-eabi/lib/thumb/v7e-m/fpv4-sp/hard/libc.a(lib_a-stdio.o) (_write_r)
/usr/local/Cellar/gcc-arm-none-eabi/20180627/bin/../lib/gcc/arm-none-eabi/7.3.1/../../../../arm-none-eabi/lib/thumb/v7e-m/fpv4-sp/hard/libc.a(lib_a-closer.o)
                              /usr/local/Cellar/gcc-arm-none-eabi/20180627/bin/../lib/gcc/arm-none-eabi/7.3.1/../../../../arm-none-eabi/lib/thumb/v7e-m/fpv4-sp/hard/libc.a(lib_a-stdio.o) (_close_r)
/usr/local/Cellar/gcc-arm-none-eabi/20180627/bin/../lib/gcc/arm-none-eabi/7.3.1/../../../../arm-none-eabi/lib/thumb/v7e-m/fpv4-sp/hard/libc.a(lib_a-fclose.o)
                              /usr/local/Cellar/gcc-arm-none-eabi/20180627/bin/../lib/gcc/arm-none-eabi/7.3.1/../../../../arm-none-eabi/lib/thumb/v7e-m/fpv4-sp/hard/libc.a(lib_a-findfp.o) (_fclose_r)
/usr/local/Cellar/gcc-arm-none-eabi/20180627/bin/../lib/gcc/arm-none-eabi/7.3.1/../../../../arm-none-eabi/lib/thumb/v7e-m/fpv4-sp/hard/libc.a(lib_a-fflush.o)
                              /usr/local/Cellar/gcc-arm-none-eabi/20180627/bin/../lib/gcc/arm-none-eabi/7.3.1/../../../../arm-none-eabi/lib/thumb/v7e-m/fpv4-sp/hard/libc.a(lib_a-fclose.o) (__sflush_r)
/usr/local/Cellar/gcc-arm-none-eabi/20180627/bin/../lib/gcc/arm-none-eabi/7.3.1/../../../../arm-none-eabi/lib/thumb/v7e-m/fpv4-sp/hard/libc.a(lib_a-freer.o)
                              /usr/local/Cellar/gcc-arm-none-eabi/20180627/bin/../lib/gcc/arm-none-eabi/7.3.1/../../../../arm-none-eabi/lib/thumb/v7e-m/fpv4-sp/hard/libc.a(lib_a-mallocr.o) (_free_r)
/usr/local/Cellar/gcc-arm-none-eabi/20180627/bin/../lib/gcc/arm-none-eabi/7.3.1/../../../../arm-none-eabi/lib/thumb/v7e-m/fpv4-sp/hard/libc.a(lib_a-lseekr.o)
                              /usr/local/Cellar/gcc-arm-none-eabi/20180627/bin/../lib/gcc/arm-none-eabi/7.3.1/../../../../arm-none-eabi/lib/thumb/v7e-m/fpv4-sp/hard/libc.a(lib_a-stdio.o) (_lseek_r)
/usr/local/Cellar/gcc-arm-none-eabi/20180627/bin/../lib/gcc/arm-none-eabi/7.3.1/../../../../arm-none-eabi/lib/thumb/v7e-m/fpv4-sp/hard/libc.a(lib_a-readr.o)
                              /usr/local/Cellar/gcc-arm-none-eabi/20180627/bin/../lib/gcc/arm-none-eabi/7.3.1/../../../../arm-none-eabi/lib/thumb/v7e-m/fpv4-sp/hard/libc.a(lib_a-stdio.o) (_read_r)
/usr/local/Cellar/gcc-arm-none-eabi/20180627/bin/../lib/gcc/arm-none-eabi/7.3.1/../../../../arm-none-eabi/lib/thumb/v7e-m/fpv4-sp/hard/libc.a(lib_a-reent.o)
                              /usr/local/Cellar/gcc-arm-none-eabi/20180627/bin/../lib/gcc/arm-none-eabi/7.3.1/../../../../arm-none-eabi/lib/thumb/v7e-m/fpv4-sp/hard/libc.a(lib_a-sbrkr.o) (errno)

Allocating common symbols
Common symbol       size              file

dmac_desc_wb        0x10              .build/obj_massdrop_alt_default_md/matrix.o
inbuf               0xc               .build/obj_massdrop_alt_default_md/protocol/arm_atsam/usb/udi_cdc.o
usb_gcr_auto        0x1               .build/obj_massdrop_alt_default_md/protocol/arm_atsam/usb/usb2422.o
udd_ep_out_cache_buffer
                    0x100             .build/obj_massdrop_alt_default_md/protocol/arm_atsam/usb/usb_device_udd.o
usec_delay_mult     0x4               .build/obj_massdrop_alt_default_md/protocol/arm_atsam/clks.o
usb_descriptor_table
                    0x100             .build/obj_massdrop_alt_default_md/protocol/arm_atsam/usb/usb.o
__lock___atexit_recursive_mutex
                    0x1               /usr/local/Cellar/gcc-arm-none-eabi/20180627/bin/../lib/gcc/arm-none-eabi/7.3.1/../../../../arm-none-eabi/lib/thumb/v7e-m/fpv4-sp/hard/libg.a(lib_a-lock.o)
udi_hid_nkro_b_report_valid
                    0x1               .build/obj_massdrop_alt_default_md/protocol/arm_atsam/usb/udi_hid_kbd.o
rgb_matrix_config   0x8               .build/obj_massdrop_alt_default_md/quantum/rgb_matrix.o
keymap_config       0x2               .build/obj_massdrop_alt_default_md/keyboards/massdrop/alt/keymaps/default_md/keymap.o
__lock___arc4random_mutex
                    0x1               /usr/local/Cellar/gcc-arm-none-eabi/20180627/bin/../lib/gcc/arm-none-eabi/7.3.1/../../../../arm-none-eabi/lib/thumb/v7e-m/fpv4-sp/hard/libg.a(lib_a-lock.o)
printbuf            0x1               .build/obj_massdrop_alt_default_md/protocol/arm_atsam/usb/udi_cdc.o
errno               0x4               /usr/local/Cellar/gcc-arm-none-eabi/20180627/bin/../lib/gcc/arm-none-eabi/7.3.1/../../../../arm-none-eabi/lib/thumb/v7e-m/fpv4-sp/hard/libc.a(lib_a-reent.o)
usb_device          0xb4              .build/obj_massdrop_alt_default_md/protocol/arm_atsam/usb/usb_device_udd.o
udi_hid_kbd_report  0x8               .build/obj_massdrop_alt_default_md/protocol/arm_atsam/usb/udi_hid_kbd.o
row_masks           0x8               .build/obj_massdrop_alt_default_md/matrix.o
led_states          0x1               .build/obj_massdrop_alt_default_md/protocol/arm_atsam/main_arm_atsam.o
udi_hid_kbd_b_report_valid
                    0x1               .build/obj_massdrop_alt_default_md/protocol/arm_atsam/usb/udi_hid_kbd.o
i2c0_buf            0x22              .build/obj_massdrop_alt_default_md/protocol/arm_atsam/usb/usb2422.o
v_con_1_boot        0x2               .build/obj_massdrop_alt_default_md/protocol/arm_atsam/adc.o
breathe_mult        0x4               .build/obj_massdrop_alt_default_md/protocol/arm_atsam/led_matrix.o
issidrv             0x3c2             .build/obj_massdrop_alt_default_md/protocol/arm_atsam/led_matrix.o
__lock___env_recursive_mutex
                    0x1               /usr/local/Cellar/gcc-arm-none-eabi/20180627/bin/../lib/gcc/arm-none-eabi/7.3.1/../../../../arm-none-eabi/lib/thumb/v7e-m/fpv4-sp/hard/libg.a(lib_a-lock.o)
led_buffer          0x13b             .build/obj_massdrop_alt_default_md/protocol/arm_atsam/led_matrix.o
i2c_led_q_running   0x1               .build/obj_massdrop_alt_default_md/protocol/arm_atsam/i2c_master.o
__lock___sinit_recursive_mutex
                    0x1               /usr/local/Cellar/gcc-arm-none-eabi/20180627/bin/../lib/gcc/arm-none-eabi/7.3.1/../../../../arm-none-eabi/lib/thumb/v7e-m/fpv4-sp/hard/libg.a(lib_a-lock.o)
sr_exp_data         0x2               .build/obj_massdrop_alt_default_md/protocol/arm_atsam/spi.o
gcr_desired         0x1               .build/obj_massdrop_alt_default_md/protocol/arm_atsam/led_matrix.o
debug_code          0x4               .build/obj_massdrop_alt_default_md/protocol/arm_atsam/d51_util.o
mdebounced          0xa               .build/obj_massdrop_alt_default_md/matrix.o
v_con_1             0x2               .build/obj_massdrop_alt_default_md/protocol/arm_atsam/adc.o
udi_hid_kbd_b_report_trans_ongoing
                    0x1               .build/obj_massdrop_alt_default_md/protocol/arm_atsam/usb/udi_hid_kbd.o
__lock___malloc_recursive_mutex
                    0x1               /usr/local/Cellar/gcc-arm-none-eabi/20180627/bin/../lib/gcc/arm-none-eabi/7.3.1/../../../../arm-none-eabi/lib/thumb/v7e-m/fpv4-sp/hard/libg.a(lib_a-lock.o)
udi_hid_exk_b_report_valid
                    0x1               .build/obj_massdrop_alt_default_md/protocol/arm_atsam/usb/udi_hid_kbd.o
usb_extra_state     0x1               .build/obj_massdrop_alt_default_md/protocol/arm_atsam/usb/usb2422.o
udi_hid_nkro_b_report_trans_ongoing
                    0x1               .build/obj_massdrop_alt_default_md/protocol/arm_atsam/usb/udi_hid_kbd.o
mlatest             0xa               .build/obj_massdrop_alt_default_md/matrix.o
udi_hid_exk_report_set
                    0x1               .build/obj_massdrop_alt_default_md/protocol/arm_atsam/usb/udi_hid_kbd.o
mlast               0xa               .build/obj_massdrop_alt_default_md/matrix.o
udi_hid_nkro_report
                    0x20              .build/obj_massdrop_alt_default_md/protocol/arm_atsam/usb/udi_hid_kbd.o
system_clks         0x68              .build/obj_massdrop_alt_default_md/protocol/arm_atsam/clks.o
udd_g_ctrlreq       0x18              .build/obj_massdrop_alt_default_md/protocol/arm_atsam/usb/usb_device_udd.o
gcr_actual          0x1               .build/obj_massdrop_alt_default_md/protocol/arm_atsam/led_matrix.o
v_con_2             0x2               .build/obj_massdrop_alt_default_md/protocol/arm_atsam/adc.o
ms_clk              0x8               .build/obj_massdrop_alt_default_md/protocol/arm_atsam/clks.o
usb_extra_manual    0x1               .build/obj_massdrop_alt_default_md/protocol/arm_atsam/usb/usb2422.o
udi_hid_exk_report  0x3               .build/obj_massdrop_alt_default_md/protocol/arm_atsam/usb/udi_hid_kbd.o
tp_buttons          0x4               .build/obj_massdrop_alt_default_md/common/action.o
v_con_2_boot        0x2               .build/obj_massdrop_alt_default_md/protocol/arm_atsam/adc.o
v_5v                0x2               .build/obj_massdrop_alt_default_md/protocol/arm_atsam/adc.o
dmac_desc           0x10              .build/obj_massdrop_alt_default_md/matrix.o
g_last_hit_tracker  0x29              .build/obj_massdrop_alt_default_md/quantum/rgb_matrix.o
adc_extra           0x2               .build/obj_massdrop_alt_default_md/protocol/arm_atsam/usb/usb2422.o
gcr_breathe         0x1               .build/obj_massdrop_alt_default_md/protocol/arm_atsam/led_matrix.o
udi_hid_nkro_report_set
                    0x1               .build/obj_massdrop_alt_default_md/protocol/arm_atsam/usb/udi_hid_kbd.o
usb_host_port       0x1               .build/obj_massdrop_alt_default_md/protocol/arm_atsam/usb/usb2422.o
__lock___at_quick_exit_mutex
                    0x1               /usr/local/Cellar/gcc-arm-none-eabi/20180627/bin/../lib/gcc/arm-none-eabi/7.3.1/../../../../arm-none-eabi/lib/thumb/v7e-m/fpv4-sp/hard/libg.a(lib_a-lock.o)
g_rgb_counters      0x8               .build/obj_massdrop_alt_default_md/quantum/rgb_matrix.o
pomod               0x4               .build/obj_massdrop_alt_default_md/protocol/arm_atsam/led_matrix.o
gcr_actual_last     0x1               .build/obj_massdrop_alt_default_md/protocol/arm_atsam/led_matrix.o
__lock___dd_hash_mutex
                    0x1               /usr/local/Cellar/gcc-arm-none-eabi/20180627/bin/../lib/gcc/arm-none-eabi/7.3.1/../../../../arm-none-eabi/lib/thumb/v7e-m/fpv4-sp/hard/libg.a(lib_a-lock.o)
__lock___tz_mutex   0x1               /usr/local/Cellar/gcc-arm-none-eabi/20180627/bin/../lib/gcc/arm-none-eabi/7.3.1/../../../../arm-none-eabi/lib/thumb/v7e-m/fpv4-sp/hard/libg.a(lib_a-lock.o)
udd_ctrl_buffer     0x8               .build/obj_massdrop_alt_default_md/protocol/arm_atsam/usb/usb_device_udd.o
udi_hid_kbd_report_set
                    0x1               .build/obj_massdrop_alt_default_md/protocol/arm_atsam/usb/udi_hid_kbd.o
USB2422_shadow      0x100             .build/obj_massdrop_alt_default_md/protocol/arm_atsam/usb/usb2422.o
__lock___sfp_recursive_mutex
                    0x1               /usr/local/Cellar/gcc-arm-none-eabi/20180627/bin/../lib/gcc/arm-none-eabi/7.3.1/../../../../arm-none-eabi/lib/thumb/v7e-m/fpv4-sp/hard/libg.a(lib_a-lock.o)
v_5v_avg            0x2               .build/obj_massdrop_alt_default_md/protocol/arm_atsam/adc.o

Discarded input sections

 .text          0x0000000000000000        0x0 /usr/local/Cellar/gcc-arm-none-eabi/20180627/bin/../lib/gcc/arm-none-eabi/7.3.1/thumb/v7e-m/fpv4-sp/hard/crti.o
 .data          0x0000000000000000        0x0 /usr/local/Cellar/gcc-arm-none-eabi/20180627/bin/../lib/gcc/arm-none-eabi/7.3.1/thumb/v7e-m/fpv4-sp/hard/crti.o
 .bss           0x0000000000000000        0x0 /usr/local/Cellar/gcc-arm-none-eabi/20180627/bin/../lib/gcc/arm-none-eabi/7.3.1/thumb/v7e-m/fpv4-sp/hard/crti.o
 .data          0x0000000000000000        0x4 /usr/local/Cellar/gcc-arm-none-eabi/20180627/bin/../lib/gcc/arm-none-eabi/7.3.1/thumb/v7e-m/fpv4-sp/hard/crtbegin.o
 .text          0x0000000000000000       0xe8 /usr/local/Cellar/gcc-arm-none-eabi/20180627/bin/../lib/gcc/arm-none-eabi/7.3.1/../../../../arm-none-eabi/lib/thumb/v7e-m/fpv4-sp/hard/rdimon-crt0.o
 .data          0x0000000000000000      0x118 /usr/local/Cellar/gcc-arm-none-eabi/20180627/bin/../lib/gcc/arm-none-eabi/7.3.1/../../../../arm-none-eabi/lib/thumb/v7e-m/fpv4-sp/hard/rdimon-crt0.o
 .bss           0x0000000000000000        0x0 /usr/local/Cellar/gcc-arm-none-eabi/20180627/bin/../lib/gcc/arm-none-eabi/7.3.1/../../../../arm-none-eabi/lib/thumb/v7e-m/fpv4-sp/hard/rdimon-crt0.o
 .ARM.extab     0x0000000000000000        0x0 /usr/local/Cellar/gcc-arm-none-eabi/20180627/bin/../lib/gcc/arm-none-eabi/7.3.1/../../../../arm-none-eabi/lib/thumb/v7e-m/fpv4-sp/hard/rdimon-crt0.o
 .ARM.exidx     0x0000000000000000        0x8 /usr/local/Cellar/gcc-arm-none-eabi/20180627/bin/../lib/gcc/arm-none-eabi/7.3.1/../../../../arm-none-eabi/lib/thumb/v7e-m/fpv4-sp/hard/rdimon-crt0.o
 .ARM.attributes
                0x0000000000000000       0x20 /usr/local/Cellar/gcc-arm-none-eabi/20180627/bin/../lib/gcc/arm-none-eabi/7.3.1/../../../../arm-none-eabi/lib/thumb/v7e-m/fpv4-sp/hard/rdimon-crt0.o
 .text          0x0000000000000000        0x0 .build/obj_massdrop_alt_default_md/matrix.o
 .text.matrix_init_user
                0x0000000000000000        0x2 .build/obj_massdrop_alt_default_md/matrix.o
 .text.matrix_scan_user
                0x0000000000000000        0x2 .build/obj_massdrop_alt_default_md/matrix.o
 .text          0x0000000000000000        0x0 .build/obj_massdrop_alt_default_md/config_led.o
 .bss           0x0000000000000000        0x0 .build/obj_massdrop_alt_default_md/config_led.o
 .text          0x0000000000000000        0x0 .build/obj_massdrop_alt_default_md/keyboards/massdrop/alt/keymaps/default_md/keymap.o
 .text          0x0000000000000000        0x0 .build/obj_massdrop_alt_default_md/quantum/quantum.o
 .data          0x0000000000000000        0x0 .build/obj_massdrop_alt_default_md/quantum/quantum.o
 .text.do_code16
                0x0000000000000000       0x4e .build/obj_massdrop_alt_default_md/quantum/quantum.o
 .text.qk_register_weak_mods
                0x0000000000000000       0x18 .build/obj_massdrop_alt_default_md/quantum/quantum.o
 .text.qk_register_mods
                0x0000000000000000        0x4 .build/obj_massdrop_alt_default_md/quantum/quantum.o
 .text.qk_unregister_weak_mods
                0x0000000000000000       0x18 .build/obj_massdrop_alt_default_md/quantum/quantum.o
 .text.qk_unregister_mods
                0x0000000000000000        0x4 .build/obj_massdrop_alt_default_md/quantum/quantum.o
 .text.register_code16
                0x0000000000000000       0x2c .build/obj_massdrop_alt_default_md/quantum/quantum.o
 .text.unregister_code16
                0x0000000000000000       0x2c .build/obj_massdrop_alt_default_md/quantum/quantum.o
 .text.tap_code16
                0x0000000000000000       0x12 .build/obj_massdrop_alt_default_md/quantum/quantum.o
 .text.process_record_user
                0x0000000000000000        0x4 .build/obj_massdrop_alt_default_md/quantum/quantum.o
 .text.send_char
                0x0000000000000000       0x48 .build/obj_massdrop_alt_default_md/quantum/quantum.o
 .text.send_string_with_delay
                0x0000000000000000       0x54 .build/obj_massdrop_alt_default_md/quantum/quantum.o
 .text.send_string
                0x0000000000000000        0x6 .build/obj_massdrop_alt_default_md/quantum/quantum.o
 .text.send_string_P
                0x0000000000000000        0x4 .build/obj_massdrop_alt_default_md/quantum/quantum.o
 .text.send_string_with_delay_P
                0x0000000000000000        0x4 .build/obj_massdrop_alt_default_md/quantum/quantum.o
 .text.set_single_persistent_default_layer
                0x0000000000000000       0x16 .build/obj_massdrop_alt_default_md/quantum/quantum.o
 .text.update_tri_layer_state
                0x0000000000000000       0x1e .build/obj_massdrop_alt_default_md/quantum/quantum.o
 .text.update_tri_layer
                0x0000000000000000       0x1c .build/obj_massdrop_alt_default_md/quantum/quantum.o
 .text.tap_random_base64
                0x0000000000000000       0x82 .build/obj_massdrop_alt_default_md/quantum/quantum.o
 .text.bootmagic_lite
                0x0000000000000000       0x2a .build/obj_massdrop_alt_default_md/quantum/quantum.o
 .text.backlight_init_ports
                0x0000000000000000        0x2 .build/obj_massdrop_alt_default_md/quantum/quantum.o
 .text.send_nibble
                0x0000000000000000       0x3e .build/obj_massdrop_alt_default_md/quantum/quantum.o
 .text.send_byte
                0x0000000000000000       0x16 .build/obj_massdrop_alt_default_md/quantum/quantum.o
 .text.send_word
                0x0000000000000000       0x14 .build/obj_massdrop_alt_default_md/quantum/quantum.o
 .text.send_dword
                0x0000000000000000       0x14 .build/obj_massdrop_alt_default_md/quantum/quantum.o
 .text.hex_to_keycode
                0x0000000000000000       0x18 .build/obj_massdrop_alt_default_md/quantum/quantum.o
 .text.api_send_unicode
                0x0000000000000000        0x2 .build/obj_massdrop_alt_default_md/quantum/quantum.o
 .text.backlight_set
                0x0000000000000000        0x2 .build/obj_massdrop_alt_default_md/quantum/quantum.o
 .text.led_init_ports
                0x0000000000000000        0x2 .build/obj_massdrop_alt_default_md/quantum/quantum.o
 .text.startup_user
                0x0000000000000000        0x2 .build/obj_massdrop_alt_default_md/quantum/quantum.o
 .rodata        0x0000000000000000      0x180 .build/obj_massdrop_alt_default_md/quantum/quantum.o
 .text          0x0000000000000000        0x0 .build/obj_massdrop_alt_default_md/quantum/keymap_common.o
 .data          0x0000000000000000        0x0 .build/obj_massdrop_alt_default_md/quantum/keymap_common.o
 .bss           0x0000000000000000        0x0 .build/obj_massdrop_alt_default_md/quantum/keymap_common.o
 .text          0x0000000000000000        0x0 .build/obj_massdrop_alt_default_md/quantum/keycode_config.o
 .data          0x0000000000000000        0x0 .build/obj_massdrop_alt_default_md/quantum/keycode_config.o
 .bss           0x0000000000000000        0x0 .build/obj_massdrop_alt_default_md/quantum/keycode_config.o
 .text          0x0000000000000000        0x0 .build/obj_massdrop_alt_default_md/quantum/debounce/sym_g.o
 .data          0x0000000000000000        0x0 .build/obj_massdrop_alt_default_md/quantum/debounce/sym_g.o
 .bss           0x0000000000000000        0x4 .build/obj_massdrop_alt_default_md/quantum/debounce/sym_g.o
 .text.debounce_init
                0x0000000000000000        0x2 .build/obj_massdrop_alt_default_md/quantum/debounce/sym_g.o
 .text.debounce
                0x0000000000000000       0x44 .build/obj_massdrop_alt_default_md/quantum/debounce/sym_g.o
 .text.debounce_active
                0x0000000000000000        0xc .build/obj_massdrop_alt_default_md/quantum/debounce/sym_g.o
 .debug_info    0x0000000000000000     0x1050 .build/obj_massdrop_alt_default_md/quantum/debounce/sym_g.o
 .debug_abbrev  0x0000000000000000      0x282 .build/obj_massdrop_alt_default_md/quantum/debounce/sym_g.o
 .debug_loc     0x0000000000000000       0x91 .build/obj_massdrop_alt_default_md/quantum/debounce/sym_g.o
 .debug_aranges
                0x0000000000000000       0x30 .build/obj_massdrop_alt_default_md/quantum/debounce/sym_g.o
 .debug_ranges  0x0000000000000000       0x38 .build/obj_massdrop_alt_default_md/quantum/debounce/sym_g.o
 .debug_line    0x0000000000000000      0x323 .build/obj_massdrop_alt_default_md/quantum/debounce/sym_g.o
 .debug_str     0x0000000000000000      0xa1a .build/obj_massdrop_alt_default_md/quantum/debounce/sym_g.o
 .comment       0x0000000000000000       0x80 .build/obj_massdrop_alt_default_md/quantum/debounce/sym_g.o
 .debug_frame   0x0000000000000000       0x58 .build/obj_massdrop_alt_default_md/quantum/debounce/sym_g.o
 .ARM.attributes
                0x0000000000000000       0x39 .build/obj_massdrop_alt_default_md/quantum/debounce/sym_g.o
 .text          0x0000000000000000        0x0 .build/obj_massdrop_alt_default_md/quantum/color.o
 .data          0x0000000000000000        0x0 .build/obj_massdrop_alt_default_md/quantum/color.o
 .bss           0x0000000000000000        0x0 .build/obj_massdrop_alt_default_md/quantum/color.o
 .text          0x0000000000000000        0x0 .build/obj_massdrop_alt_default_md/quantum/rgb_matrix.o
 .text.eeconfig_debug_rgb_matrix
                0x0000000000000000        0x2 .build/obj_massdrop_alt_default_md/quantum/rgb_matrix.o
 .text.rgb_matrix_set_color_all
                0x0000000000000000        0xc .build/obj_massdrop_alt_default_md/quantum/rgb_matrix.o
 .text.rgb_matrix_test
                0x0000000000000000       0x38 .build/obj_massdrop_alt_default_md/quantum/rgb_matrix.o
 .text.rgb_matrix_indicators_kb
                0x0000000000000000        0x2 .build/obj_massdrop_alt_default_md/quantum/rgb_matrix.o
 .text.rgb_matrix_set_suspend_state
                0x0000000000000000        0xc .build/obj_massdrop_alt_default_md/quantum/rgb_matrix.o
 .text.rgb_matrix_enable_noeeprom
                0x0000000000000000       0x24 .build/obj_massdrop_alt_default_md/quantum/rgb_matrix.o
 .text.rgb_matrix_enable
                0x0000000000000000        0xe .build/obj_massdrop_alt_default_md/quantum/rgb_matrix.o
 .text.rgb_matrix_disable_noeeprom
                0x0000000000000000       0x20 .build/obj_massdrop_alt_default_md/quantum/rgb_matrix.o
 .text.rgb_matrix_disable
                0x0000000000000000        0xe .build/obj_massdrop_alt_default_md/quantum/rgb_matrix.o
 .text.rgb_matrix_get_flags
                0x0000000000000000        0xc .build/obj_massdrop_alt_default_md/quantum/rgb_matrix.o
 .text.rgb_matrix_set_flags
                0x0000000000000000        0xc .build/obj_massdrop_alt_default_md/quantum/rgb_matrix.o
 .text.rgb_matrix_mode_noeeprom
                0x0000000000000000       0x10 .build/obj_massdrop_alt_default_md/quantum/rgb_matrix.o
 .text.rgb_matrix_get_mode
                0x0000000000000000        0xc .build/obj_massdrop_alt_default_md/quantum/rgb_matrix.o
 .text.rgb_matrix_sethsv
                0x0000000000000000       0x10 .build/obj_massdrop_alt_default_md/quantum/rgb_matrix.o
 .text.rgb_matrix_sethsv_noeeprom
                0x0000000000000000       0x10 .build/obj_massdrop_alt_default_md/quantum/rgb_matrix.o
 .text          0x0000000000000000        0x0 .build/obj_massdrop_alt_default_md/quantum/rgb_matrix_drivers.o
 .data          0x0000000000000000        0x0 .build/obj_massdrop_alt_default_md/quantum/rgb_matrix_drivers.o
 .bss           0x0000000000000000        0x0 .build/obj_massdrop_alt_default_md/quantum/rgb_matrix_drivers.o
 .debug_info    0x0000000000000000      0xf4c .build/obj_massdrop_alt_default_md/quantum/rgb_matrix_drivers.o
 .debug_abbrev  0x0000000000000000      0x1da .build/obj_massdrop_alt_default_md/quantum/rgb_matrix_drivers.o
 .debug_aranges
                0x0000000000000000       0x18 .build/obj_massdrop_alt_default_md/quantum/rgb_matrix_drivers.o
 .debug_line    0x0000000000000000      0x294 .build/obj_massdrop_alt_default_md/quantum/rgb_matrix_drivers.o
 .debug_str     0x0000000000000000      0x99e .build/obj_massdrop_alt_default_md/quantum/rgb_matrix_drivers.o
 .comment       0x0000000000000000       0x80 .build/obj_massdrop_alt_default_md/quantum/rgb_matrix_drivers.o
 .ARM.attributes
                0x0000000000000000       0x39 .build/obj_massdrop_alt_default_md/quantum/rgb_matrix_drivers.o
 .text          0x0000000000000000        0x0 .build/obj_massdrop_alt_default_md/quantum/led_tables.o
 .data          0x0000000000000000        0x0 .build/obj_massdrop_alt_default_md/quantum/led_tables.o
 .bss           0x0000000000000000        0x0 .build/obj_massdrop_alt_default_md/quantum/led_tables.o
 .text          0x0000000000000000        0x0 .build/obj_massdrop_alt_default_md/quantum/process_keycode/process_space_cadet.o
 .data          0x0000000000000000        0x0 .build/obj_massdrop_alt_default_md/quantum/process_keycode/process_space_cadet.o
 .text          0x0000000000000000        0x0 .build/obj_massdrop_alt_default_md/common/host.o
 .data          0x0000000000000000        0x0 .build/obj_massdrop_alt_default_md/common/host.o
 .text.host_get_driver
                0x0000000000000000        0xc .build/obj_massdrop_alt_default_md/common/host.o
 .text.host_mouse_send
                0x0000000000000000       0x10 .build/obj_massdrop_alt_default_md/common/host.o
 .text.host_last_system_report
                0x0000000000000000        0xc .build/obj_massdrop_alt_default_md/common/host.o
 .text.host_last_consumer_report
                0x0000000000000000        0xc .build/obj_massdrop_alt_default_md/common/host.o
 .text          0x0000000000000000        0x0 .build/obj_massdrop_alt_default_md/common/keyboard.o
 .data          0x0000000000000000        0x0 .build/obj_massdrop_alt_default_md/common/keyboard.o
 .text.disable_jtag
                0x0000000000000000        0x2 .build/obj_massdrop_alt_default_md/common/keyboard.o
 .text.keyboard_set_leds
                0x0000000000000000        0x4 .build/obj_massdrop_alt_default_md/common/keyboard.o
 .text          0x0000000000000000        0x0 .build/obj_massdrop_alt_default_md/common/action.o
 .data          0x0000000000000000        0x0 .build/obj_massdrop_alt_default_md/common/action.o
 .text.process_record_quantum
                0x0000000000000000        0x4 .build/obj_massdrop_alt_default_md/common/action.o
 .text.process_record_nocache
                0x0000000000000000       0x18 .build/obj_massdrop_alt_default_md/common/action.o
 .text.debug_action
                0x0000000000000000        0x2 .build/obj_massdrop_alt_default_md/common/action.o
 COMMON         0x0000000000000000        0x4 .build/obj_massdrop_alt_default_md/common/action.o
 .text          0x0000000000000000        0x0 .build/obj_massdrop_alt_default_md/common/action_tapping.o
 .data          0x0000000000000000        0x0 .build/obj_massdrop_alt_default_md/common/action_tapping.o
 .text.get_tapping_term
                0x0000000000000000        0x4 .build/obj_massdrop_alt_default_md/common/action_tapping.o
 .text          0x0000000000000000        0x0 .build/obj_massdrop_alt_default_md/common/action_macro.o
 .data          0x0000000000000000        0x0 .build/obj_massdrop_alt_default_md/common/action_macro.o
 .bss           0x0000000000000000        0x0 .build/obj_massdrop_alt_default_md/common/action_macro.o
 .text          0x0000000000000000        0x0 .build/obj_massdrop_alt_default_md/common/action_layer.o
 .data          0x0000000000000000        0x0 .build/obj_massdrop_alt_default_md/common/action_layer.o
 .text.layer_state_cmp
                0x0000000000000000       0x12 .build/obj_massdrop_alt_default_md/common/action_layer.o
 .text.layer_state_is
                0x0000000000000000       0x10 .build/obj_massdrop_alt_default_md/common/action_layer.o
 .text          0x0000000000000000        0x0 .build/obj_massdrop_alt_default_md/common/action_util.o
 .text.get_oneshot_locked_mods
                0x0000000000000000        0xc .build/obj_massdrop_alt_default_md/common/action_util.o
 .text.has_oneshot_mods_timed_out
                0x0000000000000000        0x4 .build/obj_massdrop_alt_default_md/common/action_util.o
 .text.set_mods
                0x0000000000000000        0xc .build/obj_massdrop_alt_default_md/common/action_util.o
 .text.get_weak_mods
                0x0000000000000000        0xc .build/obj_massdrop_alt_default_md/common/action_util.o
 .text.set_weak_mods
                0x0000000000000000        0xc .build/obj_massdrop_alt_default_md/common/action_util.o
 .text.get_macro_mods
                0x0000000000000000        0xc .build/obj_massdrop_alt_default_md/common/action_util.o
 .text.set_macro_mods
                0x0000000000000000        0xc .build/obj_massdrop_alt_default_md/common/action_util.o
 .text.oneshot_locked_mods_changed_user
                0x0000000000000000        0x2 .build/obj_massdrop_alt_default_md/common/action_util.o
 .text.oneshot_locked_mods_changed_kb
                0x0000000000000000        0x8 .build/obj_massdrop_alt_default_md/common/action_util.o
 .text.set_oneshot_locked_mods
                0x0000000000000000       0x18 .build/obj_massdrop_alt_default_md/common/action_util.o
 .text.clear_oneshot_locked_mods
                0x0000000000000000       0x18 .build/obj_massdrop_alt_default_md/common/action_util.o
 .text.has_anymod
                0x0000000000000000        0xc .build/obj_massdrop_alt_default_md/common/action_util.o
 .text          0x0000000000000000        0x0 .build/obj_massdrop_alt_default_md/common/print.o
 .data          0x0000000000000000        0x0 .build/obj_massdrop_alt_default_md/common/print.o
 .bss           0x0000000000000000        0x0 .build/obj_massdrop_alt_default_md/common/print.o
 .debug_info    0x0000000000000000       0x64 .build/obj_massdrop_alt_default_md/common/print.o
 .debug_abbrev  0x0000000000000000       0x26 .build/obj_massdrop_alt_default_md/common/print.o
 .debug_aranges
                0x0000000000000000       0x18 .build/obj_massdrop_alt_default_md/common/print.o
 .debug_line    0x0000000000000000       0x1d .build/obj_massdrop_alt_default_md/common/print.o
 .debug_str     0x0000000000000000      0x1cd .build/obj_massdrop_alt_default_md/common/print.o
 .comment       0x0000000000000000       0x80 .build/obj_massdrop_alt_default_md/common/print.o
 .ARM.attributes
                0x0000000000000000       0x39 .build/obj_massdrop_alt_default_md/common/print.o
 .text          0x0000000000000000        0x0 .build/obj_massdrop_alt_default_md/common/debug.o
 .data          0x0000000000000000        0x0 .build/obj_massdrop_alt_default_md/common/debug.o
 .text          0x0000000000000000        0x0 .build/obj_massdrop_alt_default_md/common/util.o
 .data          0x0000000000000000        0x0 .build/obj_massdrop_alt_default_md/common/util.o
 .bss           0x0000000000000000        0x0 .build/obj_massdrop_alt_default_md/common/util.o
 .text.bitpop   0x0000000000000000       0x12 .build/obj_massdrop_alt_default_md/common/util.o
 .text.bitpop16
                0x0000000000000000       0x12 .build/obj_massdrop_alt_default_md/common/util.o
 .text.bitpop32
                0x0000000000000000       0x12 .build/obj_massdrop_alt_default_md/common/util.o
 .text.biton    0x0000000000000000       0x26 .build/obj_massdrop_alt_default_md/common/util.o
 .text.biton16  0x0000000000000000       0x30 .build/obj_massdrop_alt_default_md/common/util.o
 .text.bitrev   0x0000000000000000       0x26 .build/obj_massdrop_alt_default_md/common/util.o
 .text.bitrev16
                0x0000000000000000       0x1a .build/obj_massdrop_alt_default_md/common/util.o
 .text.bitrev32
                0x0000000000000000       0x18 .build/obj_massdrop_alt_default_md/common/util.o
 .text          0x0000000000000000        0x0 .build/obj_massdrop_alt_default_md/common/eeconfig.o
 .data          0x0000000000000000        0x0 .build/obj_massdrop_alt_default_md/common/eeconfig.o
 .bss           0x0000000000000000        0x0 .build/obj_massdrop_alt_default_md/common/eeconfig.o
 .text.eeconfig_enable
                0x0000000000000000        0xa .build/obj_massdrop_alt_default_md/common/eeconfig.o
 .text.eeconfig_disable
                0x0000000000000000        0xa .build/obj_massdrop_alt_default_md/common/eeconfig.o
 .text.eeconfig_is_disabled
                0x0000000000000000       0x14 .build/obj_massdrop_alt_default_md/common/eeconfig.o
 .text.eeconfig_update_debug
                0x0000000000000000        0x8 .build/obj_massdrop_alt_default_md/common/eeconfig.o
 .text.eeconfig_update_default_layer
                0x0000000000000000        0x8 .build/obj_massdrop_alt_default_md/common/eeconfig.o
 .text.eeconfig_read_backlight
                0x0000000000000000        0x6 .build/obj_massdrop_alt_default_md/common/eeconfig.o
 .text.eeconfig_update_backlight
                0x0000000000000000        0x8 .build/obj_massdrop_alt_default_md/common/eeconfig.o
 .text.eeconfig_read_audio
                0x0000000000000000        0x6 .build/obj_massdrop_alt_default_md/common/eeconfig.o
 .text.eeconfig_update_audio
                0x0000000000000000        0x8 .build/obj_massdrop_alt_default_md/common/eeconfig.o
 .text.eeconfig_read_kb
                0x0000000000000000        0x6 .build/obj_massdrop_alt_default_md/common/eeconfig.o
 .text.eeconfig_read_user
                0x0000000000000000        0x6 .build/obj_massdrop_alt_default_md/common/eeconfig.o
 .text.eeconfig_read_haptic
                0x0000000000000000        0x6 .build/obj_massdrop_alt_default_md/common/eeconfig.o
 .text.eeconfig_update_haptic
                0x0000000000000000        0x8 .build/obj_massdrop_alt_default_md/common/eeconfig.o
 .text          0x0000000000000000        0x0 .build/obj_massdrop_alt_default_md/common/report.o
 .data          0x0000000000000000        0x0 .build/obj_massdrop_alt_default_md/common/report.o
 .bss           0x0000000000000000        0x0 .build/obj_massdrop_alt_default_md/common/report.o
 .text.get_first_key
                0x0000000000000000       0x44 .build/obj_massdrop_alt_default_md/common/report.o
 .text          0x0000000000000000        0x0 .build/obj_massdrop_alt_default_md/common/arm_atsam/suspend.o
 .data          0x0000000000000000        0x0 .build/obj_massdrop_alt_default_md/common/arm_atsam/suspend.o
 .bss           0x0000000000000000        0x0 .build/obj_massdrop_alt_default_md/common/arm_atsam/suspend.o
 .text.suspend_idle
                0x0000000000000000        0x2 .build/obj_massdrop_alt_default_md/common/arm_atsam/suspend.o
 .text          0x0000000000000000        0x0 .build/obj_massdrop_alt_default_md/common/arm_atsam/timer.o
 .data          0x0000000000000000        0x0 .build/obj_massdrop_alt_default_md/common/arm_atsam/timer.o
 .bss           0x0000000000000000        0x0 .build/obj_massdrop_alt_default_md/common/arm_atsam/timer.o
 .text.set_time
                0x0000000000000000        0xc .build/obj_massdrop_alt_default_md/common/arm_atsam/timer.o
 .text          0x0000000000000000        0x0 .build/obj_massdrop_alt_default_md/common/arm_atsam/bootloader.o
 .data          0x0000000000000000        0x0 .build/obj_massdrop_alt_default_md/common/arm_atsam/bootloader.o
 .bss           0x0000000000000000        0x0 .build/obj_massdrop_alt_default_md/common/arm_atsam/bootloader.o
 .text          0x0000000000000000        0x0 .build/obj_massdrop_alt_default_md/common/arm_atsam/printf.o
 .data          0x0000000000000000        0x0 .build/obj_massdrop_alt_default_md/common/arm_atsam/printf.o
 .bss           0x0000000000000000        0x0 .build/obj_massdrop_alt_default_md/common/arm_atsam/printf.o
 .debug_line    0x0000000000000000        0x0 .build/obj_massdrop_alt_default_md/common/arm_atsam/printf.o
 .debug_str     0x0000000000000000      0x154 .build/obj_massdrop_alt_default_md/common/arm_atsam/printf.o
 .comment       0x0000000000000000       0x80 .build/obj_massdrop_alt_default_md/common/arm_atsam/printf.o
 .ARM.attributes
                0x0000000000000000       0x39 .build/obj_massdrop_alt_default_md/common/arm_atsam/printf.o
 .text          0x0000000000000000        0x0 .build/obj_massdrop_alt_default_md/common/arm_atsam/eeprom.o
 .data          0x0000000000000000        0x0 .build/obj_massdrop_alt_default_md/common/arm_atsam/eeprom.o
 .text.eeprom_write_byte
                0x0000000000000000        0xc .build/obj_massdrop_alt_default_md/common/arm_atsam/eeprom.o
 .text.eeprom_read_dword
                0x0000000000000000       0x20 .build/obj_massdrop_alt_default_md/common/arm_atsam/eeprom.o
 .text          0x0000000000000000        0x0 .build/obj_massdrop_alt_default_md/common/magic.o
 .data          0x0000000000000000        0x0 .build/obj_massdrop_alt_default_md/common/magic.o
 .bss           0x0000000000000000        0x0 .build/obj_massdrop_alt_default_md/common/magic.o
 .text          0x0000000000000000        0x0 .build/obj_massdrop_alt_default_md/protocol/arm_atsam/adc.o
 .data          0x0000000000000000        0x0 .build/obj_massdrop_alt_default_md/protocol/arm_atsam/adc.o
 .bss           0x0000000000000000        0x0 .build/obj_massdrop_alt_default_md/protocol/arm_atsam/adc.o
 .text          0x0000000000000000        0x0 .build/obj_massdrop_alt_default_md/protocol/arm_atsam/clks.o
 .data          0x0000000000000000        0x0 .build/obj_massdrop_alt_default_md/protocol/arm_atsam/clks.o
 .bss           0x0000000000000000        0x0 .build/obj_massdrop_alt_default_md/protocol/arm_atsam/clks.o
 .text          0x0000000000000000        0x0 .build/obj_massdrop_alt_default_md/protocol/arm_atsam/d51_util.o
 .data          0x0000000000000000        0x0 .build/obj_massdrop_alt_default_md/protocol/arm_atsam/d51_util.o
 .text.dbg_print
                0x0000000000000000       0xcc .build/obj_massdrop_alt_default_md/protocol/arm_atsam/d51_util.o
 .text          0x0000000000000000        0x0 .build/obj_massdrop_alt_default_md/protocol/arm_atsam/i2c_master.o
 .data          0x0000000000000000        0x0 .build/obj_massdrop_alt_default_md/protocol/arm_atsam/i2c_master.o
 .text.i2c_led_send_GCR
                0x0000000000000000       0x3c .build/obj_massdrop_alt_default_md/protocol/arm_atsam/i2c_master.o
 .text.i2c_led_send_onoff
                0x0000000000000000       0x34 .build/obj_massdrop_alt_default_md/protocol/arm_atsam/i2c_master.o
 .text.i2c_led_send_pwm
                0x0000000000000000       0x38 .build/obj_massdrop_alt_default_md/protocol/arm_atsam/i2c_master.o
 .text          0x0000000000000000        0x0 .build/obj_massdrop_alt_default_md/protocol/arm_atsam/led_matrix_programs.o
 .bss           0x0000000000000000        0x0 .build/obj_massdrop_alt_default_md/protocol/arm_atsam/led_matrix_programs.o
 .text          0x0000000000000000        0x0 .build/obj_massdrop_alt_default_md/protocol/arm_atsam/led_matrix.o
 .text          0x0000000000000000        0x0 .build/obj_massdrop_alt_default_md/protocol/arm_atsam/main_arm_atsam.o
 COMMON         0x0000000000000000        0x1 .build/obj_massdrop_alt_default_md/protocol/arm_atsam/main_arm_atsam.o
 .text          0x0000000000000000        0x0 .build/obj_massdrop_alt_default_md/protocol/arm_atsam/spi.o
 .data          0x0000000000000000        0x0 .build/obj_massdrop_alt_default_md/protocol/arm_atsam/spi.o
 .bss           0x0000000000000000        0x0 .build/obj_massdrop_alt_default_md/protocol/arm_atsam/spi.o
 .text          0x0000000000000000        0x0 .build/obj_massdrop_alt_default_md/protocol/arm_atsam/startup.o
 .data          0x0000000000000000        0x0 .build/obj_massdrop_alt_default_md/protocol/arm_atsam/startup.o
 .bss           0x0000000000000000        0x0 .build/obj_massdrop_alt_default_md/protocol/arm_atsam/startup.o
 .text          0x0000000000000000        0x0 .build/obj_massdrop_alt_default_md/protocol/arm_atsam/usb/main_usb.o
 .text          0x0000000000000000        0x0 .build/obj_massdrop_alt_default_md/protocol/arm_atsam/usb/udc.o
 .text.udc_stop
                0x0000000000000000        0xe .build/obj_massdrop_alt_default_md/protocol/arm_atsam/usb/udc.o
 .text          0x0000000000000000        0x0 .build/obj_massdrop_alt_default_md/protocol/arm_atsam/usb/udi_cdc.o
 .data          0x0000000000000000        0x0 .build/obj_massdrop_alt_default_md/protocol/arm_atsam/usb/udi_cdc.o
 .bss           0x0000000000000000        0x0 .build/obj_massdrop_alt_default_md/protocol/arm_atsam/usb/udi_cdc.o
 .text.CDC_send
                0x0000000000000000        0x2 .build/obj_massdrop_alt_default_md/protocol/arm_atsam/usb/udi_cdc.o
 .text.CDC_printf
                0x0000000000000000        0x8 .build/obj_massdrop_alt_default_md/protocol/arm_atsam/usb/udi_cdc.o
 .text.CDC_input
                0x0000000000000000        0x4 .build/obj_massdrop_alt_default_md/protocol/arm_atsam/usb/udi_cdc.o
 .text          0x0000000000000000        0x0 .build/obj_massdrop_alt_default_md/protocol/arm_atsam/usb/udi_hid.o
 .data          0x0000000000000000        0x0 .build/obj_massdrop_alt_default_md/protocol/arm_atsam/usb/udi_hid.o
 .bss           0x0000000000000000        0x0 .build/obj_massdrop_alt_default_md/protocol/arm_atsam/usb/udi_hid.o
 .text          0x0000000000000000        0x0 .build/obj_massdrop_alt_default_md/protocol/arm_atsam/usb/udi_hid_kbd.o
 .text          0x0000000000000000        0x0 .build/obj_massdrop_alt_default_md/protocol/arm_atsam/usb/udi_hid_kbd_desc.o
 .bss           0x0000000000000000        0x0 .build/obj_massdrop_alt_default_md/protocol/arm_atsam/usb/udi_hid_kbd_desc.o
 .text          0x0000000000000000        0x0 .build/obj_massdrop_alt_default_md/protocol/arm_atsam/usb/ui.o
 .data          0x0000000000000000        0x0 .build/obj_massdrop_alt_default_md/protocol/arm_atsam/usb/ui.o
 .bss           0x0000000000000000        0x0 .build/obj_massdrop_alt_default_md/protocol/arm_atsam/usb/ui.o
 .text.ui_init  0x0000000000000000        0x2 .build/obj_massdrop_alt_default_md/protocol/arm_atsam/usb/ui.o
 .text.ui_kbd_led
                0x0000000000000000        0x2 .build/obj_massdrop_alt_default_md/protocol/arm_atsam/usb/ui.o
 .text          0x0000000000000000        0x0 .build/obj_massdrop_alt_default_md/protocol/arm_atsam/usb/usb2422.o
 .data          0x0000000000000000        0x0 .build/obj_massdrop_alt_default_md/protocol/arm_atsam/usb/usb2422.o
 .bss           0x0000000000000000        0x0 .build/obj_massdrop_alt_default_md/protocol/arm_atsam/usb/usb2422.o
 .text          0x0000000000000000        0x0 .build/obj_massdrop_alt_default_md/protocol/arm_atsam/usb/usb.o
 .data          0x0000000000000000        0x0 .build/obj_massdrop_alt_default_md/protocol/arm_atsam/usb/usb.o
 .text.usb_device_unregister_callback
                0x0000000000000000       0x24 .build/obj_massdrop_alt_default_md/protocol/arm_atsam/usb/usb.o
 .text.usb_device_endpoint_is_configured
                0x0000000000000000       0x22 .build/obj_massdrop_alt_default_md/protocol/arm_atsam/usb/usb.o
 .text.usb_disable
                0x0000000000000000       0x20 .build/obj_massdrop_alt_default_md/protocol/arm_atsam/usb/usb.o
 .text          0x0000000000000000        0x0 .build/obj_massdrop_alt_default_md/protocol/arm_atsam/usb/usb_device_udd.o
 .data          0x0000000000000000        0x0 .build/obj_massdrop_alt_default_md/protocol/arm_atsam/usb/usb_device_udd.o
 .text.udd_is_high_speed
                0x0000000000000000        0x4 .build/obj_massdrop_alt_default_md/protocol/arm_atsam/usb/usb_device_udd.o
 .text.udd_get_micro_frame_number
                0x0000000000000000        0xc .build/obj_massdrop_alt_default_md/protocol/arm_atsam/usb/usb_device_udd.o
 .text.udd_ep_wait_stall_clear
                0x0000000000000000       0x50 .build/obj_massdrop_alt_default_md/protocol/arm_atsam/usb/usb_device_udd.o
 .text.udd_detach
                0x0000000000000000       0x14 .build/obj_massdrop_alt_default_md/protocol/arm_atsam/usb/usb_device_udd.o
 .text.udd_disable
                0x0000000000000000        0x4 .build/obj_massdrop_alt_default_md/protocol/arm_atsam/usb/usb_device_udd.o
 .text          0x0000000000000000        0x0 .build/obj_massdrop_alt_default_md/protocol/arm_atsam/usb/usb_util.o
 .data          0x0000000000000000        0x0 .build/obj_massdrop_alt_default_md/protocol/arm_atsam/usb/usb_util.o
 .bss           0x0000000000000000        0x0 .build/obj_massdrop_alt_default_md/protocol/arm_atsam/usb/usb_util.o
 .text.digit    0x0000000000000000       0x12 .build/obj_massdrop_alt_default_md/protocol/arm_atsam/usb/usb_util.o
 .text.UTIL_ltoa_radix
                0x0000000000000000       0x92 .build/obj_massdrop_alt_default_md/protocol/arm_atsam/usb/usb_util.o
 .text.UTIL_ltoa
                0x0000000000000000        0x6 .build/obj_massdrop_alt_default_md/protocol/arm_atsam/usb/usb_util.o
 .text.UTIL_itoa
                0x0000000000000000        0xa .build/obj_massdrop_alt_default_md/protocol/arm_atsam/usb/usb_util.o
 .text.UTIL_utoa
                0x0000000000000000        0xa .build/obj_massdrop_alt_default_md/protocol/arm_atsam/usb/usb_util.o
 .debug_info    0x0000000000000000      0xb49 .build/obj_massdrop_alt_default_md/protocol/arm_atsam/usb/usb_util.o
 .debug_abbrev  0x0000000000000000      0x2d8 .build/obj_massdrop_alt_default_md/protocol/arm_atsam/usb/usb_util.o
 .debug_loc     0x0000000000000000      0x224 .build/obj_massdrop_alt_default_md/protocol/arm_atsam/usb/usb_util.o
 .debug_aranges
                0x0000000000000000       0x40 .build/obj_massdrop_alt_default_md/protocol/arm_atsam/usb/usb_util.o
 .debug_ranges  0x0000000000000000       0x48 .build/obj_massdrop_alt_default_md/protocol/arm_atsam/usb/usb_util.o
 .debug_line    0x0000000000000000      0x2ab .build/obj_massdrop_alt_default_md/protocol/arm_atsam/usb/usb_util.o
 .debug_str     0x0000000000000000      0x69e .build/obj_massdrop_alt_default_md/protocol/arm_atsam/usb/usb_util.o
 .comment       0x0000000000000000       0x80 .build/obj_massdrop_alt_default_md/protocol/arm_atsam/usb/usb_util.o
 .debug_frame   0x0000000000000000       0x8c .build/obj_massdrop_alt_default_md/protocol/arm_atsam/usb/usb_util.o
 .ARM.attributes
                0x0000000000000000       0x39 .build/obj_massdrop_alt_default_md/protocol/arm_atsam/usb/usb_util.o
 .data          0x0000000000000000        0x0 /usr/local/Cellar/gcc-arm-none-eabi/20180627/bin/../lib/gcc/arm-none-eabi/7.3.1/thumb/v7e-m/fpv4-sp/hard/libgcc.a(_arm_addsubdf3.o)
 .bss           0x0000000000000000        0x0 /usr/local/Cellar/gcc-arm-none-eabi/20180627/bin/../lib/gcc/arm-none-eabi/7.3.1/thumb/v7e-m/fpv4-sp/hard/libgcc.a(_arm_addsubdf3.o)
 .data          0x0000000000000000        0x0 /usr/local/Cellar/gcc-arm-none-eabi/20180627/bin/../lib/gcc/arm-none-eabi/7.3.1/thumb/v7e-m/fpv4-sp/hard/libgcc.a(_arm_muldivdf3.o)
 .bss           0x0000000000000000        0x0 /usr/local/Cellar/gcc-arm-none-eabi/20180627/bin/../lib/gcc/arm-none-eabi/7.3.1/thumb/v7e-m/fpv4-sp/hard/libgcc.a(_arm_muldivdf3.o)
 .data          0x0000000000000000        0x0 /usr/local/Cellar/gcc-arm-none-eabi/20180627/bin/../lib/gcc/arm-none-eabi/7.3.1/thumb/v7e-m/fpv4-sp/hard/libgcc.a(_arm_fixunsdfsi.o)
 .bss           0x0000000000000000        0x0 /usr/local/Cellar/gcc-arm-none-eabi/20180627/bin/../lib/gcc/arm-none-eabi/7.3.1/thumb/v7e-m/fpv4-sp/hard/libgcc.a(_arm_fixunsdfsi.o)
 .data          0x0000000000000000        0x0 /usr/local/Cellar/gcc-arm-none-eabi/20180627/bin/../lib/gcc/arm-none-eabi/7.3.1/thumb/v7e-m/fpv4-sp/hard/libgcc.a(_arm_truncdfsf2.o)
 .bss           0x0000000000000000        0x0 /usr/local/Cellar/gcc-arm-none-eabi/20180627/bin/../lib/gcc/arm-none-eabi/7.3.1/thumb/v7e-m/fpv4-sp/hard/libgcc.a(_arm_truncdfsf2.o)
 .text          0x0000000000000000       0xa0 /usr/local/Cellar/gcc-arm-none-eabi/20180627/bin/../lib/gcc/arm-none-eabi/7.3.1/thumb/v7e-m/fpv4-sp/hard/libgcc.a(_aeabi_ldivmod.o)
 .data          0x0000000000000000        0x0 /usr/local/Cellar/gcc-arm-none-eabi/20180627/bin/../lib/gcc/arm-none-eabi/7.3.1/thumb/v7e-m/fpv4-sp/hard/libgcc.a(_aeabi_ldivmod.o)
 .bss           0x0000000000000000        0x0 /usr/local/Cellar/gcc-arm-none-eabi/20180627/bin/../lib/gcc/arm-none-eabi/7.3.1/thumb/v7e-m/fpv4-sp/hard/libgcc.a(_aeabi_ldivmod.o)
 .debug_frame   0x0000000000000000       0x44 /usr/local/Cellar/gcc-arm-none-eabi/20180627/bin/../lib/gcc/arm-none-eabi/7.3.1/thumb/v7e-m/fpv4-sp/hard/libgcc.a(_aeabi_ldivmod.o)
 .ARM.attributes
                0x0000000000000000       0x22 /usr/local/Cellar/gcc-arm-none-eabi/20180627/bin/../lib/gcc/arm-none-eabi/7.3.1/thumb/v7e-m/fpv4-sp/hard/libgcc.a(_aeabi_ldivmod.o)
 .data          0x0000000000000000        0x0 /usr/local/Cellar/gcc-arm-none-eabi/20180627/bin/../lib/gcc/arm-none-eabi/7.3.1/thumb/v7e-m/fpv4-sp/hard/libgcc.a(_aeabi_uldivmod.o)
 .bss           0x0000000000000000        0x0 /usr/local/Cellar/gcc-arm-none-eabi/20180627/bin/../lib/gcc/arm-none-eabi/7.3.1/thumb/v7e-m/fpv4-sp/hard/libgcc.a(_aeabi_uldivmod.o)
 .data          0x0000000000000000        0x0 /usr/local/Cellar/gcc-arm-none-eabi/20180627/bin/../lib/gcc/arm-none-eabi/7.3.1/thumb/v7e-m/fpv4-sp/hard/libgcc.a(_udivmoddi4.o)
 .bss           0x0000000000000000        0x0 /usr/local/Cellar/gcc-arm-none-eabi/20180627/bin/../lib/gcc/arm-none-eabi/7.3.1/thumb/v7e-m/fpv4-sp/hard/libgcc.a(_udivmoddi4.o)
 .ARM.extab     0x0000000000000000        0x0 /usr/local/Cellar/gcc-arm-none-eabi/20180627/bin/../lib/gcc/arm-none-eabi/7.3.1/thumb/v7e-m/fpv4-sp/hard/libgcc.a(_udivmoddi4.o)
 .data          0x0000000000000000        0x0 /usr/local/Cellar/gcc-arm-none-eabi/20180627/bin/../lib/gcc/arm-none-eabi/7.3.1/thumb/v7e-m/fpv4-sp/hard/libgcc.a(_dvmd_tls.o)
 .bss           0x0000000000000000        0x0 /usr/local/Cellar/gcc-arm-none-eabi/20180627/bin/../lib/gcc/arm-none-eabi/7.3.1/thumb/v7e-m/fpv4-sp/hard/libgcc.a(_dvmd_tls.o)
 .text          0x0000000000000000        0x0 /usr/local/Cellar/gcc-arm-none-eabi/20180627/bin/../lib/gcc/arm-none-eabi/7.3.1/../../../../arm-none-eabi/lib/thumb/v7e-m/fpv4-sp/hard/libg.a(lib_a-exit.o)
 .data          0x0000000000000000        0x0 /usr/local/Cellar/gcc-arm-none-eabi/20180627/bin/../lib/gcc/arm-none-eabi/7.3.1/../../../../arm-none-eabi/lib/thumb/v7e-m/fpv4-sp/hard/libg.a(lib_a-exit.o)
 .bss           0x0000000000000000        0x0 /usr/local/Cellar/gcc-arm-none-eabi/20180627/bin/../lib/gcc/arm-none-eabi/7.3.1/../../../../arm-none-eabi/lib/thumb/v7e-m/fpv4-sp/hard/libg.a(lib_a-exit.o)
 .text.exit     0x0000000000000000       0x20 /usr/local/Cellar/gcc-arm-none-eabi/20180627/bin/../lib/gcc/arm-none-eabi/7.3.1/../../../../arm-none-eabi/lib/thumb/v7e-m/fpv4-sp/hard/libg.a(lib_a-exit.o)
 .debug_frame   0x0000000000000000       0x28 /usr/local/Cellar/gcc-arm-none-eabi/20180627/bin/../lib/gcc/arm-none-eabi/7.3.1/../../../../arm-none-eabi/lib/thumb/v7e-m/fpv4-sp/hard/libg.a(lib_a-exit.o)
 .ARM.attributes
                0x0000000000000000       0x34 /usr/local/Cellar/gcc-arm-none-eabi/20180627/bin/../lib/gcc/arm-none-eabi/7.3.1/../../../../arm-none-eabi/lib/thumb/v7e-m/fpv4-sp/hard/libg.a(lib_a-exit.o)
 .text          0x0000000000000000        0x0 /usr/local/Cellar/gcc-arm-none-eabi/20180627/bin/../lib/gcc/arm-none-eabi/7.3.1/../../../../arm-none-eabi/lib/thumb/v7e-m/fpv4-sp/hard/libg.a(lib_a-impure.o)
 .data          0x0000000000000000        0x0 /usr/local/Cellar/gcc-arm-none-eabi/20180627/bin/../lib/gcc/arm-none-eabi/7.3.1/../../../../arm-none-eabi/lib/thumb/v7e-m/fpv4-sp/hard/libg.a(lib_a-impure.o)
 .bss           0x0000000000000000        0x0 /usr/local/Cellar/gcc-arm-none-eabi/20180627/bin/../lib/gcc/arm-none-eabi/7.3.1/../../../../arm-none-eabi/lib/thumb/v7e-m/fpv4-sp/hard/libg.a(lib_a-impure.o)
 .text          0x0000000000000000        0x0 /usr/local/Cellar/gcc-arm-none-eabi/20180627/bin/../lib/gcc/arm-none-eabi/7.3.1/../../../../arm-none-eabi/lib/thumb/v7e-m/fpv4-sp/hard/libg.a(lib_a-init.o)
 .data          0x0000000000000000        0x0 /usr/local/Cellar/gcc-arm-none-eabi/20180627/bin/../lib/gcc/arm-none-eabi/7.3.1/../../../../arm-none-eabi/lib/thumb/v7e-m/fpv4-sp/hard/libg.a(lib_a-init.o)
 .bss           0x0000000000000000        0x0 /usr/local/Cellar/gcc-arm-none-eabi/20180627/bin/../lib/gcc/arm-none-eabi/7.3.1/../../../../arm-none-eabi/lib/thumb/v7e-m/fpv4-sp/hard/libg.a(lib_a-init.o)
 .data          0x0000000000000000        0x0 /usr/local/Cellar/gcc-arm-none-eabi/20180627/bin/../lib/gcc/arm-none-eabi/7.3.1/../../../../arm-none-eabi/lib/thumb/v7e-m/fpv4-sp/hard/libg.a(lib_a-memcpy.o)
 .bss           0x0000000000000000        0x0 /usr/local/Cellar/gcc-arm-none-eabi/20180627/bin/../lib/gcc/arm-none-eabi/7.3.1/../../../../arm-none-eabi/lib/thumb/v7e-m/fpv4-sp/hard/libg.a(lib_a-memcpy.o)
 .text          0x0000000000000000        0x0 /usr/local/Cellar/gcc-arm-none-eabi/20180627/bin/../lib/gcc/arm-none-eabi/7.3.1/../../../../arm-none-eabi/lib/thumb/v7e-m/fpv4-sp/hard/libg.a(lib_a-memset.o)
 .data          0x0000000000000000        0x0 /usr/local/Cellar/gcc-arm-none-eabi/20180627/bin/../lib/gcc/arm-none-eabi/7.3.1/../../../../arm-none-eabi/lib/thumb/v7e-m/fpv4-sp/hard/libg.a(lib_a-memset.o)
 .bss           0x0000000000000000        0x0 /usr/local/Cellar/gcc-arm-none-eabi/20180627/bin/../lib/gcc/arm-none-eabi/7.3.1/../../../../arm-none-eabi/lib/thumb/v7e-m/fpv4-sp/hard/libg.a(lib_a-memset.o)
 .text          0x0000000000000000        0x0 /usr/local/Cellar/gcc-arm-none-eabi/20180627/bin/../lib/gcc/arm-none-eabi/7.3.1/../../../../arm-none-eabi/lib/thumb/v7e-m/fpv4-sp/hard/libg.a(lib_a-rand.o)
 .data          0x0000000000000000        0x0 /usr/local/Cellar/gcc-arm-none-eabi/20180627/bin/../lib/gcc/arm-none-eabi/7.3.1/../../../../arm-none-eabi/lib/thumb/v7e-m/fpv4-sp/hard/libg.a(lib_a-rand.o)
 .bss           0x0000000000000000        0x0 /usr/local/Cellar/gcc-arm-none-eabi/20180627/bin/../lib/gcc/arm-none-eabi/7.3.1/../../../../arm-none-eabi/lib/thumb/v7e-m/fpv4-sp/hard/libg.a(lib_a-rand.o)
 .text.srand    0x0000000000000000       0x10 /usr/local/Cellar/gcc-arm-none-eabi/20180627/bin/../lib/gcc/arm-none-eabi/7.3.1/../../../../arm-none-eabi/lib/thumb/v7e-m/fpv4-sp/hard/libg.a(lib_a-rand.o)
 .text          0x0000000000000000        0x0 /usr/local/Cellar/gcc-arm-none-eabi/20180627/bin/../lib/gcc/arm-none-eabi/7.3.1/../../../../arm-none-eabi/lib/thumb/v7e-m/fpv4-sp/hard/libg.a(lib_a-__call_atexit.o)
 .data          0x0000000000000000        0x0 /usr/local/Cellar/gcc-arm-none-eabi/20180627/bin/../lib/gcc/arm-none-eabi/7.3.1/../../../../arm-none-eabi/lib/thumb/v7e-m/fpv4-sp/hard/libg.a(lib_a-__call_atexit.o)
 .bss           0x0000000000000000        0x0 /usr/local/Cellar/gcc-arm-none-eabi/20180627/bin/../lib/gcc/arm-none-eabi/7.3.1/../../../../arm-none-eabi/lib/thumb/v7e-m/fpv4-sp/hard/libg.a(lib_a-__call_atexit.o)
 .text.__call_exitprocs
                0x0000000000000000       0xe8 /usr/local/Cellar/gcc-arm-none-eabi/20180627/bin/../lib/gcc/arm-none-eabi/7.3.1/../../../../arm-none-eabi/lib/thumb/v7e-m/fpv4-sp/hard/libg.a(lib_a-__call_atexit.o)
 .text          0x0000000000000000        0x0 /usr/local/Cellar/gcc-arm-none-eabi/20180627/bin/../lib/gcc/arm-none-eabi/7.3.1/../../../../arm-none-eabi/lib/thumb/v7e-m/fpv4-sp/hard/libg.a(lib_a-atexit.o)
 .data          0x0000000000000000        0x0 /usr/local/Cellar/gcc-arm-none-eabi/20180627/bin/../lib/gcc/arm-none-eabi/7.3.1/../../../../arm-none-eabi/lib/thumb/v7e-m/fpv4-sp/hard/libg.a(lib_a-atexit.o)
 .bss           0x0000000000000000        0x0 /usr/local/Cellar/gcc-arm-none-eabi/20180627/bin/../lib/gcc/arm-none-eabi/7.3.1/../../../../arm-none-eabi/lib/thumb/v7e-m/fpv4-sp/hard/libg.a(lib_a-atexit.o)
 .text          0x0000000000000000        0x0 /usr/local/Cellar/gcc-arm-none-eabi/20180627/bin/../lib/gcc/arm-none-eabi/7.3.1/../../../../arm-none-eabi/lib/thumb/v7e-m/fpv4-sp/hard/libg.a(lib_a-fini.o)
 .data          0x0000000000000000        0x0 /usr/local/Cellar/gcc-arm-none-eabi/20180627/bin/../lib/gcc/arm-none-eabi/7.3.1/../../../../arm-none-eabi/lib/thumb/v7e-m/fpv4-sp/hard/libg.a(lib_a-fini.o)
 .bss           0x0000000000000000        0x0 /usr/local/Cellar/gcc-arm-none-eabi/20180627/bin/../lib/gcc/arm-none-eabi/7.3.1/../../../../arm-none-eabi/lib/thumb/v7e-m/fpv4-sp/hard/libg.a(lib_a-fini.o)
 .text          0x0000000000000000        0x0 /usr/local/Cellar/gcc-arm-none-eabi/20180627/bin/../lib/gcc/arm-none-eabi/7.3.1/../../../../arm-none-eabi/lib/thumb/v7e-m/fpv4-sp/hard/libg.a(lib_a-lock.o)
 .data          0x0000000000000000        0x0 /usr/local/Cellar/gcc-arm-none-eabi/20180627/bin/../lib/gcc/arm-none-eabi/7.3.1/../../../../arm-none-eabi/lib/thumb/v7e-m/fpv4-sp/hard/libg.a(lib_a-lock.o)
 .bss           0x0000000000000000        0x0 /usr/local/Cellar/gcc-arm-none-eabi/20180627/bin/../lib/gcc/arm-none-eabi/7.3.1/../../../../arm-none-eabi/lib/thumb/v7e-m/fpv4-sp/hard/libg.a(lib_a-lock.o)
 .text.__retarget_lock_init
                0x0000000000000000        0x4 /usr/local/Cellar/gcc-arm-none-eabi/20180627/bin/../lib/gcc/arm-none-eabi/7.3.1/../../../../arm-none-eabi/lib/thumb/v7e-m/fpv4-sp/hard/libg.a(lib_a-lock.o)
 .text.__retarget_lock_init_recursive
                0x0000000000000000        0x4 /usr/local/Cellar/gcc-arm-none-eabi/20180627/bin/../lib/gcc/arm-none-eabi/7.3.1/../../../../arm-none-eabi/lib/thumb/v7e-m/fpv4-sp/hard/libg.a(lib_a-lock.o)
 .text.__retarget_lock_close
                0x0000000000000000        0x4 /usr/local/Cellar/gcc-arm-none-eabi/20180627/bin/../lib/gcc/arm-none-eabi/7.3.1/../../../../arm-none-eabi/lib/thumb/v7e-m/fpv4-sp/hard/libg.a(lib_a-lock.o)
 .text.__retarget_lock_close_recursive
                0x0000000000000000        0x4 /usr/local/Cellar/gcc-arm-none-eabi/20180627/bin/../lib/gcc/arm-none-eabi/7.3.1/../../../../arm-none-eabi/lib/thumb/v7e-m/fpv4-sp/hard/libg.a(lib_a-lock.o)
 .text.__retarget_lock_acquire
                0x0000000000000000        0x4 /usr/local/Cellar/gcc-arm-none-eabi/20180627/bin/../lib/gcc/arm-none-eabi/7.3.1/../../../../arm-none-eabi/lib/thumb/v7e-m/fpv4-sp/hard/libg.a(lib_a-lock.o)
 .text.__retarget_lock_try_acquire
                0x0000000000000000        0x4 /usr/local/Cellar/gcc-arm-none-eabi/20180627/bin/../lib/gcc/arm-none-eabi/7.3.1/../../../../arm-none-eabi/lib/thumb/v7e-m/fpv4-sp/hard/libg.a(lib_a-lock.o)
 .text.__retarget_lock_try_acquire_recursive
                0x0000000000000000        0x4 /usr/local/Cellar/gcc-arm-none-eabi/20180627/bin/../lib/gcc/arm-none-eabi/7.3.1/../../../../arm-none-eabi/lib/thumb/v7e-m/fpv4-sp/hard/libg.a(lib_a-lock.o)
 .text.__retarget_lock_release
                0x0000000000000000        0x4 /usr/local/Cellar/gcc-arm-none-eabi/20180627/bin/../lib/gcc/arm-none-eabi/7.3.1/../../../../arm-none-eabi/lib/thumb/v7e-m/fpv4-sp/hard/libg.a(lib_a-lock.o)
 .text          0x0000000000000000        0x0 /usr/local/Cellar/gcc-arm-none-eabi/20180627/bin/../lib/gcc/arm-none-eabi/7.3.1/../../../../arm-none-eabi/lib/thumb/v7e-m/fpv4-sp/hard/libg.a(lib_a-__atexit.o)
 .data          0x0000000000000000        0x0 /usr/local/Cellar/gcc-arm-none-eabi/20180627/bin/../lib/gcc/arm-none-eabi/7.3.1/../../../../arm-none-eabi/lib/thumb/v7e-m/fpv4-sp/hard/libg.a(lib_a-__atexit.o)
 .bss           0x0000000000000000        0x0 /usr/local/Cellar/gcc-arm-none-eabi/20180627/bin/../lib/gcc/arm-none-eabi/7.3.1/../../../../arm-none-eabi/lib/thumb/v7e-m/fpv4-sp/hard/libg.a(lib_a-__atexit.o)
 .text          0x0000000000000000        0x0 /usr/local/Cellar/gcc-arm-none-eabi/20180627/bin/../lib/gcc/arm-none-eabi/7.3.1/../../../../arm-none-eabi/lib/thumb/v7e-m/fpv4-sp/hard/librdimon.a(rdimon-syscalls.o)
 .data          0x0000000000000000        0x0 /usr/local/Cellar/gcc-arm-none-eabi/20180627/bin/../lib/gcc/arm-none-eabi/7.3.1/../../../../arm-none-eabi/lib/thumb/v7e-m/fpv4-sp/hard/librdimon.a(rdimon-syscalls.o)
 .bss           0x0000000000000000        0x0 /usr/local/Cellar/gcc-arm-none-eabi/20180627/bin/../lib/gcc/arm-none-eabi/7.3.1/../../../../arm-none-eabi/lib/thumb/v7e-m/fpv4-sp/hard/librdimon.a(rdimon-syscalls.o)
 .text.findslot
                0x0000000000000000       0x38 /usr/local/Cellar/gcc-arm-none-eabi/20180627/bin/../lib/gcc/arm-none-eabi/7.3.1/../../../../arm-none-eabi/lib/thumb/v7e-m/fpv4-sp/hard/librdimon.a(rdimon-syscalls.o)
 .text.checkerror.part.0
                0x0000000000000000       0x1c /usr/local/Cellar/gcc-arm-none-eabi/20180627/bin/../lib/gcc/arm-none-eabi/7.3.1/../../../../arm-none-eabi/lib/thumb/v7e-m/fpv4-sp/hard/librdimon.a(rdimon-syscalls.o)
 .text._swiread
                0x0000000000000000       0x28 /usr/local/Cellar/gcc-arm-none-eabi/20180627/bin/../lib/gcc/arm-none-eabi/7.3.1/../../../../arm-none-eabi/lib/thumb/v7e-m/fpv4-sp/hard/librdimon.a(rdimon-syscalls.o)
 .text._read    0x0000000000000000       0x50 /usr/local/Cellar/gcc-arm-none-eabi/20180627/bin/../lib/gcc/arm-none-eabi/7.3.1/../../../../arm-none-eabi/lib/thumb/v7e-m/fpv4-sp/hard/librdimon.a(rdimon-syscalls.o)
 .text._swilseek
                0x0000000000000000       0x9c /usr/local/Cellar/gcc-arm-none-eabi/20180627/bin/../lib/gcc/arm-none-eabi/7.3.1/../../../../arm-none-eabi/lib/thumb/v7e-m/fpv4-sp/hard/librdimon.a(rdimon-syscalls.o)
 .text._lseek   0x0000000000000000        0x4 /usr/local/Cellar/gcc-arm-none-eabi/20180627/bin/../lib/gcc/arm-none-eabi/7.3.1/../../../../arm-none-eabi/lib/thumb/v7e-m/fpv4-sp/hard/librdimon.a(rdimon-syscalls.o)
 .text._swiwrite
                0x0000000000000000       0x28 /usr/local/Cellar/gcc-arm-none-eabi/20180627/bin/../lib/gcc/arm-none-eabi/7.3.1/../../../../arm-none-eabi/lib/thumb/v7e-m/fpv4-sp/hard/librdimon.a(rdimon-syscalls.o)
 .text._write   0x0000000000000000       0x74 /usr/local/Cellar/gcc-arm-none-eabi/20180627/bin/../lib/gcc/arm-none-eabi/7.3.1/../../../../arm-none-eabi/lib/thumb/v7e-m/fpv4-sp/hard/librdimon.a(rdimon-syscalls.o)
 .text._swiclose
                0x0000000000000000       0x28 /usr/local/Cellar/gcc-arm-none-eabi/20180627/bin/../lib/gcc/arm-none-eabi/7.3.1/../../../../arm-none-eabi/lib/thumb/v7e-m/fpv4-sp/hard/librdimon.a(rdimon-syscalls.o)
 .text._close   0x0000000000000000       0x6c /usr/local/Cellar/gcc-arm-none-eabi/20180627/bin/../lib/gcc/arm-none-eabi/7.3.1/../../../../arm-none-eabi/lib/thumb/v7e-m/fpv4-sp/hard/librdimon.a(rdimon-syscalls.o)
 .text._getpid  0x0000000000000000        0x4 /usr/local/Cellar/gcc-arm-none-eabi/20180627/bin/../lib/gcc/arm-none-eabi/7.3.1/../../../../arm-none-eabi/lib/thumb/v7e-m/fpv4-sp/hard/librdimon.a(rdimon-syscalls.o)
 .text._sbrk    0x0000000000000000       0x4c /usr/local/Cellar/gcc-arm-none-eabi/20180627/bin/../lib/gcc/arm-none-eabi/7.3.1/../../../../arm-none-eabi/lib/thumb/v7e-m/fpv4-sp/hard/librdimon.a(rdimon-syscalls.o)
 .text._swistat
                0x0000000000000000       0x48 /usr/local/Cellar/gcc-arm-none-eabi/20180627/bin/../lib/gcc/arm-none-eabi/7.3.1/../../../../arm-none-eabi/lib/thumb/v7e-m/fpv4-sp/hard/librdimon.a(rdimon-syscalls.o)
 .text._fstat   0x0000000000000000       0x1c /usr/local/Cellar/gcc-arm-none-eabi/20180627/bin/../lib/gcc/arm-none-eabi/7.3.1/../../../../arm-none-eabi/lib/thumb/v7e-m/fpv4-sp/hard/librdimon.a(rdimon-syscalls.o)
 .text._stat    0x0000000000000000       0x3c /usr/local/Cellar/gcc-arm-none-eabi/20180627/bin/../lib/gcc/arm-none-eabi/7.3.1/../../../../arm-none-eabi/lib/thumb/v7e-m/fpv4-sp/hard/librdimon.a(rdimon-syscalls.o)
 .text._swiopen
                0x0000000000000000       0xd8 /usr/local/Cellar/gcc-arm-none-eabi/20180627/bin/../lib/gcc/arm-none-eabi/7.3.1/../../../../arm-none-eabi/lib/thumb/v7e-m/fpv4-sp/hard/librdimon.a(rdimon-syscalls.o)
 .text._open    0x0000000000000000       0x14 /usr/local/Cellar/gcc-arm-none-eabi/20180627/bin/../lib/gcc/arm-none-eabi/7.3.1/../../../../arm-none-eabi/lib/thumb/v7e-m/fpv4-sp/hard/librdimon.a(rdimon-syscalls.o)
 .text._get_semihosting_exts
                0x0000000000000000       0xd0 /usr/local/Cellar/gcc-arm-none-eabi/20180627/bin/../lib/gcc/arm-none-eabi/7.3.1/../../../../arm-none-eabi/lib/thumb/v7e-m/fpv4-sp/hard/librdimon.a(rdimon-syscalls.o)
 .text.initialise_semihosting_exts
                0x0000000000000000       0x3c /usr/local/Cellar/gcc-arm-none-eabi/20180627/bin/../lib/gcc/arm-none-eabi/7.3.1/../../../../arm-none-eabi/lib/thumb/v7e-m/fpv4-sp/hard/librdimon.a(rdimon-syscalls.o)
 .text._has_ext_exit_extended
                0x0000000000000000       0x18 /usr/local/Cellar/gcc-arm-none-eabi/20180627/bin/../lib/gcc/arm-none-eabi/7.3.1/../../../../arm-none-eabi/lib/thumb/v7e-m/fpv4-sp/hard/librdimon.a(rdimon-syscalls.o)
 .text._has_ext_stdout_stderr
                0x0000000000000000       0x18 /usr/local/Cellar/gcc-arm-none-eabi/20180627/bin/../lib/gcc/arm-none-eabi/7.3.1/../../../../arm-none-eabi/lib/thumb/v7e-m/fpv4-sp/hard/librdimon.a(rdimon-syscalls.o)
 .text.initialise_monitor_handles
                0x0000000000000000       0xfc /usr/local/Cellar/gcc-arm-none-eabi/20180627/bin/../lib/gcc/arm-none-eabi/7.3.1/../../../../arm-none-eabi/lib/thumb/v7e-m/fpv4-sp/hard/librdimon.a(rdimon-syscalls.o)
 .text._link    0x0000000000000000       0x10 /usr/local/Cellar/gcc-arm-none-eabi/20180627/bin/../lib/gcc/arm-none-eabi/7.3.1/../../../../arm-none-eabi/lib/thumb/v7e-m/fpv4-sp/hard/librdimon.a(rdimon-syscalls.o)
 .text._unlink  0x0000000000000000       0x3c /usr/local/Cellar/gcc-arm-none-eabi/20180627/bin/../lib/gcc/arm-none-eabi/7.3.1/../../../../arm-none-eabi/lib/thumb/v7e-m/fpv4-sp/hard/librdimon.a(rdimon-syscalls.o)
 .text._gettimeofday
                0x0000000000000000       0x2c /usr/local/Cellar/gcc-arm-none-eabi/20180627/bin/../lib/gcc/arm-none-eabi/7.3.1/../../../../arm-none-eabi/lib/thumb/v7e-m/fpv4-sp/hard/librdimon.a(rdimon-syscalls.o)
 .text._clock   0x0000000000000000       0x14 /usr/local/Cellar/gcc-arm-none-eabi/20180627/bin/../lib/gcc/arm-none-eabi/7.3.1/../../../../arm-none-eabi/lib/thumb/v7e-m/fpv4-sp/hard/librdimon.a(rdimon-syscalls.o)
 .text._times   0x0000000000000000       0x20 /usr/local/Cellar/gcc-arm-none-eabi/20180627/bin/../lib/gcc/arm-none-eabi/7.3.1/../../../../arm-none-eabi/lib/thumb/v7e-m/fpv4-sp/hard/librdimon.a(rdimon-syscalls.o)
 .text._isatty  0x0000000000000000       0x3c /usr/local/Cellar/gcc-arm-none-eabi/20180627/bin/../lib/gcc/arm-none-eabi/7.3.1/../../../../arm-none-eabi/lib/thumb/v7e-m/fpv4-sp/hard/librdimon.a(rdimon-syscalls.o)
 .text._system  0x0000000000000000       0x44 /usr/local/Cellar/gcc-arm-none-eabi/20180627/bin/../lib/gcc/arm-none-eabi/7.3.1/../../../../arm-none-eabi/lib/thumb/v7e-m/fpv4-sp/hard/librdimon.a(rdimon-syscalls.o)
 .text._rename  0x0000000000000000       0x3c /usr/local/Cellar/gcc-arm-none-eabi/20180627/bin/../lib/gcc/arm-none-eabi/7.3.1/../../../../arm-none-eabi/lib/thumb/v7e-m/fpv4-sp/hard/librdimon.a(rdimon-syscalls.o)
 .bss.heap_end.7535
                0x0000000000000000        0x4 /usr/local/Cellar/gcc-arm-none-eabi/20180627/bin/../lib/gcc/arm-none-eabi/7.3.1/../../../../arm-none-eabi/lib/thumb/v7e-m/fpv4-sp/hard/librdimon.a(rdimon-syscalls.o)
 .bss.monitor_stderr
                0x0000000000000000        0x4 /usr/local/Cellar/gcc-arm-none-eabi/20180627/bin/../lib/gcc/arm-none-eabi/7.3.1/../../../../arm-none-eabi/lib/thumb/v7e-m/fpv4-sp/hard/librdimon.a(rdimon-syscalls.o)
 .bss.monitor_stdin
                0x0000000000000000        0x4 /usr/local/Cellar/gcc-arm-none-eabi/20180627/bin/../lib/gcc/arm-none-eabi/7.3.1/../../../../arm-none-eabi/lib/thumb/v7e-m/fpv4-sp/hard/librdimon.a(rdimon-syscalls.o)
 .bss.monitor_stdout
                0x0000000000000000        0x4 /usr/local/Cellar/gcc-arm-none-eabi/20180627/bin/../lib/gcc/arm-none-eabi/7.3.1/../../../../arm-none-eabi/lib/thumb/v7e-m/fpv4-sp/hard/librdimon.a(rdimon-syscalls.o)
 .bss.openfiles
                0x0000000000000000       0xa0 /usr/local/Cellar/gcc-arm-none-eabi/20180627/bin/../lib/gcc/arm-none-eabi/7.3.1/../../../../arm-none-eabi/lib/thumb/v7e-m/fpv4-sp/hard/librdimon.a(rdimon-syscalls.o)
 .data.__heap_limit
                0x0000000000000000        0x4 /usr/local/Cellar/gcc-arm-none-eabi/20180627/bin/../lib/gcc/arm-none-eabi/7.3.1/../../../../arm-none-eabi/lib/thumb/v7e-m/fpv4-sp/hard/librdimon.a(rdimon-syscalls.o)
 .data.supports_ext_exit_extended
                0x0000000000000000        0x4 /usr/local/Cellar/gcc-arm-none-eabi/20180627/bin/../lib/gcc/arm-none-eabi/7.3.1/../../../../arm-none-eabi/lib/thumb/v7e-m/fpv4-sp/hard/librdimon.a(rdimon-syscalls.o)
 .data.supports_ext_stdout_stderr
                0x0000000000000000        0x4 /usr/local/Cellar/gcc-arm-none-eabi/20180627/bin/../lib/gcc/arm-none-eabi/7.3.1/../../../../arm-none-eabi/lib/thumb/v7e-m/fpv4-sp/hard/librdimon.a(rdimon-syscalls.o)
 .rodata._get_semihosting_exts.str1.4
                0x0000000000000000       0x16 /usr/local/Cellar/gcc-arm-none-eabi/20180627/bin/../lib/gcc/arm-none-eabi/7.3.1/../../../../arm-none-eabi/lib/thumb/v7e-m/fpv4-sp/hard/librdimon.a(rdimon-syscalls.o)
 .rodata.initialise_monitor_handles.str1.4
                0x0000000000000000        0x4 /usr/local/Cellar/gcc-arm-none-eabi/20180627/bin/../lib/gcc/arm-none-eabi/7.3.1/../../../../arm-none-eabi/lib/thumb/v7e-m/fpv4-sp/hard/librdimon.a(rdimon-syscalls.o)
 .debug_frame   0x0000000000000000      0x418 /usr/local/Cellar/gcc-arm-none-eabi/20180627/bin/../lib/gcc/arm-none-eabi/7.3.1/../../../../arm-none-eabi/lib/thumb/v7e-m/fpv4-sp/hard/librdimon.a(rdimon-syscalls.o)
 .ARM.attributes
                0x0000000000000000       0x34 /usr/local/Cellar/gcc-arm-none-eabi/20180627/bin/../lib/gcc/arm-none-eabi/7.3.1/../../../../arm-none-eabi/lib/thumb/v7e-m/fpv4-sp/hard/librdimon.a(rdimon-syscalls.o)
 .text          0x0000000000000000        0x0 /usr/local/Cellar/gcc-arm-none-eabi/20180627/bin/../lib/gcc/arm-none-eabi/7.3.1/../../../../arm-none-eabi/lib/thumb/v7e-m/fpv4-sp/hard/librdimon.a(rdimon-_exit.o)
 .data          0x0000000000000000        0x0 /usr/local/Cellar/gcc-arm-none-eabi/20180627/bin/../lib/gcc/arm-none-eabi/7.3.1/../../../../arm-none-eabi/lib/thumb/v7e-m/fpv4-sp/hard/librdimon.a(rdimon-_exit.o)
 .bss           0x0000000000000000        0x0 /usr/local/Cellar/gcc-arm-none-eabi/20180627/bin/../lib/gcc/arm-none-eabi/7.3.1/../../../../arm-none-eabi/lib/thumb/v7e-m/fpv4-sp/hard/librdimon.a(rdimon-_exit.o)
 .text._exit    0x0000000000000000        0x8 /usr/local/Cellar/gcc-arm-none-eabi/20180627/bin/../lib/gcc/arm-none-eabi/7.3.1/../../../../arm-none-eabi/lib/thumb/v7e-m/fpv4-sp/hard/librdimon.a(rdimon-_exit.o)
 .debug_frame   0x0000000000000000       0x20 /usr/local/Cellar/gcc-arm-none-eabi/20180627/bin/../lib/gcc/arm-none-eabi/7.3.1/../../../../arm-none-eabi/lib/thumb/v7e-m/fpv4-sp/hard/librdimon.a(rdimon-_exit.o)
 .ARM.attributes
                0x0000000000000000       0x34 /usr/local/Cellar/gcc-arm-none-eabi/20180627/bin/../lib/gcc/arm-none-eabi/7.3.1/../../../../arm-none-eabi/lib/thumb/v7e-m/fpv4-sp/hard/librdimon.a(rdimon-_exit.o)
 .text          0x0000000000000000        0x0 /usr/local/Cellar/gcc-arm-none-eabi/20180627/bin/../lib/gcc/arm-none-eabi/7.3.1/../../../../arm-none-eabi/lib/thumb/v7e-m/fpv4-sp/hard/librdimon.a(rdimon-_kill.o)
 .data          0x0000000000000000        0x0 /usr/local/Cellar/gcc-arm-none-eabi/20180627/bin/../lib/gcc/arm-none-eabi/7.3.1/../../../../arm-none-eabi/lib/thumb/v7e-m/fpv4-sp/hard/librdimon.a(rdimon-_kill.o)
 .bss           0x0000000000000000        0x0 /usr/local/Cellar/gcc-arm-none-eabi/20180627/bin/../lib/gcc/arm-none-eabi/7.3.1/../../../../arm-none-eabi/lib/thumb/v7e-m/fpv4-sp/hard/librdimon.a(rdimon-_kill.o)
 .text._kill    0x0000000000000000       0x38 /usr/local/Cellar/gcc-arm-none-eabi/20180627/bin/../lib/gcc/arm-none-eabi/7.3.1/../../../../arm-none-eabi/lib/thumb/v7e-m/fpv4-sp/hard/librdimon.a(rdimon-_kill.o)
 .debug_frame   0x0000000000000000       0x30 /usr/local/Cellar/gcc-arm-none-eabi/20180627/bin/../lib/gcc/arm-none-eabi/7.3.1/../../../../arm-none-eabi/lib/thumb/v7e-m/fpv4-sp/hard/librdimon.a(rdimon-_kill.o)
 .ARM.attributes
                0x0000000000000000       0x34 /usr/local/Cellar/gcc-arm-none-eabi/20180627/bin/../lib/gcc/arm-none-eabi/7.3.1/../../../../arm-none-eabi/lib/thumb/v7e-m/fpv4-sp/hard/librdimon.a(rdimon-_kill.o)
 .text          0x0000000000000000        0x0 /usr/local/Cellar/gcc-arm-none-eabi/20180627/bin/../lib/gcc/arm-none-eabi/7.3.1/../../../../arm-none-eabi/lib/thumb/v7e-m/fpv4-sp/hard/libc.a(lib_a-errno.o)
 .data          0x0000000000000000        0x0 /usr/local/Cellar/gcc-arm-none-eabi/20180627/bin/../lib/gcc/arm-none-eabi/7.3.1/../../../../arm-none-eabi/lib/thumb/v7e-m/fpv4-sp/hard/libc.a(lib_a-errno.o)
 .bss           0x0000000000000000        0x0 /usr/local/Cellar/gcc-arm-none-eabi/20180627/bin/../lib/gcc/arm-none-eabi/7.3.1/../../../../arm-none-eabi/lib/thumb/v7e-m/fpv4-sp/hard/libc.a(lib_a-errno.o)
 .text.__errno  0x0000000000000000        0xc /usr/local/Cellar/gcc-arm-none-eabi/20180627/bin/../lib/gcc/arm-none-eabi/7.3.1/../../../../arm-none-eabi/lib/thumb/v7e-m/fpv4-sp/hard/libc.a(lib_a-errno.o)
 .debug_frame   0x0000000000000000       0x20 /usr/local/Cellar/gcc-arm-none-eabi/20180627/bin/../lib/gcc/arm-none-eabi/7.3.1/../../../../arm-none-eabi/lib/thumb/v7e-m/fpv4-sp/hard/libc.a(lib_a-errno.o)
 .ARM.attributes
                0x0000000000000000       0x34 /usr/local/Cellar/gcc-arm-none-eabi/20180627/bin/../lib/gcc/arm-none-eabi/7.3.1/../../../../arm-none-eabi/lib/thumb/v7e-m/fpv4-sp/hard/libc.a(lib_a-errno.o)
 .text          0x0000000000000000        0x0 /usr/local/Cellar/gcc-arm-none-eabi/20180627/bin/../lib/gcc/arm-none-eabi/7.3.1/../../../../arm-none-eabi/lib/thumb/v7e-m/fpv4-sp/hard/libc.a(lib_a-findfp.o)
 .data          0x0000000000000000        0x0 /usr/local/Cellar/gcc-arm-none-eabi/20180627/bin/../lib/gcc/arm-none-eabi/7.3.1/../../../../arm-none-eabi/lib/thumb/v7e-m/fpv4-sp/hard/libc.a(lib_a-findfp.o)
 .bss           0x0000000000000000        0x0 /usr/local/Cellar/gcc-arm-none-eabi/20180627/bin/../lib/gcc/arm-none-eabi/7.3.1/../../../../arm-none-eabi/lib/thumb/v7e-m/fpv4-sp/hard/libc.a(lib_a-findfp.o)
 .text.std      0x0000000000000000       0x50 /usr/local/Cellar/gcc-arm-none-eabi/20180627/bin/../lib/gcc/arm-none-eabi/7.3.1/../../../../arm-none-eabi/lib/thumb/v7e-m/fpv4-sp/hard/libc.a(lib_a-findfp.o)
 .text._cleanup_r
                0x0000000000000000        0xc /usr/local/Cellar/gcc-arm-none-eabi/20180627/bin/../lib/gcc/arm-none-eabi/7.3.1/../../../../arm-none-eabi/lib/thumb/v7e-m/fpv4-sp/hard/libc.a(lib_a-findfp.o)
 .text.__fp_lock
                0x0000000000000000       0x1c /usr/local/Cellar/gcc-arm-none-eabi/20180627/bin/../lib/gcc/arm-none-eabi/7.3.1/../../../../arm-none-eabi/lib/thumb/v7e-m/fpv4-sp/hard/libc.a(lib_a-findfp.o)
 .text.__fp_unlock
                0x0000000000000000       0x1c /usr/local/Cellar/gcc-arm-none-eabi/20180627/bin/../lib/gcc/arm-none-eabi/7.3.1/../../../../arm-none-eabi/lib/thumb/v7e-m/fpv4-sp/hard/libc.a(lib_a-findfp.o)
 .text.__sfmoreglue
                0x0000000000000000       0x30 /usr/local/Cellar/gcc-arm-none-eabi/20180627/bin/../lib/gcc/arm-none-eabi/7.3.1/../../../../arm-none-eabi/lib/thumb/v7e-m/fpv4-sp/hard/libc.a(lib_a-findfp.o)
 .text._cleanup
                0x0000000000000000       0x14 /usr/local/Cellar/gcc-arm-none-eabi/20180627/bin/../lib/gcc/arm-none-eabi/7.3.1/../../../../arm-none-eabi/lib/thumb/v7e-m/fpv4-sp/hard/libc.a(lib_a-findfp.o)
 .text.__sinit  0x0000000000000000       0x58 /usr/local/Cellar/gcc-arm-none-eabi/20180627/bin/../lib/gcc/arm-none-eabi/7.3.1/../../../../arm-none-eabi/lib/thumb/v7e-m/fpv4-sp/hard/libc.a(lib_a-findfp.o)
 .text.__sfp    0x0000000000000000       0xa4 /usr/local/Cellar/gcc-arm-none-eabi/20180627/bin/../lib/gcc/arm-none-eabi/7.3.1/../../../../arm-none-eabi/lib/thumb/v7e-m/fpv4-sp/hard/libc.a(lib_a-findfp.o)
 .text.__sfp_lock_acquire
                0x0000000000000000        0xc /usr/local/Cellar/gcc-arm-none-eabi/20180627/bin/../lib/gcc/arm-none-eabi/7.3.1/../../../../arm-none-eabi/lib/thumb/v7e-m/fpv4-sp/hard/libc.a(lib_a-findfp.o)
 .text.__sfp_lock_release
                0x0000000000000000        0xc /usr/local/Cellar/gcc-arm-none-eabi/20180627/bin/../lib/gcc/arm-none-eabi/7.3.1/../../../../arm-none-eabi/lib/thumb/v7e-m/fpv4-sp/hard/libc.a(lib_a-findfp.o)
 .text.__sinit_lock_acquire
                0x0000000000000000        0xc /usr/local/Cellar/gcc-arm-none-eabi/20180627/bin/../lib/gcc/arm-none-eabi/7.3.1/../../../../arm-none-eabi/lib/thumb/v7e-m/fpv4-sp/hard/libc.a(lib_a-findfp.o)
 .text.__sinit_lock_release
                0x0000000000000000        0xc /usr/local/Cellar/gcc-arm-none-eabi/20180627/bin/../lib/gcc/arm-none-eabi/7.3.1/../../../../arm-none-eabi/lib/thumb/v7e-m/fpv4-sp/hard/libc.a(lib_a-findfp.o)
 .text.__fp_lock_all
                0x0000000000000000       0x24 /usr/local/Cellar/gcc-arm-none-eabi/20180627/bin/../lib/gcc/arm-none-eabi/7.3.1/../../../../arm-none-eabi/lib/thumb/v7e-m/fpv4-sp/hard/libc.a(lib_a-findfp.o)
 .text.__fp_unlock_all
                0x0000000000000000       0x24 /usr/local/Cellar/gcc-arm-none-eabi/20180627/bin/../lib/gcc/arm-none-eabi/7.3.1/../../../../arm-none-eabi/lib/thumb/v7e-m/fpv4-sp/hard/libc.a(lib_a-findfp.o)
 .debug_frame   0x0000000000000000      0x148 /usr/local/Cellar/gcc-arm-none-eabi/20180627/bin/../lib/gcc/arm-none-eabi/7.3.1/../../../../arm-none-eabi/lib/thumb/v7e-m/fpv4-sp/hard/libc.a(lib_a-findfp.o)
 .ARM.attributes
                0x0000000000000000       0x34 /usr/local/Cellar/gcc-arm-none-eabi/20180627/bin/../lib/gcc/arm-none-eabi/7.3.1/../../../../arm-none-eabi/lib/thumb/v7e-m/fpv4-sp/hard/libc.a(lib_a-findfp.o)
 .text          0x0000000000000000        0x0 /usr/local/Cellar/gcc-arm-none-eabi/20180627/bin/../lib/gcc/arm-none-eabi/7.3.1/../../../../arm-none-eabi/lib/thumb/v7e-m/fpv4-sp/hard/libc.a(lib_a-fwalk.o)
 .data          0x0000000000000000        0x0 /usr/local/Cellar/gcc-arm-none-eabi/20180627/bin/../lib/gcc/arm-none-eabi/7.3.1/../../../../arm-none-eabi/lib/thumb/v7e-m/fpv4-sp/hard/libc.a(lib_a-fwalk.o)
 .bss           0x0000000000000000        0x0 /usr/local/Cellar/gcc-arm-none-eabi/20180627/bin/../lib/gcc/arm-none-eabi/7.3.1/../../../../arm-none-eabi/lib/thumb/v7e-m/fpv4-sp/hard/libc.a(lib_a-fwalk.o)
 .text._fwalk   0x0000000000000000       0x4c /usr/local/Cellar/gcc-arm-none-eabi/20180627/bin/../lib/gcc/arm-none-eabi/7.3.1/../../../../arm-none-eabi/lib/thumb/v7e-m/fpv4-sp/hard/libc.a(lib_a-fwalk.o)
 .text._fwalk_reent
                0x0000000000000000       0x54 /usr/local/Cellar/gcc-arm-none-eabi/20180627/bin/../lib/gcc/arm-none-eabi/7.3.1/../../../../arm-none-eabi/lib/thumb/v7e-m/fpv4-sp/hard/libc.a(lib_a-fwalk.o)
 .debug_frame   0x0000000000000000       0x54 /usr/local/Cellar/gcc-arm-none-eabi/20180627/bin/../lib/gcc/arm-none-eabi/7.3.1/../../../../arm-none-eabi/lib/thumb/v7e-m/fpv4-sp/hard/libc.a(lib_a-fwalk.o)
 .ARM.attributes
                0x0000000000000000       0x34 /usr/local/Cellar/gcc-arm-none-eabi/20180627/bin/../lib/gcc/arm-none-eabi/7.3.1/../../../../arm-none-eabi/lib/thumb/v7e-m/fpv4-sp/hard/libc.a(lib_a-fwalk.o)
 .text          0x0000000000000000        0x0 /usr/local/Cellar/gcc-arm-none-eabi/20180627/bin/../lib/gcc/arm-none-eabi/7.3.1/../../../../arm-none-eabi/lib/thumb/v7e-m/fpv4-sp/hard/libc.a(lib_a-mallocr.o)
 .data          0x0000000000000000        0x0 /usr/local/Cellar/gcc-arm-none-eabi/20180627/bin/../lib/gcc/arm-none-eabi/7.3.1/../../../../arm-none-eabi/lib/thumb/v7e-m/fpv4-sp/hard/libc.a(lib_a-mallocr.o)
 .bss           0x0000000000000000        0x0 /usr/local/Cellar/gcc-arm-none-eabi/20180627/bin/../lib/gcc/arm-none-eabi/7.3.1/../../../../arm-none-eabi/lib/thumb/v7e-m/fpv4-sp/hard/libc.a(lib_a-mallocr.o)
 .text._malloc_r
                0x0000000000000000      0x548 /usr/local/Cellar/gcc-arm-none-eabi/20180627/bin/../lib/gcc/arm-none-eabi/7.3.1/../../../../arm-none-eabi/lib/thumb/v7e-m/fpv4-sp/hard/libc.a(lib_a-mallocr.o)
 .bss.__malloc_current_mallinfo
                0x0000000000000000       0x28 /usr/local/Cellar/gcc-arm-none-eabi/20180627/bin/../lib/gcc/arm-none-eabi/7.3.1/../../../../arm-none-eabi/lib/thumb/v7e-m/fpv4-sp/hard/libc.a(lib_a-mallocr.o)
 .bss.__malloc_max_sbrked_mem
                0x0000000000000000        0x4 /usr/local/Cellar/gcc-arm-none-eabi/20180627/bin/../lib/gcc/arm-none-eabi/7.3.1/../../../../arm-none-eabi/lib/thumb/v7e-m/fpv4-sp/hard/libc.a(lib_a-mallocr.o)
 .bss.__malloc_max_total_mem
                0x0000000000000000        0x4 /usr/local/Cellar/gcc-arm-none-eabi/20180627/bin/../lib/gcc/arm-none-eabi/7.3.1/../../../../arm-none-eabi/lib/thumb/v7e-m/fpv4-sp/hard/libc.a(lib_a-mallocr.o)
 .bss.__malloc_top_pad
                0x0000000000000000        0x4 /usr/local/Cellar/gcc-arm-none-eabi/20180627/bin/../lib/gcc/arm-none-eabi/7.3.1/../../../../arm-none-eabi/lib/thumb/v7e-m/fpv4-sp/hard/libc.a(lib_a-mallocr.o)
 .data.__malloc_av_
                0x0000000000000000      0x408 /usr/local/Cellar/gcc-arm-none-eabi/20180627/bin/../lib/gcc/arm-none-eabi/7.3.1/../../../../arm-none-eabi/lib/thumb/v7e-m/fpv4-sp/hard/libc.a(lib_a-mallocr.o)
 .data.__malloc_sbrk_base
                0x0000000000000000        0x4 /usr/local/Cellar/gcc-arm-none-eabi/20180627/bin/../lib/gcc/arm-none-eabi/7.3.1/../../../../arm-none-eabi/lib/thumb/v7e-m/fpv4-sp/hard/libc.a(lib_a-mallocr.o)
 .data.__malloc_trim_threshold
                0x0000000000000000        0x4 /usr/local/Cellar/gcc-arm-none-eabi/20180627/bin/../lib/gcc/arm-none-eabi/7.3.1/../../../../arm-none-eabi/lib/thumb/v7e-m/fpv4-sp/hard/libc.a(lib_a-mallocr.o)
 .debug_frame   0x0000000000000000       0x54 /usr/local/Cellar/gcc-arm-none-eabi/20180627/bin/../lib/gcc/arm-none-eabi/7.3.1/../../../../arm-none-eabi/lib/thumb/v7e-m/fpv4-sp/hard/libc.a(lib_a-mallocr.o)
 .ARM.attributes
                0x0000000000000000       0x34 /usr/local/Cellar/gcc-arm-none-eabi/20180627/bin/../lib/gcc/arm-none-eabi/7.3.1/../../../../arm-none-eabi/lib/thumb/v7e-m/fpv4-sp/hard/libc.a(lib_a-mallocr.o)
 .text          0x0000000000000000        0x0 /usr/local/Cellar/gcc-arm-none-eabi/20180627/bin/../lib/gcc/arm-none-eabi/7.3.1/../../../../arm-none-eabi/lib/thumb/v7e-m/fpv4-sp/hard/libc.a(lib_a-mlock.o)
 .data          0x0000000000000000        0x0 /usr/local/Cellar/gcc-arm-none-eabi/20180627/bin/../lib/gcc/arm-none-eabi/7.3.1/../../../../arm-none-eabi/lib/thumb/v7e-m/fpv4-sp/hard/libc.a(lib_a-mlock.o)
 .bss           0x0000000000000000        0x0 /usr/local/Cellar/gcc-arm-none-eabi/20180627/bin/../lib/gcc/arm-none-eabi/7.3.1/../../../../arm-none-eabi/lib/thumb/v7e-m/fpv4-sp/hard/libc.a(lib_a-mlock.o)
 .text.__malloc_lock
                0x0000000000000000        0xc /usr/local/Cellar/gcc-arm-none-eabi/20180627/bin/../lib/gcc/arm-none-eabi/7.3.1/../../../../arm-none-eabi/lib/thumb/v7e-m/fpv4-sp/hard/libc.a(lib_a-mlock.o)
 .text.__malloc_unlock
                0x0000000000000000        0xc /usr/local/Cellar/gcc-arm-none-eabi/20180627/bin/../lib/gcc/arm-none-eabi/7.3.1/../../../../arm-none-eabi/lib/thumb/v7e-m/fpv4-sp/hard/libc.a(lib_a-mlock.o)
 .debug_frame   0x0000000000000000       0x30 /usr/local/Cellar/gcc-arm-none-eabi/20180627/bin/../lib/gcc/arm-none-eabi/7.3.1/../../../../arm-none-eabi/lib/thumb/v7e-m/fpv4-sp/hard/libc.a(lib_a-mlock.o)
 .ARM.attributes
                0x0000000000000000       0x34 /usr/local/Cellar/gcc-arm-none-eabi/20180627/bin/../lib/gcc/arm-none-eabi/7.3.1/../../../../arm-none-eabi/lib/thumb/v7e-m/fpv4-sp/hard/libc.a(lib_a-mlock.o)
 .text          0x0000000000000000        0x0 /usr/local/Cellar/gcc-arm-none-eabi/20180627/bin/../lib/gcc/arm-none-eabi/7.3.1/../../../../arm-none-eabi/lib/thumb/v7e-m/fpv4-sp/hard/libc.a(lib_a-sbrkr.o)
 .data          0x0000000000000000        0x0 /usr/local/Cellar/gcc-arm-none-eabi/20180627/bin/../lib/gcc/arm-none-eabi/7.3.1/../../../../arm-none-eabi/lib/thumb/v7e-m/fpv4-sp/hard/libc.a(lib_a-sbrkr.o)
 .bss           0x0000000000000000        0x0 /usr/local/Cellar/gcc-arm-none-eabi/20180627/bin/../lib/gcc/arm-none-eabi/7.3.1/../../../../arm-none-eabi/lib/thumb/v7e-m/fpv4-sp/hard/libc.a(lib_a-sbrkr.o)
 .text._sbrk_r  0x0000000000000000       0x24 /usr/local/Cellar/gcc-arm-none-eabi/20180627/bin/../lib/gcc/arm-none-eabi/7.3.1/../../../../arm-none-eabi/lib/thumb/v7e-m/fpv4-sp/hard/libc.a(lib_a-sbrkr.o)
 .debug_frame   0x0000000000000000       0x2c /usr/local/Cellar/gcc-arm-none-eabi/20180627/bin/../lib/gcc/arm-none-eabi/7.3.1/../../../../arm-none-eabi/lib/thumb/v7e-m/fpv4-sp/hard/libc.a(lib_a-sbrkr.o)
 .ARM.attributes
                0x0000000000000000       0x34 /usr/local/Cellar/gcc-arm-none-eabi/20180627/bin/../lib/gcc/arm-none-eabi/7.3.1/../../../../arm-none-eabi/lib/thumb/v7e-m/fpv4-sp/hard/libc.a(lib_a-sbrkr.o)
 .text          0x0000000000000000        0x0 /usr/local/Cellar/gcc-arm-none-eabi/20180627/bin/../lib/gcc/arm-none-eabi/7.3.1/../../../../arm-none-eabi/lib/thumb/v7e-m/fpv4-sp/hard/libc.a(lib_a-stdio.o)
 .data          0x0000000000000000        0x0 /usr/local/Cellar/gcc-arm-none-eabi/20180627/bin/../lib/gcc/arm-none-eabi/7.3.1/../../../../arm-none-eabi/lib/thumb/v7e-m/fpv4-sp/hard/libc.a(lib_a-stdio.o)
 .bss           0x0000000000000000        0x0 /usr/local/Cellar/gcc-arm-none-eabi/20180627/bin/../lib/gcc/arm-none-eabi/7.3.1/../../../../arm-none-eabi/lib/thumb/v7e-m/fpv4-sp/hard/libc.a(lib_a-stdio.o)
 .text.__sread  0x0000000000000000       0x24 /usr/local/Cellar/gcc-arm-none-eabi/20180627/bin/../lib/gcc/arm-none-eabi/7.3.1/../../../../arm-none-eabi/lib/thumb/v7e-m/fpv4-sp/hard/libc.a(lib_a-stdio.o)
 .text.__seofread
                0x0000000000000000        0x4 /usr/local/Cellar/gcc-arm-none-eabi/20180627/bin/../lib/gcc/arm-none-eabi/7.3.1/../../../../arm-none-eabi/lib/thumb/v7e-m/fpv4-sp/hard/libc.a(lib_a-stdio.o)
 .text.__swrite
                0x0000000000000000       0x3c /usr/local/Cellar/gcc-arm-none-eabi/20180627/bin/../lib/gcc/arm-none-eabi/7.3.1/../../../../arm-none-eabi/lib/thumb/v7e-m/fpv4-sp/hard/libc.a(lib_a-stdio.o)
 .text.__sseek  0x0000000000000000       0x20 /usr/local/Cellar/gcc-arm-none-eabi/20180627/bin/../lib/gcc/arm-none-eabi/7.3.1/../../../../arm-none-eabi/lib/thumb/v7e-m/fpv4-sp/hard/libc.a(lib_a-stdio.o)
 .text.__sclose
                0x0000000000000000        0x8 /usr/local/Cellar/gcc-arm-none-eabi/20180627/bin/../lib/gcc/arm-none-eabi/7.3.1/../../../../arm-none-eabi/lib/thumb/v7e-m/fpv4-sp/hard/libc.a(lib_a-stdio.o)
 .debug_frame   0x0000000000000000       0x88 /usr/local/Cellar/gcc-arm-none-eabi/20180627/bin/../lib/gcc/arm-none-eabi/7.3.1/../../../../arm-none-eabi/lib/thumb/v7e-m/fpv4-sp/hard/libc.a(lib_a-stdio.o)
 .ARM.attributes
                0x0000000000000000       0x34 /usr/local/Cellar/gcc-arm-none-eabi/20180627/bin/../lib/gcc/arm-none-eabi/7.3.1/../../../../arm-none-eabi/lib/thumb/v7e-m/fpv4-sp/hard/libc.a(lib_a-stdio.o)
 .text          0x0000000000000000       0xdc /usr/local/Cellar/gcc-arm-none-eabi/20180627/bin/../lib/gcc/arm-none-eabi/7.3.1/../../../../arm-none-eabi/lib/thumb/v7e-m/fpv4-sp/hard/libc.a(lib_a-strlen.o)
 .data          0x0000000000000000        0x0 /usr/local/Cellar/gcc-arm-none-eabi/20180627/bin/../lib/gcc/arm-none-eabi/7.3.1/../../../../arm-none-eabi/lib/thumb/v7e-m/fpv4-sp/hard/libc.a(lib_a-strlen.o)
 .bss           0x0000000000000000        0x0 /usr/local/Cellar/gcc-arm-none-eabi/20180627/bin/../lib/gcc/arm-none-eabi/7.3.1/../../../../arm-none-eabi/lib/thumb/v7e-m/fpv4-sp/hard/libc.a(lib_a-strlen.o)
 .ARM.attributes
                0x0000000000000000       0x20 /usr/local/Cellar/gcc-arm-none-eabi/20180627/bin/../lib/gcc/arm-none-eabi/7.3.1/../../../../arm-none-eabi/lib/thumb/v7e-m/fpv4-sp/hard/libc.a(lib_a-strlen.o)
 .text          0x0000000000000000        0x0 /usr/local/Cellar/gcc-arm-none-eabi/20180627/bin/../lib/gcc/arm-none-eabi/7.3.1/../../../../arm-none-eabi/lib/thumb/v7e-m/fpv4-sp/hard/libc.a(lib_a-writer.o)
 .data          0x0000000000000000        0x0 /usr/local/Cellar/gcc-arm-none-eabi/20180627/bin/../lib/gcc/arm-none-eabi/7.3.1/../../../../arm-none-eabi/lib/thumb/v7e-m/fpv4-sp/hard/libc.a(lib_a-writer.o)
 .bss           0x0000000000000000        0x0 /usr/local/Cellar/gcc-arm-none-eabi/20180627/bin/../lib/gcc/arm-none-eabi/7.3.1/../../../../arm-none-eabi/lib/thumb/v7e-m/fpv4-sp/hard/libc.a(lib_a-writer.o)
 .text._write_r
                0x0000000000000000       0x2c /usr/local/Cellar/gcc-arm-none-eabi/20180627/bin/../lib/gcc/arm-none-eabi/7.3.1/../../../../arm-none-eabi/lib/thumb/v7e-m/fpv4-sp/hard/libc.a(lib_a-writer.o)
 .debug_frame   0x0000000000000000       0x2c /usr/local/Cellar/gcc-arm-none-eabi/20180627/bin/../lib/gcc/arm-none-eabi/7.3.1/../../../../arm-none-eabi/lib/thumb/v7e-m/fpv4-sp/hard/libc.a(lib_a-writer.o)
 .ARM.attributes
                0x0000000000000000       0x34 /usr/local/Cellar/gcc-arm-none-eabi/20180627/bin/../lib/gcc/arm-none-eabi/7.3.1/../../../../arm-none-eabi/lib/thumb/v7e-m/fpv4-sp/hard/libc.a(lib_a-writer.o)
 .text          0x0000000000000000        0x0 /usr/local/Cellar/gcc-arm-none-eabi/20180627/bin/../lib/gcc/arm-none-eabi/7.3.1/../../../../arm-none-eabi/lib/thumb/v7e-m/fpv4-sp/hard/libc.a(lib_a-closer.o)
 .data          0x0000000000000000        0x0 /usr/local/Cellar/gcc-arm-none-eabi/20180627/bin/../lib/gcc/arm-none-eabi/7.3.1/../../../../arm-none-eabi/lib/thumb/v7e-m/fpv4-sp/hard/libc.a(lib_a-closer.o)
 .bss           0x0000000000000000        0x0 /usr/local/Cellar/gcc-arm-none-eabi/20180627/bin/../lib/gcc/arm-none-eabi/7.3.1/../../../../arm-none-eabi/lib/thumb/v7e-m/fpv4-sp/hard/libc.a(lib_a-closer.o)
 .text._close_r
                0x0000000000000000       0x24 /usr/local/Cellar/gcc-arm-none-eabi/20180627/bin/../lib/gcc/arm-none-eabi/7.3.1/../../../../arm-none-eabi/lib/thumb/v7e-m/fpv4-sp/hard/libc.a(lib_a-closer.o)
 .debug_frame   0x0000000000000000       0x2c /usr/local/Cellar/gcc-arm-none-eabi/20180627/bin/../lib/gcc/arm-none-eabi/7.3.1/../../../../arm-none-eabi/lib/thumb/v7e-m/fpv4-sp/hard/libc.a(lib_a-closer.o)
 .ARM.attributes
                0x0000000000000000       0x34 /usr/local/Cellar/gcc-arm-none-eabi/20180627/bin/../lib/gcc/arm-none-eabi/7.3.1/../../../../arm-none-eabi/lib/thumb/v7e-m/fpv4-sp/hard/libc.a(lib_a-closer.o)
 .text          0x0000000000000000        0x0 /usr/local/Cellar/gcc-arm-none-eabi/20180627/bin/../lib/gcc/arm-none-eabi/7.3.1/../../../../arm-none-eabi/lib/thumb/v7e-m/fpv4-sp/hard/libc.a(lib_a-fclose.o)
 .data          0x0000000000000000        0x0 /usr/local/Cellar/gcc-arm-none-eabi/20180627/bin/../lib/gcc/arm-none-eabi/7.3.1/../../../../arm-none-eabi/lib/thumb/v7e-m/fpv4-sp/hard/libc.a(lib_a-fclose.o)
 .bss           0x0000000000000000        0x0 /usr/local/Cellar/gcc-arm-none-eabi/20180627/bin/../lib/gcc/arm-none-eabi/7.3.1/../../../../arm-none-eabi/lib/thumb/v7e-m/fpv4-sp/hard/libc.a(lib_a-fclose.o)
 .text._fclose_r
                0x0000000000000000       0xd0 /usr/local/Cellar/gcc-arm-none-eabi/20180627/bin/../lib/gcc/arm-none-eabi/7.3.1/../../../../arm-none-eabi/lib/thumb/v7e-m/fpv4-sp/hard/libc.a(lib_a-fclose.o)
 .text.fclose   0x0000000000000000       0x10 /usr/local/Cellar/gcc-arm-none-eabi/20180627/bin/../lib/gcc/arm-none-eabi/7.3.1/../../../../arm-none-eabi/lib/thumb/v7e-m/fpv4-sp/hard/libc.a(lib_a-fclose.o)
 .debug_frame   0x0000000000000000       0x3c /usr/local/Cellar/gcc-arm-none-eabi/20180627/bin/../lib/gcc/arm-none-eabi/7.3.1/../../../../arm-none-eabi/lib/thumb/v7e-m/fpv4-sp/hard/libc.a(lib_a-fclose.o)
 .ARM.attributes
                0x0000000000000000       0x34 /usr/local/Cellar/gcc-arm-none-eabi/20180627/bin/../lib/gcc/arm-none-eabi/7.3.1/../../../../arm-none-eabi/lib/thumb/v7e-m/fpv4-sp/hard/libc.a(lib_a-fclose.o)
 .text          0x0000000000000000        0x0 /usr/local/Cellar/gcc-arm-none-eabi/20180627/bin/../lib/gcc/arm-none-eabi/7.3.1/../../../../arm-none-eabi/lib/thumb/v7e-m/fpv4-sp/hard/libc.a(lib_a-fflush.o)
 .data          0x0000000000000000        0x0 /usr/local/Cellar/gcc-arm-none-eabi/20180627/bin/../lib/gcc/arm-none-eabi/7.3.1/../../../../arm-none-eabi/lib/thumb/v7e-m/fpv4-sp/hard/libc.a(lib_a-fflush.o)
 .bss           0x0000000000000000        0x0 /usr/local/Cellar/gcc-arm-none-eabi/20180627/bin/../lib/gcc/arm-none-eabi/7.3.1/../../../../arm-none-eabi/lib/thumb/v7e-m/fpv4-sp/hard/libc.a(lib_a-fflush.o)
 .text.__sflush_r
                0x0000000000000000      0x154 /usr/local/Cellar/gcc-arm-none-eabi/20180627/bin/../lib/gcc/arm-none-eabi/7.3.1/../../../../arm-none-eabi/lib/thumb/v7e-m/fpv4-sp/hard/libc.a(lib_a-fflush.o)
 .text._fflush_r
                0x0000000000000000       0x5c /usr/local/Cellar/gcc-arm-none-eabi/20180627/bin/../lib/gcc/arm-none-eabi/7.3.1/../../../../arm-none-eabi/lib/thumb/v7e-m/fpv4-sp/hard/libc.a(lib_a-fflush.o)
 .text.fflush   0x0000000000000000       0x24 /usr/local/Cellar/gcc-arm-none-eabi/20180627/bin/../lib/gcc/arm-none-eabi/7.3.1/../../../../arm-none-eabi/lib/thumb/v7e-m/fpv4-sp/hard/libc.a(lib_a-fflush.o)
 .debug_frame   0x0000000000000000       0x5c /usr/local/Cellar/gcc-arm-none-eabi/20180627/bin/../lib/gcc/arm-none-eabi/7.3.1/../../../../arm-none-eabi/lib/thumb/v7e-m/fpv4-sp/hard/libc.a(lib_a-fflush.o)
 .ARM.attributes
                0x0000000000000000       0x34 /usr/local/Cellar/gcc-arm-none-eabi/20180627/bin/../lib/gcc/arm-none-eabi/7.3.1/../../../../arm-none-eabi/lib/thumb/v7e-m/fpv4-sp/hard/libc.a(lib_a-fflush.o)
 .text          0x0000000000000000        0x0 /usr/local/Cellar/gcc-arm-none-eabi/20180627/bin/../lib/gcc/arm-none-eabi/7.3.1/../../../../arm-none-eabi/lib/thumb/v7e-m/fpv4-sp/hard/libc.a(lib_a-freer.o)
 .data          0x0000000000000000        0x0 /usr/local/Cellar/gcc-arm-none-eabi/20180627/bin/../lib/gcc/arm-none-eabi/7.3.1/../../../../arm-none-eabi/lib/thumb/v7e-m/fpv4-sp/hard/libc.a(lib_a-freer.o)
 .bss           0x0000000000000000        0x0 /usr/local/Cellar/gcc-arm-none-eabi/20180627/bin/../lib/gcc/arm-none-eabi/7.3.1/../../../../arm-none-eabi/lib/thumb/v7e-m/fpv4-sp/hard/libc.a(lib_a-freer.o)
 .text._malloc_trim_r
                0x0000000000000000       0xa0 /usr/local/Cellar/gcc-arm-none-eabi/20180627/bin/../lib/gcc/arm-none-eabi/7.3.1/../../../../arm-none-eabi/lib/thumb/v7e-m/fpv4-sp/hard/libc.a(lib_a-freer.o)
 .text._free_r  0x0000000000000000      0x1e8 /usr/local/Cellar/gcc-arm-none-eabi/20180627/bin/../lib/gcc/arm-none-eabi/7.3.1/../../../../arm-none-eabi/lib/thumb/v7e-m/fpv4-sp/hard/libc.a(lib_a-freer.o)
 .debug_frame   0x0000000000000000       0x80 /usr/local/Cellar/gcc-arm-none-eabi/20180627/bin/../lib/gcc/arm-none-eabi/7.3.1/../../../../arm-none-eabi/lib/thumb/v7e-m/fpv4-sp/hard/libc.a(lib_a-freer.o)
 .ARM.attributes
                0x0000000000000000       0x34 /usr/local/Cellar/gcc-arm-none-eabi/20180627/bin/../lib/gcc/arm-none-eabi/7.3.1/../../../../arm-none-eabi/lib/thumb/v7e-m/fpv4-sp/hard/libc.a(lib_a-freer.o)
 .text          0x0000000000000000        0x0 /usr/local/Cellar/gcc-arm-none-eabi/20180627/bin/../lib/gcc/arm-none-eabi/7.3.1/../../../../arm-none-eabi/lib/thumb/v7e-m/fpv4-sp/hard/libc.a(lib_a-lseekr.o)
 .data          0x0000000000000000        0x0 /usr/local/Cellar/gcc-arm-none-eabi/20180627/bin/../lib/gcc/arm-none-eabi/7.3.1/../../../../arm-none-eabi/lib/thumb/v7e-m/fpv4-sp/hard/libc.a(lib_a-lseekr.o)
 .bss           0x0000000000000000        0x0 /usr/local/Cellar/gcc-arm-none-eabi/20180627/bin/../lib/gcc/arm-none-eabi/7.3.1/../../../../arm-none-eabi/lib/thumb/v7e-m/fpv4-sp/hard/libc.a(lib_a-lseekr.o)
 .text._lseek_r
                0x0000000000000000       0x2c /usr/local/Cellar/gcc-arm-none-eabi/20180627/bin/../lib/gcc/arm-none-eabi/7.3.1/../../../../arm-none-eabi/lib/thumb/v7e-m/fpv4-sp/hard/libc.a(lib_a-lseekr.o)
 .debug_frame   0x0000000000000000       0x2c /usr/local/Cellar/gcc-arm-none-eabi/20180627/bin/../lib/gcc/arm-none-eabi/7.3.1/../../../../arm-none-eabi/lib/thumb/v7e-m/fpv4-sp/hard/libc.a(lib_a-lseekr.o)
 .ARM.attributes
                0x0000000000000000       0x34 /usr/local/Cellar/gcc-arm-none-eabi/20180627/bin/../lib/gcc/arm-none-eabi/7.3.1/../../../../arm-none-eabi/lib/thumb/v7e-m/fpv4-sp/hard/libc.a(lib_a-lseekr.o)
 .text          0x0000000000000000        0x0 /usr/local/Cellar/gcc-arm-none-eabi/20180627/bin/../lib/gcc/arm-none-eabi/7.3.1/../../../../arm-none-eabi/lib/thumb/v7e-m/fpv4-sp/hard/libc.a(lib_a-readr.o)
 .data          0x0000000000000000        0x0 /usr/local/Cellar/gcc-arm-none-eabi/20180627/bin/../lib/gcc/arm-none-eabi/7.3.1/../../../../arm-none-eabi/lib/thumb/v7e-m/fpv4-sp/hard/libc.a(lib_a-readr.o)
 .bss           0x0000000000000000        0x0 /usr/local/Cellar/gcc-arm-none-eabi/20180627/bin/../lib/gcc/arm-none-eabi/7.3.1/../../../../arm-none-eabi/lib/thumb/v7e-m/fpv4-sp/hard/libc.a(lib_a-readr.o)
 .text._read_r  0x0000000000000000       0x2c /usr/local/Cellar/gcc-arm-none-eabi/20180627/bin/../lib/gcc/arm-none-eabi/7.3.1/../../../../arm-none-eabi/lib/thumb/v7e-m/fpv4-sp/hard/libc.a(lib_a-readr.o)
 .debug_frame   0x0000000000000000       0x2c /usr/local/Cellar/gcc-arm-none-eabi/20180627/bin/../lib/gcc/arm-none-eabi/7.3.1/../../../../arm-none-eabi/lib/thumb/v7e-m/fpv4-sp/hard/libc.a(lib_a-readr.o)
 .ARM.attributes
                0x0000000000000000       0x34 /usr/local/Cellar/gcc-arm-none-eabi/20180627/bin/../lib/gcc/arm-none-eabi/7.3.1/../../../../arm-none-eabi/lib/thumb/v7e-m/fpv4-sp/hard/libc.a(lib_a-readr.o)
 .text          0x0000000000000000        0x0 /usr/local/Cellar/gcc-arm-none-eabi/20180627/bin/../lib/gcc/arm-none-eabi/7.3.1/../../../../arm-none-eabi/lib/thumb/v7e-m/fpv4-sp/hard/libc.a(lib_a-reent.o)
 .data          0x0000000000000000        0x0 /usr/local/Cellar/gcc-arm-none-eabi/20180627/bin/../lib/gcc/arm-none-eabi/7.3.1/../../../../arm-none-eabi/lib/thumb/v7e-m/fpv4-sp/hard/libc.a(lib_a-reent.o)
 .bss           0x0000000000000000        0x0 /usr/local/Cellar/gcc-arm-none-eabi/20180627/bin/../lib/gcc/arm-none-eabi/7.3.1/../../../../arm-none-eabi/lib/thumb/v7e-m/fpv4-sp/hard/libc.a(lib_a-reent.o)
 .text.cleanup_glue
                0x0000000000000000       0x28 /usr/local/Cellar/gcc-arm-none-eabi/20180627/bin/../lib/gcc/arm-none-eabi/7.3.1/../../../../arm-none-eabi/lib/thumb/v7e-m/fpv4-sp/hard/libc.a(lib_a-reent.o)
 .text._reclaim_reent
                0x0000000000000000       0x88 /usr/local/Cellar/gcc-arm-none-eabi/20180627/bin/../lib/gcc/arm-none-eabi/7.3.1/../../../../arm-none-eabi/lib/thumb/v7e-m/fpv4-sp/hard/libc.a(lib_a-reent.o)
 .debug_frame   0x0000000000000000       0x68 /usr/local/Cellar/gcc-arm-none-eabi/20180627/bin/../lib/gcc/arm-none-eabi/7.3.1/../../../../arm-none-eabi/lib/thumb/v7e-m/fpv4-sp/hard/libc.a(lib_a-reent.o)
 .ARM.attributes
                0x0000000000000000       0x34 /usr/local/Cellar/gcc-arm-none-eabi/20180627/bin/../lib/gcc/arm-none-eabi/7.3.1/../../../../arm-none-eabi/lib/thumb/v7e-m/fpv4-sp/hard/libc.a(lib_a-reent.o)
 COMMON         0x0000000000000000        0x4 /usr/local/Cellar/gcc-arm-none-eabi/20180627/bin/../lib/gcc/arm-none-eabi/7.3.1/../../../../arm-none-eabi/lib/thumb/v7e-m/fpv4-sp/hard/libc.a(lib_a-reent.o)
 .text          0x0000000000000000        0x0 /usr/local/Cellar/gcc-arm-none-eabi/20180627/bin/../lib/gcc/arm-none-eabi/7.3.1/thumb/v7e-m/fpv4-sp/hard/crtend.o
 .data          0x0000000000000000        0x0 /usr/local/Cellar/gcc-arm-none-eabi/20180627/bin/../lib/gcc/arm-none-eabi/7.3.1/thumb/v7e-m/fpv4-sp/hard/crtend.o
 .bss           0x0000000000000000        0x0 /usr/local/Cellar/gcc-arm-none-eabi/20180627/bin/../lib/gcc/arm-none-eabi/7.3.1/thumb/v7e-m/fpv4-sp/hard/crtend.o
 .eh_frame      0x0000000000000000        0x4 /usr/local/Cellar/gcc-arm-none-eabi/20180627/bin/../lib/gcc/arm-none-eabi/7.3.1/thumb/v7e-m/fpv4-sp/hard/crtend.o
 .ARM.attributes
                0x0000000000000000       0x34 /usr/local/Cellar/gcc-arm-none-eabi/20180627/bin/../lib/gcc/arm-none-eabi/7.3.1/thumb/v7e-m/fpv4-sp/hard/crtend.o
 .text          0x0000000000000000        0x0 /usr/local/Cellar/gcc-arm-none-eabi/20180627/bin/../lib/gcc/arm-none-eabi/7.3.1/thumb/v7e-m/fpv4-sp/hard/crtn.o
 .data          0x0000000000000000        0x0 /usr/local/Cellar/gcc-arm-none-eabi/20180627/bin/../lib/gcc/arm-none-eabi/7.3.1/thumb/v7e-m/fpv4-sp/hard/crtn.o
 .bss           0x0000000000000000        0x0 /usr/local/Cellar/gcc-arm-none-eabi/20180627/bin/../lib/gcc/arm-none-eabi/7.3.1/thumb/v7e-m/fpv4-sp/hard/crtn.o

Memory Configuration

Name             Origin             Length             Attributes
rom              0x0000000000004000 0x000000000003c000 xr
ram              0x0000000020000000 0x0000000000020000 xrw
bkupram          0x0000000047000000 0x0000000000002000 xrw
qspi             0x0000000004000000 0x0000000001000000 xrw
*default*        0x0000000000000000 0xffffffffffffffff

Linker script and memory map

LOAD /usr/local/Cellar/gcc-arm-none-eabi/20180627/bin/../lib/gcc/arm-none-eabi/7.3.1/thumb/v7e-m/fpv4-sp/hard/crti.o
LOAD /usr/local/Cellar/gcc-arm-none-eabi/20180627/bin/../lib/gcc/arm-none-eabi/7.3.1/thumb/v7e-m/fpv4-sp/hard/crtbegin.o
LOAD /usr/local/Cellar/gcc-arm-none-eabi/20180627/bin/../lib/gcc/arm-none-eabi/7.3.1/../../../../arm-none-eabi/lib/thumb/v7e-m/fpv4-sp/hard/rdimon-crt0.o
LOAD .build/obj_massdrop_alt_default_md/matrix.o
LOAD .build/obj_massdrop_alt_default_md/config_led.o
LOAD .build/obj_massdrop_alt_default_md/keyboards/massdrop/alt/keymaps/default_md/keymap.o
LOAD .build/obj_massdrop_alt_default_md/quantum/quantum.o
LOAD .build/obj_massdrop_alt_default_md/quantum/keymap_common.o
LOAD .build/obj_massdrop_alt_default_md/quantum/keycode_config.o
LOAD .build/obj_massdrop_alt_default_md/quantum/debounce/sym_g.o
LOAD .build/obj_massdrop_alt_default_md/quantum/color.o
LOAD .build/obj_massdrop_alt_default_md/quantum/rgb_matrix.o
LOAD .build/obj_massdrop_alt_default_md/quantum/rgb_matrix_drivers.o
LOAD .build/obj_massdrop_alt_default_md/quantum/led_tables.o
LOAD .build/obj_massdrop_alt_default_md/quantum/process_keycode/process_space_cadet.o
LOAD .build/obj_massdrop_alt_default_md/common/host.o
LOAD .build/obj_massdrop_alt_default_md/common/keyboard.o
LOAD .build/obj_massdrop_alt_default_md/common/action.o
LOAD .build/obj_massdrop_alt_default_md/common/action_tapping.o
LOAD .build/obj_massdrop_alt_default_md/common/action_macro.o
LOAD .build/obj_massdrop_alt_default_md/common/action_layer.o
LOAD .build/obj_massdrop_alt_default_md/common/action_util.o
LOAD .build/obj_massdrop_alt_default_md/common/print.o
LOAD .build/obj_massdrop_alt_default_md/common/debug.o
LOAD .build/obj_massdrop_alt_default_md/common/util.o
LOAD .build/obj_massdrop_alt_default_md/common/eeconfig.o
LOAD .build/obj_massdrop_alt_default_md/common/report.o
LOAD .build/obj_massdrop_alt_default_md/common/arm_atsam/suspend.o
LOAD .build/obj_massdrop_alt_default_md/common/arm_atsam/timer.o
LOAD .build/obj_massdrop_alt_default_md/common/arm_atsam/bootloader.o
LOAD .build/obj_massdrop_alt_default_md/common/arm_atsam/printf.o
LOAD .build/obj_massdrop_alt_default_md/common/arm_atsam/eeprom.o
LOAD .build/obj_massdrop_alt_default_md/common/magic.o
LOAD .build/obj_massdrop_alt_default_md/protocol/arm_atsam/adc.o
LOAD .build/obj_massdrop_alt_default_md/protocol/arm_atsam/clks.o
LOAD .build/obj_massdrop_alt_default_md/protocol/arm_atsam/d51_util.o
LOAD .build/obj_massdrop_alt_default_md/protocol/arm_atsam/i2c_master.o
LOAD .build/obj_massdrop_alt_default_md/protocol/arm_atsam/led_matrix_programs.o
LOAD .build/obj_massdrop_alt_default_md/protocol/arm_atsam/led_matrix.o
LOAD .build/obj_massdrop_alt_default_md/protocol/arm_atsam/main_arm_atsam.o
LOAD .build/obj_massdrop_alt_default_md/protocol/arm_atsam/spi.o
LOAD .build/obj_massdrop_alt_default_md/protocol/arm_atsam/startup.o
LOAD .build/obj_massdrop_alt_default_md/protocol/arm_atsam/usb/main_usb.o
LOAD .build/obj_massdrop_alt_default_md/protocol/arm_atsam/usb/udc.o
LOAD .build/obj_massdrop_alt_default_md/protocol/arm_atsam/usb/udi_cdc.o
LOAD .build/obj_massdrop_alt_default_md/protocol/arm_atsam/usb/udi_hid.o
LOAD .build/obj_massdrop_alt_default_md/protocol/arm_atsam/usb/udi_hid_kbd.o
LOAD .build/obj_massdrop_alt_default_md/protocol/arm_atsam/usb/udi_hid_kbd_desc.o
LOAD .build/obj_massdrop_alt_default_md/protocol/arm_atsam/usb/ui.o
LOAD .build/obj_massdrop_alt_default_md/protocol/arm_atsam/usb/usb2422.o
LOAD .build/obj_massdrop_alt_default_md/protocol/arm_atsam/usb/usb.o
LOAD .build/obj_massdrop_alt_default_md/protocol/arm_atsam/usb/usb_device_udd.o
LOAD .build/obj_massdrop_alt_default_md/protocol/arm_atsam/usb/usb_util.o
START GROUP
END GROUP
LOAD /usr/local/Cellar/gcc-arm-none-eabi/20180627/bin/../lib/gcc/arm-none-eabi/7.3.1/../../../../arm-none-eabi/lib/thumb/v7e-m/fpv4-sp/hard/libm.a
START GROUP
LOAD /usr/local/Cellar/gcc-arm-none-eabi/20180627/bin/../lib/gcc/arm-none-eabi/7.3.1/thumb/v7e-m/fpv4-sp/hard/libgcc.a
LOAD /usr/local/Cellar/gcc-arm-none-eabi/20180627/bin/../lib/gcc/arm-none-eabi/7.3.1/../../../../arm-none-eabi/lib/thumb/v7e-m/fpv4-sp/hard/libg.a
LOAD /usr/local/Cellar/gcc-arm-none-eabi/20180627/bin/../lib/gcc/arm-none-eabi/7.3.1/../../../../arm-none-eabi/lib/thumb/v7e-m/fpv4-sp/hard/libc.a
END GROUP
START GROUP
LOAD /usr/local/Cellar/gcc-arm-none-eabi/20180627/bin/../lib/gcc/arm-none-eabi/7.3.1/thumb/v7e-m/fpv4-sp/hard/libgcc.a
LOAD /usr/local/Cellar/gcc-arm-none-eabi/20180627/bin/../lib/gcc/arm-none-eabi/7.3.1/../../../../arm-none-eabi/lib/thumb/v7e-m/fpv4-sp/hard/libc.a
LOAD /usr/local/Cellar/gcc-arm-none-eabi/20180627/bin/../lib/gcc/arm-none-eabi/7.3.1/../../../../arm-none-eabi/lib/thumb/v7e-m/fpv4-sp/hard/librdimon.a
END GROUP
LOAD /usr/local/Cellar/gcc-arm-none-eabi/20180627/bin/../lib/gcc/arm-none-eabi/7.3.1/thumb/v7e-m/fpv4-sp/hard/crtend.o
LOAD /usr/local/Cellar/gcc-arm-none-eabi/20180627/bin/../lib/gcc/arm-none-eabi/7.3.1/thumb/v7e-m/fpv4-sp/hard/crtn.o
                0x0000000000008000                STACK_SIZE = DEFINED (STACK_SIZE)?STACK_SIZE:DEFINED (__stack_size__)?__stack_size__:0x8000
                0x0000000000000800                HEAP_SIZE = DEFINED (HEAP_SIZE)?HEAP_SIZE:DEFINED (__heap_size__)?__heap_size__:0x800
                0x0000000000004000                _srom = ORIGIN (rom)
                0x000000000003c000                _lrom = LENGTH (rom)
                0x0000000000040000                _erom = (ORIGIN (rom) + LENGTH (rom))
                0x0000000020000000                _sram = ORIGIN (ram)
                0x0000000000020000                _lram = LENGTH (ram)
                0x0000000020020000                _eram = (ORIGIN (ram) + LENGTH (ram))

.text           0x0000000000004000     0x9b38
                0x0000000000004000                . = ALIGN (0x4)
                0x0000000000004000                _sfixed = .
 *(.vectors .vectors.*)
 .vectors       0x0000000000004000      0x264 .build/obj_massdrop_alt_default_md/protocol/arm_atsam/startup.o
                0x0000000000004000                exception_table
 *(.text .text.* .gnu.linkonce.t.*)
 .text          0x0000000000004264       0x40 /usr/local/Cellar/gcc-arm-none-eabi/20180627/bin/../lib/gcc/arm-none-eabi/7.3.1/thumb/v7e-m/fpv4-sp/hard/crtbegin.o
 .text.matrix_init_kb
                0x00000000000042a4        0x8 .build/obj_massdrop_alt_default_md/matrix.o
                0x00000000000042a4                matrix_init_kb
 .text.matrix_scan_kb
                0x00000000000042ac        0x8 .build/obj_massdrop_alt_default_md/matrix.o
                0x00000000000042ac                matrix_scan_kb
 .text.matrix_init
                0x00000000000042b4       0xd4 .build/obj_massdrop_alt_default_md/matrix.o
                0x00000000000042b4                matrix_init
 .text.matrix_scan
                0x0000000000004388      0x128 .build/obj_massdrop_alt_default_md/matrix.o
                0x0000000000004388                matrix_scan
 .text.matrix_get_row
                0x00000000000044b0        0xc .build/obj_massdrop_alt_default_md/matrix.o
                0x00000000000044b0                matrix_get_row
 .text.matrix_print
                0x00000000000044bc        0x2 .build/obj_massdrop_alt_default_md/matrix.o
                0x00000000000044bc                matrix_print
 .text.rgb_matrix_indicators_kb
                0x00000000000044be        0x4 .build/obj_massdrop_alt_default_md/config_led.o
                0x00000000000044be                rgb_matrix_indicators_kb
 .text.matrix_init_user
                0x00000000000044c2        0x2 .build/obj_massdrop_alt_default_md/keyboards/massdrop/alt/keymaps/default_md/keymap.o
                0x00000000000044c2                matrix_init_user
 .text.matrix_scan_user
                0x00000000000044c4        0x2 .build/obj_massdrop_alt_default_md/keyboards/massdrop/alt/keymaps/default_md/keymap.o
                0x00000000000044c4                matrix_scan_user
 *fill*         0x00000000000044c6        0x2 
 .text.process_record_user
                0x00000000000044c8      0x288 .build/obj_massdrop_alt_default_md/keyboards/massdrop/alt/keymaps/default_md/keymap.o
                0x00000000000044c8                process_record_user
 .text.process_action_kb
                0x0000000000004750        0x4 .build/obj_massdrop_alt_default_md/quantum/quantum.o
                0x0000000000004750                process_action_kb
 .text.process_record_kb
                0x0000000000004754        0x8 .build/obj_massdrop_alt_default_md/quantum/quantum.o
                0x0000000000004754                process_record_kb
 .text.get_event_keycode
                0x000000000000475c       0x48 .build/obj_massdrop_alt_default_md/quantum/quantum.o
                0x000000000000475c                get_event_keycode
 .text.get_record_keycode
                0x00000000000047a4        0xa .build/obj_massdrop_alt_default_md/quantum/quantum.o
                0x00000000000047a4                get_record_keycode
 .text.matrix_init_quantum
                0x00000000000047ae       0x18 .build/obj_massdrop_alt_default_md/quantum/quantum.o
                0x00000000000047ae                matrix_init_quantum
 .text.matrix_scan_quantum
                0x00000000000047c6        0xe .build/obj_massdrop_alt_default_md/quantum/quantum.o
                0x00000000000047c6                matrix_scan_quantum
 .text.led_set_user
                0x00000000000047d4        0x2 .build/obj_massdrop_alt_default_md/quantum/quantum.o
                0x00000000000047d4                led_set_user
 .text.led_set_kb
                0x00000000000047d6        0x8 .build/obj_massdrop_alt_default_md/quantum/quantum.o
                0x00000000000047d6                led_set_kb
 .text.led_set  0x00000000000047de        0x8 .build/obj_massdrop_alt_default_md/quantum/quantum.o
                0x00000000000047de                led_set
 .text.shutdown_user
                0x00000000000047e6        0x2 .build/obj_massdrop_alt_default_md/quantum/quantum.o
                0x00000000000047e6                shutdown_user
 .text.reset_keyboard
                0x00000000000047e8       0x1a .build/obj_massdrop_alt_default_md/quantum/quantum.o
                0x00000000000047e8                reset_keyboard
 *fill*         0x0000000000004802        0x2 
 .text.process_record_quantum
                0x0000000000004804      0x424 .build/obj_massdrop_alt_default_md/quantum/quantum.o
                0x0000000000004804                process_record_quantum
 .text.action_get_macro
                0x0000000000004c28        0x4 .build/obj_massdrop_alt_default_md/quantum/keymap_common.o
                0x0000000000004c28                action_get_macro
 .text.action_function
                0x0000000000004c2c        0x2 .build/obj_massdrop_alt_default_md/quantum/keymap_common.o
                0x0000000000004c2c                action_function
 *fill*         0x0000000000004c2e        0x2 
 .text.keymap_key_to_keycode
                0x0000000000004c30       0x24 .build/obj_massdrop_alt_default_md/quantum/keymap_common.o
                0x0000000000004c30                keymap_key_to_keycode
 .text.keymap_function_id_to_action
                0x0000000000004c54        0xc .build/obj_massdrop_alt_default_md/quantum/keymap_common.o
                0x0000000000004c54                keymap_function_id_to_action
 .text.action_for_key
                0x0000000000004c60      0x2ba .build/obj_massdrop_alt_default_md/quantum/keymap_common.o
                0x0000000000004c60                action_for_key
 *fill*         0x0000000000004f1a        0x2 
 .text.keycode_config
                0x0000000000004f1c      0x104 .build/obj_massdrop_alt_default_md/quantum/keycode_config.o
                0x0000000000004f1c                keycode_config
 .text.mod_config
                0x0000000000005020       0xac .build/obj_massdrop_alt_default_md/quantum/keycode_config.o
                0x0000000000005020                mod_config
 .text.hsv_to_rgb
                0x00000000000050cc       0xcc .build/obj_massdrop_alt_default_md/quantum/color.o
                0x00000000000050cc                hsv_to_rgb
 .text.sin8_C   0x0000000000005198       0x40 .build/obj_massdrop_alt_default_md/quantum/rgb_matrix.o
 .text.BAND_SAT_math
                0x00000000000051d8       0x5c .build/obj_massdrop_alt_default_md/quantum/rgb_matrix.o
 .text.BAND_VAL_math
                0x0000000000005234       0x5c .build/obj_massdrop_alt_default_md/quantum/rgb_matrix.o
 .text.CYCLE_ALL_math
                0x0000000000005290       0x26 .build/obj_massdrop_alt_default_md/quantum/rgb_matrix.o
 *fill*         0x00000000000052b6        0x2 
 .text.CYCLE_LEFT_RIGHT_math
                0x00000000000052b8       0x38 .build/obj_massdrop_alt_default_md/quantum/rgb_matrix.o
 .text.CYCLE_UP_DOWN_math
                0x00000000000052f0       0x38 .build/obj_massdrop_alt_default_md/quantum/rgb_matrix.o
 .text.RAINBOW_MOVING_CHEVRON_math
                0x0000000000005328       0x54 .build/obj_massdrop_alt_default_md/quantum/rgb_matrix.o
 .text.CYCLE_OUT_IN_math
                0x000000000000537c       0x32 .build/obj_massdrop_alt_default_md/quantum/rgb_matrix.o
 *fill*         0x00000000000053ae        0x2 
 .text.DUAL_BEACON_math
                0x00000000000053b0       0x4c .build/obj_massdrop_alt_default_md/quantum/rgb_matrix.o
 .text.RAINBOW_BEACON_math
                0x00000000000053fc       0x50 .build/obj_massdrop_alt_default_md/quantum/rgb_matrix.o
 .text.PINWHEELS_math
                0x000000000000544c       0x64 .build/obj_massdrop_alt_default_md/quantum/rgb_matrix.o
 .text.SOLID_REACTIVE_SIMPLE_math
                0x00000000000054b0       0x34 .build/obj_massdrop_alt_default_md/quantum/rgb_matrix.o
 .text.SOLID_REACTIVE_math
                0x00000000000054e4       0x34 .build/obj_massdrop_alt_default_md/quantum/rgb_matrix.o
 .text.SOLID_REACTIVE_WIDE_math
                0x0000000000005518       0x48 .build/obj_massdrop_alt_default_md/quantum/rgb_matrix.o
 .text.SOLID_REACTIVE_CROSS_math
                0x0000000000005560       0x72 .build/obj_massdrop_alt_default_md/quantum/rgb_matrix.o
 *fill*         0x00000000000055d2        0x2 
 .text.SOLID_REACTIVE_NEXUS_math
                0x00000000000055d4       0x74 .build/obj_massdrop_alt_default_md/quantum/rgb_matrix.o
 .text.SPLASH_math
                0x0000000000005648       0x4e .build/obj_massdrop_alt_default_md/quantum/rgb_matrix.o
                0x0000000000005648                SPLASH_math
 .text.SOLID_SPLASH_math
                0x0000000000005696       0x44 .build/obj_massdrop_alt_default_md/quantum/rgb_matrix.o
                0x0000000000005696                SOLID_SPLASH_math
 .text.sqrt16.part.0
                0x00000000000056da       0x3e .build/obj_massdrop_alt_default_md/quantum/rgb_matrix.o
 .text.CYCLE_OUT_IN_DUAL_math
                0x0000000000005718       0x54 .build/obj_massdrop_alt_default_md/quantum/rgb_matrix.o
 .text.atan2_8  0x000000000000576c       0x4c .build/obj_massdrop_alt_default_md/quantum/rgb_matrix.o
 .text.BAND_PINWHEEL_SAT_math
                0x00000000000057b8       0x48 .build/obj_massdrop_alt_default_md/quantum/rgb_matrix.o
 .text.BAND_PINWHEEL_VAL_math
                0x0000000000005800       0x48 .build/obj_massdrop_alt_default_md/quantum/rgb_matrix.o
 .text.BAND_SPIRAL_SAT_math
                0x0000000000005848       0x46 .build/obj_massdrop_alt_default_md/quantum/rgb_matrix.o
 .text.BAND_SPIRAL_VAL_math
                0x000000000000588e       0x46 .build/obj_massdrop_alt_default_md/quantum/rgb_matrix.o
 .text.CYCLE_PINWHEEL_math
                0x00000000000058d4       0x30 .build/obj_massdrop_alt_default_md/quantum/rgb_matrix.o
 .text.CYCLE_SPIRAL_math
                0x0000000000005904       0x36 .build/obj_massdrop_alt_default_md/quantum/rgb_matrix.o
 *fill*         0x000000000000593a        0x2 
 .text.eeconfig_read_rgb_matrix
                0x000000000000593c       0x10 .build/obj_massdrop_alt_default_md/quantum/rgb_matrix.o
                0x000000000000593c                eeconfig_read_rgb_matrix
 .text.eeconfig_update_rgb_matrix
                0x000000000000594c       0x10 .build/obj_massdrop_alt_default_md/quantum/rgb_matrix.o
                0x000000000000594c                eeconfig_update_rgb_matrix
 .text.eeconfig_update_rgb_matrix_default
                0x000000000000595c       0x28 .build/obj_massdrop_alt_default_md/quantum/rgb_matrix.o
                0x000000000000595c                eeconfig_update_rgb_matrix_default
 .text.rgb_matrix_map_row_column_to_led_kb
                0x0000000000005984        0x4 .build/obj_massdrop_alt_default_md/quantum/rgb_matrix.o
                0x0000000000005984                rgb_matrix_map_row_column_to_led_kb
 .text.rgb_matrix_map_row_column_to_led
                0x0000000000005988       0x28 .build/obj_massdrop_alt_default_md/quantum/rgb_matrix.o
                0x0000000000005988                rgb_matrix_map_row_column_to_led
 .text.rgb_matrix_update_pwm_buffers
                0x00000000000059b0        0xc .build/obj_massdrop_alt_default_md/quantum/rgb_matrix.o
                0x00000000000059b0                rgb_matrix_update_pwm_buffers
 .text.rgb_matrix_set_color
                0x00000000000059bc       0x14 .build/obj_massdrop_alt_default_md/quantum/rgb_matrix.o
                0x00000000000059bc                rgb_matrix_set_color
 .text.effect_runner_dx_dy_dist
                0x00000000000059d0       0xe4 .build/obj_massdrop_alt_default_md/quantum/rgb_matrix.o
                0x00000000000059d0                effect_runner_dx_dy_dist
 .text.BAND_SPIRAL_SAT
                0x0000000000005ab4        0xc .build/obj_massdrop_alt_default_md/quantum/rgb_matrix.o
                0x0000000000005ab4                BAND_SPIRAL_SAT
 .text.BAND_SPIRAL_VAL
                0x0000000000005ac0        0xc .build/obj_massdrop_alt_default_md/quantum/rgb_matrix.o
                0x0000000000005ac0                BAND_SPIRAL_VAL
 .text.CYCLE_OUT_IN
                0x0000000000005acc        0xc .build/obj_massdrop_alt_default_md/quantum/rgb_matrix.o
                0x0000000000005acc                CYCLE_OUT_IN
 .text.CYCLE_SPIRAL
                0x0000000000005ad8        0xc .build/obj_massdrop_alt_default_md/quantum/rgb_matrix.o
                0x0000000000005ad8                CYCLE_SPIRAL
 .text.effect_runner_dx_dy
                0x0000000000005ae4       0xbc .build/obj_massdrop_alt_default_md/quantum/rgb_matrix.o
                0x0000000000005ae4                effect_runner_dx_dy
 .text.BAND_PINWHEEL_SAT
                0x0000000000005ba0        0xc .build/obj_massdrop_alt_default_md/quantum/rgb_matrix.o
                0x0000000000005ba0                BAND_PINWHEEL_SAT
 .text.BAND_PINWHEEL_VAL
                0x0000000000005bac        0xc .build/obj_massdrop_alt_default_md/quantum/rgb_matrix.o
                0x0000000000005bac                BAND_PINWHEEL_VAL
 .text.CYCLE_OUT_IN_DUAL
                0x0000000000005bb8        0xc .build/obj_massdrop_alt_default_md/quantum/rgb_matrix.o
                0x0000000000005bb8                CYCLE_OUT_IN_DUAL
 .text.CYCLE_PINWHEEL
                0x0000000000005bc4        0xc .build/obj_massdrop_alt_default_md/quantum/rgb_matrix.o
                0x0000000000005bc4                CYCLE_PINWHEEL
 .text.effect_runner_i
                0x0000000000005bd0       0xac .build/obj_massdrop_alt_default_md/quantum/rgb_matrix.o
                0x0000000000005bd0                effect_runner_i
 .text.BAND_SAT
                0x0000000000005c7c        0xc .build/obj_massdrop_alt_default_md/quantum/rgb_matrix.o
                0x0000000000005c7c                BAND_SAT
 .text.BAND_VAL
                0x0000000000005c88        0xc .build/obj_massdrop_alt_default_md/quantum/rgb_matrix.o
                0x0000000000005c88                BAND_VAL
 .text.CYCLE_ALL
                0x0000000000005c94        0xc .build/obj_massdrop_alt_default_md/quantum/rgb_matrix.o
                0x0000000000005c94                CYCLE_ALL
 .text.CYCLE_LEFT_RIGHT
                0x0000000000005ca0        0xc .build/obj_massdrop_alt_default_md/quantum/rgb_matrix.o
                0x0000000000005ca0                CYCLE_LEFT_RIGHT
 .text.CYCLE_UP_DOWN
                0x0000000000005cac        0xc .build/obj_massdrop_alt_default_md/quantum/rgb_matrix.o
                0x0000000000005cac                CYCLE_UP_DOWN
 .text.RAINBOW_MOVING_CHEVRON
                0x0000000000005cb8        0xc .build/obj_massdrop_alt_default_md/quantum/rgb_matrix.o
                0x0000000000005cb8                RAINBOW_MOVING_CHEVRON
 .text.effect_runner_sin_cos_i
                0x0000000000005cc4       0xcc .build/obj_massdrop_alt_default_md/quantum/rgb_matrix.o
                0x0000000000005cc4                effect_runner_sin_cos_i
 .text.DUAL_BEACON
                0x0000000000005d90        0xc .build/obj_massdrop_alt_default_md/quantum/rgb_matrix.o
                0x0000000000005d90                DUAL_BEACON
 .text.RAINBOW_BEACON
                0x0000000000005d9c        0xc .build/obj_massdrop_alt_default_md/quantum/rgb_matrix.o
                0x0000000000005d9c                RAINBOW_BEACON
 .text.PINWHEELS
                0x0000000000005da8        0xc .build/obj_massdrop_alt_default_md/quantum/rgb_matrix.o
                0x0000000000005da8                PINWHEELS
 .text.effect_runner_reactive
                0x0000000000005db4       0xdc .build/obj_massdrop_alt_default_md/quantum/rgb_matrix.o
                0x0000000000005db4                effect_runner_reactive
 .text.SOLID_REACTIVE_SIMPLE
                0x0000000000005e90        0xc .build/obj_massdrop_alt_default_md/quantum/rgb_matrix.o
                0x0000000000005e90                SOLID_REACTIVE_SIMPLE
 .text.SOLID_REACTIVE
                0x0000000000005e9c        0xc .build/obj_massdrop_alt_default_md/quantum/rgb_matrix.o
                0x0000000000005e9c                SOLID_REACTIVE
 .text.effect_runner_reactive_splash
                0x0000000000005ea8      0x130 .build/obj_massdrop_alt_default_md/quantum/rgb_matrix.o
                0x0000000000005ea8                effect_runner_reactive_splash
 .text.SOLID_REACTIVE_WIDE
                0x0000000000005fd8       0x20 .build/obj_massdrop_alt_default_md/quantum/rgb_matrix.o
                0x0000000000005fd8                SOLID_REACTIVE_WIDE
 .text.SOLID_REACTIVE_MULTIWIDE
                0x0000000000005ff8       0x10 .build/obj_massdrop_alt_default_md/quantum/rgb_matrix.o
                0x0000000000005ff8                SOLID_REACTIVE_MULTIWIDE
 .text.SOLID_REACTIVE_CROSS
                0x0000000000006008       0x20 .build/obj_massdrop_alt_default_md/quantum/rgb_matrix.o
                0x0000000000006008                SOLID_REACTIVE_CROSS
 .text.SOLID_REACTIVE_MULTICROSS
                0x0000000000006028       0x10 .build/obj_massdrop_alt_default_md/quantum/rgb_matrix.o
                0x0000000000006028                SOLID_REACTIVE_MULTICROSS
 .text.SOLID_REACTIVE_NEXUS
                0x0000000000006038       0x20 .build/obj_massdrop_alt_default_md/quantum/rgb_matrix.o
                0x0000000000006038                SOLID_REACTIVE_NEXUS
 .text.SOLID_REACTIVE_MULTINEXUS
                0x0000000000006058       0x10 .build/obj_massdrop_alt_default_md/quantum/rgb_matrix.o
                0x0000000000006058                SOLID_REACTIVE_MULTINEXUS
 .text.SPLASH   0x0000000000006068       0x20 .build/obj_massdrop_alt_default_md/quantum/rgb_matrix.o
                0x0000000000006068                SPLASH
 .text.MULTISPLASH
                0x0000000000006088       0x10 .build/obj_massdrop_alt_default_md/quantum/rgb_matrix.o
                0x0000000000006088                MULTISPLASH
 .text.SOLID_SPLASH
                0x0000000000006098       0x20 .build/obj_massdrop_alt_default_md/quantum/rgb_matrix.o
                0x0000000000006098                SOLID_SPLASH
 .text.SOLID_MULTISPLASH
                0x00000000000060b8       0x10 .build/obj_massdrop_alt_default_md/quantum/rgb_matrix.o
                0x00000000000060b8                SOLID_MULTISPLASH
 .text.SOLID_COLOR
                0x00000000000060c8       0x88 .build/obj_massdrop_alt_default_md/quantum/rgb_matrix.o
                0x00000000000060c8                SOLID_COLOR
 .text.ALPHAS_MODS
                0x0000000000006150       0xd0 .build/obj_massdrop_alt_default_md/quantum/rgb_matrix.o
                0x0000000000006150                ALPHAS_MODS
 .text.GRADIENT_UP_DOWN
                0x0000000000006220       0x94 .build/obj_massdrop_alt_default_md/quantum/rgb_matrix.o
                0x0000000000006220                GRADIENT_UP_DOWN
 .text.BREATHING
                0x00000000000062b4       0xc0 .build/obj_massdrop_alt_default_md/quantum/rgb_matrix.o
                0x00000000000062b4                BREATHING
 .text.raindrops_set_color.isra.2
                0x0000000000006374       0x70 .build/obj_massdrop_alt_default_md/quantum/rgb_matrix.o
 .text.RAINDROPS
                0x00000000000063e4       0x80 .build/obj_massdrop_alt_default_md/quantum/rgb_matrix.o
                0x00000000000063e4                RAINDROPS
 .text.jellybean_raindrops_set_color.isra.3
                0x0000000000006464       0x50 .build/obj_massdrop_alt_default_md/quantum/rgb_matrix.o
 .text.JELLYBEAN_RAINDROPS
                0x00000000000064b4       0x80 .build/obj_massdrop_alt_default_md/quantum/rgb_matrix.o
                0x00000000000064b4                JELLYBEAN_RAINDROPS
 .text.process_rgb_matrix
                0x0000000000006534       0xd0 .build/obj_massdrop_alt_default_md/quantum/rgb_matrix.o
                0x0000000000006534                process_rgb_matrix
 .text.rgb_matrix_indicators_user
                0x0000000000006604        0x2 .build/obj_massdrop_alt_default_md/quantum/rgb_matrix.o
                0x0000000000006604                rgb_matrix_indicators_user
 .text.rgb_matrix_indicators
                0x0000000000006606        0xc .build/obj_massdrop_alt_default_md/quantum/rgb_matrix.o
                0x0000000000006606                rgb_matrix_indicators
 *fill*         0x0000000000006612        0x2 
 .text.rgb_matrix_task
                0x0000000000006614      0x2dc .build/obj_massdrop_alt_default_md/quantum/rgb_matrix.o
                0x0000000000006614                rgb_matrix_task
 .text.rgb_matrix_init
                0x00000000000068f0       0xb0 .build/obj_massdrop_alt_default_md/quantum/rgb_matrix.o
                0x00000000000068f0                rgb_matrix_init
 .text.rgb_matrix_toggle
                0x00000000000069a0       0x1c .build/obj_massdrop_alt_default_md/quantum/rgb_matrix.o
                0x00000000000069a0                rgb_matrix_toggle
 .text.rgb_matrix_step
                0x00000000000069bc       0x2c .build/obj_massdrop_alt_default_md/quantum/rgb_matrix.o
                0x00000000000069bc                rgb_matrix_step
 .text.rgb_matrix_step_reverse
                0x00000000000069e8       0x2c .build/obj_massdrop_alt_default_md/quantum/rgb_matrix.o
                0x00000000000069e8                rgb_matrix_step_reverse
 .text.rgb_matrix_increase_hue
                0x0000000000006a14       0x10 .build/obj_massdrop_alt_default_md/quantum/rgb_matrix.o
                0x0000000000006a14                rgb_matrix_increase_hue
 .text.rgb_matrix_decrease_hue
                0x0000000000006a24       0x10 .build/obj_massdrop_alt_default_md/quantum/rgb_matrix.o
                0x0000000000006a24                rgb_matrix_decrease_hue
 .text.rgb_matrix_increase_sat
                0x0000000000006a34       0x18 .build/obj_massdrop_alt_default_md/quantum/rgb_matrix.o
                0x0000000000006a34                rgb_matrix_increase_sat
 .text.rgb_matrix_decrease_sat
                0x0000000000006a4c       0x14 .build/obj_massdrop_alt_default_md/quantum/rgb_matrix.o
                0x0000000000006a4c                rgb_matrix_decrease_sat
 .text.rgb_matrix_increase_val
                0x0000000000006a60       0x18 .build/obj_massdrop_alt_default_md/quantum/rgb_matrix.o
                0x0000000000006a60                rgb_matrix_increase_val
 .text.rgb_matrix_decrease_val
                0x0000000000006a78       0x14 .build/obj_massdrop_alt_default_md/quantum/rgb_matrix.o
                0x0000000000006a78                rgb_matrix_decrease_val
 .text.rgb_matrix_increase_speed
                0x0000000000006a8c       0x18 .build/obj_massdrop_alt_default_md/quantum/rgb_matrix.o
                0x0000000000006a8c                rgb_matrix_increase_speed
 .text.rgb_matrix_decrease_speed
                0x0000000000006aa4       0x14 .build/obj_massdrop_alt_default_md/quantum/rgb_matrix.o
                0x0000000000006aa4                rgb_matrix_decrease_speed
 .text.rgb_matrix_mode
                0x0000000000006ab8       0x1c .build/obj_massdrop_alt_default_md/quantum/rgb_matrix.o
                0x0000000000006ab8                rgb_matrix_mode
 .text.perform_space_cadet
                0x0000000000006ad4       0xbc .build/obj_massdrop_alt_default_md/quantum/process_keycode/process_space_cadet.o
                0x0000000000006ad4                perform_space_cadet
 .text.process_space_cadet
                0x0000000000006b90       0x8c .build/obj_massdrop_alt_default_md/quantum/process_keycode/process_space_cadet.o
                0x0000000000006b90                process_space_cadet
 .text.host_set_driver
                0x0000000000006c1c        0xc .build/obj_massdrop_alt_default_md/common/host.o
                0x0000000000006c1c                host_set_driver
 .text.host_keyboard_leds
                0x0000000000006c28       0x10 .build/obj_massdrop_alt_default_md/common/host.o
                0x0000000000006c28                host_keyboard_leds
 .text.host_keyboard_send
                0x0000000000006c38       0x10 .build/obj_massdrop_alt_default_md/common/host.o
                0x0000000000006c38                host_keyboard_send
 .text.host_system_send
                0x0000000000006c48       0x18 .build/obj_massdrop_alt_default_md/common/host.o
                0x0000000000006c48                host_system_send
 .text.host_consumer_send
                0x0000000000006c60       0x18 .build/obj_massdrop_alt_default_md/common/host.o
                0x0000000000006c60                host_consumer_send
 .text.keyboard_pre_init_user
                0x0000000000006c78        0x2 .build/obj_massdrop_alt_default_md/common/keyboard.o
                0x0000000000006c78                keyboard_pre_init_user
 .text.matrix_setup
                0x0000000000006c7a        0x2 .build/obj_massdrop_alt_default_md/common/keyboard.o
                0x0000000000006c7a                matrix_setup
 .text.keyboard_pre_init_kb
                0x0000000000006c7c        0x8 .build/obj_massdrop_alt_default_md/common/keyboard.o
                0x0000000000006c7c                keyboard_pre_init_kb
 .text.keyboard_post_init_user
                0x0000000000006c84        0x2 .build/obj_massdrop_alt_default_md/common/keyboard.o
                0x0000000000006c84                keyboard_post_init_user
 .text.keyboard_post_init_kb
                0x0000000000006c86        0x8 .build/obj_massdrop_alt_default_md/common/keyboard.o
                0x0000000000006c86                keyboard_post_init_kb
 .text.keyboard_setup
                0x0000000000006c8e        0xc .build/obj_massdrop_alt_default_md/common/keyboard.o
                0x0000000000006c8e                keyboard_setup
 .text.is_keyboard_master
                0x0000000000006c9a        0x4 .build/obj_massdrop_alt_default_md/common/keyboard.o
                0x0000000000006c9a                is_keyboard_master
 .text.keyboard_init
                0x0000000000006c9e       0x14 .build/obj_massdrop_alt_default_md/common/keyboard.o
                0x0000000000006c9e                keyboard_init
 *fill*         0x0000000000006cb2        0x2 
 .text.keyboard_task
                0x0000000000006cb4       0xe0 .build/obj_massdrop_alt_default_md/common/keyboard.o
                0x0000000000006cb4                keyboard_task
 .text.action_exec
                0x0000000000006d94       0x24 .build/obj_massdrop_alt_default_md/common/action.o
                0x0000000000006d94                action_exec
 .text.process_record_tap_hint
                0x0000000000006db8        0x6 .build/obj_massdrop_alt_default_md/common/action.o
                0x0000000000006db8                process_record_tap_hint
 .text.register_code
                0x0000000000006dbe      0x13a .build/obj_massdrop_alt_default_md/common/action.o
                0x0000000000006dbe                register_code
 .text.unregister_code
                0x0000000000006ef8       0x5c .build/obj_massdrop_alt_default_md/common/action.o
                0x0000000000006ef8                unregister_code
 .text.tap_code
                0x0000000000006f54       0x20 .build/obj_massdrop_alt_default_md/common/action.o
                0x0000000000006f54                tap_code
 .text.register_mods
                0x0000000000006f74       0x12 .build/obj_massdrop_alt_default_md/common/action.o
                0x0000000000006f74                register_mods
 .text.unregister_mods
                0x0000000000006f86       0x12 .build/obj_massdrop_alt_default_md/common/action.o
                0x0000000000006f86                unregister_mods
 .text.process_action
                0x0000000000006f98      0x38c .build/obj_massdrop_alt_default_md/common/action.o
                0x0000000000006f98                process_action
 .text.process_record
                0x0000000000007324       0x44 .build/obj_massdrop_alt_default_md/common/action.o
                0x0000000000007324                process_record
 .text.clear_keyboard_but_mods_and_keys
                0x0000000000007368       0x1e .build/obj_massdrop_alt_default_md/common/action.o
                0x0000000000007368                clear_keyboard_but_mods_and_keys
 .text.clear_keyboard_but_mods
                0x0000000000007386        0xe .build/obj_massdrop_alt_default_md/common/action.o
                0x0000000000007386                clear_keyboard_but_mods
 .text.clear_keyboard
                0x0000000000007394        0xe .build/obj_massdrop_alt_default_md/common/action.o
                0x0000000000007394                clear_keyboard
 .text.is_tap_action
                0x00000000000073a2       0x50 .build/obj_massdrop_alt_default_md/common/action.o
                0x00000000000073a2                is_tap_action
 .text.is_tap_key
                0x00000000000073f2       0x16 .build/obj_massdrop_alt_default_md/common/action.o
                0x00000000000073f2                is_tap_key
 .text.debug_event
                0x0000000000007408        0xc .build/obj_massdrop_alt_default_md/common/action.o
                0x0000000000007408                debug_event
 .text.debug_record
                0x0000000000007414        0xc .build/obj_massdrop_alt_default_md/common/action.o
                0x0000000000007414                debug_record
 .text.debug_waiting_buffer
                0x0000000000007420       0x2c .build/obj_massdrop_alt_default_md/common/action_tapping.o
 .text.debug_tapping_key
                0x000000000000744c       0x10 .build/obj_massdrop_alt_default_md/common/action_tapping.o
 .text.waiting_buffer_scan_tap
                0x000000000000745c       0xac .build/obj_massdrop_alt_default_md/common/action_tapping.o
 .text.process_tapping
                0x0000000000007508      0x3f4 .build/obj_massdrop_alt_default_md/common/action_tapping.o
 .text.action_tapping_process
                0x00000000000078fc       0xd8 .build/obj_massdrop_alt_default_md/common/action_tapping.o
                0x00000000000078fc                action_tapping_process
 .text.action_macro_play
                0x00000000000079d4       0xb2 .build/obj_massdrop_alt_default_md/common/action_macro.o
                0x00000000000079d4                action_macro_play
 .text.default_layer_state_set_user
                0x0000000000007a86        0x2 .build/obj_massdrop_alt_default_md/common/action_layer.o
                0x0000000000007a86                default_layer_state_set_user
 .text.default_layer_state_set_kb
                0x0000000000007a88        0x8 .build/obj_massdrop_alt_default_md/common/action_layer.o
                0x0000000000007a88                default_layer_state_set_kb
 .text.default_layer_state_set
                0x0000000000007a90       0x18 .build/obj_massdrop_alt_default_md/common/action_layer.o
 .text.default_layer_debug
                0x0000000000007aa8        0x2 .build/obj_massdrop_alt_default_md/common/action_layer.o
                0x0000000000007aa8                default_layer_debug
 .text.default_layer_set
                0x0000000000007aaa        0x4 .build/obj_massdrop_alt_default_md/common/action_layer.o
                0x0000000000007aaa                default_layer_set
 *fill*         0x0000000000007aae        0x2 
 .text.default_layer_or
                0x0000000000007ab0       0x10 .build/obj_massdrop_alt_default_md/common/action_layer.o
                0x0000000000007ab0                default_layer_or
 .text.default_layer_and
                0x0000000000007ac0       0x10 .build/obj_massdrop_alt_default_md/common/action_layer.o
                0x0000000000007ac0                default_layer_and
 .text.default_layer_xor
                0x0000000000007ad0       0x10 .build/obj_massdrop_alt_default_md/common/action_layer.o
                0x0000000000007ad0                default_layer_xor
 .text.layer_state_set_user
                0x0000000000007ae0        0x4 .build/obj_massdrop_alt_default_md/common/action_layer.o
                0x0000000000007ae0                layer_state_set_user
 .text.layer_state_set_kb
                0x0000000000007ae4        0x8 .build/obj_massdrop_alt_default_md/common/action_layer.o
                0x0000000000007ae4                layer_state_set_kb
 .text.layer_state_set
                0x0000000000007aec       0x18 .build/obj_massdrop_alt_default_md/common/action_layer.o
                0x0000000000007aec                layer_state_set
 .text.layer_clear
                0x0000000000007b04        0x6 .build/obj_massdrop_alt_default_md/common/action_layer.o
                0x0000000000007b04                layer_clear
 .text.layer_move
                0x0000000000007b0a        0xa .build/obj_massdrop_alt_default_md/common/action_layer.o
                0x0000000000007b0a                layer_move
 .text.layer_on
                0x0000000000007b14       0x14 .build/obj_massdrop_alt_default_md/common/action_layer.o
                0x0000000000007b14                layer_on
 .text.layer_off
                0x0000000000007b28       0x18 .build/obj_massdrop_alt_default_md/common/action_layer.o
                0x0000000000007b28                layer_off
 .text.layer_invert
                0x0000000000007b40       0x14 .build/obj_massdrop_alt_default_md/common/action_layer.o
                0x0000000000007b40                layer_invert
 .text.layer_or
                0x0000000000007b54       0x10 .build/obj_massdrop_alt_default_md/common/action_layer.o
                0x0000000000007b54                layer_or
 .text.layer_and
                0x0000000000007b64       0x10 .build/obj_massdrop_alt_default_md/common/action_layer.o
                0x0000000000007b64                layer_and
 .text.layer_xor
                0x0000000000007b74       0x10 .build/obj_massdrop_alt_default_md/common/action_layer.o
                0x0000000000007b74                layer_xor
 .text.layer_debug
                0x0000000000007b84        0x2 .build/obj_massdrop_alt_default_md/common/action_layer.o
                0x0000000000007b84                layer_debug
 *fill*         0x0000000000007b86        0x2 
 .text.update_source_layers_cache
                0x0000000000007b88       0x48 .build/obj_massdrop_alt_default_md/common/action_layer.o
                0x0000000000007b88                update_source_layers_cache
 .text.read_source_layers_cache
                0x0000000000007bd0       0x40 .build/obj_massdrop_alt_default_md/common/action_layer.o
                0x0000000000007bd0                read_source_layers_cache
 .text.layer_switch_get_layer
                0x0000000000007c10       0x3c .build/obj_massdrop_alt_default_md/common/action_layer.o
                0x0000000000007c10                layer_switch_get_layer
 .text.layer_switch_get_action
                0x0000000000007c4c       0x18 .build/obj_massdrop_alt_default_md/common/action_layer.o
                0x0000000000007c4c                layer_switch_get_action
 .text.store_or_get_action
                0x0000000000007c64       0x48 .build/obj_massdrop_alt_default_md/common/action_layer.o
                0x0000000000007c64                store_or_get_action
 .text.add_key  0x0000000000007cac       0x10 .build/obj_massdrop_alt_default_md/common/action_util.o
                0x0000000000007cac                add_key
 .text.del_key  0x0000000000007cbc       0x10 .build/obj_massdrop_alt_default_md/common/action_util.o
                0x0000000000007cbc                del_key
 .text.clear_keys
                0x0000000000007ccc        0xc .build/obj_massdrop_alt_default_md/common/action_util.o
                0x0000000000007ccc                clear_keys
 .text.get_oneshot_layer
                0x0000000000007cd8       0x10 .build/obj_massdrop_alt_default_md/common/action_util.o
                0x0000000000007cd8                get_oneshot_layer
 .text.get_oneshot_layer_state
                0x0000000000007ce8       0x10 .build/obj_massdrop_alt_default_md/common/action_util.o
                0x0000000000007ce8                get_oneshot_layer_state
 .text.is_oneshot_layer_active
                0x0000000000007cf8       0x14 .build/obj_massdrop_alt_default_md/common/action_util.o
                0x0000000000007cf8                is_oneshot_layer_active
 .text.get_mods
                0x0000000000007d0c        0xc .build/obj_massdrop_alt_default_md/common/action_util.o
                0x0000000000007d0c                get_mods
 .text.add_mods
                0x0000000000007d18       0x10 .build/obj_massdrop_alt_default_md/common/action_util.o
                0x0000000000007d18                add_mods
 .text.del_mods
                0x0000000000007d28       0x10 .build/obj_massdrop_alt_default_md/common/action_util.o
                0x0000000000007d28                del_mods
 .text.clear_mods
                0x0000000000007d38        0xc .build/obj_massdrop_alt_default_md/common/action_util.o
                0x0000000000007d38                clear_mods
 .text.add_weak_mods
                0x0000000000007d44       0x10 .build/obj_massdrop_alt_default_md/common/action_util.o
                0x0000000000007d44                add_weak_mods
 .text.del_weak_mods
                0x0000000000007d54       0x10 .build/obj_massdrop_alt_default_md/common/action_util.o
                0x0000000000007d54                del_weak_mods
 .text.clear_weak_mods
                0x0000000000007d64        0xc .build/obj_massdrop_alt_default_md/common/action_util.o
                0x0000000000007d64                clear_weak_mods
 .text.add_macro_mods
                0x0000000000007d70       0x10 .build/obj_massdrop_alt_default_md/common/action_util.o
                0x0000000000007d70                add_macro_mods
 .text.del_macro_mods
                0x0000000000007d80       0x10 .build/obj_massdrop_alt_default_md/common/action_util.o
                0x0000000000007d80                del_macro_mods
 .text.clear_macro_mods
                0x0000000000007d90        0xc .build/obj_massdrop_alt_default_md/common/action_util.o
                0x0000000000007d90                clear_macro_mods
 .text.get_oneshot_mods
                0x0000000000007d9c        0xc .build/obj_massdrop_alt_default_md/common/action_util.o
                0x0000000000007d9c                get_oneshot_mods
 .text.oneshot_mods_changed_user
                0x0000000000007da8        0x2 .build/obj_massdrop_alt_default_md/common/action_util.o
                0x0000000000007da8                oneshot_mods_changed_user
 .text.oneshot_mods_changed_kb
                0x0000000000007daa        0x8 .build/obj_massdrop_alt_default_md/common/action_util.o
                0x0000000000007daa                oneshot_mods_changed_kb
 *fill*         0x0000000000007db2        0x2 
 .text.set_oneshot_mods
                0x0000000000007db4       0x18 .build/obj_massdrop_alt_default_md/common/action_util.o
                0x0000000000007db4                set_oneshot_mods
 .text.clear_oneshot_mods
                0x0000000000007dcc       0x18 .build/obj_massdrop_alt_default_md/common/action_util.o
                0x0000000000007dcc                clear_oneshot_mods
 .text.send_keyboard_report
                0x0000000000007de4       0x4c .build/obj_massdrop_alt_default_md/common/action_util.o
                0x0000000000007de4                send_keyboard_report
 .text.oneshot_layer_changed_user
                0x0000000000007e30        0x2 .build/obj_massdrop_alt_default_md/common/action_util.o
                0x0000000000007e30                oneshot_layer_changed_user
 .text.oneshot_layer_changed_kb
                0x0000000000007e32        0x8 .build/obj_massdrop_alt_default_md/common/action_util.o
                0x0000000000007e32                oneshot_layer_changed_kb
 *fill*         0x0000000000007e3a        0x2 
 .text.set_oneshot_layer
                0x0000000000007e3c       0x20 .build/obj_massdrop_alt_default_md/common/action_util.o
                0x0000000000007e3c                set_oneshot_layer
 .text.reset_oneshot_layer
                0x0000000000007e5c       0x14 .build/obj_massdrop_alt_default_md/common/action_util.o
                0x0000000000007e5c                reset_oneshot_layer
 .text.clear_oneshot_layer_state
                0x0000000000007e70       0x30 .build/obj_massdrop_alt_default_md/common/action_util.o
                0x0000000000007e70                clear_oneshot_layer_state
 .text.biton32  0x0000000000007ea0       0x34 .build/obj_massdrop_alt_default_md/common/util.o
                0x0000000000007ea0                biton32
 .text.eeconfig_is_enabled
                0x0000000000007ed4       0x14 .build/obj_massdrop_alt_default_md/common/eeconfig.o
                0x0000000000007ed4                eeconfig_is_enabled
 .text.eeconfig_read_debug
                0x0000000000007ee8        0x6 .build/obj_massdrop_alt_default_md/common/eeconfig.o
                0x0000000000007ee8                eeconfig_read_debug
 .text.eeconfig_read_default_layer
                0x0000000000007eee        0x6 .build/obj_massdrop_alt_default_md/common/eeconfig.o
                0x0000000000007eee                eeconfig_read_default_layer
 .text.eeconfig_read_keymap
                0x0000000000007ef4       0x18 .build/obj_massdrop_alt_default_md/common/eeconfig.o
                0x0000000000007ef4                eeconfig_read_keymap
 .text.eeconfig_update_keymap
                0x0000000000007f0c       0x18 .build/obj_massdrop_alt_default_md/common/eeconfig.o
                0x0000000000007f0c                eeconfig_update_keymap
 .text.eeconfig_update_kb
                0x0000000000007f24        0x8 .build/obj_massdrop_alt_default_md/common/eeconfig.o
                0x0000000000007f24                eeconfig_update_kb
 .text.eeconfig_update_user
                0x0000000000007f2c        0x8 .build/obj_massdrop_alt_default_md/common/eeconfig.o
                0x0000000000007f2c                eeconfig_update_user
 .text.eeconfig_init_user
                0x0000000000007f34        0x6 .build/obj_massdrop_alt_default_md/common/eeconfig.o
                0x0000000000007f34                eeconfig_init_user
 .text.eeconfig_init_kb
                0x0000000000007f3a        0xe .build/obj_massdrop_alt_default_md/common/eeconfig.o
                0x0000000000007f3a                eeconfig_init_kb
 .text.eeconfig_init_quantum
                0x0000000000007f48       0x84 .build/obj_massdrop_alt_default_md/common/eeconfig.o
                0x0000000000007f48                eeconfig_init_quantum
 .text.eeconfig_init
                0x0000000000007fcc        0x4 .build/obj_massdrop_alt_default_md/common/eeconfig.o
                0x0000000000007fcc                eeconfig_init
 .text.has_anykey
                0x0000000000007fd0       0x3c .build/obj_massdrop_alt_default_md/common/report.o
                0x0000000000007fd0                has_anykey
 .text.add_key_byte
                0x000000000000800c       0x32 .build/obj_massdrop_alt_default_md/common/report.o
                0x000000000000800c                add_key_byte
 .text.del_key_byte
                0x000000000000803e       0x1a .build/obj_massdrop_alt_default_md/common/report.o
                0x000000000000803e                del_key_byte
 .text.add_key_bit
                0x0000000000008058       0x18 .build/obj_massdrop_alt_default_md/common/report.o
                0x0000000000008058                add_key_bit
 .text.del_key_bit
                0x0000000000008070       0x1a .build/obj_massdrop_alt_default_md/common/report.o
                0x0000000000008070                del_key_bit
 *fill*         0x000000000000808a        0x2 
 .text.add_key_to_report
                0x000000000000808c       0x34 .build/obj_massdrop_alt_default_md/common/report.o
                0x000000000000808c                add_key_to_report
 .text.del_key_from_report
                0x00000000000080c0       0x34 .build/obj_massdrop_alt_default_md/common/report.o
                0x00000000000080c0                del_key_from_report
 .text.clear_keys_from_report
                0x00000000000080f4       0x2c .build/obj_massdrop_alt_default_md/common/report.o
                0x00000000000080f4                clear_keys_from_report
 .text.matrix_power_up
                0x0000000000008120        0x2 .build/obj_massdrop_alt_default_md/common/arm_atsam/suspend.o
                0x0000000000008120                matrix_power_up
 .text.suspend_power_down_user
                0x0000000000008122        0x2 .build/obj_massdrop_alt_default_md/common/arm_atsam/suspend.o
                0x0000000000008122                suspend_power_down_user
 .text.suspend_power_down_kb
                0x0000000000008124        0x8 .build/obj_massdrop_alt_default_md/common/arm_atsam/suspend.o
                0x0000000000008124                suspend_power_down_kb
 .text.suspend_power_down
                0x000000000000812c        0xe .build/obj_massdrop_alt_default_md/common/arm_atsam/suspend.o
                0x000000000000812c                suspend_power_down
 .text.matrix_power_down
                0x000000000000813a        0x2 .build/obj_massdrop_alt_default_md/common/arm_atsam/suspend.o
                0x000000000000813a                matrix_power_down
 .text.suspend_wakeup_condition
                0x000000000000813c       0x24 .build/obj_massdrop_alt_default_md/common/arm_atsam/suspend.o
                0x000000000000813c                suspend_wakeup_condition
 .text.suspend_wakeup_init_user
                0x0000000000008160        0x2 .build/obj_massdrop_alt_default_md/common/arm_atsam/suspend.o
                0x0000000000008160                suspend_wakeup_init_user
 .text.suspend_wakeup_init_kb
                0x0000000000008162        0x8 .build/obj_massdrop_alt_default_md/common/arm_atsam/suspend.o
                0x0000000000008162                suspend_wakeup_init_kb
 *fill*         0x000000000000816a        0x2 
 .text.suspend_wakeup_init
                0x000000000000816c       0x18 .build/obj_massdrop_alt_default_md/common/arm_atsam/suspend.o
                0x000000000000816c                suspend_wakeup_init
 .text.timer_read
                0x0000000000008184       0x10 .build/obj_massdrop_alt_default_md/common/arm_atsam/timer.o
                0x0000000000008184                timer_read
 .text.timer_read32
                0x0000000000008194        0xc .build/obj_massdrop_alt_default_md/common/arm_atsam/timer.o
                0x0000000000008194                timer_read32
 .text.timer_read64
                0x00000000000081a0        0xc .build/obj_massdrop_alt_default_md/common/arm_atsam/timer.o
                0x00000000000081a0                timer_read64
 .text.timer_elapsed
                0x00000000000081ac       0x28 .build/obj_massdrop_alt_default_md/common/arm_atsam/timer.o
                0x00000000000081ac                timer_elapsed
 .text.timer_elapsed32
                0x00000000000081d4       0x1c .build/obj_massdrop_alt_default_md/common/arm_atsam/timer.o
                0x00000000000081d4                timer_elapsed32
 .text.timer_clear
                0x00000000000081f0       0x10 .build/obj_massdrop_alt_default_md/common/arm_atsam/timer.o
                0x00000000000081f0                timer_clear
 .text.timer_init
                0x0000000000008200        0x4 .build/obj_massdrop_alt_default_md/common/arm_atsam/timer.o
                0x0000000000008200                timer_init
 .text.bootloader_jump
                0x0000000000008204       0x50 .build/obj_massdrop_alt_default_md/common/arm_atsam/bootloader.o
                0x0000000000008204                bootloader_jump
 .text.eeprom_read_byte
                0x0000000000008254        0xc .build/obj_massdrop_alt_default_md/common/arm_atsam/eeprom.o
                0x0000000000008254                eeprom_read_byte
 .text.eeprom_read_word
                0x0000000000008260       0x14 .build/obj_massdrop_alt_default_md/common/arm_atsam/eeprom.o
                0x0000000000008260                eeprom_read_word
 .text.eeprom_read_block
                0x0000000000008274       0x1c .build/obj_massdrop_alt_default_md/common/arm_atsam/eeprom.o
                0x0000000000008274                eeprom_read_block
 .text.eeprom_write_word
                0x0000000000008290       0x10 .build/obj_massdrop_alt_default_md/common/arm_atsam/eeprom.o
                0x0000000000008290                eeprom_write_word
 .text.eeprom_write_dword
                0x00000000000082a0       0x18 .build/obj_massdrop_alt_default_md/common/arm_atsam/eeprom.o
                0x00000000000082a0                eeprom_write_dword
 .text.eeprom_write_block
                0x00000000000082b8       0x1c .build/obj_massdrop_alt_default_md/common/arm_atsam/eeprom.o
                0x00000000000082b8                eeprom_write_block
 .text.eeprom_update_byte
                0x00000000000082d4        0xc .build/obj_massdrop_alt_default_md/common/arm_atsam/eeprom.o
                0x00000000000082d4                eeprom_update_byte
 .text.eeprom_update_word
                0x00000000000082e0        0x4 .build/obj_massdrop_alt_default_md/common/arm_atsam/eeprom.o
                0x00000000000082e0                eeprom_update_word
 .text.eeprom_update_dword
                0x00000000000082e4        0x4 .build/obj_massdrop_alt_default_md/common/arm_atsam/eeprom.o
                0x00000000000082e4                eeprom_update_dword
 .text.eeprom_update_block
                0x00000000000082e8        0x4 .build/obj_massdrop_alt_default_md/common/arm_atsam/eeprom.o
                0x00000000000082e8                eeprom_update_block
 .text.magic    0x00000000000082ec       0x30 .build/obj_massdrop_alt_default_md/common/magic.o
                0x00000000000082ec                magic
 .text.ADC0_clock_init
                0x000000000000831c       0x40 .build/obj_massdrop_alt_default_md/protocol/arm_atsam/adc.o
                0x000000000000831c                ADC0_clock_init
 .text.ADC0_init
                0x000000000000835c      0x15c .build/obj_massdrop_alt_default_md/protocol/arm_atsam/adc.o
                0x000000000000835c                ADC0_init
 .text.adc_get  0x00000000000084b8       0x34 .build/obj_massdrop_alt_default_md/protocol/arm_atsam/adc.o
                0x00000000000084b8                adc_get
 .text.CLK_oscctrl_init
                0x00000000000084ec      0x164 .build/obj_massdrop_alt_default_md/protocol/arm_atsam/clks.o
                0x00000000000084ec                CLK_oscctrl_init
 .text.CLK_set_gclk_freq
                0x0000000000008650       0xc0 .build/obj_massdrop_alt_default_md/protocol/arm_atsam/clks.o
                0x0000000000008650                CLK_set_gclk_freq
 .text.CLK_init_osc
                0x0000000000008710       0x90 .build/obj_massdrop_alt_default_md/protocol/arm_atsam/clks.o
                0x0000000000008710                CLK_init_osc
 .text.CLK_reset_time
                0x00000000000087a0       0x88 .build/obj_massdrop_alt_default_md/protocol/arm_atsam/clks.o
                0x00000000000087a0                CLK_reset_time
 .text.TC4_Handler
                0x0000000000008828       0x30 .build/obj_massdrop_alt_default_md/protocol/arm_atsam/clks.o
                0x0000000000008828                TC4_Handler
 .text.CLK_enable_timebase
                0x0000000000008858      0x1f4 .build/obj_massdrop_alt_default_md/protocol/arm_atsam/clks.o
                0x0000000000008858                CLK_enable_timebase
 *fill*         0x0000000000008a4c        0x4 
 .text.CLK_delay_us
                0x0000000000008a50       0x1c .build/obj_massdrop_alt_default_md/protocol/arm_atsam/clks.o
                0x0000000000008a50                CLK_delay_us
 .text.CLK_delay_ms
                0x0000000000008a6c       0x1e .build/obj_massdrop_alt_default_md/protocol/arm_atsam/clks.o
                0x0000000000008a6c                CLK_delay_ms
 *fill*         0x0000000000008a8a        0x2 
 .text.clk_enable_sercom_apbmask
                0x0000000000008a8c       0x3c .build/obj_massdrop_alt_default_md/protocol/arm_atsam/clks.o
                0x0000000000008a8c                clk_enable_sercom_apbmask
 .text.CLK_set_spi_freq
                0x0000000000008ac8       0x8c .build/obj_massdrop_alt_default_md/protocol/arm_atsam/clks.o
                0x0000000000008ac8                CLK_set_spi_freq
 .text.CLK_set_i2c0_freq
                0x0000000000008b54       0x94 .build/obj_massdrop_alt_default_md/protocol/arm_atsam/clks.o
                0x0000000000008b54                CLK_set_i2c0_freq
 .text.CLK_set_i2c1_freq
                0x0000000000008be8       0x94 .build/obj_massdrop_alt_default_md/protocol/arm_atsam/clks.o
                0x0000000000008be8                CLK_set_i2c1_freq
 .text.CLK_init
                0x0000000000008c7c       0x28 .build/obj_massdrop_alt_default_md/protocol/arm_atsam/clks.o
                0x0000000000008c7c                CLK_init
 .text.dled_print
                0x0000000000008ca4      0x160 .build/obj_massdrop_alt_default_md/protocol/arm_atsam/d51_util.o
                0x0000000000008ca4                dled_print
 .text.EIC_7_Handler
                0x0000000000008e04       0x14 .build/obj_massdrop_alt_default_md/protocol/arm_atsam/d51_util.o
                0x0000000000008e04                EIC_7_Handler
 .text.debug_code_init
                0x0000000000008e18       0x9c .build/obj_massdrop_alt_default_md/protocol/arm_atsam/d51_util.o
                0x0000000000008e18                debug_code_init
 .text.debug_code_disable
                0x0000000000008eb4       0x80 .build/obj_massdrop_alt_default_md/protocol/arm_atsam/d51_util.o
                0x0000000000008eb4                debug_code_disable
 .text.i2c0_init
                0x0000000000008f34       0xb8 .build/obj_massdrop_alt_default_md/protocol/arm_atsam/i2c_master.o
                0x0000000000008f34                i2c0_init
 .text.i2c0_start
                0x0000000000008fec       0x28 .build/obj_massdrop_alt_default_md/protocol/arm_atsam/i2c_master.o
                0x0000000000008fec                i2c0_start
 .text.i2c0_stop
                0x0000000000009014       0x48 .build/obj_massdrop_alt_default_md/protocol/arm_atsam/i2c_master.o
                0x0000000000009014                i2c0_stop
 .text.i2c0_transmit
                0x000000000000905c       0x40 .build/obj_massdrop_alt_default_md/protocol/arm_atsam/i2c_master.o
                0x000000000000905c                i2c0_transmit
 .text.i2c1_init
                0x000000000000909c       0xd4 .build/obj_massdrop_alt_default_md/protocol/arm_atsam/i2c_master.o
                0x000000000000909c                i2c1_init
 .text.i2c1_start
                0x0000000000009170       0x28 .build/obj_massdrop_alt_default_md/protocol/arm_atsam/i2c_master.o
                0x0000000000009170                i2c1_start
 .text.i2c1_stop
                0x0000000000009198       0x48 .build/obj_massdrop_alt_default_md/protocol/arm_atsam/i2c_master.o
                0x0000000000009198                i2c1_stop
 .text.i2c1_transmit
                0x00000000000091e0       0x40 .build/obj_massdrop_alt_default_md/protocol/arm_atsam/i2c_master.o
                0x00000000000091e0                i2c1_transmit
 .text.i2c_led_send_CRWL
                0x0000000000009220       0x2c .build/obj_massdrop_alt_default_md/protocol/arm_atsam/i2c_master.o
                0x0000000000009220                i2c_led_send_CRWL
 .text.i2c_led_select_page
                0x000000000000924c       0x28 .build/obj_massdrop_alt_default_md/protocol/arm_atsam/i2c_master.o
                0x000000000000924c                i2c_led_select_page
 .text.i2c_led_send_mode_op_gcr
                0x0000000000009274       0x34 .build/obj_massdrop_alt_default_md/protocol/arm_atsam/i2c_master.o
                0x0000000000009274                i2c_led_send_mode_op_gcr
 .text.i2c_led_send_pur_pdr
                0x00000000000092a8       0x2c .build/obj_massdrop_alt_default_md/protocol/arm_atsam/i2c_master.o
                0x00000000000092a8                i2c_led_send_pur_pdr
 .text.I2C3733_Init_Drivers
                0x00000000000092d4       0x90 .build/obj_massdrop_alt_default_md/protocol/arm_atsam/i2c_master.o
                0x00000000000092d4                I2C3733_Init_Drivers
 .text.I2C_DMAC_LED_Init
                0x0000000000009364       0xd0 .build/obj_massdrop_alt_default_md/protocol/arm_atsam/i2c_master.o
                0x0000000000009364                I2C_DMAC_LED_Init
 .text.I2C3733_Control_Set
                0x0000000000009434       0x2c .build/obj_massdrop_alt_default_md/protocol/arm_atsam/i2c_master.o
                0x0000000000009434                I2C3733_Control_Set
 .text.I2C3733_Init_Control
                0x0000000000009460       0x3c .build/obj_massdrop_alt_default_md/protocol/arm_atsam/i2c_master.o
                0x0000000000009460                I2C3733_Init_Control
 .text.i2c_led_desc_defaults
                0x000000000000949c       0x48 .build/obj_massdrop_alt_default_md/protocol/arm_atsam/i2c_master.o
                0x000000000000949c                i2c_led_desc_defaults
 .text.i2c_led_prepare_send_dma
                0x00000000000094e4       0x24 .build/obj_massdrop_alt_default_md/protocol/arm_atsam/i2c_master.o
                0x00000000000094e4                i2c_led_prepare_send_dma
 .text.i2c_led_begin_dma
                0x0000000000009508       0x38 .build/obj_massdrop_alt_default_md/protocol/arm_atsam/i2c_master.o
                0x0000000000009508                i2c_led_begin_dma
 .text.i2c_led_send_CRWL_dma
                0x0000000000009540       0x24 .build/obj_massdrop_alt_default_md/protocol/arm_atsam/i2c_master.o
                0x0000000000009540                i2c_led_send_CRWL_dma
 .text.i2c_led_select_page_dma
                0x0000000000009564       0x20 .build/obj_massdrop_alt_default_md/protocol/arm_atsam/i2c_master.o
                0x0000000000009564                i2c_led_select_page_dma
 .text.i2c_led_send_GCR_dma
                0x0000000000009584       0x28 .build/obj_massdrop_alt_default_md/protocol/arm_atsam/i2c_master.o
                0x0000000000009584                i2c_led_send_GCR_dma
 .text.i2c_led_send_pwm_dma
                0x00000000000095ac       0x38 .build/obj_massdrop_alt_default_md/protocol/arm_atsam/i2c_master.o
                0x00000000000095ac                i2c_led_send_pwm_dma
 .text.i2c_led_send_onoff_dma
                0x00000000000095e4       0x44 .build/obj_massdrop_alt_default_md/protocol/arm_atsam/i2c_master.o
                0x00000000000095e4                i2c_led_send_onoff_dma
 .text.i2c_led_q_init
                0x0000000000009628       0x2c .build/obj_massdrop_alt_default_md/protocol/arm_atsam/i2c_master.o
                0x0000000000009628                i2c_led_q_init
 .text.i2c_led_q_isempty
                0x0000000000009654       0x18 .build/obj_massdrop_alt_default_md/protocol/arm_atsam/i2c_master.o
                0x0000000000009654                i2c_led_q_isempty
 .text.i2c_led_q_size
                0x000000000000966c       0x20 .build/obj_massdrop_alt_default_md/protocol/arm_atsam/i2c_master.o
                0x000000000000966c                i2c_led_q_size
 .text.i2c_led_q_available
                0x000000000000968c        0xe .build/obj_massdrop_alt_default_md/protocol/arm_atsam/i2c_master.o
                0x000000000000968c                i2c_led_q_available
 *fill*         0x000000000000969a        0x2 
 .text.i2c_led_q_add
                0x000000000000969c       0x24 .build/obj_massdrop_alt_default_md/protocol/arm_atsam/i2c_master.o
                0x000000000000969c                i2c_led_q_add
 .text.i2c_led_q_s_advance
                0x00000000000096c0       0x1c .build/obj_massdrop_alt_default_md/protocol/arm_atsam/i2c_master.o
                0x00000000000096c0                i2c_led_q_s_advance
 .text.i2c_led_q_request_room
                0x00000000000096dc       0x48 .build/obj_massdrop_alt_default_md/protocol/arm_atsam/i2c_master.o
                0x00000000000096dc                i2c_led_q_request_room
 .text.i2c_led_q_run
                0x0000000000009724       0xbc .build/obj_massdrop_alt_default_md/protocol/arm_atsam/i2c_master.o
                0x0000000000009724                i2c_led_q_run
 .text.led_run_pattern
                0x00000000000097e0      0x1d0 .build/obj_massdrop_alt_default_md/protocol/arm_atsam/led_matrix.o
 .text.led_set_one
                0x00000000000099b0      0x22c .build/obj_massdrop_alt_default_md/protocol/arm_atsam/led_matrix.o
                0x00000000000099b0                led_set_one
 .text.led_set_all
                0x0000000000009bdc       0x1e .build/obj_massdrop_alt_default_md/protocol/arm_atsam/led_matrix.o
                0x0000000000009bdc                led_set_all
 *fill*         0x0000000000009bfa        0x6 
 .text.flush    0x0000000000009c00      0x1f0 .build/obj_massdrop_alt_default_md/protocol/arm_atsam/led_matrix.o
                0x0000000000009c00                flush
 .text.SERCOM1_0_Handler
                0x0000000000009df0       0x14 .build/obj_massdrop_alt_default_md/protocol/arm_atsam/led_matrix.o
                0x0000000000009df0                SERCOM1_0_Handler
 .text.DMAC_0_Handler
                0x0000000000009e04       0x3c .build/obj_massdrop_alt_default_md/protocol/arm_atsam/led_matrix.o
                0x0000000000009e04                DMAC_0_Handler
 .text.gcr_compute
                0x0000000000009e40      0x104 .build/obj_massdrop_alt_default_md/protocol/arm_atsam/led_matrix.o
                0x0000000000009e40                gcr_compute
 .text.issi3733_prepare_arrays
                0x0000000000009f44       0xd0 .build/obj_massdrop_alt_default_md/protocol/arm_atsam/led_matrix.o
                0x0000000000009f44                issi3733_prepare_arrays
 .text.led_matrix_prepare
                0x000000000000a014       0x24 .build/obj_massdrop_alt_default_md/protocol/arm_atsam/led_matrix.o
                0x000000000000a014                led_matrix_prepare
 .text.init     0x000000000000a038       0x28 .build/obj_massdrop_alt_default_md/protocol/arm_atsam/led_matrix.o
                0x000000000000a038                init
 .text.led_matrix_indicators
                0x000000000000a060       0x58 .build/obj_massdrop_alt_default_md/protocol/arm_atsam/led_matrix.o
                0x000000000000a060                led_matrix_indicators
 .text.keyboard_leds
                0x000000000000a0b8       0x20 .build/obj_massdrop_alt_default_md/protocol/arm_atsam/main_arm_atsam.o
                0x000000000000a0b8                keyboard_leds
 .text.send_mouse
                0x000000000000a0d8        0x2 .build/obj_massdrop_alt_default_md/protocol/arm_atsam/main_arm_atsam.o
                0x000000000000a0d8                send_mouse
 *fill*         0x000000000000a0da        0x2 
 .text.send_system
                0x000000000000a0dc       0x38 .build/obj_massdrop_alt_default_md/protocol/arm_atsam/main_arm_atsam.o
                0x000000000000a0dc                send_system
 .text.send_consumer
                0x000000000000a114       0x34 .build/obj_massdrop_alt_default_md/protocol/arm_atsam/main_arm_atsam.o
                0x000000000000a114                send_consumer
 .text.main_subtask_usb_state
                0x000000000000a148       0x94 .build/obj_massdrop_alt_default_md/protocol/arm_atsam/main_arm_atsam.o
                0x000000000000a148                main_subtask_usb_state
 *fill*         0x000000000000a1dc        0x4 
 .text.main_subtask_power_check
                0x000000000000a1e0       0x8c .build/obj_massdrop_alt_default_md/protocol/arm_atsam/main_arm_atsam.o
                0x000000000000a1e0                main_subtask_power_check
 .text.main_subtask_usb_extra_device
                0x000000000000a26c       0x34 .build/obj_massdrop_alt_default_md/protocol/arm_atsam/main_arm_atsam.o
                0x000000000000a26c                main_subtask_usb_extra_device
 .text.main_subtasks
                0x000000000000a2a0       0x12 .build/obj_massdrop_alt_default_md/protocol/arm_atsam/main_arm_atsam.o
                0x000000000000a2a0                main_subtasks
 *fill*         0x000000000000a2b2        0x2 
 .text.send_keyboard
                0x000000000000a2b4       0x94 .build/obj_massdrop_alt_default_md/protocol/arm_atsam/main_arm_atsam.o
                0x000000000000a2b4                send_keyboard
 .text.startup.main
                0x000000000000a348      0x11c .build/obj_massdrop_alt_default_md/protocol/arm_atsam/main_arm_atsam.o
                0x000000000000a348                main
 .text.SR_EXP_WriteData
                0x000000000000a464       0x64 .build/obj_massdrop_alt_default_md/protocol/arm_atsam/spi.o
                0x000000000000a464                SR_EXP_WriteData
 .text.SR_EXP_Init
                0x000000000000a4c8       0xd0 .build/obj_massdrop_alt_default_md/protocol/arm_atsam/spi.o
                0x000000000000a4c8                SR_EXP_Init
 .text.Dummy_Handler
                0x000000000000a598        0x2 .build/obj_massdrop_alt_default_md/protocol/arm_atsam/startup.o
                0x000000000000a598                ICM_Handler
                0x000000000000a598                SERCOM0_2_Handler
                0x000000000000a598                DebugMon_Handler
                0x000000000000a598                EIC_13_Handler
                0x000000000000a598                EVSYS_0_Handler
                0x000000000000a598                TCC1_3_Handler
                0x000000000000a598                DAC_3_Handler
                0x000000000000a598                TRNG_Handler
                0x000000000000a598                HardFault_Handler
                0x000000000000a598                TC2_Handler
                0x000000000000a598                PDEC_2_Handler
                0x000000000000a598                EIC_4_Handler
                0x000000000000a598                AC_Handler
                0x000000000000a598                SERCOM3_1_Handler
                0x000000000000a598                SysTick_Handler
                0x000000000000a598                TCC2_3_Handler
                0x000000000000a598                SERCOM3_2_Handler
                0x000000000000a598                PendSV_Handler
                0x000000000000a598                NMI_Handler
                0x000000000000a598                ADC1_1_Handler
                0x000000000000a598                EVSYS_3_Handler
                0x000000000000a598                PDEC_0_Handler
                0x000000000000a598                QSPI_Handler
                0x000000000000a598                TCC0_0_Handler
                0x000000000000a598                EIC_3_Handler
                0x000000000000a598                TAL_0_Handler
                0x000000000000a598                DAC_2_Handler
                0x000000000000a598                SERCOM0_0_Handler
                0x000000000000a598                RTC_Handler
                0x000000000000a598                UsageFault_Handler
                0x000000000000a598                SERCOM4_0_Handler
                0x000000000000a598                EIC_10_Handler
                0x000000000000a598                SERCOM0_3_Handler
                0x000000000000a598                EIC_11_Handler
                0x000000000000a598                EIC_9_Handler
                0x000000000000a598                OSC32KCTRL_Handler
                0x000000000000a598                TCC2_1_Handler
                0x000000000000a598                SUPC_1_Handler
                0x000000000000a598                TCC0_5_Handler
                0x000000000000a598                TCC0_6_Handler
                0x000000000000a598                EVSYS_1_Handler
                0x000000000000a598                TCC1_4_Handler
                0x000000000000a598                WDT_Handler
                0x000000000000a598                EIC_8_Handler
                0x000000000000a598                EIC_15_Handler
                0x000000000000a598                SERCOM5_0_Handler
                0x000000000000a598                TC1_Handler
                0x000000000000a598                OSCCTRL_4_Handler
                0x000000000000a598                SERCOM4_3_Handler
                0x000000000000a598                EIC_12_Handler
                0x000000000000a598                DMAC_4_Handler
                0x000000000000a598                TCC4_2_Handler
                0x000000000000a598                PAC_Handler
                0x000000000000a598                TCC1_0_Handler
                0x000000000000a598                OSCCTRL_0_Handler
                0x000000000000a598                EIC_0_Handler
                0x000000000000a598                OSCCTRL_3_Handler
                0x000000000000a598                SERCOM4_1_Handler
                0x000000000000a598                TC3_Handler
                0x000000000000a598                Dummy_Handler
                0x000000000000a598                TCC3_0_Handler
                0x000000000000a598                TCC2_2_Handler
                0x000000000000a598                SERCOM5_1_Handler
                0x000000000000a598                TCC1_1_Handler
                0x000000000000a598                DMAC_2_Handler
                0x000000000000a598                ADC0_0_Handler
                0x000000000000a598                SERCOM0_1_Handler
                0x000000000000a598                OSCCTRL_2_Handler
                0x000000000000a598                ADC1_0_Handler
                0x000000000000a598                TCC1_2_Handler
                0x000000000000a598                PM_Handler
                0x000000000000a598                SERCOM2_3_Handler
                0x000000000000a598                DAC_4_Handler
                0x000000000000a598                TCC3_2_Handler
                0x000000000000a598                TCC0_2_Handler
                0x000000000000a598                DMAC_1_Handler
                0x000000000000a598                TCC4_0_Handler
                0x000000000000a598                TCC2_0_Handler
                0x000000000000a598                PDEC_1_Handler
                0x000000000000a598                MemManage_Handler
                0x000000000000a598                TCC4_1_Handler
                0x000000000000a598                SERCOM5_3_Handler
                0x000000000000a598                SVC_Handler
                0x000000000000a598                SDHC0_Handler
                0x000000000000a598                SERCOM1_1_Handler
                0x000000000000a598                I2S_Handler
                0x000000000000a598                EIC_2_Handler
                0x000000000000a598                PCC_Handler
                0x000000000000a598                DAC_0_Handler
                0x000000000000a598                TCC0_1_Handler
                0x000000000000a598                SERCOM1_3_Handler
                0x000000000000a598                EIC_6_Handler
                0x000000000000a598                OSCCTRL_1_Handler
                0x000000000000a598                PUKCC_Handler
                0x000000000000a598                SERCOM2_1_Handler
                0x000000000000a598                SERCOM1_2_Handler
                0x000000000000a598                SERCOM3_0_Handler
                0x000000000000a598                EIC_1_Handler
                0x000000000000a598                SERCOM4_2_Handler
                0x000000000000a598                EVSYS_4_Handler
                0x000000000000a598                NVMCTRL_1_Handler
                0x000000000000a598                SERCOM5_2_Handler
                0x000000000000a598                SERCOM3_3_Handler
                0x000000000000a598                ADC0_1_Handler
                0x000000000000a598                SERCOM2_2_Handler
                0x000000000000a598                TCC3_1_Handler
                0x000000000000a598                EIC_14_Handler
                0x000000000000a598                DAC_1_Handler
                0x000000000000a598                NVMCTRL_0_Handler
                0x000000000000a598                TAL_1_Handler
                0x000000000000a598                MCLK_Handler
                0x000000000000a598                EVSYS_2_Handler
                0x000000000000a598                SUPC_0_Handler
                0x000000000000a598                BusFault_Handler
                0x000000000000a598                FREQM_Handler
                0x000000000000a598                TC0_Handler
                0x000000000000a598                TCC0_3_Handler
                0x000000000000a598                DMAC_3_Handler
                0x000000000000a598                TCC0_4_Handler
                0x000000000000a598                RAMECC_Handler
                0x000000000000a598                TC5_Handler
                0x000000000000a598                SERCOM2_0_Handler
                0x000000000000a598                AES_Handler
                0x000000000000a598                EIC_5_Handler
 *fill*         0x000000000000a59a        0x2 
 .text.Reset_Handler
                0x000000000000a59c       0x70 .build/obj_massdrop_alt_default_md/protocol/arm_atsam/startup.o
                0x000000000000a59c                Reset_Handler
 .text.main_suspend_action
                0x000000000000a60c        0x4 .build/obj_massdrop_alt_default_md/protocol/arm_atsam/usb/main_usb.o
                0x000000000000a60c                main_suspend_action
 .text.main_resume_action
                0x000000000000a610        0x4 .build/obj_massdrop_alt_default_md/protocol/arm_atsam/usb/main_usb.o
                0x000000000000a610                main_resume_action
 .text.main_sof_action
                0x000000000000a614        0xe .build/obj_massdrop_alt_default_md/protocol/arm_atsam/usb/main_usb.o
                0x000000000000a614                main_sof_action
 .text.main_remotewakeup_enable
                0x000000000000a622        0x4 .build/obj_massdrop_alt_default_md/protocol/arm_atsam/usb/main_usb.o
                0x000000000000a622                main_remotewakeup_enable
 .text.main_remotewakeup_disable
                0x000000000000a626        0x4 .build/obj_massdrop_alt_default_md/protocol/arm_atsam/usb/main_usb.o
                0x000000000000a626                main_remotewakeup_disable
 *fill*         0x000000000000a62a        0x2 
 .text.main_kbd_enable
                0x000000000000a62c        0xc .build/obj_massdrop_alt_default_md/protocol/arm_atsam/usb/main_usb.o
                0x000000000000a62c                main_kbd_enable
 .text.main_kbd_disable
                0x000000000000a638        0xc .build/obj_massdrop_alt_default_md/protocol/arm_atsam/usb/main_usb.o
                0x000000000000a638                main_kbd_disable
 .text.main_nkro_enable
                0x000000000000a644        0xc .build/obj_massdrop_alt_default_md/protocol/arm_atsam/usb/main_usb.o
                0x000000000000a644                main_nkro_enable
 .text.main_nkro_disable
                0x000000000000a650        0xc .build/obj_massdrop_alt_default_md/protocol/arm_atsam/usb/main_usb.o
                0x000000000000a650                main_nkro_disable
 .text.main_exk_enable
                0x000000000000a65c        0xc .build/obj_massdrop_alt_default_md/protocol/arm_atsam/usb/main_usb.o
                0x000000000000a65c                main_exk_enable
 .text.main_exk_disable
                0x000000000000a668        0xc .build/obj_massdrop_alt_default_md/protocol/arm_atsam/usb/main_usb.o
                0x000000000000a668                main_exk_disable
 .text.udc_update_iface_desc
                0x000000000000a674       0x4c .build/obj_massdrop_alt_default_md/protocol/arm_atsam/usb/udc.o
 .text.udc_valid_address
                0x000000000000a6c0       0x10 .build/obj_massdrop_alt_default_md/protocol/arm_atsam/usb/udc.o
 .text.udc_next_desc_in_iface.constprop.0
                0x000000000000a6d0       0x28 .build/obj_massdrop_alt_default_md/protocol/arm_atsam/usb/udc.o
 .text.udc_iface_enable
                0x000000000000a6f8       0x40 .build/obj_massdrop_alt_default_md/protocol/arm_atsam/usb/udc.o
 .text.udc_iface_disable
                0x000000000000a738       0x4c .build/obj_massdrop_alt_default_md/protocol/arm_atsam/usb/udc.o
 .text.udc_get_interface_desc
                0x000000000000a784        0xc .build/obj_massdrop_alt_default_md/protocol/arm_atsam/usb/udc.o
                0x000000000000a784                udc_get_interface_desc
 .text.udc_start
                0x000000000000a790        0x4 .build/obj_massdrop_alt_default_md/protocol/arm_atsam/usb/udc.o
                0x000000000000a790                udc_start
 .text.udc_reset
                0x000000000000a794       0x3c .build/obj_massdrop_alt_default_md/protocol/arm_atsam/usb/udc.o
                0x000000000000a794                udc_reset
 .text.udc_sof_notify
                0x000000000000a7d0       0x30 .build/obj_massdrop_alt_default_md/protocol/arm_atsam/usb/udc.o
                0x000000000000a7d0                udc_sof_notify
 .text.udc_process_setup
                0x000000000000a800      0x40c .build/obj_massdrop_alt_default_md/protocol/arm_atsam/usb/udc.o
                0x000000000000a800                udc_process_setup
 .text.CDC_print
                0x000000000000ac0c        0x4 .build/obj_massdrop_alt_default_md/protocol/arm_atsam/usb/udi_cdc.o
                0x000000000000ac0c                CDC_print
 .text.CDC_init
                0x000000000000ac10       0x18 .build/obj_massdrop_alt_default_md/protocol/arm_atsam/usb/udi_cdc.o
                0x000000000000ac10                CDC_init
 .text.udi_hid_setup
                0x000000000000ac28       0xa4 .build/obj_massdrop_alt_default_md/protocol/arm_atsam/usb/udi_hid.o
                0x000000000000ac28                udi_hid_setup
 .text.udi_hid_kbd_getsetting
                0x000000000000accc        0x4 .build/obj_massdrop_alt_default_md/protocol/arm_atsam/usb/udi_hid_kbd.o
                0x000000000000accc                udi_hid_kbd_getsetting
 .text.udi_hid_kbd_setreport
                0x000000000000acd0       0x34 .build/obj_massdrop_alt_default_md/protocol/arm_atsam/usb/udi_hid_kbd.o
 .text.udi_hid_kbd_setreport_valid
                0x000000000000ad04        0x2 .build/obj_massdrop_alt_default_md/protocol/arm_atsam/usb/udi_hid_kbd.o
 *fill*         0x000000000000ad06        0x2 
 .text.udi_hid_nkro_setreport
                0x000000000000ad08       0x34 .build/obj_massdrop_alt_default_md/protocol/arm_atsam/usb/udi_hid_kbd.o
 .text.udi_hid_exk_setreport
                0x000000000000ad3c       0x34 .build/obj_massdrop_alt_default_md/protocol/arm_atsam/usb/udi_hid_kbd.o
 .text.udi_hid_kbd_enable
                0x000000000000ad70       0x2c .build/obj_massdrop_alt_default_md/protocol/arm_atsam/usb/udi_hid_kbd.o
                0x000000000000ad70                udi_hid_kbd_enable
 .text.udi_hid_kbd_disable
                0x000000000000ad9c        0x4 .build/obj_massdrop_alt_default_md/protocol/arm_atsam/usb/udi_hid_kbd.o
                0x000000000000ad9c                udi_hid_kbd_disable
 .text.udi_hid_kbd_setup
                0x000000000000ada0       0x18 .build/obj_massdrop_alt_default_md/protocol/arm_atsam/usb/udi_hid_kbd.o
                0x000000000000ada0                udi_hid_kbd_setup
 .text.udi_hid_nkro_setup
                0x000000000000adb8       0x1c .build/obj_massdrop_alt_default_md/protocol/arm_atsam/usb/udi_hid_kbd.o
                0x000000000000adb8                udi_hid_nkro_setup
 .text.udi_hid_exk_setup
                0x000000000000add4       0x1c .build/obj_massdrop_alt_default_md/protocol/arm_atsam/usb/udi_hid_kbd.o
                0x000000000000add4                udi_hid_exk_setup
 .text.udi_hid_nkro_enable
                0x000000000000adf0       0x34 .build/obj_massdrop_alt_default_md/protocol/arm_atsam/usb/udi_hid_kbd.o
                0x000000000000adf0                udi_hid_nkro_enable
 .text.udi_hid_nkro_disable
                0x000000000000ae24        0x4 .build/obj_massdrop_alt_default_md/protocol/arm_atsam/usb/udi_hid_kbd.o
                0x000000000000ae24                udi_hid_nkro_disable
 .text.udi_hid_exk_enable
                0x000000000000ae28       0x24 .build/obj_massdrop_alt_default_md/protocol/arm_atsam/usb/udi_hid_kbd.o
                0x000000000000ae28                udi_hid_exk_enable
 .text.udi_hid_exk_disable
                0x000000000000ae4c        0x4 .build/obj_massdrop_alt_default_md/protocol/arm_atsam/usb/udi_hid_kbd.o
                0x000000000000ae4c                udi_hid_exk_disable
 .text.udi_hid_exk_setreport_valid
                0x000000000000ae50        0x2 .build/obj_massdrop_alt_default_md/protocol/arm_atsam/usb/udi_hid_kbd.o
 .text.udi_hid_nkro_setreport_valid
                0x000000000000ae52        0x2 .build/obj_massdrop_alt_default_md/protocol/arm_atsam/usb/udi_hid_kbd.o
 .text.udi_hid_exk_getsetting
                0x000000000000ae54        0x4 .build/obj_massdrop_alt_default_md/protocol/arm_atsam/usb/udi_hid_kbd.o
                0x000000000000ae54                udi_hid_exk_getsetting
 .text.udi_hid_nkro_getsetting
                0x000000000000ae58        0x4 .build/obj_massdrop_alt_default_md/protocol/arm_atsam/usb/udi_hid_kbd.o
                0x000000000000ae58                udi_hid_nkro_getsetting
 .text.udi_hid_kbd_send_report
                0x000000000000ae5c       0x5c .build/obj_massdrop_alt_default_md/protocol/arm_atsam/usb/udi_hid_kbd.o
                0x000000000000ae5c                udi_hid_kbd_send_report
 .text.udi_hid_kbd_report_sent
                0x000000000000aeb8       0x1c .build/obj_massdrop_alt_default_md/protocol/arm_atsam/usb/udi_hid_kbd.o
 .text.udi_hid_nkro_send_report
                0x000000000000aed4       0x64 .build/obj_massdrop_alt_default_md/protocol/arm_atsam/usb/udi_hid_kbd.o
                0x000000000000aed4                udi_hid_nkro_send_report
 .text.udi_hid_nkro_report_sent
                0x000000000000af38       0x1c .build/obj_massdrop_alt_default_md/protocol/arm_atsam/usb/udi_hid_kbd.o
 .text.udi_hid_exk_send_report
                0x000000000000af54       0x54 .build/obj_massdrop_alt_default_md/protocol/arm_atsam/usb/udi_hid_kbd.o
                0x000000000000af54                udi_hid_exk_send_report
 .text.udi_hid_exk_report_sent
                0x000000000000afa8       0x1c .build/obj_massdrop_alt_default_md/protocol/arm_atsam/usb/udi_hid_kbd.o
 .text.ui_powerdown
                0x000000000000afc4        0x2 .build/obj_massdrop_alt_default_md/protocol/arm_atsam/usb/ui.o
                0x000000000000afc4                ui_powerdown
 .text.ui_wakeup_enable
                0x000000000000afc6        0x2 .build/obj_massdrop_alt_default_md/protocol/arm_atsam/usb/ui.o
                0x000000000000afc6                ui_wakeup_enable
 .text.ui_wakeup_disable
                0x000000000000afc8        0x2 .build/obj_massdrop_alt_default_md/protocol/arm_atsam/usb/ui.o
                0x000000000000afc8                ui_wakeup_disable
 .text.ui_wakeup
                0x000000000000afca        0x2 .build/obj_massdrop_alt_default_md/protocol/arm_atsam/usb/ui.o
                0x000000000000afca                ui_wakeup
 .text.ui_process
                0x000000000000afcc        0x2 .build/obj_massdrop_alt_default_md/protocol/arm_atsam/usb/ui.o
                0x000000000000afcc                ui_process
 *fill*         0x000000000000afce        0x2 
 .text.USB_write2422_block
                0x000000000000afd0       0x7c .build/obj_massdrop_alt_default_md/protocol/arm_atsam/usb/usb2422.o
                0x000000000000afd0                USB_write2422_block
 .text.USB2422_init
                0x000000000000b04c      0x228 .build/obj_massdrop_alt_default_md/protocol/arm_atsam/usb/usb2422.o
                0x000000000000b04c                USB2422_init
 .text.USB_reset
                0x000000000000b274       0x38 .build/obj_massdrop_alt_default_md/protocol/arm_atsam/usb/usb2422.o
                0x000000000000b274                USB_reset
 .text.USB_configure
                0x000000000000b2ac       0xf8 .build/obj_massdrop_alt_default_md/protocol/arm_atsam/usb/usb2422.o
                0x000000000000b2ac                USB_configure
 .text.USB_active
                0x000000000000b3a4       0x10 .build/obj_massdrop_alt_default_md/protocol/arm_atsam/usb/usb2422.o
                0x000000000000b3a4                USB_active
 .text.USB_set_host_by_voltage
                0x000000000000b3b4      0x110 .build/obj_massdrop_alt_default_md/protocol/arm_atsam/usb/usb2422.o
                0x000000000000b3b4                USB_set_host_by_voltage
 .text.USB2422_Port_Detect_Init
                0x000000000000b4c4       0x98 .build/obj_massdrop_alt_default_md/protocol/arm_atsam/usb/usb2422.o
                0x000000000000b4c4                USB2422_Port_Detect_Init
 .text.USB_ExtraSetState
                0x000000000000b55c       0x9c .build/obj_massdrop_alt_default_md/protocol/arm_atsam/usb/usb2422.o
                0x000000000000b55c                USB_ExtraSetState
 .text.USB_HandleExtraDevice
                0x000000000000b5f8       0xb0 .build/obj_massdrop_alt_default_md/protocol/arm_atsam/usb/usb2422.o
                0x000000000000b5f8                USB_HandleExtraDevice
 .text._usb_device_interrupt_handler
                0x000000000000b6a8      0x200 .build/obj_massdrop_alt_default_md/protocol/arm_atsam/usb/usb.o
 .text.usb_device_register_callback
                0x000000000000b8a8       0x20 .build/obj_massdrop_alt_default_md/protocol/arm_atsam/usb/usb.o
                0x000000000000b8a8                usb_device_register_callback
 .text.usb_device_enable_callback
                0x000000000000b8c8       0x20 .build/obj_massdrop_alt_default_md/protocol/arm_atsam/usb/usb.o
                0x000000000000b8c8                usb_device_enable_callback
 .text.usb_device_disable_callback
                0x000000000000b8e8       0x20 .build/obj_massdrop_alt_default_md/protocol/arm_atsam/usb/usb.o
                0x000000000000b8e8                usb_device_disable_callback
 .text.usb_device_endpoint_register_callback
                0x000000000000b908       0x28 .build/obj_massdrop_alt_default_md/protocol/arm_atsam/usb/usb.o
                0x000000000000b908                usb_device_endpoint_register_callback
 .text.usb_device_endpoint_unregister_callback
                0x000000000000b930       0x2c .build/obj_massdrop_alt_default_md/protocol/arm_atsam/usb/usb.o
                0x000000000000b930                usb_device_endpoint_unregister_callback
 .text.usb_device_endpoint_enable_callback
                0x000000000000b95c       0x88 .build/obj_massdrop_alt_default_md/protocol/arm_atsam/usb/usb.o
                0x000000000000b95c                usb_device_endpoint_enable_callback
 .text.usb_device_endpoint_disable_callback
                0x000000000000b9e4       0x88 .build/obj_massdrop_alt_default_md/protocol/arm_atsam/usb/usb.o
                0x000000000000b9e4                usb_device_endpoint_disable_callback
 .text.usb_device_endpoint_get_config_defaults
                0x000000000000ba6c        0xe .build/obj_massdrop_alt_default_md/protocol/arm_atsam/usb/usb.o
                0x000000000000ba6c                usb_device_endpoint_get_config_defaults
 *fill*         0x000000000000ba7a        0x2 
 .text.usb_device_endpoint_set_config
                0x000000000000ba7c      0x180 .build/obj_massdrop_alt_default_md/protocol/arm_atsam/usb/usb.o
                0x000000000000ba7c                usb_device_endpoint_set_config
 .text.usb_device_endpoint_abort_job
                0x000000000000bbfc       0x2c .build/obj_massdrop_alt_default_md/protocol/arm_atsam/usb/usb.o
                0x000000000000bbfc                usb_device_endpoint_abort_job
 .text.usb_device_endpoint_is_halted
                0x000000000000bc28       0x1e .build/obj_massdrop_alt_default_md/protocol/arm_atsam/usb/usb.o
                0x000000000000bc28                usb_device_endpoint_is_halted
 .text.usb_device_endpoint_set_halt
                0x000000000000bc46       0x1a .build/obj_massdrop_alt_default_md/protocol/arm_atsam/usb/usb.o
                0x000000000000bc46                usb_device_endpoint_set_halt
 .text.usb_device_endpoint_clear_halt
                0x000000000000bc60       0x6a .build/obj_massdrop_alt_default_md/protocol/arm_atsam/usb/usb.o
                0x000000000000bc60                usb_device_endpoint_clear_halt
 *fill*         0x000000000000bcca        0x2 
 .text.usb_device_endpoint_write_buffer_job
                0x000000000000bccc       0x40 .build/obj_massdrop_alt_default_md/protocol/arm_atsam/usb/usb.o
                0x000000000000bccc                usb_device_endpoint_write_buffer_job
 .text.usb_device_endpoint_read_buffer_job
                0x000000000000bd0c       0x3c .build/obj_massdrop_alt_default_md/protocol/arm_atsam/usb/usb.o
                0x000000000000bd0c                usb_device_endpoint_read_buffer_job
 .text.usb_device_endpoint_setup_buffer_job
                0x000000000000bd48       0x28 .build/obj_massdrop_alt_default_md/protocol/arm_atsam/usb/usb.o
                0x000000000000bd48                usb_device_endpoint_setup_buffer_job
 .text.usb_enable
                0x000000000000bd70       0x14 .build/obj_massdrop_alt_default_md/protocol/arm_atsam/usb/usb.o
                0x000000000000bd70                usb_enable
 .text.USB_0_Handler
                0x000000000000bd84       0x18 .build/obj_massdrop_alt_default_md/protocol/arm_atsam/usb/usb.o
                0x000000000000bd84                USB_0_Handler
 .text.USB_1_Handler
                0x000000000000bd9c        0x4 .build/obj_massdrop_alt_default_md/protocol/arm_atsam/usb/usb.o
                0x000000000000bd9c                USB_1_Handler
 .text.USB_2_Handler
                0x000000000000bda0        0x4 .build/obj_massdrop_alt_default_md/protocol/arm_atsam/usb/usb.o
                0x000000000000bda0                USB_2_Handler
 .text.USB_3_Handler
                0x000000000000bda4        0x4 .build/obj_massdrop_alt_default_md/protocol/arm_atsam/usb/usb.o
                0x000000000000bda4                USB_3_Handler
 .text.usb_get_config_defaults
                0x000000000000bda8        0xe .build/obj_massdrop_alt_default_md/protocol/arm_atsam/usb/usb.o
                0x000000000000bda8                usb_get_config_defaults
 *fill*         0x000000000000bdb6        0x2 
 .text.usb_init
                0x000000000000bdb8      0x1fc .build/obj_massdrop_alt_default_md/protocol/arm_atsam/usb/usb.o
                0x000000000000bdb8                usb_init
 .text.udd_ep_get_job
                0x000000000000bfb4       0x24 .build/obj_massdrop_alt_default_md/protocol/arm_atsam/usb/usb_device_udd.o
 .text.udd_ep_transfer_process
                0x000000000000bfd8      0x140 .build/obj_massdrop_alt_default_md/protocol/arm_atsam/usb/usb_device_udd.o
 .text.udd_ctrl_stall_data
                0x000000000000c118       0x28 .build/obj_massdrop_alt_default_md/protocol/arm_atsam/usb/usb_device_udd.o
 .text._usb_on_wakeup
                0x000000000000c140       0x20 .build/obj_massdrop_alt_default_md/protocol/arm_atsam/usb/usb_device_udd.o
 .text._usb_on_bus_reset
                0x000000000000c160       0x8c .build/obj_massdrop_alt_default_md/protocol/arm_atsam/usb/usb_device_udd.o
 .text.udd_ctrl_send_zlp_in
                0x000000000000c1ec       0x38 .build/obj_massdrop_alt_default_md/protocol/arm_atsam/usb/usb_device_udd.o
 .text._usb_ep0_on_tansfer_fail
                0x000000000000c224       0x38 .build/obj_massdrop_alt_default_md/protocol/arm_atsam/usb/usb_device_udd.o
 .text.udd_ctrl_in_sent
                0x000000000000c25c       0x8c .build/obj_massdrop_alt_default_md/protocol/arm_atsam/usb/usb_device_udd.o
 .text._usb_ep0_on_setup
                0x000000000000c2e8       0xc0 .build/obj_massdrop_alt_default_md/protocol/arm_atsam/usb/usb_device_udd.o
 .text._usb_on_sof_notify
                0x000000000000c3a8        0xe .build/obj_massdrop_alt_default_md/protocol/arm_atsam/usb/usb_device_udd.o
 *fill*         0x000000000000c3b6        0x2 
 .text._usb_on_suspend
                0x000000000000c3b8       0x20 .build/obj_massdrop_alt_default_md/protocol/arm_atsam/usb/usb_device_udd.o
 .text.udd_ep_abort
                0x000000000000c3d8       0x34 .build/obj_massdrop_alt_default_md/protocol/arm_atsam/usb/usb_device_udd.o
                0x000000000000c3d8                udd_ep_abort
 .text.udd_get_frame_number
                0x000000000000c40c       0x10 .build/obj_massdrop_alt_default_md/protocol/arm_atsam/usb/usb_device_udd.o
                0x000000000000c40c                udd_get_frame_number
 .text.udd_ep_free
                0x000000000000c41c       0x44 .build/obj_massdrop_alt_default_md/protocol/arm_atsam/usb/usb_device_udd.o
                0x000000000000c41c                udd_ep_free
 .text.udd_ep_alloc
                0x000000000000c460       0xc0 .build/obj_massdrop_alt_default_md/protocol/arm_atsam/usb/usb_device_udd.o
                0x000000000000c460                udd_ep_alloc
 .text.udd_ep_is_halted
                0x000000000000c520        0xc .build/obj_massdrop_alt_default_md/protocol/arm_atsam/usb/usb_device_udd.o
                0x000000000000c520                udd_ep_is_halted
 .text.udd_ep_set_halt
                0x000000000000c52c       0x28 .build/obj_massdrop_alt_default_md/protocol/arm_atsam/usb/usb_device_udd.o
                0x000000000000c52c                udd_ep_set_halt
 .text._usb_ep0_on_tansfer_ok
                0x000000000000c554       0xcc .build/obj_massdrop_alt_default_md/protocol/arm_atsam/usb/usb_device_udd.o
 .text.udd_ep_clear_halt
                0x000000000000c620       0x34 .build/obj_massdrop_alt_default_md/protocol/arm_atsam/usb/usb_device_udd.o
                0x000000000000c620                udd_ep_clear_halt
 .text.udd_ep_run
                0x000000000000c654      0x144 .build/obj_massdrop_alt_default_md/protocol/arm_atsam/usb/usb_device_udd.o
                0x000000000000c654                udd_ep_run
 .text.udd_set_address
                0x000000000000c798       0x10 .build/obj_massdrop_alt_default_md/protocol/arm_atsam/usb/usb_device_udd.o
                0x000000000000c798                udd_set_address
 .text.udd_getaddress
                0x000000000000c7a8       0x10 .build/obj_massdrop_alt_default_md/protocol/arm_atsam/usb/usb_device_udd.o
                0x000000000000c7a8                udd_getaddress
 .text.udd_send_remotewakeup
                0x000000000000c7b8       0x20 .build/obj_massdrop_alt_default_md/protocol/arm_atsam/usb/usb_device_udd.o
                0x000000000000c7b8                udd_send_remotewakeup
 .text.udd_set_setup_payload
                0x000000000000c7d8        0xc .build/obj_massdrop_alt_default_md/protocol/arm_atsam/usb/usb_device_udd.o
                0x000000000000c7d8                udd_set_setup_payload
 .text.udd_attach
                0x000000000000c7e4       0x74 .build/obj_massdrop_alt_default_md/protocol/arm_atsam/usb/usb_device_udd.o
                0x000000000000c7e4                udd_attach
 .text.udd_enable
                0x000000000000c858       0x40 .build/obj_massdrop_alt_default_md/protocol/arm_atsam/usb/usb_device_udd.o
                0x000000000000c858                udd_enable
 .text          0x000000000000c898      0x378 /usr/local/Cellar/gcc-arm-none-eabi/20180627/bin/../lib/gcc/arm-none-eabi/7.3.1/thumb/v7e-m/fpv4-sp/hard/libgcc.a(_arm_addsubdf3.o)
                0x000000000000c898                __aeabi_drsub
                0x000000000000c8a0                __subdf3
                0x000000000000c8a0                __aeabi_dsub
                0x000000000000c8a4                __aeabi_dadd
                0x000000000000c8a4                __adddf3
                0x000000000000cb1c                __aeabi_ui2d
                0x000000000000cb1c                __floatunsidf
                0x000000000000cb3c                __floatsidf
                0x000000000000cb3c                __aeabi_i2d
                0x000000000000cb60                __extendsfdf2
                0x000000000000cb60                __aeabi_f2d
                0x000000000000cba4                __aeabi_ul2d
                0x000000000000cba4                __floatundidf
                0x000000000000cbb4                __aeabi_l2d
                0x000000000000cbb4                __floatdidf
 .text          0x000000000000cc10      0x424 /usr/local/Cellar/gcc-arm-none-eabi/20180627/bin/../lib/gcc/arm-none-eabi/7.3.1/thumb/v7e-m/fpv4-sp/hard/libgcc.a(_arm_muldivdf3.o)
                0x000000000000cc10                __aeabi_dmul
                0x000000000000cc10                __muldf3
                0x000000000000ce64                __aeabi_ddiv
                0x000000000000ce64                __divdf3
 .text          0x000000000000d034       0x40 /usr/local/Cellar/gcc-arm-none-eabi/20180627/bin/../lib/gcc/arm-none-eabi/7.3.1/thumb/v7e-m/fpv4-sp/hard/libgcc.a(_arm_fixunsdfsi.o)
                0x000000000000d034                __fixunsdfsi
                0x000000000000d034                __aeabi_d2uiz
 .text          0x000000000000d074       0xa0 /usr/local/Cellar/gcc-arm-none-eabi/20180627/bin/../lib/gcc/arm-none-eabi/7.3.1/thumb/v7e-m/fpv4-sp/hard/libgcc.a(_arm_truncdfsf2.o)
                0x000000000000d074                __aeabi_d2f
                0x000000000000d074                __truncdfsf2
 .text          0x000000000000d114       0x30 /usr/local/Cellar/gcc-arm-none-eabi/20180627/bin/../lib/gcc/arm-none-eabi/7.3.1/thumb/v7e-m/fpv4-sp/hard/libgcc.a(_aeabi_uldivmod.o)
                0x000000000000d114                __aeabi_uldivmod
 .text          0x000000000000d144      0x2cc /usr/local/Cellar/gcc-arm-none-eabi/20180627/bin/../lib/gcc/arm-none-eabi/7.3.1/thumb/v7e-m/fpv4-sp/hard/libgcc.a(_udivmoddi4.o)
                0x000000000000d144                __udivmoddi4
 .text          0x000000000000d410        0x4 /usr/local/Cellar/gcc-arm-none-eabi/20180627/bin/../lib/gcc/arm-none-eabi/7.3.1/thumb/v7e-m/fpv4-sp/hard/libgcc.a(_dvmd_tls.o)
                0x000000000000d410                __aeabi_ldiv0
                0x000000000000d410                __aeabi_idiv0
 .text.__libc_init_array
                0x000000000000d414       0x48 /usr/local/Cellar/gcc-arm-none-eabi/20180627/bin/../lib/gcc/arm-none-eabi/7.3.1/../../../../arm-none-eabi/lib/thumb/v7e-m/fpv4-sp/hard/libg.a(lib_a-init.o)
                0x000000000000d414                __libc_init_array
 .text          0x000000000000d45c      0x134 /usr/local/Cellar/gcc-arm-none-eabi/20180627/bin/../lib/gcc/arm-none-eabi/7.3.1/../../../../arm-none-eabi/lib/thumb/v7e-m/fpv4-sp/hard/libg.a(lib_a-memcpy.o)
                0x000000000000d45c                memcpy
 .text.memset   0x000000000000d590       0x94 /usr/local/Cellar/gcc-arm-none-eabi/20180627/bin/../lib/gcc/arm-none-eabi/7.3.1/../../../../arm-none-eabi/lib/thumb/v7e-m/fpv4-sp/hard/libg.a(lib_a-memset.o)
                0x000000000000d590                memset
 .text.rand     0x000000000000d624       0x3c /usr/local/Cellar/gcc-arm-none-eabi/20180627/bin/../lib/gcc/arm-none-eabi/7.3.1/../../../../arm-none-eabi/lib/thumb/v7e-m/fpv4-sp/hard/libg.a(lib_a-rand.o)
                0x000000000000d624                rand
 .text.startup.register_fini
                0x000000000000d660       0x14 /usr/local/Cellar/gcc-arm-none-eabi/20180627/bin/../lib/gcc/arm-none-eabi/7.3.1/../../../../arm-none-eabi/lib/thumb/v7e-m/fpv4-sp/hard/libg.a(lib_a-__call_atexit.o)
 .text.atexit   0x000000000000d674        0xc /usr/local/Cellar/gcc-arm-none-eabi/20180627/bin/../lib/gcc/arm-none-eabi/7.3.1/../../../../arm-none-eabi/lib/thumb/v7e-m/fpv4-sp/hard/libg.a(lib_a-atexit.o)
                0x000000000000d674                atexit
 .text.__libc_fini_array
                0x000000000000d680       0x34 /usr/local/Cellar/gcc-arm-none-eabi/20180627/bin/../lib/gcc/arm-none-eabi/7.3.1/../../../../arm-none-eabi/lib/thumb/v7e-m/fpv4-sp/hard/libg.a(lib_a-fini.o)
                0x000000000000d680                __libc_fini_array
 .text.__retarget_lock_acquire_recursive
                0x000000000000d6b4        0x4 /usr/local/Cellar/gcc-arm-none-eabi/20180627/bin/../lib/gcc/arm-none-eabi/7.3.1/../../../../arm-none-eabi/lib/thumb/v7e-m/fpv4-sp/hard/libg.a(lib_a-lock.o)
                0x000000000000d6b4                __retarget_lock_acquire_recursive
 .text.__retarget_lock_release_recursive
                0x000000000000d6b8        0x4 /usr/local/Cellar/gcc-arm-none-eabi/20180627/bin/../lib/gcc/arm-none-eabi/7.3.1/../../../../arm-none-eabi/lib/thumb/v7e-m/fpv4-sp/hard/libg.a(lib_a-lock.o)
                0x000000000000d6b8                __retarget_lock_release_recursive
 .text.__register_exitproc
                0x000000000000d6bc       0xc0 /usr/local/Cellar/gcc-arm-none-eabi/20180627/bin/../lib/gcc/arm-none-eabi/7.3.1/../../../../arm-none-eabi/lib/thumb/v7e-m/fpv4-sp/hard/libg.a(lib_a-__atexit.o)
                0x000000000000d6bc                __register_exitproc
 *(.glue_7t)
 .glue_7t       0x000000000000d77c        0x0 linker stubs
 *(.glue_7)
 .glue_7        0x000000000000d77c        0x0 linker stubs
 *(.rodata .rodata* .gnu.linkonce.r.*)
 .rodata        0x000000000000d77c      0x12c .build/obj_massdrop_alt_default_md/keyboards/massdrop/alt/keymaps/default_md/keymap.o
                0x000000000000d77c                keymaps
 .rodata        0x000000000000d8a8        0x0 .build/obj_massdrop_alt_default_md/quantum/keymap_common.o
                0x000000000000d8a8                fn_actions
 .rodata        0x000000000000d8a8        0xd .build/obj_massdrop_alt_default_md/quantum/rgb_matrix.o
                0x000000000000d8b3                k_rgb_matrix_center
 .rodata        0x000000000000d8b5      0x100 .build/obj_massdrop_alt_default_md/quantum/led_tables.o
                0x000000000000d8b5                CIE1931_CURVE
 *fill*         0x000000000000d9b5        0x3 
 .rodata        0x000000000000d9b8       0x1e .build/obj_massdrop_alt_default_md/protocol/arm_atsam/clks.o
                0x000000000000d9b8                sercom_apbbase
                0x000000000000d9d0                sercom_pchan
 .rodata        0x000000000000d9d6        0x2 .build/obj_massdrop_alt_default_md/protocol/arm_atsam/i2c_master.o
 .rodata        0x000000000000d9d8        0x1 .build/obj_massdrop_alt_default_md/protocol/arm_atsam/led_matrix_programs.o
                0x000000000000d9d8                led_setups_count
 *fill*         0x000000000000d9d9        0x3 
 .rodata        0x000000000000d9dc       0x10 .build/obj_massdrop_alt_default_md/protocol/arm_atsam/led_matrix.o
                0x000000000000d9dc                rgb_matrix_driver
 .rodata.str1.1
                0x000000000000d9ec       0x52 .build/obj_massdrop_alt_default_md/protocol/arm_atsam/led_matrix.o
 .rodata.str1.1
                0x000000000000da3e        0xc .build/obj_massdrop_alt_default_md/protocol/arm_atsam/usb/udc.o
 .rodata        0x000000000000da4a       0x48 .build/obj_massdrop_alt_default_md/protocol/arm_atsam/usb/usb2422.o
                0x000000000000da4a                SERNAME
                0x000000000000da60                MFRNAME
                0x000000000000da7a                PRDNAME
 .rodata.str1.1
                0x000000000000da92       0x69 .build/obj_massdrop_alt_default_md/protocol/arm_atsam/usb/usb2422.o
 *fill*         0x000000000000dafb        0x1 
 .rodata        0x000000000000dafc       0x12 .build/obj_massdrop_alt_default_md/protocol/arm_atsam/usb/usb.o
 *fill*         0x000000000000db0e        0x2 
 .rodata._global_impure_ptr
                0x000000000000db10        0x4 /usr/local/Cellar/gcc-arm-none-eabi/20180627/bin/../lib/gcc/arm-none-eabi/7.3.1/../../../../arm-none-eabi/lib/thumb/v7e-m/fpv4-sp/hard/libg.a(lib_a-impure.o)
                0x000000000000db10                _global_impure_ptr
 *(.ARM.extab* .gnu.linkonce.armextab.*)
                0x000000000000db14                . = ALIGN (0x4)
 *(.init)
 .init          0x000000000000db14        0x4 /usr/local/Cellar/gcc-arm-none-eabi/20180627/bin/../lib/gcc/arm-none-eabi/7.3.1/thumb/v7e-m/fpv4-sp/hard/crti.o
                0x000000000000db14                _init
 .init          0x000000000000db18        0x8 /usr/local/Cellar/gcc-arm-none-eabi/20180627/bin/../lib/gcc/arm-none-eabi/7.3.1/thumb/v7e-m/fpv4-sp/hard/crtn.o
                0x000000000000db20                . = ALIGN (0x4)
                0x000000000000db20                __preinit_array_start = .
 *(.preinit_array)
                0x000000000000db20                __preinit_array_end = .
                0x000000000000db20                . = ALIGN (0x4)
                0x000000000000db20                __init_array_start = .
 *(SORT_BY_NAME(.init_array.*))
 .init_array.00000
                0x000000000000db20        0x4 /usr/local/Cellar/gcc-arm-none-eabi/20180627/bin/../lib/gcc/arm-none-eabi/7.3.1/../../../../arm-none-eabi/lib/thumb/v7e-m/fpv4-sp/hard/libg.a(lib_a-__call_atexit.o)
 *(.init_array)
 .init_array    0x000000000000db24        0x4 /usr/local/Cellar/gcc-arm-none-eabi/20180627/bin/../lib/gcc/arm-none-eabi/7.3.1/thumb/v7e-m/fpv4-sp/hard/crtbegin.o
                0x000000000000db28                __init_array_end = .
                0x000000000000db28                . = ALIGN (0x4)
 *crtbegin.o(.ctors)
 *(EXCLUDE_FILE(*crtend.o) .ctors)
 *(SORT_BY_NAME(.ctors.*))
 *crtend.o(.ctors)
                0x000000000000db28                . = ALIGN (0x4)
 *(.fini)
 .fini          0x000000000000db28        0x4 /usr/local/Cellar/gcc-arm-none-eabi/20180627/bin/../lib/gcc/arm-none-eabi/7.3.1/thumb/v7e-m/fpv4-sp/hard/crti.o
                0x000000000000db28                _fini
 .fini          0x000000000000db2c        0x8 /usr/local/Cellar/gcc-arm-none-eabi/20180627/bin/../lib/gcc/arm-none-eabi/7.3.1/thumb/v7e-m/fpv4-sp/hard/crtn.o
                0x000000000000db34                . = ALIGN (0x4)
                0x000000000000db34                __fini_array_start = .
 *(.fini_array)
 .fini_array    0x000000000000db34        0x4 /usr/local/Cellar/gcc-arm-none-eabi/20180627/bin/../lib/gcc/arm-none-eabi/7.3.1/thumb/v7e-m/fpv4-sp/hard/crtbegin.o
 *(SORT_BY_NAME(.fini_array.*))
                0x000000000000db38                __fini_array_end = .
 *crtbegin.o(.dtors)
 *(EXCLUDE_FILE(*crtend.o) .dtors)
 *(SORT_BY_NAME(.dtors.*))
 *crtend.o(.dtors)
                0x000000000000db38                . = ALIGN (0x4)
                0x000000000000db38                _efixed = .
                [!provide]                        PROVIDE (__exidx_start = .)

.vfp11_veneer   0x000000000000db38        0x0
 .vfp11_veneer  0x000000000000db38        0x0 linker stubs

.v4_bx          0x000000000000db38        0x0
 .v4_bx         0x000000000000db38        0x0 linker stubs

.iplt           0x000000000000db38        0x0
 .iplt          0x000000000000db38        0x0 /usr/local/Cellar/gcc-arm-none-eabi/20180627/bin/../lib/gcc/arm-none-eabi/7.3.1/thumb/v7e-m/fpv4-sp/hard/crtbegin.o

.igot.plt       0x000000000000db38        0x0
 .igot.plt      0x000000000000db38        0x0 /usr/local/Cellar/gcc-arm-none-eabi/20180627/bin/../lib/gcc/arm-none-eabi/7.3.1/thumb/v7e-m/fpv4-sp/hard/crtbegin.o

.ARM.exidx      0x000000000000db38        0x8
 *(.ARM.exidx* .gnu.linkonce.armexidx.*)
 .ARM.exidx     0x000000000000db38        0x8 /usr/local/Cellar/gcc-arm-none-eabi/20180627/bin/../lib/gcc/arm-none-eabi/7.3.1/thumb/v7e-m/fpv4-sp/hard/libgcc.a(_udivmoddi4.o)
                [!provide]                        PROVIDE (__exidx_end = .)

.eh_frame       0x000000000000db40        0x0
 .eh_frame      0x000000000000db40        0x0 /usr/local/Cellar/gcc-arm-none-eabi/20180627/bin/../lib/gcc/arm-none-eabi/7.3.1/thumb/v7e-m/fpv4-sp/hard/crtbegin.o

.rel.dyn        0x000000000000db40        0x0
 .rel.iplt      0x000000000000db40        0x0 /usr/local/Cellar/gcc-arm-none-eabi/20180627/bin/../lib/gcc/arm-none-eabi/7.3.1/thumb/v7e-m/fpv4-sp/hard/crtbegin.o
                0x000000000000db40                . = ALIGN (0x4)
                0x000000000000db40                _etext = .

.relocate       0x0000000020000000     0x1dd4 load address 0x000000000000db40
                0x0000000020000000                . = ALIGN (0x4)
                0x0000000020000000                _srelocate = .
 *(.ramfunc .ramfunc.*)
 *(.data .data.*)
 .data          0x0000000020000000       0x23 .build/obj_massdrop_alt_default_md/matrix.o
                0x0000000020000000                row_pins
                0x0000000020000005                col_pins
                0x0000000020000014                col_ports
 .data          0x0000000020000023      0x186 .build/obj_massdrop_alt_default_md/config_led.o
                0x0000000020000023                g_led_config
 *fill*         0x00000000200001a9        0x3 
 .data          0x00000000200001ac       0x38 .build/obj_massdrop_alt_default_md/keyboards/massdrop/alt/keymaps/default_md/keymap.o
                0x00000000200001ac                led_instructions
 .data          0x00000000200001e4        0x6 .build/obj_massdrop_alt_default_md/quantum/rgb_matrix.o
 *fill*         0x00000000200001ea        0x2 
 .data          0x00000000200001ec        0x4 .build/obj_massdrop_alt_default_md/common/action_util.o
                0x00000000200001ec                keyboard_report
 .data          0x00000000200001f0      0x3a4 .build/obj_massdrop_alt_default_md/protocol/arm_atsam/led_matrix_programs.o
                0x00000000200001f0                led_setups
                0x000000002000021c                leds_rainbow_s
                0x00000000200002c4                leds_rainbow_ns
                0x000000002000036c                leds_black_with_red_stripe
                0x00000000200003b4                leds_white_with_red_stripe
                0x0000000020000414                leds_white
                0x0000000020000444                leds_blue
                0x0000000020000474                leds_green
                0x00000000200004a4                leds_red
                0x00000000200004d4                leds_off
                0x0000000020000504                leds_yellow
                0x0000000020000534                leds_teal_salmon
 .data          0x0000000020000594     0x1230 .build/obj_massdrop_alt_default_md/protocol/arm_atsam/led_matrix.o
                0x0000000020000594                led_enabled
                0x0000000020000595                breathe_dir
                0x0000000020000598                led_animation_speed
                0x000000002000059c                led_map
 .data          0x00000000200017c4       0x18 .build/obj_massdrop_alt_default_md/protocol/arm_atsam/main_arm_atsam.o
                0x00000000200017c4                g_usb_state
                0x00000000200017c8                arm_atsam_driver
 .data          0x00000000200017dc        0x1 .build/obj_massdrop_alt_default_md/protocol/arm_atsam/usb/main_usb.o
                0x00000000200017dc                keyboard_protocol
 *fill*         0x00000000200017dd        0x3 
 .data          0x00000000200017e0       0x4a .build/obj_massdrop_alt_default_md/protocol/arm_atsam/usb/udc.o
 *fill*         0x000000002000182a        0x2 
 .data          0x000000002000182c       0xec .build/obj_massdrop_alt_default_md/protocol/arm_atsam/usb/udi_hid_kbd.o
                0x000000002000182c                udi_hid_kbd_report_desc
                0x0000000020001868                udi_hid_nkro_report_desc
                0x00000000200018a4                udi_hid_exk_report_desc
                0x00000000200018dc                udi_api_hid_exk
                0x00000000200018f0                udi_api_hid_nkro
                0x0000000020001904                udi_api_hid_kbd
 .data          0x0000000020001918       0x86 .build/obj_massdrop_alt_default_md/protocol/arm_atsam/usb/udi_hid_kbd_desc.o
                0x0000000020001918                udc_config
                0x0000000020001924                udc_config_fshs
                0x000000002000192c                udi_apis
                0x0000000020001938                udc_desc
                0x000000002000198c                udc_device_desc
 *fill*         0x000000002000199e        0x2 
 .data._impure_ptr
                0x00000000200019a0        0x4 /usr/local/Cellar/gcc-arm-none-eabi/20180627/bin/../lib/gcc/arm-none-eabi/7.3.1/../../../../arm-none-eabi/lib/thumb/v7e-m/fpv4-sp/hard/libg.a(lib_a-impure.o)
                0x00000000200019a0                _impure_ptr
 *fill*         0x00000000200019a4        0x4 
 .data.impure_data
                0x00000000200019a8      0x428 /usr/local/Cellar/gcc-arm-none-eabi/20180627/bin/../lib/gcc/arm-none-eabi/7.3.1/../../../../arm-none-eabi/lib/thumb/v7e-m/fpv4-sp/hard/libg.a(lib_a-impure.o)
 .data.__atexit_recursive_mutex
                0x0000000020001dd0        0x4 /usr/local/Cellar/gcc-arm-none-eabi/20180627/bin/../lib/gcc/arm-none-eabi/7.3.1/../../../../arm-none-eabi/lib/thumb/v7e-m/fpv4-sp/hard/libg.a(lib_a-__call_atexit.o)
                0x0000000020001dd0                __atexit_recursive_mutex
                0x0000000020001dd4                . = ALIGN (0x4)
                0x0000000020001dd4                _erelocate = .

.bkupram        0x0000000047000000        0x0
                0x0000000047000000                . = ALIGN (0x8)
                0x0000000047000000                _sbkupram = .
 *(.bkupram .bkupram.*)
                0x0000000047000000                . = ALIGN (0x8)
                0x0000000047000000                _ebkupram = .

.qspi           0x0000000004000000        0x0
                0x0000000004000000                . = ALIGN (0x8)
                0x0000000004000000                _sqspi = .
 *(.qspi .qspi.*)
                0x0000000004000000                . = ALIGN (0x8)
                0x0000000004000000                _eqspi = .

.bss            0x0000000020001de0      0xeac load address 0x000000000000f920
                0x0000000020001de0                . = ALIGN (0x4)
                0x0000000020001de0                _sbss = .
                0x0000000020001de0                _szero = .
 *(.bss .bss.*)
 .bss           0x0000000020001de0       0x1c /usr/local/Cellar/gcc-arm-none-eabi/20180627/bin/../lib/gcc/arm-none-eabi/7.3.1/thumb/v7e-m/fpv4-sp/hard/crtbegin.o
 *fill*         0x0000000020001dfc        0x4 
 .bss           0x0000000020001e00       0x10 .build/obj_massdrop_alt_default_md/matrix.o
                0x0000000020001e00                row_ports
                0x0000000020001e08                mdebouncing
 .bss           0x0000000020001e10        0x4 .build/obj_massdrop_alt_default_md/keyboards/massdrop/alt/keymaps/default_md/keymap.o
 .bss           0x0000000020001e14        0x1 .build/obj_massdrop_alt_default_md/quantum/quantum.o
 *fill*         0x0000000020001e15        0x3 
 .bss           0x0000000020001e18       0x31 .build/obj_massdrop_alt_default_md/quantum/rgb_matrix.o
                0x0000000020001e48                g_suspend_state
 *fill*         0x0000000020001e49        0x1 
 .bss           0x0000000020001e4a        0x4 .build/obj_massdrop_alt_default_md/quantum/process_keycode/process_space_cadet.o
 *fill*         0x0000000020001e4e        0x2 
 .bss           0x0000000020001e50        0x8 .build/obj_massdrop_alt_default_md/common/host.o
 .bss           0x0000000020001e58        0xb .build/obj_massdrop_alt_default_md/common/keyboard.o
 .bss           0x0000000020001e63        0x1 .build/obj_massdrop_alt_default_md/common/action.o
                0x0000000020001e63                disable_action_cache
 .bss           0x0000000020001e64       0x4c .build/obj_massdrop_alt_default_md/common/action_tapping.o
 .bss           0x0000000020001eb0       0x3a .build/obj_massdrop_alt_default_md/common/action_layer.o
                0x0000000020001eb0                default_layer_state
                0x0000000020001eb4                layer_state
                0x0000000020001eb8                source_layers_cache
 .bss           0x0000000020001eea       0x26 .build/obj_massdrop_alt_default_md/common/action_util.o
 .bss           0x0000000020001f10        0x1 .build/obj_massdrop_alt_default_md/common/debug.o
                0x0000000020001f10                debug_config
 .bss           0x0000000020001f11       0x20 .build/obj_massdrop_alt_default_md/common/arm_atsam/eeprom.o
 *fill*         0x0000000020001f31        0x3 
 .bss           0x0000000020001f34        0x4 .build/obj_massdrop_alt_default_md/protocol/arm_atsam/d51_util.o
 .bss           0x0000000020001f38      0x166 .build/obj_massdrop_alt_default_md/protocol/arm_atsam/i2c_master.o
 .bss           0x000000002000209e        0x8 .build/obj_massdrop_alt_default_md/protocol/arm_atsam/led_matrix.o
                0x000000002000209e                led_animation_direction
                0x000000002000209f                led_animation_orientation
                0x00000000200020a0                led_lighting_mode
                0x00000000200020a1                led_animation_id
                0x00000000200020a2                led_animation_breathing
                0x00000000200020a3                led_animation_breathe_cur
 *fill*         0x00000000200020a6        0x2 
 .bss           0x00000000200020a8       0x18 .build/obj_massdrop_alt_default_md/protocol/arm_atsam/main_arm_atsam.o
 .bss           0x00000000200020c0        0x3 .build/obj_massdrop_alt_default_md/protocol/arm_atsam/usb/main_usb.o
                0x00000000200020c0                main_b_kbd_enable
                0x00000000200020c1                main_b_nkro_enable
                0x00000000200020c2                main_b_exk_enable
 *fill*         0x00000000200020c3        0x1 
 .bss           0x00000000200020c4       0x28 .build/obj_massdrop_alt_default_md/protocol/arm_atsam/usb/udc.o
                0x00000000200020d2                bootloader_serial_number
                0x00000000200020e7                usb_device_serial_name_size
 .bss           0x00000000200020ec       0x43 .build/obj_massdrop_alt_default_md/protocol/arm_atsam/usb/udi_hid_kbd.o
 *fill*         0x000000002000212f        0x1 
 .bss           0x0000000020002130       0x10 .build/obj_massdrop_alt_default_md/protocol/arm_atsam/usb/usb.o
 .bss           0x0000000020002140       0xa7 .build/obj_massdrop_alt_default_md/protocol/arm_atsam/usb/usb_device_udd.o
 *(COMMON)
 *fill*         0x00000000200021e7        0x9 
 COMMON         0x00000000200021f0       0x50 .build/obj_massdrop_alt_default_md/matrix.o
                0x00000000200021f0                dmac_desc_wb
                0x0000000020002200                row_masks
                0x0000000020002208                mdebounced
                0x0000000020002212                mlatest
                0x000000002000221c                mlast
                0x0000000020002230                dmac_desc
 COMMON         0x0000000020002240        0x2 .build/obj_massdrop_alt_default_md/keyboards/massdrop/alt/keymaps/default_md/keymap.o
                0x0000000020002240                keymap_config
 *fill*         0x0000000020002242        0x2 
 COMMON         0x0000000020002244       0x39 .build/obj_massdrop_alt_default_md/quantum/rgb_matrix.o
                0x0000000020002244                rgb_matrix_config
                0x000000002000224c                g_last_hit_tracker
                0x0000000020002275                g_rgb_counters
 *fill*         0x000000002000227d        0x1 
 COMMON         0x000000002000227e        0xc .build/obj_massdrop_alt_default_md/protocol/arm_atsam/adc.o
                0x000000002000227e                v_con_1_boot
                0x0000000020002280                v_con_1
                0x0000000020002282                v_con_2
                0x0000000020002284                v_con_2_boot
                0x0000000020002286                v_5v
                0x0000000020002288                v_5v_avg
 *fill*         0x000000002000228a        0x6 
 COMMON         0x0000000020002290       0x78 .build/obj_massdrop_alt_default_md/protocol/arm_atsam/clks.o
                0x0000000020002290                usec_delay_mult
                0x0000000020002294                system_clks
                0x0000000020002300                ms_clk
 COMMON         0x0000000020002308        0x4 .build/obj_massdrop_alt_default_md/protocol/arm_atsam/d51_util.o
                0x0000000020002308                debug_code
 COMMON         0x000000002000230c        0x1 .build/obj_massdrop_alt_default_md/protocol/arm_atsam/i2c_master.o
                0x000000002000230c                i2c_led_q_running
 *fill*         0x000000002000230d        0x3 
 COMMON         0x0000000020002310      0x509 .build/obj_massdrop_alt_default_md/protocol/arm_atsam/led_matrix.o
                0x0000000020002310                breathe_mult
                0x0000000020002314                issidrv
                0x00000000200026d6                led_buffer
                0x0000000020002811                gcr_desired
                0x0000000020002812                gcr_actual
                0x0000000020002813                gcr_breathe
                0x0000000020002814                pomod
                0x0000000020002818                gcr_actual_last
 *fill*         0x0000000020002819        0x1 
 COMMON         0x000000002000281a        0x2 .build/obj_massdrop_alt_default_md/protocol/arm_atsam/spi.o
                0x000000002000281a                sr_exp_data
 COMMON         0x000000002000281c        0xd .build/obj_massdrop_alt_default_md/protocol/arm_atsam/usb/udi_cdc.o
                0x000000002000281c                inbuf
                0x0000000020002828                printbuf
 *fill*         0x0000000020002829        0x3 
 COMMON         0x000000002000282c       0x3d .build/obj_massdrop_alt_default_md/protocol/arm_atsam/usb/udi_hid_kbd.o
                0x000000002000282c                udi_hid_nkro_b_report_valid
                0x0000000020002830                udi_hid_kbd_report
                0x0000000020002838                udi_hid_kbd_b_report_valid
                0x0000000020002839                udi_hid_kbd_b_report_trans_ongoing
                0x000000002000283a                udi_hid_exk_b_report_valid
                0x000000002000283b                udi_hid_nkro_b_report_trans_ongoing
                0x000000002000283c                udi_hid_exk_report_set
                0x0000000020002840                udi_hid_nkro_report
                0x0000000020002860                udi_hid_exk_report
                0x0000000020002864                udi_hid_nkro_report_set
                0x0000000020002868                udi_hid_kbd_report_set
 *fill*         0x0000000020002869        0x1 
 COMMON         0x000000002000286a      0x12a .build/obj_massdrop_alt_default_md/protocol/arm_atsam/usb/usb2422.o
                0x000000002000286a                usb_gcr_auto
                0x000000002000286b                i2c0_buf
                0x000000002000288d                usb_extra_state
                0x000000002000288e                usb_extra_manual
                0x0000000020002890                adc_extra
                0x0000000020002892                usb_host_port
                0x0000000020002894                USB2422_shadow
 COMMON         0x0000000020002994      0x100 .build/obj_massdrop_alt_default_md/protocol/arm_atsam/usb/usb.o
                0x0000000020002994                usb_descriptor_table
 COMMON         0x0000000020002a94      0x1d4 .build/obj_massdrop_alt_default_md/protocol/arm_atsam/usb/usb_device_udd.o
                0x0000000020002a94                udd_ep_out_cache_buffer
                0x0000000020002b94                usb_device
                0x0000000020002c48                udd_g_ctrlreq
                0x0000000020002c60                udd_ctrl_buffer
 COMMON         0x0000000020002c68       0x21 /usr/local/Cellar/gcc-arm-none-eabi/20180627/bin/../lib/gcc/arm-none-eabi/7.3.1/../../../../arm-none-eabi/lib/thumb/v7e-m/fpv4-sp/hard/libg.a(lib_a-lock.o)
                0x0000000020002c68                __lock___atexit_recursive_mutex
                0x0000000020002c6c                __lock___arc4random_mutex
                0x0000000020002c70                __lock___env_recursive_mutex
                0x0000000020002c74                __lock___sinit_recursive_mutex
                0x0000000020002c78                __lock___malloc_recursive_mutex
                0x0000000020002c7c                __lock___at_quick_exit_mutex
                0x0000000020002c80                __lock___dd_hash_mutex
                0x0000000020002c84                __lock___tz_mutex
                0x0000000020002c88                __lock___sfp_recursive_mutex
                0x0000000020002c8c                . = ALIGN (0x4)
 *fill*         0x0000000020002c89        0x3 
                0x0000000020002c8c                _ebss = .
                0x0000000020002c8c                _ezero = .

.heap           0x0000000020002c8c      0x800 load address 0x00000000000107cc
                0x0000000020002c8c                . = ALIGN (0x4)
                0x0000000020002c8c                _end = .
                0x0000000020002c8c                end = .
                0x0000000020002c8c                _heap_start = .
                0x000000002000348c                . = (. + HEAP_SIZE)
 *fill*         0x0000000020002c8c      0x800 
                0x000000002000348c                _heap_end = .

.stack          0x000000002000348c     0x8004 load address 0x0000000000010fcc
                0x0000000020003490                . = ALIGN (0x8)
 *fill*         0x000000002000348c        0x4 
                0x0000000020003490                _sstack = .
                0x000000002000b490                . = (. + STACK_SIZE)
 *fill*         0x0000000020003490     0x8000 
                0x000000002000b490                . = ALIGN (0x8)
                0x000000002000b490                _estack = .
                0x000000002000b490                . = ALIGN (0x4)
                0x000000002000b490                _end = .
OUTPUT(.build/massdrop_alt_default_md.elf elf32-littlearm)

.ARM.attributes
                0x0000000000000000       0x30
 .ARM.attributes
                0x0000000000000000       0x22 /usr/local/Cellar/gcc-arm-none-eabi/20180627/bin/../lib/gcc/arm-none-eabi/7.3.1/thumb/v7e-m/fpv4-sp/hard/crti.o
 .ARM.attributes
                0x0000000000000022       0x34 /usr/local/Cellar/gcc-arm-none-eabi/20180627/bin/../lib/gcc/arm-none-eabi/7.3.1/thumb/v7e-m/fpv4-sp/hard/crtbegin.o
 .ARM.attributes
                0x0000000000000056       0x39 .build/obj_massdrop_alt_default_md/matrix.o
 .ARM.attributes
                0x000000000000008f       0x39 .build/obj_massdrop_alt_default_md/config_led.o
 .ARM.attributes
                0x00000000000000c8       0x39 .build/obj_massdrop_alt_default_md/keyboards/massdrop/alt/keymaps/default_md/keymap.o
 .ARM.attributes
                0x0000000000000101       0x39 .build/obj_massdrop_alt_default_md/quantum/quantum.o
 .ARM.attributes
                0x000000000000013a       0x39 .build/obj_massdrop_alt_default_md/quantum/keymap_common.o
 .ARM.attributes
                0x0000000000000173       0x39 .build/obj_massdrop_alt_default_md/quantum/keycode_config.o
 .ARM.attributes
                0x00000000000001ac       0x39 .build/obj_massdrop_alt_default_md/quantum/color.o
 .ARM.attributes
                0x00000000000001e5       0x39 .build/obj_massdrop_alt_default_md/quantum/rgb_matrix.o
 .ARM.attributes
                0x000000000000021e       0x39 .build/obj_massdrop_alt_default_md/quantum/led_tables.o
 .ARM.attributes
                0x0000000000000257       0x39 .build/obj_massdrop_alt_default_md/quantum/process_keycode/process_space_cadet.o
 .ARM.attributes
                0x0000000000000290       0x39 .build/obj_massdrop_alt_default_md/common/host.o
 .ARM.attributes
                0x00000000000002c9       0x39 .build/obj_massdrop_alt_default_md/common/keyboard.o
 .ARM.attributes
                0x0000000000000302       0x39 .build/obj_massdrop_alt_default_md/common/action.o
 .ARM.attributes
                0x000000000000033b       0x39 .build/obj_massdrop_alt_default_md/common/action_tapping.o
 .ARM.attributes
                0x0000000000000374       0x39 .build/obj_massdrop_alt_default_md/common/action_macro.o
 .ARM.attributes
                0x00000000000003ad       0x39 .build/obj_massdrop_alt_default_md/common/action_layer.o
 .ARM.attributes
                0x00000000000003e6       0x39 .build/obj_massdrop_alt_default_md/common/action_util.o
 .ARM.attributes
                0x000000000000041f       0x39 .build/obj_massdrop_alt_default_md/common/debug.o
 .ARM.attributes
                0x0000000000000458       0x39 .build/obj_massdrop_alt_default_md/common/util.o
 .ARM.attributes
                0x0000000000000491       0x39 .build/obj_massdrop_alt_default_md/common/eeconfig.o
 .ARM.attributes
                0x00000000000004ca       0x39 .build/obj_massdrop_alt_default_md/common/report.o
 .ARM.attributes
                0x0000000000000503       0x39 .build/obj_massdrop_alt_default_md/common/arm_atsam/suspend.o
 .ARM.attributes
                0x000000000000053c       0x39 .build/obj_massdrop_alt_default_md/common/arm_atsam/timer.o
 .ARM.attributes
                0x0000000000000575       0x39 .build/obj_massdrop_alt_default_md/common/arm_atsam/bootloader.o
 .ARM.attributes
                0x00000000000005ae       0x39 .build/obj_massdrop_alt_default_md/common/arm_atsam/eeprom.o
 .ARM.attributes
                0x00000000000005e7       0x39 .build/obj_massdrop_alt_default_md/common/magic.o
 .ARM.attributes
                0x0000000000000620       0x39 .build/obj_massdrop_alt_default_md/protocol/arm_atsam/adc.o
 .ARM.attributes
                0x0000000000000659       0x39 .build/obj_massdrop_alt_default_md/protocol/arm_atsam/clks.o
 .ARM.attributes
                0x0000000000000692       0x39 .build/obj_massdrop_alt_default_md/protocol/arm_atsam/d51_util.o
 .ARM.attributes
                0x00000000000006cb       0x39 .build/obj_massdrop_alt_default_md/protocol/arm_atsam/i2c_master.o
 .ARM.attributes
                0x0000000000000704       0x39 .build/obj_massdrop_alt_default_md/protocol/arm_atsam/led_matrix_programs.o
 .ARM.attributes
                0x000000000000073d       0x39 .build/obj_massdrop_alt_default_md/protocol/arm_atsam/led_matrix.o
 .ARM.attributes
                0x0000000000000776       0x39 .build/obj_massdrop_alt_default_md/protocol/arm_atsam/main_arm_atsam.o
 .ARM.attributes
                0x00000000000007af       0x39 .build/obj_massdrop_alt_default_md/protocol/arm_atsam/spi.o
 .ARM.attributes
                0x00000000000007e8       0x39 .build/obj_massdrop_alt_default_md/protocol/arm_atsam/startup.o
 .ARM.attributes
                0x0000000000000821       0x39 .build/obj_massdrop_alt_default_md/protocol/arm_atsam/usb/main_usb.o
 .ARM.attributes
                0x000000000000085a       0x39 .build/obj_massdrop_alt_default_md/protocol/arm_atsam/usb/udc.o
 .ARM.attributes
                0x0000000000000893       0x39 .build/obj_massdrop_alt_default_md/protocol/arm_atsam/usb/udi_cdc.o
 .ARM.attributes
                0x00000000000008cc       0x39 .build/obj_massdrop_alt_default_md/protocol/arm_atsam/usb/udi_hid.o
 .ARM.attributes
                0x0000000000000905       0x39 .build/obj_massdrop_alt_default_md/protocol/arm_atsam/usb/udi_hid_kbd.o
 .ARM.attributes
                0x000000000000093e       0x39 .build/obj_massdrop_alt_default_md/protocol/arm_atsam/usb/udi_hid_kbd_desc.o
 .ARM.attributes
                0x0000000000000977       0x39 .build/obj_massdrop_alt_default_md/protocol/arm_atsam/usb/ui.o
 .ARM.attributes
                0x00000000000009b0       0x39 .build/obj_massdrop_alt_default_md/protocol/arm_atsam/usb/usb2422.o
 .ARM.attributes
                0x00000000000009e9       0x39 .build/obj_massdrop_alt_default_md/protocol/arm_atsam/usb/usb.o
 .ARM.attributes
                0x0000000000000a22       0x39 .build/obj_massdrop_alt_default_md/protocol/arm_atsam/usb/usb_device_udd.o
 .ARM.attributes
                0x0000000000000a5b       0x22 /usr/local/Cellar/gcc-arm-none-eabi/20180627/bin/../lib/gcc/arm-none-eabi/7.3.1/thumb/v7e-m/fpv4-sp/hard/libgcc.a(_arm_addsubdf3.o)
 .ARM.attributes
                0x0000000000000a7d       0x22 /usr/local/Cellar/gcc-arm-none-eabi/20180627/bin/../lib/gcc/arm-none-eabi/7.3.1/thumb/v7e-m/fpv4-sp/hard/libgcc.a(_arm_muldivdf3.o)
 .ARM.attributes
                0x0000000000000a9f       0x22 /usr/local/Cellar/gcc-arm-none-eabi/20180627/bin/../lib/gcc/arm-none-eabi/7.3.1/thumb/v7e-m/fpv4-sp/hard/libgcc.a(_arm_fixunsdfsi.o)
 .ARM.attributes
                0x0000000000000ac1       0x22 /usr/local/Cellar/gcc-arm-none-eabi/20180627/bin/../lib/gcc/arm-none-eabi/7.3.1/thumb/v7e-m/fpv4-sp/hard/libgcc.a(_arm_truncdfsf2.o)
 .ARM.attributes
                0x0000000000000ae3       0x22 /usr/local/Cellar/gcc-arm-none-eabi/20180627/bin/../lib/gcc/arm-none-eabi/7.3.1/thumb/v7e-m/fpv4-sp/hard/libgcc.a(_aeabi_uldivmod.o)
 .ARM.attributes
                0x0000000000000b05       0x34 /usr/local/Cellar/gcc-arm-none-eabi/20180627/bin/../lib/gcc/arm-none-eabi/7.3.1/thumb/v7e-m/fpv4-sp/hard/libgcc.a(_udivmoddi4.o)
 .ARM.attributes
                0x0000000000000b39       0x22 /usr/local/Cellar/gcc-arm-none-eabi/20180627/bin/../lib/gcc/arm-none-eabi/7.3.1/thumb/v7e-m/fpv4-sp/hard/libgcc.a(_dvmd_tls.o)
 .ARM.attributes
                0x0000000000000b5b       0x34 /usr/local/Cellar/gcc-arm-none-eabi/20180627/bin/../lib/gcc/arm-none-eabi/7.3.1/../../../../arm-none-eabi/lib/thumb/v7e-m/fpv4-sp/hard/libg.a(lib_a-impure.o)
 .ARM.attributes
                0x0000000000000b8f       0x34 /usr/local/Cellar/gcc-arm-none-eabi/20180627/bin/../lib/gcc/arm-none-eabi/7.3.1/../../../../arm-none-eabi/lib/thumb/v7e-m/fpv4-sp/hard/libg.a(lib_a-init.o)
 .ARM.attributes
                0x0000000000000bc3       0x20 /usr/local/Cellar/gcc-arm-none-eabi/20180627/bin/../lib/gcc/arm-none-eabi/7.3.1/../../../../arm-none-eabi/lib/thumb/v7e-m/fpv4-sp/hard/libg.a(lib_a-memcpy.o)
 .ARM.attributes
                0x0000000000000be3       0x34 /usr/local/Cellar/gcc-arm-none-eabi/20180627/bin/../lib/gcc/arm-none-eabi/7.3.1/../../../../arm-none-eabi/lib/thumb/v7e-m/fpv4-sp/hard/libg.a(lib_a-memset.o)
 .ARM.attributes
                0x0000000000000c17       0x34 /usr/local/Cellar/gcc-arm-none-eabi/20180627/bin/../lib/gcc/arm-none-eabi/7.3.1/../../../../arm-none-eabi/lib/thumb/v7e-m/fpv4-sp/hard/libg.a(lib_a-rand.o)
 .ARM.attributes
                0x0000000000000c4b       0x34 /usr/local/Cellar/gcc-arm-none-eabi/20180627/bin/../lib/gcc/arm-none-eabi/7.3.1/../../../../arm-none-eabi/lib/thumb/v7e-m/fpv4-sp/hard/libg.a(lib_a-__call_atexit.o)
 .ARM.attributes
                0x0000000000000c7f       0x34 /usr/local/Cellar/gcc-arm-none-eabi/20180627/bin/../lib/gcc/arm-none-eabi/7.3.1/../../../../arm-none-eabi/lib/thumb/v7e-m/fpv4-sp/hard/libg.a(lib_a-atexit.o)
 .ARM.attributes
                0x0000000000000cb3       0x34 /usr/local/Cellar/gcc-arm-none-eabi/20180627/bin/../lib/gcc/arm-none-eabi/7.3.1/../../../../arm-none-eabi/lib/thumb/v7e-m/fpv4-sp/hard/libg.a(lib_a-fini.o)
 .ARM.attributes
                0x0000000000000ce7       0x34 /usr/local/Cellar/gcc-arm-none-eabi/20180627/bin/../lib/gcc/arm-none-eabi/7.3.1/../../../../arm-none-eabi/lib/thumb/v7e-m/fpv4-sp/hard/libg.a(lib_a-lock.o)
 .ARM.attributes
                0x0000000000000d1b       0x34 /usr/local/Cellar/gcc-arm-none-eabi/20180627/bin/../lib/gcc/arm-none-eabi/7.3.1/../../../../arm-none-eabi/lib/thumb/v7e-m/fpv4-sp/hard/libg.a(lib_a-__atexit.o)
 .ARM.attributes
                0x0000000000000d4f       0x22 /usr/local/Cellar/gcc-arm-none-eabi/20180627/bin/../lib/gcc/arm-none-eabi/7.3.1/thumb/v7e-m/fpv4-sp/hard/crtn.o

.comment        0x0000000000000000       0x7f
 .comment       0x0000000000000000       0x7f .build/obj_massdrop_alt_default_md/matrix.o
                                         0x80 (size before relaxing)
 .comment       0x000000000000007f       0x80 .build/obj_massdrop_alt_default_md/config_led.o
 .comment       0x000000000000007f       0x80 .build/obj_massdrop_alt_default_md/keyboards/massdrop/alt/keymaps/default_md/keymap.o
 .comment       0x000000000000007f       0x80 .build/obj_massdrop_alt_default_md/quantum/quantum.o
 .comment       0x000000000000007f       0x80 .build/obj_massdrop_alt_default_md/quantum/keymap_common.o
 .comment       0x000000000000007f       0x80 .build/obj_massdrop_alt_default_md/quantum/keycode_config.o
 .comment       0x000000000000007f       0x80 .build/obj_massdrop_alt_default_md/quantum/color.o
 .comment       0x000000000000007f       0x80 .build/obj_massdrop_alt_default_md/quantum/rgb_matrix.o
 .comment       0x000000000000007f       0x80 .build/obj_massdrop_alt_default_md/quantum/led_tables.o
 .comment       0x000000000000007f       0x80 .build/obj_massdrop_alt_default_md/quantum/process_keycode/process_space_cadet.o
 .comment       0x000000000000007f       0x80 .build/obj_massdrop_alt_default_md/common/host.o
 .comment       0x000000000000007f       0x80 .build/obj_massdrop_alt_default_md/common/keyboard.o
 .comment       0x000000000000007f       0x80 .build/obj_massdrop_alt_default_md/common/action.o
 .comment       0x000000000000007f       0x80 .build/obj_massdrop_alt_default_md/common/action_tapping.o
 .comment       0x000000000000007f       0x80 .build/obj_massdrop_alt_default_md/common/action_macro.o
 .comment       0x000000000000007f       0x80 .build/obj_massdrop_alt_default_md/common/action_layer.o
 .comment       0x000000000000007f       0x80 .build/obj_massdrop_alt_default_md/common/action_util.o
 .comment       0x000000000000007f       0x80 .build/obj_massdrop_alt_default_md/common/debug.o
 .comment       0x000000000000007f       0x80 .build/obj_massdrop_alt_default_md/common/util.o
 .comment       0x000000000000007f       0x80 .build/obj_massdrop_alt_default_md/common/eeconfig.o
 .comment       0x000000000000007f       0x80 .build/obj_massdrop_alt_default_md/common/report.o
 .comment       0x000000000000007f       0x80 .build/obj_massdrop_alt_default_md/common/arm_atsam/suspend.o
 .comment       0x000000000000007f       0x80 .build/obj_massdrop_alt_default_md/common/arm_atsam/timer.o
 .comment       0x000000000000007f       0x80 .build/obj_massdrop_alt_default_md/common/arm_atsam/bootloader.o
 .comment       0x000000000000007f       0x80 .build/obj_massdrop_alt_default_md/common/arm_atsam/eeprom.o
 .comment       0x000000000000007f       0x80 .build/obj_massdrop_alt_default_md/common/magic.o
 .comment       0x000000000000007f       0x80 .build/obj_massdrop_alt_default_md/protocol/arm_atsam/adc.o
 .comment       0x000000000000007f       0x80 .build/obj_massdrop_alt_default_md/protocol/arm_atsam/clks.o
 .comment       0x000000000000007f       0x80 .build/obj_massdrop_alt_default_md/protocol/arm_atsam/d51_util.o
 .comment       0x000000000000007f       0x80 .build/obj_massdrop_alt_default_md/protocol/arm_atsam/i2c_master.o
 .comment       0x000000000000007f       0x80 .build/obj_massdrop_alt_default_md/protocol/arm_atsam/led_matrix_programs.o
 .comment       0x000000000000007f       0x80 .build/obj_massdrop_alt_default_md/protocol/arm_atsam/led_matrix.o
 .comment       0x000000000000007f       0x80 .build/obj_massdrop_alt_default_md/protocol/arm_atsam/main_arm_atsam.o
 .comment       0x000000000000007f       0x80 .build/obj_massdrop_alt_default_md/protocol/arm_atsam/spi.o
 .comment       0x000000000000007f       0x80 .build/obj_massdrop_alt_default_md/protocol/arm_atsam/startup.o
 .comment       0x000000000000007f       0x80 .build/obj_massdrop_alt_default_md/protocol/arm_atsam/usb/main_usb.o
 .comment       0x000000000000007f       0x80 .build/obj_massdrop_alt_default_md/protocol/arm_atsam/usb/udc.o
 .comment       0x000000000000007f       0x80 .build/obj_massdrop_alt_default_md/protocol/arm_atsam/usb/udi_cdc.o
 .comment       0x000000000000007f       0x80 .build/obj_massdrop_alt_default_md/protocol/arm_atsam/usb/udi_hid.o
 .comment       0x000000000000007f       0x80 .build/obj_massdrop_alt_default_md/protocol/arm_atsam/usb/udi_hid_kbd.o
 .comment       0x000000000000007f       0x80 .build/obj_massdrop_alt_default_md/protocol/arm_atsam/usb/udi_hid_kbd_desc.o
 .comment       0x000000000000007f       0x80 .build/obj_massdrop_alt_default_md/protocol/arm_atsam/usb/ui.o
 .comment       0x000000000000007f       0x80 .build/obj_massdrop_alt_default_md/protocol/arm_atsam/usb/usb2422.o
 .comment       0x000000000000007f       0x80 .build/obj_massdrop_alt_default_md/protocol/arm_atsam/usb/usb.o
 .comment       0x000000000000007f       0x80 .build/obj_massdrop_alt_default_md/protocol/arm_atsam/usb/usb_device_udd.o

.debug_info     0x0000000000000000    0x585bf
 .debug_info    0x0000000000000000     0x1e3a .build/obj_massdrop_alt_default_md/matrix.o
 .debug_info    0x0000000000001e3a     0x1507 .build/obj_massdrop_alt_default_md/config_led.o
 .debug_info    0x0000000000003341     0x264c .build/obj_massdrop_alt_default_md/keyboards/massdrop/alt/keymaps/default_md/keymap.o
 .debug_info    0x000000000000598d     0x2daa .build/obj_massdrop_alt_default_md/quantum/quantum.o
 .debug_info    0x0000000000008737     0x25b7 .build/obj_massdrop_alt_default_md/quantum/keymap_common.o
 .debug_info    0x000000000000acee      0x61d .build/obj_massdrop_alt_default_md/quantum/keycode_config.o
 .debug_info    0x000000000000b30b      0x1c1 .build/obj_massdrop_alt_default_md/quantum/color.o
 .debug_info    0x000000000000b4cc     0x46f4 .build/obj_massdrop_alt_default_md/quantum/rgb_matrix.o
 .debug_info    0x000000000000fbc0       0xa6 .build/obj_massdrop_alt_default_md/quantum/led_tables.o
 .debug_info    0x000000000000fc66     0x1f0b .build/obj_massdrop_alt_default_md/quantum/process_keycode/process_space_cadet.o
 .debug_info    0x0000000000011b71      0x516 .build/obj_massdrop_alt_default_md/common/host.o
 .debug_info    0x0000000000012087      0x605 .build/obj_massdrop_alt_default_md/common/keyboard.o
 .debug_info    0x000000000001268c     0x195d .build/obj_massdrop_alt_default_md/common/action.o
 .debug_info    0x0000000000013fe9      0xecf .build/obj_massdrop_alt_default_md/common/action_tapping.o
 .debug_info    0x0000000000014eb8      0x843 .build/obj_massdrop_alt_default_md/common/action_macro.o
 .debug_info    0x00000000000156fb      0xaf3 .build/obj_massdrop_alt_default_md/common/action_layer.o
 .debug_info    0x00000000000161ee      0x9a2 .build/obj_massdrop_alt_default_md/common/action_util.o
 .debug_info    0x0000000000016b90      0x111 .build/obj_massdrop_alt_default_md/common/debug.o
 .debug_info    0x0000000000016ca1      0x2b6 .build/obj_massdrop_alt_default_md/common/util.o
 .debug_info    0x0000000000016f57      0x6cc .build/obj_massdrop_alt_default_md/common/eeconfig.o
 .debug_info    0x0000000000017623      0xdba .build/obj_massdrop_alt_default_md/common/report.o
 .debug_info    0x00000000000183dd     0x15a3 .build/obj_massdrop_alt_default_md/common/arm_atsam/suspend.o
 .debug_info    0x0000000000019980      0x33e .build/obj_massdrop_alt_default_md/common/arm_atsam/timer.o
 .debug_info    0x0000000000019cbe      0x462 .build/obj_massdrop_alt_default_md/common/arm_atsam/bootloader.o
 .debug_info    0x000000000001a120      0x5bc .build/obj_massdrop_alt_default_md/common/arm_atsam/eeprom.o
 .debug_info    0x000000000001a6dc      0x339 .build/obj_massdrop_alt_default_md/common/magic.o
 .debug_info    0x000000000001aa15     0x3d7c .build/obj_massdrop_alt_default_md/protocol/arm_atsam/adc.o
 .debug_info    0x000000000001e791     0x78a8 .build/obj_massdrop_alt_default_md/protocol/arm_atsam/clks.o
 .debug_info    0x0000000000026039     0x1f0e .build/obj_massdrop_alt_default_md/protocol/arm_atsam/d51_util.o
 .debug_info    0x0000000000027f47     0x6862 .build/obj_massdrop_alt_default_md/protocol/arm_atsam/i2c_master.o
 .debug_info    0x000000000002e7a9     0x12fa .build/obj_massdrop_alt_default_md/protocol/arm_atsam/led_matrix_programs.o
 .debug_info    0x000000000002faa3     0x5b3e .build/obj_massdrop_alt_default_md/protocol/arm_atsam/led_matrix.o
 .debug_info    0x00000000000355e1     0x49a5 .build/obj_massdrop_alt_default_md/protocol/arm_atsam/main_arm_atsam.o
 .debug_info    0x0000000000039f86     0x444b .build/obj_massdrop_alt_default_md/protocol/arm_atsam/spi.o
 .debug_info    0x000000000003e3d1      0xbde .build/obj_massdrop_alt_default_md/protocol/arm_atsam/startup.o
 .debug_info    0x000000000003efaf      0xf4a .build/obj_massdrop_alt_default_md/protocol/arm_atsam/usb/main_usb.o
 .debug_info    0x000000000003fef9     0x1a22 .build/obj_massdrop_alt_default_md/protocol/arm_atsam/usb/udc.o
 .debug_info    0x000000000004191b      0xfc1 .build/obj_massdrop_alt_default_md/protocol/arm_atsam/usb/udi_cdc.o
 .debug_info    0x00000000000428dc      0xf47 .build/obj_massdrop_alt_default_md/protocol/arm_atsam/usb/udi_hid.o
 .debug_info    0x0000000000043823     0x14ed .build/obj_massdrop_alt_default_md/protocol/arm_atsam/usb/udi_hid_kbd.o
 .debug_info    0x0000000000044d10     0x10a3 .build/obj_massdrop_alt_default_md/protocol/arm_atsam/usb/udi_hid_kbd_desc.o
 .debug_info    0x0000000000045db3      0x159 .build/obj_massdrop_alt_default_md/protocol/arm_atsam/usb/ui.o
 .debug_info    0x0000000000045f0c     0x884f .build/obj_massdrop_alt_default_md/protocol/arm_atsam/usb/usb2422.o
 .debug_info    0x000000000004e75b     0x58e0 .build/obj_massdrop_alt_default_md/protocol/arm_atsam/usb/usb.o
 .debug_info    0x000000000005403b     0x4584 .build/obj_massdrop_alt_default_md/protocol/arm_atsam/usb/usb_device_udd.o

.debug_abbrev   0x0000000000000000     0x7a4a
 .debug_abbrev  0x0000000000000000      0x37a .build/obj_massdrop_alt_default_md/matrix.o
 .debug_abbrev  0x000000000000037a      0x288 .build/obj_massdrop_alt_default_md/config_led.o
 .debug_abbrev  0x0000000000000602      0x326 .build/obj_massdrop_alt_default_md/keyboards/massdrop/alt/keymaps/default_md/keymap.o
 .debug_abbrev  0x0000000000000928      0x488 .build/obj_massdrop_alt_default_md/quantum/quantum.o
 .debug_abbrev  0x0000000000000db0      0x2f9 .build/obj_massdrop_alt_default_md/quantum/keymap_common.o
 .debug_abbrev  0x00000000000010a9       0xfb .build/obj_massdrop_alt_default_md/quantum/keycode_config.o
 .debug_abbrev  0x00000000000011a4       0xe9 .build/obj_massdrop_alt_default_md/quantum/color.o
 .debug_abbrev  0x000000000000128d      0x659 .build/obj_massdrop_alt_default_md/quantum/rgb_matrix.o
 .debug_abbrev  0x00000000000018e6       0x64 .build/obj_massdrop_alt_default_md/quantum/led_tables.o
 .debug_abbrev  0x000000000000194a      0x29a .build/obj_massdrop_alt_default_md/quantum/process_keycode/process_space_cadet.o
 .debug_abbrev  0x0000000000001be4      0x1cc .build/obj_massdrop_alt_default_md/common/host.o
 .debug_abbrev  0x0000000000001db0      0x215 .build/obj_massdrop_alt_default_md/common/keyboard.o
 .debug_abbrev  0x0000000000001fc5      0x31a .build/obj_massdrop_alt_default_md/common/action.o
 .debug_abbrev  0x00000000000022df      0x2f4 .build/obj_massdrop_alt_default_md/common/action_tapping.o
 .debug_abbrev  0x00000000000025d3      0x17b .build/obj_massdrop_alt_default_md/common/action_macro.o
 .debug_abbrev  0x000000000000274e      0x291 .build/obj_massdrop_alt_default_md/common/action_layer.o
 .debug_abbrev  0x00000000000029df      0x2b1 .build/obj_massdrop_alt_default_md/common/action_util.o
 .debug_abbrev  0x0000000000002c90       0x94 .build/obj_massdrop_alt_default_md/common/debug.o
 .debug_abbrev  0x0000000000002d24       0xaf .build/obj_massdrop_alt_default_md/common/util.o
 .debug_abbrev  0x0000000000002dd3       0xe9 .build/obj_massdrop_alt_default_md/common/eeconfig.o
 .debug_abbrev  0x0000000000002ebc      0x2a2 .build/obj_massdrop_alt_default_md/common/report.o
 .debug_abbrev  0x000000000000315e      0x2f7 .build/obj_massdrop_alt_default_md/common/arm_atsam/suspend.o
 .debug_abbrev  0x0000000000003455      0x182 .build/obj_massdrop_alt_default_md/common/arm_atsam/timer.o
 .debug_abbrev  0x00000000000035d7      0x147 .build/obj_massdrop_alt_default_md/common/arm_atsam/bootloader.o
 .debug_abbrev  0x000000000000371e      0x204 .build/obj_massdrop_alt_default_md/common/arm_atsam/eeprom.o
 .debug_abbrev  0x0000000000003922      0x109 .build/obj_massdrop_alt_default_md/common/magic.o
 .debug_abbrev  0x0000000000003a2b      0x2fb .build/obj_massdrop_alt_default_md/protocol/arm_atsam/adc.o
 .debug_abbrev  0x0000000000003d26      0x462 .build/obj_massdrop_alt_default_md/protocol/arm_atsam/clks.o
 .debug_abbrev  0x0000000000004188      0x27a .build/obj_massdrop_alt_default_md/protocol/arm_atsam/d51_util.o
 .debug_abbrev  0x0000000000004402      0x4c6 .build/obj_massdrop_alt_default_md/protocol/arm_atsam/i2c_master.o
 .debug_abbrev  0x00000000000048c8      0x207 .build/obj_massdrop_alt_default_md/protocol/arm_atsam/led_matrix_programs.o
 .debug_abbrev  0x0000000000004acf      0x531 .build/obj_massdrop_alt_default_md/protocol/arm_atsam/led_matrix.o
 .debug_abbrev  0x0000000000005000      0x4ba .build/obj_massdrop_alt_default_md/protocol/arm_atsam/main_arm_atsam.o
 .debug_abbrev  0x00000000000054ba      0x312 .build/obj_massdrop_alt_default_md/protocol/arm_atsam/spi.o
 .debug_abbrev  0x00000000000057cc      0x187 .build/obj_massdrop_alt_default_md/protocol/arm_atsam/startup.o
 .debug_abbrev  0x0000000000005953      0x240 .build/obj_massdrop_alt_default_md/protocol/arm_atsam/usb/main_usb.o
 .debug_abbrev  0x0000000000005b93      0x4cf .build/obj_massdrop_alt_default_md/protocol/arm_atsam/usb/udc.o
 .debug_abbrev  0x0000000000006062      0x239 .build/obj_massdrop_alt_default_md/protocol/arm_atsam/usb/udi_cdc.o
 .debug_abbrev  0x000000000000629b      0x261 .build/obj_massdrop_alt_default_md/protocol/arm_atsam/usb/udi_hid.o
 .debug_abbrev  0x00000000000064fc      0x41b .build/obj_massdrop_alt_default_md/protocol/arm_atsam/usb/udi_hid_kbd.o
 .debug_abbrev  0x0000000000006917      0x205 .build/obj_massdrop_alt_default_md/protocol/arm_atsam/usb/udi_hid_kbd_desc.o
 .debug_abbrev  0x0000000000006b1c       0xb9 .build/obj_massdrop_alt_default_md/protocol/arm_atsam/usb/ui.o
 .debug_abbrev  0x0000000000006bd5      0x435 .build/obj_massdrop_alt_default_md/protocol/arm_atsam/usb/usb2422.o
 .debug_abbrev  0x000000000000700a      0x49d .build/obj_massdrop_alt_default_md/protocol/arm_atsam/usb/usb.o
 .debug_abbrev  0x00000000000074a7      0x5a3 .build/obj_massdrop_alt_default_md/protocol/arm_atsam/usb/usb_device_udd.o

.debug_loc      0x0000000000000000     0xa6be
 .debug_loc     0x0000000000000000      0x152 .build/obj_massdrop_alt_default_md/matrix.o
 .debug_loc     0x0000000000000152      0x192 .build/obj_massdrop_alt_default_md/keyboards/massdrop/alt/keymaps/default_md/keymap.o
 .debug_loc     0x00000000000002e4      0x798 .build/obj_massdrop_alt_default_md/quantum/quantum.o
 .debug_loc     0x0000000000000a7c      0x54a .build/obj_massdrop_alt_default_md/quantum/keymap_common.o
 .debug_loc     0x0000000000000fc6      0x186 .build/obj_massdrop_alt_default_md/quantum/keycode_config.o
 .debug_loc     0x000000000000114c      0x2e0 .build/obj_massdrop_alt_default_md/quantum/color.o
 .debug_loc     0x000000000000142c     0x2dcc .build/obj_massdrop_alt_default_md/quantum/rgb_matrix.o
 .debug_loc     0x00000000000041f8      0x148 .build/obj_massdrop_alt_default_md/quantum/process_keycode/process_space_cadet.o
 .debug_loc     0x0000000000004340       0xb0 .build/obj_massdrop_alt_default_md/common/host.o
 .debug_loc     0x00000000000043f0       0xe8 .build/obj_massdrop_alt_default_md/common/keyboard.o
 .debug_loc     0x00000000000044d8      0x71b .build/obj_massdrop_alt_default_md/common/action.o
 .debug_loc     0x0000000000004bf3      0x5ab .build/obj_massdrop_alt_default_md/common/action_tapping.o
 .debug_loc     0x000000000000519e      0x156 .build/obj_massdrop_alt_default_md/common/action_macro.o
 .debug_loc     0x00000000000052f4      0x433 .build/obj_massdrop_alt_default_md/common/action_layer.o
 .debug_loc     0x0000000000005727      0x232 .build/obj_massdrop_alt_default_md/common/action_util.o
 .debug_loc     0x0000000000005959     0x10aa .build/obj_massdrop_alt_default_md/common/util.o
 .debug_loc     0x0000000000006a03      0x129 .build/obj_massdrop_alt_default_md/common/eeconfig.o
 .debug_loc     0x0000000000006b2c      0x3a8 .build/obj_massdrop_alt_default_md/common/report.o
 .debug_loc     0x0000000000006ed4       0x37 .build/obj_massdrop_alt_default_md/common/arm_atsam/suspend.o
 .debug_loc     0x0000000000006f0b       0x77 .build/obj_massdrop_alt_default_md/common/arm_atsam/timer.o
 .debug_loc     0x0000000000006f82      0x412 .build/obj_massdrop_alt_default_md/common/arm_atsam/eeprom.o
 .debug_loc     0x0000000000007394       0x1f .build/obj_massdrop_alt_default_md/common/magic.o
 .debug_loc     0x00000000000073b3       0x21 .build/obj_massdrop_alt_default_md/protocol/arm_atsam/adc.o
 .debug_loc     0x00000000000073d4      0x1c0 .build/obj_massdrop_alt_default_md/protocol/arm_atsam/clks.o
 .debug_loc     0x0000000000007594      0x20f .build/obj_massdrop_alt_default_md/protocol/arm_atsam/d51_util.o
 .debug_loc     0x00000000000077a3      0x66d .build/obj_massdrop_alt_default_md/protocol/arm_atsam/i2c_master.o
 .debug_loc     0x0000000000007e10      0x3dd .build/obj_massdrop_alt_default_md/protocol/arm_atsam/led_matrix.o
 .debug_loc     0x00000000000081ed       0xf6 .build/obj_massdrop_alt_default_md/protocol/arm_atsam/main_arm_atsam.o
 .debug_loc     0x00000000000082e3       0x43 .build/obj_massdrop_alt_default_md/protocol/arm_atsam/startup.o
 .debug_loc     0x0000000000008326      0x39b .build/obj_massdrop_alt_default_md/protocol/arm_atsam/usb/udc.o
 .debug_loc     0x00000000000086c1       0x21 .build/obj_massdrop_alt_default_md/protocol/arm_atsam/usb/udi_cdc.o
 .debug_loc     0x00000000000086e2      0x1d0 .build/obj_massdrop_alt_default_md/protocol/arm_atsam/usb/udi_hid.o
 .debug_loc     0x00000000000088b2      0x16b .build/obj_massdrop_alt_default_md/protocol/arm_atsam/usb/udi_hid_kbd.o
 .debug_loc     0x0000000000008a1d      0x206 .build/obj_massdrop_alt_default_md/protocol/arm_atsam/usb/usb2422.o
 .debug_loc     0x0000000000008c23      0xc13 .build/obj_massdrop_alt_default_md/protocol/arm_atsam/usb/usb.o
 .debug_loc     0x0000000000009836      0xe88 .build/obj_massdrop_alt_default_md/protocol/arm_atsam/usb/usb_device_udd.o

.debug_aranges  0x0000000000000000     0x14d8
 .debug_aranges
                0x0000000000000000       0x50 .build/obj_massdrop_alt_default_md/matrix.o
 .debug_aranges
                0x0000000000000050       0x20 .build/obj_massdrop_alt_default_md/config_led.o
 .debug_aranges
                0x0000000000000070       0x28 .build/obj_massdrop_alt_default_md/keyboards/massdrop/alt/keymaps/default_md/keymap.o
 .debug_aranges
                0x0000000000000098      0x120 .build/obj_massdrop_alt_default_md/quantum/quantum.o
 .debug_aranges
                0x00000000000001b8       0x40 .build/obj_massdrop_alt_default_md/quantum/keymap_common.o
 .debug_aranges
                0x00000000000001f8       0x28 .build/obj_massdrop_alt_default_md/quantum/keycode_config.o
 .debug_aranges
                0x0000000000000220       0x20 .build/obj_massdrop_alt_default_md/quantum/color.o
 .debug_aranges
                0x0000000000000240      0x378 .build/obj_massdrop_alt_default_md/quantum/rgb_matrix.o
 .debug_aranges
                0x00000000000005b8       0x18 .build/obj_massdrop_alt_default_md/quantum/led_tables.o
 .debug_aranges
                0x00000000000005d0       0x28 .build/obj_massdrop_alt_default_md/quantum/process_keycode/process_space_cadet.o
 .debug_aranges
                0x00000000000005f8       0x60 .build/obj_massdrop_alt_default_md/common/host.o
 .debug_aranges
                0x0000000000000658       0x60 .build/obj_massdrop_alt_default_md/common/keyboard.o
 .debug_aranges
                0x00000000000006b8       0xb0 .build/obj_massdrop_alt_default_md/common/action.o
 .debug_aranges
                0x0000000000000768       0x48 .build/obj_massdrop_alt_default_md/common/action_tapping.o
 .debug_aranges
                0x00000000000007b0       0x20 .build/obj_massdrop_alt_default_md/common/action_macro.o
 .debug_aranges
                0x00000000000007d0       0xe0 .build/obj_massdrop_alt_default_md/common/action_layer.o
 .debug_aranges
                0x00000000000008b0      0x140 .build/obj_massdrop_alt_default_md/common/action_util.o
 .debug_aranges
                0x00000000000009f0       0x18 .build/obj_massdrop_alt_default_md/common/debug.o
 .debug_aranges
                0x0000000000000a08       0x60 .build/obj_massdrop_alt_default_md/common/util.o
 .debug_aranges
                0x0000000000000a68       0xd8 .build/obj_massdrop_alt_default_md/common/eeconfig.o
 .debug_aranges
                0x0000000000000b40       0x60 .build/obj_massdrop_alt_default_md/common/report.o
 .debug_aranges
                0x0000000000000ba0       0x50 .build/obj_massdrop_alt_default_md/common/arm_atsam/suspend.o
 .debug_aranges
                0x0000000000000bf0       0x58 .build/obj_massdrop_alt_default_md/common/arm_atsam/timer.o
 .debug_aranges
                0x0000000000000c48       0x20 .build/obj_massdrop_alt_default_md/common/arm_atsam/bootloader.o
 .debug_aranges
                0x0000000000000c68       0x60 .build/obj_massdrop_alt_default_md/common/arm_atsam/eeprom.o
 .debug_aranges
                0x0000000000000cc8       0x20 .build/obj_massdrop_alt_default_md/common/magic.o
 .debug_aranges
                0x0000000000000ce8       0x30 .build/obj_massdrop_alt_default_md/protocol/arm_atsam/adc.o
 .debug_aranges
                0x0000000000000d18       0x80 .build/obj_massdrop_alt_default_md/protocol/arm_atsam/clks.o
 .debug_aranges
                0x0000000000000d98       0x40 .build/obj_massdrop_alt_default_md/protocol/arm_atsam/d51_util.o
 .debug_aranges
                0x0000000000000dd8      0x130 .build/obj_massdrop_alt_default_md/protocol/arm_atsam/i2c_master.o
 .debug_aranges
                0x0000000000000f08       0x18 .build/obj_massdrop_alt_default_md/protocol/arm_atsam/led_matrix_programs.o
 .debug_aranges
                0x0000000000000f20       0x70 .build/obj_massdrop_alt_default_md/protocol/arm_atsam/led_matrix.o
 .debug_aranges
                0x0000000000000f90       0x68 .build/obj_massdrop_alt_default_md/protocol/arm_atsam/main_arm_atsam.o
 .debug_aranges
                0x0000000000000ff8       0x28 .build/obj_massdrop_alt_default_md/protocol/arm_atsam/spi.o
 .debug_aranges
                0x0000000000001020       0x28 .build/obj_massdrop_alt_default_md/protocol/arm_atsam/startup.o
 .debug_aranges
                0x0000000000001048       0x70 .build/obj_massdrop_alt_default_md/protocol/arm_atsam/usb/main_usb.o
 .debug_aranges
                0x00000000000010b8       0x70 .build/obj_massdrop_alt_default_md/protocol/arm_atsam/usb/udc.o
 .debug_aranges
                0x0000000000001128       0x40 .build/obj_massdrop_alt_default_md/protocol/arm_atsam/usb/udi_cdc.o
 .debug_aranges
                0x0000000000001168       0x20 .build/obj_massdrop_alt_default_md/protocol/arm_atsam/usb/udi_hid.o
 .debug_aranges
                0x0000000000001188       0xb8 .build/obj_massdrop_alt_default_md/protocol/arm_atsam/usb/udi_hid_kbd.o
 .debug_aranges
                0x0000000000001240       0x18 .build/obj_massdrop_alt_default_md/protocol/arm_atsam/usb/udi_hid_kbd_desc.o
 .debug_aranges
                0x0000000000001258       0x30 .build/obj_massdrop_alt_default_md/protocol/arm_atsam/usb/ui.o
 .debug_aranges
                0x0000000000001288       0x60 .build/obj_massdrop_alt_default_md/protocol/arm_atsam/usb/usb2422.o
 .debug_aranges
                0x00000000000012e8       0xe0 .build/obj_massdrop_alt_default_md/protocol/arm_atsam/usb/usb.o
 .debug_aranges
                0x00000000000013c8      0x110 .build/obj_massdrop_alt_default_md/protocol/arm_atsam/usb/usb_device_udd.o

.debug_ranges   0x0000000000000000     0x1b00
 .debug_ranges  0x0000000000000000       0x40 .build/obj_massdrop_alt_default_md/matrix.o
 .debug_ranges  0x0000000000000040       0x10 .build/obj_massdrop_alt_default_md/config_led.o
 .debug_ranges  0x0000000000000050       0x18 .build/obj_massdrop_alt_default_md/keyboards/massdrop/alt/keymaps/default_md/keymap.o
 .debug_ranges  0x0000000000000068      0x158 .build/obj_massdrop_alt_default_md/quantum/quantum.o
 .debug_ranges  0x00000000000001c0       0x30 .build/obj_massdrop_alt_default_md/quantum/keymap_common.o
 .debug_ranges  0x00000000000001f0       0x18 .build/obj_massdrop_alt_default_md/quantum/keycode_config.o
 .debug_ranges  0x0000000000000208       0x10 .build/obj_massdrop_alt_default_md/quantum/color.o
 .debug_ranges  0x0000000000000218      0x898 .build/obj_massdrop_alt_default_md/quantum/rgb_matrix.o
 .debug_ranges  0x0000000000000ab0       0x18 .build/obj_massdrop_alt_default_md/quantum/process_keycode/process_space_cadet.o
 .debug_ranges  0x0000000000000ac8       0x50 .build/obj_massdrop_alt_default_md/common/host.o
 .debug_ranges  0x0000000000000b18       0x90 .build/obj_massdrop_alt_default_md/common/keyboard.o
 .debug_ranges  0x0000000000000ba8      0x108 .build/obj_massdrop_alt_default_md/common/action.o
 .debug_ranges  0x0000000000000cb0       0xd8 .build/obj_massdrop_alt_default_md/common/action_tapping.o
 .debug_ranges  0x0000000000000d88       0x28 .build/obj_massdrop_alt_default_md/common/action_macro.o
 .debug_ranges  0x0000000000000db0       0xe8 .build/obj_massdrop_alt_default_md/common/action_layer.o
 .debug_ranges  0x0000000000000e98      0x130 .build/obj_massdrop_alt_default_md/common/action_util.o
 .debug_ranges  0x0000000000000fc8       0x50 .build/obj_massdrop_alt_default_md/common/util.o
 .debug_ranges  0x0000000000001018       0xc8 .build/obj_massdrop_alt_default_md/common/eeconfig.o
 .debug_ranges  0x00000000000010e0       0x68 .build/obj_massdrop_alt_default_md/common/report.o
 .debug_ranges  0x0000000000001148       0x58 .build/obj_massdrop_alt_default_md/common/arm_atsam/suspend.o
 .debug_ranges  0x00000000000011a0       0x48 .build/obj_massdrop_alt_default_md/common/arm_atsam/timer.o
 .debug_ranges  0x00000000000011e8       0x10 .build/obj_massdrop_alt_default_md/common/arm_atsam/bootloader.o
 .debug_ranges  0x00000000000011f8       0x90 .build/obj_massdrop_alt_default_md/common/arm_atsam/eeprom.o
 .debug_ranges  0x0000000000001288       0x10 .build/obj_massdrop_alt_default_md/common/magic.o
 .debug_ranges  0x0000000000001298       0x20 .build/obj_massdrop_alt_default_md/protocol/arm_atsam/adc.o
 .debug_ranges  0x00000000000012b8       0x70 .build/obj_massdrop_alt_default_md/protocol/arm_atsam/clks.o
 .debug_ranges  0x0000000000001328       0x30 .build/obj_massdrop_alt_default_md/protocol/arm_atsam/d51_util.o
 .debug_ranges  0x0000000000001358      0x120 .build/obj_massdrop_alt_default_md/protocol/arm_atsam/i2c_master.o
 .debug_ranges  0x0000000000001478       0xc8 .build/obj_massdrop_alt_default_md/protocol/arm_atsam/led_matrix.o
 .debug_ranges  0x0000000000001540       0x70 .build/obj_massdrop_alt_default_md/protocol/arm_atsam/main_arm_atsam.o
 .debug_ranges  0x00000000000015b0       0x18 .build/obj_massdrop_alt_default_md/protocol/arm_atsam/spi.o
 .debug_ranges  0x00000000000015c8       0x18 .build/obj_massdrop_alt_default_md/protocol/arm_atsam/startup.o
 .debug_ranges  0x00000000000015e0       0x60 .build/obj_massdrop_alt_default_md/protocol/arm_atsam/usb/main_usb.o
 .debug_ranges  0x0000000000001640      0x108 .build/obj_massdrop_alt_default_md/protocol/arm_atsam/usb/udc.o
 .debug_ranges  0x0000000000001748       0x30 .build/obj_massdrop_alt_default_md/protocol/arm_atsam/usb/udi_cdc.o
 .debug_ranges  0x0000000000001778       0x30 .build/obj_massdrop_alt_default_md/protocol/arm_atsam/usb/udi_hid.o
 .debug_ranges  0x00000000000017a8       0xa8 .build/obj_massdrop_alt_default_md/protocol/arm_atsam/usb/udi_hid_kbd.o
 .debug_ranges  0x0000000000001850       0x20 .build/obj_massdrop_alt_default_md/protocol/arm_atsam/usb/ui.o
 .debug_ranges  0x0000000000001870       0x50 .build/obj_massdrop_alt_default_md/protocol/arm_atsam/usb/usb2422.o
 .debug_ranges  0x00000000000018c0       0xe8 .build/obj_massdrop_alt_default_md/protocol/arm_atsam/usb/usb.o
 .debug_ranges  0x00000000000019a8      0x158 .build/obj_massdrop_alt_default_md/protocol/arm_atsam/usb/usb_device_udd.o

.debug_line     0x0000000000000000     0xbf19
 .debug_line    0x0000000000000000      0x50d .build/obj_massdrop_alt_default_md/matrix.o
 .debug_line    0x000000000000050d      0x3f4 .build/obj_massdrop_alt_default_md/config_led.o
 .debug_line    0x0000000000000901      0x4dc .build/obj_massdrop_alt_default_md/keyboards/massdrop/alt/keymaps/default_md/keymap.o
 .debug_line    0x0000000000000ddd      0x795 .build/obj_massdrop_alt_default_md/quantum/quantum.o
 .debug_line    0x0000000000001572      0x431 .build/obj_massdrop_alt_default_md/quantum/keymap_common.o
 .debug_line    0x00000000000019a3      0x1ab .build/obj_massdrop_alt_default_md/quantum/keycode_config.o
 .debug_line    0x0000000000001b4e      0x13c .build/obj_massdrop_alt_default_md/quantum/color.o
 .debug_line    0x0000000000001c8a     0x14fa .build/obj_massdrop_alt_default_md/quantum/rgb_matrix.o
 .debug_line    0x0000000000003184       0xf8 .build/obj_massdrop_alt_default_md/quantum/led_tables.o
 .debug_line    0x000000000000327c      0x36d .build/obj_massdrop_alt_default_md/quantum/process_keycode/process_space_cadet.o
 .debug_line    0x00000000000035e9      0x1df .build/obj_massdrop_alt_default_md/common/host.o
 .debug_line    0x00000000000037c8      0x273 .build/obj_massdrop_alt_default_md/common/keyboard.o
 .debug_line    0x0000000000003a3b      0x5a3 .build/obj_massdrop_alt_default_md/common/action.o
 .debug_line    0x0000000000003fde      0x387 .build/obj_massdrop_alt_default_md/common/action_tapping.o
 .debug_line    0x0000000000004365      0x1be .build/obj_massdrop_alt_default_md/common/action_macro.o
 .debug_line    0x0000000000004523      0x336 .build/obj_massdrop_alt_default_md/common/action_layer.o
 .debug_line    0x0000000000004859      0x45a .build/obj_massdrop_alt_default_md/common/action_util.o
 .debug_line    0x0000000000004cb3       0xf6 .build/obj_massdrop_alt_default_md/common/debug.o
 .debug_line    0x0000000000004da9      0x1cb .build/obj_massdrop_alt_default_md/common/util.o
 .debug_line    0x0000000000004f74      0x2a8 .build/obj_massdrop_alt_default_md/common/eeconfig.o
 .debug_line    0x000000000000521c      0x2cb .build/obj_massdrop_alt_default_md/common/report.o
 .debug_line    0x00000000000054e7      0x44f .build/obj_massdrop_alt_default_md/common/arm_atsam/suspend.o
 .debug_line    0x0000000000005936      0x24c .build/obj_massdrop_alt_default_md/common/arm_atsam/timer.o
 .debug_line    0x0000000000005b82      0x234 .build/obj_massdrop_alt_default_md/common/arm_atsam/bootloader.o
 .debug_line    0x0000000000005db6      0x1d8 .build/obj_massdrop_alt_default_md/common/arm_atsam/eeprom.o
 .debug_line    0x0000000000005f8e      0x16a .build/obj_massdrop_alt_default_md/common/magic.o
 .debug_line    0x00000000000060f8      0x52d .build/obj_massdrop_alt_default_md/protocol/arm_atsam/adc.o
 .debug_line    0x0000000000006625      0x736 .build/obj_massdrop_alt_default_md/protocol/arm_atsam/clks.o
 .debug_line    0x0000000000006d5b      0x390 .build/obj_massdrop_alt_default_md/protocol/arm_atsam/d51_util.o
 .debug_line    0x00000000000070eb      0x8e9 .build/obj_massdrop_alt_default_md/protocol/arm_atsam/i2c_master.o
 .debug_line    0x00000000000079d4      0x2bd .build/obj_massdrop_alt_default_md/protocol/arm_atsam/led_matrix_programs.o
 .debug_line    0x0000000000007c91      0x7c2 .build/obj_massdrop_alt_default_md/protocol/arm_atsam/led_matrix.o
 .debug_line    0x0000000000008453      0x6f0 .build/obj_massdrop_alt_default_md/protocol/arm_atsam/main_arm_atsam.o
 .debug_line    0x0000000000008b43      0x4f2 .build/obj_massdrop_alt_default_md/protocol/arm_atsam/spi.o
 .debug_line    0x0000000000009035      0x1f8 .build/obj_massdrop_alt_default_md/protocol/arm_atsam/startup.o
 .debug_line    0x000000000000922d      0x381 .build/obj_massdrop_alt_default_md/protocol/arm_atsam/usb/main_usb.o
 .debug_line    0x00000000000095ae      0x48b .build/obj_massdrop_alt_default_md/protocol/arm_atsam/usb/udc.o
 .debug_line    0x0000000000009a39      0x352 .build/obj_massdrop_alt_default_md/protocol/arm_atsam/usb/udi_cdc.o
 .debug_line    0x0000000000009d8b      0x2a4 .build/obj_massdrop_alt_default_md/protocol/arm_atsam/usb/udi_hid.o
 .debug_line    0x000000000000a02f      0x4e9 .build/obj_massdrop_alt_default_md/protocol/arm_atsam/usb/udi_hid_kbd.o
 .debug_line    0x000000000000a518      0x261 .build/obj_massdrop_alt_default_md/protocol/arm_atsam/usb/udi_hid_kbd_desc.o
 .debug_line    0x000000000000a779      0x1b2 .build/obj_massdrop_alt_default_md/protocol/arm_atsam/usb/ui.o
 .debug_line    0x000000000000a92b      0x707 .build/obj_massdrop_alt_default_md/protocol/arm_atsam/usb/usb2422.o
 .debug_line    0x000000000000b032      0x6b6 .build/obj_massdrop_alt_default_md/protocol/arm_atsam/usb/usb.o
 .debug_line    0x000000000000b6e8      0x831 .build/obj_massdrop_alt_default_md/protocol/arm_atsam/usb/usb_device_udd.o

.debug_str      0x0000000000000000     0xccaa
 .debug_str     0x0000000000000000      0xe3a .build/obj_massdrop_alt_default_md/matrix.o
                                        0xfd4 (size before relaxing)
 .debug_str     0x0000000000000e3a       0x53 .build/obj_massdrop_alt_default_md/config_led.o
                                        0xcd6 (size before relaxing)
 .debug_str     0x0000000000000e8d     0x17a6 .build/obj_massdrop_alt_default_md/keyboards/massdrop/alt/keymaps/default_md/keymap.o
                                       0x2480 (size before relaxing)
 .debug_str     0x0000000000002633      0x610 .build/obj_massdrop_alt_default_md/quantum/quantum.o
                                       0x24b8 (size before relaxing)
 .debug_str     0x0000000000002c43      0x419 .build/obj_massdrop_alt_default_md/quantum/keymap_common.o
                                       0x24ca (size before relaxing)
 .debug_str     0x000000000000305c       0x6a .build/obj_massdrop_alt_default_md/quantum/keycode_config.o
                                        0x8e1 (size before relaxing)
 .debug_str     0x00000000000030c6       0x3f .build/obj_massdrop_alt_default_md/quantum/color.o
                                        0x21a (size before relaxing)
 .debug_str     0x0000000000003105      0xbe5 .build/obj_massdrop_alt_default_md/quantum/rgb_matrix.o
                                       0x1a28 (size before relaxing)
 .debug_str     0x0000000000003cea       0x15 .build/obj_massdrop_alt_default_md/quantum/led_tables.o
                                        0x1ea (size before relaxing)
 .debug_str     0x0000000000003cff       0x7b .build/obj_massdrop_alt_default_md/quantum/process_keycode/process_space_cadet.o
                                       0x1e44 (size before relaxing)
 .debug_str     0x0000000000003d7a      0x113 .build/obj_massdrop_alt_default_md/common/host.o
                                        0x497 (size before relaxing)
 .debug_str     0x0000000000003e8d      0x162 .build/obj_massdrop_alt_default_md/common/keyboard.o
                                        0x571 (size before relaxing)
 .debug_str     0x0000000000003fef      0x3ca .build/obj_massdrop_alt_default_md/common/action.o
                                       0x14d5 (size before relaxing)
 .debug_str     0x00000000000043b9       0xf7 .build/obj_massdrop_alt_default_md/common/action_tapping.o
                                        0xc63 (size before relaxing)
 .debug_str     0x00000000000044b0       0x6b .build/obj_massdrop_alt_default_md/common/action_macro.o
                                        0x9ac (size before relaxing)
 .debug_str     0x000000000000451b       0xd3 .build/obj_massdrop_alt_default_md/common/action_layer.o
                                        0x640 (size before relaxing)
 .debug_str     0x00000000000045ee      0x21a .build/obj_massdrop_alt_default_md/common/action_util.o
                                        0x7c9 (size before relaxing)
 .debug_str     0x0000000000004808       0x18 .build/obj_massdrop_alt_default_md/common/debug.o
                                        0x227 (size before relaxing)
 .debug_str     0x0000000000004820       0x58 .build/obj_massdrop_alt_default_md/common/util.o
                                        0x253 (size before relaxing)
 .debug_str     0x0000000000004878      0x202 .build/obj_massdrop_alt_default_md/common/eeconfig.o
                                        0x488 (size before relaxing)
 .debug_str     0x0000000000004a7a       0x6a .build/obj_massdrop_alt_default_md/common/report.o
                                        0x7f3 (size before relaxing)
 .debug_str     0x0000000000004ae4       0xf1 .build/obj_massdrop_alt_default_md/common/arm_atsam/suspend.o
                                        0xd4b (size before relaxing)
 .debug_str     0x0000000000004bd5       0x39 .build/obj_massdrop_alt_default_md/common/arm_atsam/timer.o
                                        0x341 (size before relaxing)
 .debug_str     0x0000000000004c0e       0xe8 .build/obj_massdrop_alt_default_md/common/arm_atsam/bootloader.o
                                        0x350 (size before relaxing)
 .debug_str     0x0000000000004cf6       0x7e .build/obj_massdrop_alt_default_md/common/arm_atsam/eeprom.o
                                        0x324 (size before relaxing)
 .debug_str     0x0000000000004d74       0x18 .build/obj_massdrop_alt_default_md/common/magic.o
                                        0x40a (size before relaxing)
 .debug_str     0x0000000000004d8c     0x19e6 .build/obj_massdrop_alt_default_md/protocol/arm_atsam/adc.o
                                       0x2931 (size before relaxing)
 .debug_str     0x0000000000006772     0x198f .build/obj_massdrop_alt_default_md/protocol/arm_atsam/clks.o
                                       0x3e5c (size before relaxing)
 .debug_str     0x0000000000008101      0x26f .build/obj_massdrop_alt_default_md/protocol/arm_atsam/d51_util.o
                                       0x1ed5 (size before relaxing)
 .debug_str     0x0000000000008370      0x9c9 .build/obj_massdrop_alt_default_md/protocol/arm_atsam/i2c_master.o
                                       0x3c07 (size before relaxing)
 .debug_str     0x0000000000008d39       0xee .build/obj_massdrop_alt_default_md/protocol/arm_atsam/led_matrix_programs.o
                                        0xbe9 (size before relaxing)
 .debug_str     0x0000000000008e27      0x1e6 .build/obj_massdrop_alt_default_md/protocol/arm_atsam/led_matrix.o
                                       0x32c1 (size before relaxing)
 .debug_str     0x000000000000900d      0x804 .build/obj_massdrop_alt_default_md/protocol/arm_atsam/main_arm_atsam.o
                                       0x2ce4 (size before relaxing)
 .debug_str     0x0000000000009811       0x22 .build/obj_massdrop_alt_default_md/protocol/arm_atsam/spi.o
                                       0x29b1 (size before relaxing)
 .debug_str     0x0000000000009833      0xb87 .build/obj_massdrop_alt_default_md/protocol/arm_atsam/startup.o
                                        0xdda (size before relaxing)
 .debug_str     0x000000000000a3ba      0x154 .build/obj_massdrop_alt_default_md/protocol/arm_atsam/usb/main_usb.o
                                        0xb96 (size before relaxing)
 .debug_str     0x000000000000a50e      0x93c .build/obj_massdrop_alt_default_md/protocol/arm_atsam/usb/udc.o
                                       0x1393 (size before relaxing)
 .debug_str     0x000000000000ae4a       0x50 .build/obj_massdrop_alt_default_md/protocol/arm_atsam/usb/udi_cdc.o
                                        0xb53 (size before relaxing)
 .debug_str     0x000000000000ae9a      0x1b1 .build/obj_massdrop_alt_default_md/protocol/arm_atsam/usb/udi_hid.o
                                        0xccc (size before relaxing)
 .debug_str     0x000000000000b04b      0x447 .build/obj_massdrop_alt_default_md/protocol/arm_atsam/usb/udi_hid_kbd.o
                                        0xf63 (size before relaxing)
 .debug_str     0x000000000000b492      0x111 .build/obj_massdrop_alt_default_md/protocol/arm_atsam/usb/udi_hid_kbd_desc.o
                                        0xd22 (size before relaxing)
 .debug_str     0x000000000000b5a3       0x44 .build/obj_massdrop_alt_default_md/protocol/arm_atsam/usb/ui.o
                                        0x2ad (size before relaxing)
 .debug_str     0x000000000000b5e7      0x538 .build/obj_massdrop_alt_default_md/protocol/arm_atsam/usb/usb2422.o
                                       0x3dd7 (size before relaxing)
 .debug_str     0x000000000000bb1f      0xc9f .build/obj_massdrop_alt_default_md/protocol/arm_atsam/usb/usb.o
                                       0x2b5b (size before relaxing)
 .debug_str     0x000000000000c7be      0x4ec .build/obj_massdrop_alt_default_md/protocol/arm_atsam/usb/usb_device_udd.o
                                       0x2355 (size before relaxing)

.debug_frame    0x0000000000000000     0x3e3c
 .debug_frame   0x0000000000000000       0xf0 .build/obj_massdrop_alt_default_md/matrix.o
 .debug_frame   0x00000000000000f0       0x20 .build/obj_massdrop_alt_default_md/config_led.o
 .debug_frame   0x0000000000000110       0x50 .build/obj_massdrop_alt_default_md/keyboards/massdrop/alt/keymaps/default_md/keymap.o
 .debug_frame   0x0000000000000160      0x458 .build/obj_massdrop_alt_default_md/quantum/quantum.o
 .debug_frame   0x00000000000005b8       0x7c .build/obj_massdrop_alt_default_md/quantum/keymap_common.o
 .debug_frame   0x0000000000000634       0x30 .build/obj_massdrop_alt_default_md/quantum/keycode_config.o
 .debug_frame   0x0000000000000664       0x38 .build/obj_massdrop_alt_default_md/quantum/color.o
 .debug_frame   0x000000000000069c      0xac4 .build/obj_massdrop_alt_default_md/quantum/rgb_matrix.o
 .debug_frame   0x0000000000001160       0x8c .build/obj_massdrop_alt_default_md/quantum/process_keycode/process_space_cadet.o
 .debug_frame   0x00000000000011ec       0xa0 .build/obj_massdrop_alt_default_md/common/host.o
 .debug_frame   0x000000000000128c      0x128 .build/obj_massdrop_alt_default_md/common/keyboard.o
 .debug_frame   0x00000000000013b4      0x288 .build/obj_massdrop_alt_default_md/common/action.o
 .debug_frame   0x000000000000163c       0xf4 .build/obj_massdrop_alt_default_md/common/action_tapping.o
 .debug_frame   0x0000000000001730       0x38 .build/obj_massdrop_alt_default_md/common/action_macro.o
 .debug_frame   0x0000000000001768      0x264 .build/obj_massdrop_alt_default_md/common/action_layer.o
 .debug_frame   0x00000000000019cc      0x310 .build/obj_massdrop_alt_default_md/common/action_util.o
 .debug_frame   0x0000000000001cdc       0xbc .build/obj_massdrop_alt_default_md/common/util.o
 .debug_frame   0x0000000000001d98      0x1dc .build/obj_massdrop_alt_default_md/common/eeconfig.o
 .debug_frame   0x0000000000001f74       0xec .build/obj_massdrop_alt_default_md/common/report.o
 .debug_frame   0x0000000000002060       0xec .build/obj_massdrop_alt_default_md/common/arm_atsam/suspend.o
 .debug_frame   0x000000000000214c       0xa8 .build/obj_massdrop_alt_default_md/common/arm_atsam/timer.o
 .debug_frame   0x00000000000021f4       0x20 .build/obj_massdrop_alt_default_md/common/arm_atsam/bootloader.o
 .debug_frame   0x0000000000002214       0xf4 .build/obj_massdrop_alt_default_md/common/arm_atsam/eeprom.o
 .debug_frame   0x0000000000002308       0x30 .build/obj_massdrop_alt_default_md/common/magic.o
 .debug_frame   0x0000000000002338       0x4c .build/obj_massdrop_alt_default_md/protocol/arm_atsam/adc.o
 .debug_frame   0x0000000000002384      0x184 .build/obj_massdrop_alt_default_md/protocol/arm_atsam/clks.o
 .debug_frame   0x0000000000002508       0x94 .build/obj_massdrop_alt_default_md/protocol/arm_atsam/d51_util.o
 .debug_frame   0x000000000000259c      0x3b8 .build/obj_massdrop_alt_default_md/protocol/arm_atsam/i2c_master.o
 .debug_frame   0x0000000000002954      0x1ec .build/obj_massdrop_alt_default_md/protocol/arm_atsam/led_matrix.o
 .debug_frame   0x0000000000002b40      0x144 .build/obj_massdrop_alt_default_md/protocol/arm_atsam/main_arm_atsam.o
 .debug_frame   0x0000000000002c84       0x4c .build/obj_massdrop_alt_default_md/protocol/arm_atsam/spi.o
 .debug_frame   0x0000000000002cd0       0x3c .build/obj_massdrop_alt_default_md/protocol/arm_atsam/startup.o
 .debug_frame   0x0000000000002d0c       0xd0 .build/obj_massdrop_alt_default_md/protocol/arm_atsam/usb/main_usb.o
 .debug_frame   0x0000000000002ddc      0x144 .build/obj_massdrop_alt_default_md/protocol/arm_atsam/usb/udc.o
 .debug_frame   0x0000000000002f20       0x7c .build/obj_massdrop_alt_default_md/protocol/arm_atsam/usb/udi_cdc.o
 .debug_frame   0x0000000000002f9c       0x48 .build/obj_massdrop_alt_default_md/protocol/arm_atsam/usb/udi_hid.o
 .debug_frame   0x0000000000002fe4      0x1e0 .build/obj_massdrop_alt_default_md/protocol/arm_atsam/usb/udi_hid_kbd.o
 .debug_frame   0x00000000000031c4       0x80 .build/obj_massdrop_alt_default_md/protocol/arm_atsam/usb/ui.o
 .debug_frame   0x0000000000003244      0x160 .build/obj_massdrop_alt_default_md/protocol/arm_atsam/usb/usb2422.o
 .debug_frame   0x00000000000033a4      0x270 .build/obj_massdrop_alt_default_md/protocol/arm_atsam/usb/usb.o
 .debug_frame   0x0000000000003614      0x450 .build/obj_massdrop_alt_default_md/protocol/arm_atsam/usb/usb_device_udd.o
 .debug_frame   0x0000000000003a64       0xac /usr/local/Cellar/gcc-arm-none-eabi/20180627/bin/../lib/gcc/arm-none-eabi/7.3.1/thumb/v7e-m/fpv4-sp/hard/libgcc.a(_arm_addsubdf3.o)
 .debug_frame   0x0000000000003b10       0x50 /usr/local/Cellar/gcc-arm-none-eabi/20180627/bin/../lib/gcc/arm-none-eabi/7.3.1/thumb/v7e-m/fpv4-sp/hard/libgcc.a(_arm_muldivdf3.o)
 .debug_frame   0x0000000000003b60       0x24 /usr/local/Cellar/gcc-arm-none-eabi/20180627/bin/../lib/gcc/arm-none-eabi/7.3.1/thumb/v7e-m/fpv4-sp/hard/libgcc.a(_arm_fixunsdfsi.o)
 .debug_frame   0x0000000000003b84       0x24 /usr/local/Cellar/gcc-arm-none-eabi/20180627/bin/../lib/gcc/arm-none-eabi/7.3.1/thumb/v7e-m/fpv4-sp/hard/libgcc.a(_arm_truncdfsf2.o)
 .debug_frame   0x0000000000003ba8       0x2c /usr/local/Cellar/gcc-arm-none-eabi/20180627/bin/../lib/gcc/arm-none-eabi/7.3.1/thumb/v7e-m/fpv4-sp/hard/libgcc.a(_aeabi_uldivmod.o)
 .debug_frame   0x0000000000003bd4       0x34 /usr/local/Cellar/gcc-arm-none-eabi/20180627/bin/../lib/gcc/arm-none-eabi/7.3.1/thumb/v7e-m/fpv4-sp/hard/libgcc.a(_udivmoddi4.o)
 .debug_frame   0x0000000000003c08       0x2c /usr/local/Cellar/gcc-arm-none-eabi/20180627/bin/../lib/gcc/arm-none-eabi/7.3.1/../../../../arm-none-eabi/lib/thumb/v7e-m/fpv4-sp/hard/libg.a(lib_a-init.o)
 .debug_frame   0x0000000000003c34       0x38 /usr/local/Cellar/gcc-arm-none-eabi/20180627/bin/../lib/gcc/arm-none-eabi/7.3.1/../../../../arm-none-eabi/lib/thumb/v7e-m/fpv4-sp/hard/libg.a(lib_a-memset.o)
 .debug_frame   0x0000000000003c6c       0x3c /usr/local/Cellar/gcc-arm-none-eabi/20180627/bin/../lib/gcc/arm-none-eabi/7.3.1/../../../../arm-none-eabi/lib/thumb/v7e-m/fpv4-sp/hard/libg.a(lib_a-rand.o)
 .debug_frame   0x0000000000003ca8       0x5c /usr/local/Cellar/gcc-arm-none-eabi/20180627/bin/../lib/gcc/arm-none-eabi/7.3.1/../../../../arm-none-eabi/lib/thumb/v7e-m/fpv4-sp/hard/libg.a(lib_a-__call_atexit.o)
 .debug_frame   0x0000000000003d04       0x20 /usr/local/Cellar/gcc-arm-none-eabi/20180627/bin/../lib/gcc/arm-none-eabi/7.3.1/../../../../arm-none-eabi/lib/thumb/v7e-m/fpv4-sp/hard/libg.a(lib_a-atexit.o)
 .debug_frame   0x0000000000003d24       0x34 /usr/local/Cellar/gcc-arm-none-eabi/20180627/bin/../lib/gcc/arm-none-eabi/7.3.1/../../../../arm-none-eabi/lib/thumb/v7e-m/fpv4-sp/hard/libg.a(lib_a-fini.o)
 .debug_frame   0x0000000000003d58       0xb0 /usr/local/Cellar/gcc-arm-none-eabi/20180627/bin/../lib/gcc/arm-none-eabi/7.3.1/../../../../arm-none-eabi/lib/thumb/v7e-m/fpv4-sp/hard/libg.a(lib_a-lock.o)
 .debug_frame   0x0000000000003e08       0x34 /usr/local/Cellar/gcc-arm-none-eabi/20180627/bin/../lib/gcc/arm-none-eabi/7.3.1/../../../../arm-none-eabi/lib/thumb/v7e-m/fpv4-sp/hard/libg.a(lib_a-__atexit.o)

Cross Reference Table

Symbol                                            File
AC_Handler                                        .build/obj_massdrop_alt_default_md/protocol/arm_atsam/startup.o
ADC0_0_Handler                                    .build/obj_massdrop_alt_default_md/protocol/arm_atsam/startup.o
ADC0_1_Handler                                    .build/obj_massdrop_alt_default_md/protocol/arm_atsam/startup.o
ADC0_clock_init                                   .build/obj_massdrop_alt_default_md/protocol/arm_atsam/adc.o
                                                  .build/obj_massdrop_alt_default_md/protocol/arm_atsam/clks.o
ADC0_init                                         .build/obj_massdrop_alt_default_md/protocol/arm_atsam/adc.o
                                                  .build/obj_massdrop_alt_default_md/protocol/arm_atsam/main_arm_atsam.o
ADC1_0_Handler                                    .build/obj_massdrop_alt_default_md/protocol/arm_atsam/startup.o
ADC1_1_Handler                                    .build/obj_massdrop_alt_default_md/protocol/arm_atsam/startup.o
AES_Handler                                       .build/obj_massdrop_alt_default_md/protocol/arm_atsam/startup.o
ALPHAS_MODS                                       .build/obj_massdrop_alt_default_md/quantum/rgb_matrix.o
BAND_PINWHEEL_SAT                                 .build/obj_massdrop_alt_default_md/quantum/rgb_matrix.o
BAND_PINWHEEL_VAL                                 .build/obj_massdrop_alt_default_md/quantum/rgb_matrix.o
BAND_SAT                                          .build/obj_massdrop_alt_default_md/quantum/rgb_matrix.o
BAND_SPIRAL_SAT                                   .build/obj_massdrop_alt_default_md/quantum/rgb_matrix.o
BAND_SPIRAL_VAL                                   .build/obj_massdrop_alt_default_md/quantum/rgb_matrix.o
BAND_VAL                                          .build/obj_massdrop_alt_default_md/quantum/rgb_matrix.o
BREATHING                                         .build/obj_massdrop_alt_default_md/quantum/rgb_matrix.o
BusFault_Handler                                  .build/obj_massdrop_alt_default_md/protocol/arm_atsam/startup.o
CDC_init                                          .build/obj_massdrop_alt_default_md/protocol/arm_atsam/usb/udi_cdc.o
                                                  .build/obj_massdrop_alt_default_md/protocol/arm_atsam/main_arm_atsam.o
CDC_input                                         .build/obj_massdrop_alt_default_md/protocol/arm_atsam/usb/udi_cdc.o
CDC_print                                         .build/obj_massdrop_alt_default_md/protocol/arm_atsam/usb/udi_cdc.o
                                                  .build/obj_massdrop_alt_default_md/protocol/arm_atsam/usb/usb2422.o
                                                  .build/obj_massdrop_alt_default_md/protocol/arm_atsam/led_matrix.o
CDC_printf                                        .build/obj_massdrop_alt_default_md/protocol/arm_atsam/usb/udi_cdc.o
CDC_send                                          .build/obj_massdrop_alt_default_md/protocol/arm_atsam/usb/udi_cdc.o
CIE1931_CURVE                                     .build/obj_massdrop_alt_default_md/quantum/led_tables.o
                                                  .build/obj_massdrop_alt_default_md/quantum/color.o
CLK_delay_ms                                      .build/obj_massdrop_alt_default_md/protocol/arm_atsam/clks.o
                                                  .build/obj_massdrop_alt_default_md/protocol/arm_atsam/usb/usb2422.o
                                                  .build/obj_massdrop_alt_default_md/protocol/arm_atsam/main_arm_atsam.o
                                                  .build/obj_massdrop_alt_default_md/protocol/arm_atsam/i2c_master.o
                                                  .build/obj_massdrop_alt_default_md/common/action_macro.o
                                                  .build/obj_massdrop_alt_default_md/common/action.o
                                                  .build/obj_massdrop_alt_default_md/quantum/quantum.o
CLK_delay_us                                      .build/obj_massdrop_alt_default_md/protocol/arm_atsam/clks.o
                                                  .build/obj_massdrop_alt_default_md/protocol/arm_atsam/usb/usb2422.o
                                                  .build/obj_massdrop_alt_default_md/matrix.o
CLK_enable_timebase                               .build/obj_massdrop_alt_default_md/protocol/arm_atsam/clks.o
CLK_init                                          .build/obj_massdrop_alt_default_md/protocol/arm_atsam/clks.o
                                                  .build/obj_massdrop_alt_default_md/protocol/arm_atsam/main_arm_atsam.o
CLK_init_osc                                      .build/obj_massdrop_alt_default_md/protocol/arm_atsam/clks.o
CLK_oscctrl_init                                  .build/obj_massdrop_alt_default_md/protocol/arm_atsam/clks.o
CLK_reset_time                                    .build/obj_massdrop_alt_default_md/protocol/arm_atsam/clks.o
CLK_set_gclk_freq                                 .build/obj_massdrop_alt_default_md/protocol/arm_atsam/clks.o
CLK_set_i2c0_freq                                 .build/obj_massdrop_alt_default_md/protocol/arm_atsam/clks.o
                                                  .build/obj_massdrop_alt_default_md/protocol/arm_atsam/i2c_master.o
CLK_set_i2c1_freq                                 .build/obj_massdrop_alt_default_md/protocol/arm_atsam/clks.o
                                                  .build/obj_massdrop_alt_default_md/protocol/arm_atsam/i2c_master.o
CLK_set_spi_freq                                  .build/obj_massdrop_alt_default_md/protocol/arm_atsam/clks.o
                                                  .build/obj_massdrop_alt_default_md/protocol/arm_atsam/spi.o
CYCLE_ALL                                         .build/obj_massdrop_alt_default_md/quantum/rgb_matrix.o
CYCLE_LEFT_RIGHT                                  .build/obj_massdrop_alt_default_md/quantum/rgb_matrix.o
CYCLE_OUT_IN                                      .build/obj_massdrop_alt_default_md/quantum/rgb_matrix.o
CYCLE_OUT_IN_DUAL                                 .build/obj_massdrop_alt_default_md/quantum/rgb_matrix.o
CYCLE_PINWHEEL                                    .build/obj_massdrop_alt_default_md/quantum/rgb_matrix.o
CYCLE_SPIRAL                                      .build/obj_massdrop_alt_default_md/quantum/rgb_matrix.o
CYCLE_UP_DOWN                                     .build/obj_massdrop_alt_default_md/quantum/rgb_matrix.o
DAC_0_Handler                                     .build/obj_massdrop_alt_default_md/protocol/arm_atsam/startup.o
DAC_1_Handler                                     .build/obj_massdrop_alt_default_md/protocol/arm_atsam/startup.o
DAC_2_Handler                                     .build/obj_massdrop_alt_default_md/protocol/arm_atsam/startup.o
DAC_3_Handler                                     .build/obj_massdrop_alt_default_md/protocol/arm_atsam/startup.o
DAC_4_Handler                                     .build/obj_massdrop_alt_default_md/protocol/arm_atsam/startup.o
DMAC_0_Handler                                    .build/obj_massdrop_alt_default_md/protocol/arm_atsam/led_matrix.o
DMAC_1_Handler                                    .build/obj_massdrop_alt_default_md/protocol/arm_atsam/startup.o
DMAC_2_Handler                                    .build/obj_massdrop_alt_default_md/protocol/arm_atsam/startup.o
DMAC_3_Handler                                    .build/obj_massdrop_alt_default_md/protocol/arm_atsam/startup.o
DMAC_4_Handler                                    .build/obj_massdrop_alt_default_md/protocol/arm_atsam/startup.o
DUAL_BEACON                                       .build/obj_massdrop_alt_default_md/quantum/rgb_matrix.o
DebugMon_Handler                                  .build/obj_massdrop_alt_default_md/protocol/arm_atsam/startup.o
Dummy_Handler                                     .build/obj_massdrop_alt_default_md/protocol/arm_atsam/startup.o
EIC_0_Handler                                     .build/obj_massdrop_alt_default_md/protocol/arm_atsam/startup.o
EIC_10_Handler                                    .build/obj_massdrop_alt_default_md/protocol/arm_atsam/startup.o
EIC_11_Handler                                    .build/obj_massdrop_alt_default_md/protocol/arm_atsam/startup.o
EIC_12_Handler                                    .build/obj_massdrop_alt_default_md/protocol/arm_atsam/startup.o
EIC_13_Handler                                    .build/obj_massdrop_alt_default_md/protocol/arm_atsam/startup.o
EIC_14_Handler                                    .build/obj_massdrop_alt_default_md/protocol/arm_atsam/startup.o
EIC_15_Handler                                    .build/obj_massdrop_alt_default_md/protocol/arm_atsam/startup.o
EIC_1_Handler                                     .build/obj_massdrop_alt_default_md/protocol/arm_atsam/startup.o
EIC_2_Handler                                     .build/obj_massdrop_alt_default_md/protocol/arm_atsam/startup.o
EIC_3_Handler                                     .build/obj_massdrop_alt_default_md/protocol/arm_atsam/startup.o
EIC_4_Handler                                     .build/obj_massdrop_alt_default_md/protocol/arm_atsam/startup.o
EIC_5_Handler                                     .build/obj_massdrop_alt_default_md/protocol/arm_atsam/startup.o
EIC_6_Handler                                     .build/obj_massdrop_alt_default_md/protocol/arm_atsam/startup.o
EIC_7_Handler                                     .build/obj_massdrop_alt_default_md/protocol/arm_atsam/d51_util.o
EIC_8_Handler                                     .build/obj_massdrop_alt_default_md/protocol/arm_atsam/startup.o
EIC_9_Handler                                     .build/obj_massdrop_alt_default_md/protocol/arm_atsam/startup.o
EVSYS_0_Handler                                   .build/obj_massdrop_alt_default_md/protocol/arm_atsam/startup.o
EVSYS_1_Handler                                   .build/obj_massdrop_alt_default_md/protocol/arm_atsam/startup.o
EVSYS_2_Handler                                   .build/obj_massdrop_alt_default_md/protocol/arm_atsam/startup.o
EVSYS_3_Handler                                   .build/obj_massdrop_alt_default_md/protocol/arm_atsam/startup.o
EVSYS_4_Handler                                   .build/obj_massdrop_alt_default_md/protocol/arm_atsam/startup.o
FREQM_Handler                                     .build/obj_massdrop_alt_default_md/protocol/arm_atsam/startup.o
GRADIENT_UP_DOWN                                  .build/obj_massdrop_alt_default_md/quantum/rgb_matrix.o
HardFault_Handler                                 .build/obj_massdrop_alt_default_md/protocol/arm_atsam/startup.o
I2C3733_Control_Set                               .build/obj_massdrop_alt_default_md/protocol/arm_atsam/i2c_master.o
                                                  .build/obj_massdrop_alt_default_md/protocol/arm_atsam/led_matrix.o
                                                  .build/obj_massdrop_alt_default_md/common/arm_atsam/suspend.o
                                                  .build/obj_massdrop_alt_default_md/keyboards/massdrop/alt/keymaps/default_md/keymap.o
I2C3733_Init_Control                              .build/obj_massdrop_alt_default_md/protocol/arm_atsam/i2c_master.o
                                                  .build/obj_massdrop_alt_default_md/protocol/arm_atsam/main_arm_atsam.o
I2C3733_Init_Drivers                              .build/obj_massdrop_alt_default_md/protocol/arm_atsam/i2c_master.o
                                                  .build/obj_massdrop_alt_default_md/protocol/arm_atsam/main_arm_atsam.o
I2C_DMAC_LED_Init                                 .build/obj_massdrop_alt_default_md/protocol/arm_atsam/i2c_master.o
                                                  .build/obj_massdrop_alt_default_md/protocol/arm_atsam/main_arm_atsam.o
I2S_Handler                                       .build/obj_massdrop_alt_default_md/protocol/arm_atsam/startup.o
ICM_Handler                                       .build/obj_massdrop_alt_default_md/protocol/arm_atsam/startup.o
JELLYBEAN_RAINDROPS                               .build/obj_massdrop_alt_default_md/quantum/rgb_matrix.o
MCLK_Handler                                      .build/obj_massdrop_alt_default_md/protocol/arm_atsam/startup.o
MFRNAME                                           .build/obj_massdrop_alt_default_md/protocol/arm_atsam/usb/usb2422.o
MULTISPLASH                                       .build/obj_massdrop_alt_default_md/quantum/rgb_matrix.o
MemManage_Handler                                 .build/obj_massdrop_alt_default_md/protocol/arm_atsam/startup.o
NMI_Handler                                       .build/obj_massdrop_alt_default_md/protocol/arm_atsam/startup.o
NVMCTRL_0_Handler                                 .build/obj_massdrop_alt_default_md/protocol/arm_atsam/startup.o
NVMCTRL_1_Handler                                 .build/obj_massdrop_alt_default_md/protocol/arm_atsam/startup.o
OSC32KCTRL_Handler                                .build/obj_massdrop_alt_default_md/protocol/arm_atsam/startup.o
OSCCTRL_0_Handler                                 .build/obj_massdrop_alt_default_md/protocol/arm_atsam/startup.o
OSCCTRL_1_Handler                                 .build/obj_massdrop_alt_default_md/protocol/arm_atsam/startup.o
OSCCTRL_2_Handler                                 .build/obj_massdrop_alt_default_md/protocol/arm_atsam/startup.o
OSCCTRL_3_Handler                                 .build/obj_massdrop_alt_default_md/protocol/arm_atsam/startup.o
OSCCTRL_4_Handler                                 .build/obj_massdrop_alt_default_md/protocol/arm_atsam/startup.o
PAC_Handler                                       .build/obj_massdrop_alt_default_md/protocol/arm_atsam/startup.o
PCC_Handler                                       .build/obj_massdrop_alt_default_md/protocol/arm_atsam/startup.o
PDEC_0_Handler                                    .build/obj_massdrop_alt_default_md/protocol/arm_atsam/startup.o
PDEC_1_Handler                                    .build/obj_massdrop_alt_default_md/protocol/arm_atsam/startup.o
PDEC_2_Handler                                    .build/obj_massdrop_alt_default_md/protocol/arm_atsam/startup.o
PINWHEELS                                         .build/obj_massdrop_alt_default_md/quantum/rgb_matrix.o
PM_Handler                                        .build/obj_massdrop_alt_default_md/protocol/arm_atsam/startup.o
PRDNAME                                           .build/obj_massdrop_alt_default_md/protocol/arm_atsam/usb/usb2422.o
PUKCC_Handler                                     .build/obj_massdrop_alt_default_md/protocol/arm_atsam/startup.o
PendSV_Handler                                    .build/obj_massdrop_alt_default_md/protocol/arm_atsam/startup.o
QSPI_Handler                                      .build/obj_massdrop_alt_default_md/protocol/arm_atsam/startup.o
RAINBOW_BEACON                                    .build/obj_massdrop_alt_default_md/quantum/rgb_matrix.o
RAINBOW_MOVING_CHEVRON                            .build/obj_massdrop_alt_default_md/quantum/rgb_matrix.o
RAINDROPS                                         .build/obj_massdrop_alt_default_md/quantum/rgb_matrix.o
RAMECC_Handler                                    .build/obj_massdrop_alt_default_md/protocol/arm_atsam/startup.o
RTC_Handler                                       .build/obj_massdrop_alt_default_md/protocol/arm_atsam/startup.o
Reset_Handler                                     .build/obj_massdrop_alt_default_md/protocol/arm_atsam/startup.o
SDHC0_Handler                                     .build/obj_massdrop_alt_default_md/protocol/arm_atsam/startup.o
SERCOM0_0_Handler                                 .build/obj_massdrop_alt_default_md/protocol/arm_atsam/startup.o
SERCOM0_1_Handler                                 .build/obj_massdrop_alt_default_md/protocol/arm_atsam/startup.o
SERCOM0_2_Handler                                 .build/obj_massdrop_alt_default_md/protocol/arm_atsam/startup.o
SERCOM0_3_Handler                                 .build/obj_massdrop_alt_default_md/protocol/arm_atsam/startup.o
SERCOM1_0_Handler                                 .build/obj_massdrop_alt_default_md/protocol/arm_atsam/led_matrix.o
SERCOM1_1_Handler                                 .build/obj_massdrop_alt_default_md/protocol/arm_atsam/startup.o
SERCOM1_2_Handler                                 .build/obj_massdrop_alt_default_md/protocol/arm_atsam/startup.o
SERCOM1_3_Handler                                 .build/obj_massdrop_alt_default_md/protocol/arm_atsam/startup.o
SERCOM2_0_Handler                                 .build/obj_massdrop_alt_default_md/protocol/arm_atsam/startup.o
SERCOM2_1_Handler                                 .build/obj_massdrop_alt_default_md/protocol/arm_atsam/startup.o
SERCOM2_2_Handler                                 .build/obj_massdrop_alt_default_md/protocol/arm_atsam/startup.o
SERCOM2_3_Handler                                 .build/obj_massdrop_alt_default_md/protocol/arm_atsam/startup.o
SERCOM3_0_Handler                                 .build/obj_massdrop_alt_default_md/protocol/arm_atsam/startup.o
SERCOM3_1_Handler                                 .build/obj_massdrop_alt_default_md/protocol/arm_atsam/startup.o
SERCOM3_2_Handler                                 .build/obj_massdrop_alt_default_md/protocol/arm_atsam/startup.o
SERCOM3_3_Handler                                 .build/obj_massdrop_alt_default_md/protocol/arm_atsam/startup.o
SERCOM4_0_Handler                                 .build/obj_massdrop_alt_default_md/protocol/arm_atsam/startup.o
SERCOM4_1_Handler                                 .build/obj_massdrop_alt_default_md/protocol/arm_atsam/startup.o
SERCOM4_2_Handler                                 .build/obj_massdrop_alt_default_md/protocol/arm_atsam/startup.o
SERCOM4_3_Handler                                 .build/obj_massdrop_alt_default_md/protocol/arm_atsam/startup.o
SERCOM5_0_Handler                                 .build/obj_massdrop_alt_default_md/protocol/arm_atsam/startup.o
SERCOM5_1_Handler                                 .build/obj_massdrop_alt_default_md/protocol/arm_atsam/startup.o
SERCOM5_2_Handler                                 .build/obj_massdrop_alt_default_md/protocol/arm_atsam/startup.o
SERCOM5_3_Handler                                 .build/obj_massdrop_alt_default_md/protocol/arm_atsam/startup.o
SERNAME                                           .build/obj_massdrop_alt_default_md/protocol/arm_atsam/usb/usb2422.o
SOLID_COLOR                                       .build/obj_massdrop_alt_default_md/quantum/rgb_matrix.o
SOLID_MULTISPLASH                                 .build/obj_massdrop_alt_default_md/quantum/rgb_matrix.o
SOLID_REACTIVE                                    .build/obj_massdrop_alt_default_md/quantum/rgb_matrix.o
SOLID_REACTIVE_CROSS                              .build/obj_massdrop_alt_default_md/quantum/rgb_matrix.o
SOLID_REACTIVE_MULTICROSS                         .build/obj_massdrop_alt_default_md/quantum/rgb_matrix.o
SOLID_REACTIVE_MULTINEXUS                         .build/obj_massdrop_alt_default_md/quantum/rgb_matrix.o
SOLID_REACTIVE_MULTIWIDE                          .build/obj_massdrop_alt_default_md/quantum/rgb_matrix.o
SOLID_REACTIVE_NEXUS                              .build/obj_massdrop_alt_default_md/quantum/rgb_matrix.o
SOLID_REACTIVE_SIMPLE                             .build/obj_massdrop_alt_default_md/quantum/rgb_matrix.o
SOLID_REACTIVE_WIDE                               .build/obj_massdrop_alt_default_md/quantum/rgb_matrix.o
SOLID_SPLASH                                      .build/obj_massdrop_alt_default_md/quantum/rgb_matrix.o
SOLID_SPLASH_math                                 .build/obj_massdrop_alt_default_md/quantum/rgb_matrix.o
SPLASH                                            .build/obj_massdrop_alt_default_md/quantum/rgb_matrix.o
SPLASH_math                                       .build/obj_massdrop_alt_default_md/quantum/rgb_matrix.o
SR_EXP_Init                                       .build/obj_massdrop_alt_default_md/protocol/arm_atsam/spi.o
                                                  .build/obj_massdrop_alt_default_md/protocol/arm_atsam/main_arm_atsam.o
SR_EXP_WriteData                                  .build/obj_massdrop_alt_default_md/protocol/arm_atsam/spi.o
                                                  .build/obj_massdrop_alt_default_md/protocol/arm_atsam/usb/usb2422.o
                                                  .build/obj_massdrop_alt_default_md/protocol/arm_atsam/i2c_master.o
SUPC_0_Handler                                    .build/obj_massdrop_alt_default_md/protocol/arm_atsam/startup.o
SUPC_1_Handler                                    .build/obj_massdrop_alt_default_md/protocol/arm_atsam/startup.o
SVC_Handler                                       .build/obj_massdrop_alt_default_md/protocol/arm_atsam/startup.o
SysTick_Handler                                   .build/obj_massdrop_alt_default_md/protocol/arm_atsam/startup.o
TAL_0_Handler                                     .build/obj_massdrop_alt_default_md/protocol/arm_atsam/startup.o
TAL_1_Handler                                     .build/obj_massdrop_alt_default_md/protocol/arm_atsam/startup.o
TC0_Handler                                       .build/obj_massdrop_alt_default_md/protocol/arm_atsam/startup.o
TC1_Handler                                       .build/obj_massdrop_alt_default_md/protocol/arm_atsam/startup.o
TC2_Handler                                       .build/obj_massdrop_alt_default_md/protocol/arm_atsam/startup.o
TC3_Handler                                       .build/obj_massdrop_alt_default_md/protocol/arm_atsam/startup.o
TC4_Handler                                       .build/obj_massdrop_alt_default_md/protocol/arm_atsam/clks.o
TC5_Handler                                       .build/obj_massdrop_alt_default_md/protocol/arm_atsam/startup.o
TCC0_0_Handler                                    .build/obj_massdrop_alt_default_md/protocol/arm_atsam/startup.o
TCC0_1_Handler                                    .build/obj_massdrop_alt_default_md/protocol/arm_atsam/startup.o
TCC0_2_Handler                                    .build/obj_massdrop_alt_default_md/protocol/arm_atsam/startup.o
TCC0_3_Handler                                    .build/obj_massdrop_alt_default_md/protocol/arm_atsam/startup.o
TCC0_4_Handler                                    .build/obj_massdrop_alt_default_md/protocol/arm_atsam/startup.o
TCC0_5_Handler                                    .build/obj_massdrop_alt_default_md/protocol/arm_atsam/startup.o
TCC0_6_Handler                                    .build/obj_massdrop_alt_default_md/protocol/arm_atsam/startup.o
TCC1_0_Handler                                    .build/obj_massdrop_alt_default_md/protocol/arm_atsam/startup.o
TCC1_1_Handler                                    .build/obj_massdrop_alt_default_md/protocol/arm_atsam/startup.o
TCC1_2_Handler                                    .build/obj_massdrop_alt_default_md/protocol/arm_atsam/startup.o
TCC1_3_Handler                                    .build/obj_massdrop_alt_default_md/protocol/arm_atsam/startup.o
TCC1_4_Handler                                    .build/obj_massdrop_alt_default_md/protocol/arm_atsam/startup.o
TCC2_0_Handler                                    .build/obj_massdrop_alt_default_md/protocol/arm_atsam/startup.o
TCC2_1_Handler                                    .build/obj_massdrop_alt_default_md/protocol/arm_atsam/startup.o
TCC2_2_Handler                                    .build/obj_massdrop_alt_default_md/protocol/arm_atsam/startup.o
TCC2_3_Handler                                    .build/obj_massdrop_alt_default_md/protocol/arm_atsam/startup.o
TCC3_0_Handler                                    .build/obj_massdrop_alt_default_md/protocol/arm_atsam/startup.o
TCC3_1_Handler                                    .build/obj_massdrop_alt_default_md/protocol/arm_atsam/startup.o
TCC3_2_Handler                                    .build/obj_massdrop_alt_default_md/protocol/arm_atsam/startup.o
TCC4_0_Handler                                    .build/obj_massdrop_alt_default_md/protocol/arm_atsam/startup.o
TCC4_1_Handler                                    .build/obj_massdrop_alt_default_md/protocol/arm_atsam/startup.o
TCC4_2_Handler                                    .build/obj_massdrop_alt_default_md/protocol/arm_atsam/startup.o
TRNG_Handler                                      .build/obj_massdrop_alt_default_md/protocol/arm_atsam/startup.o
USB2422_Port_Detect_Init                          .build/obj_massdrop_alt_default_md/protocol/arm_atsam/usb/usb2422.o
                                                  .build/obj_massdrop_alt_default_md/protocol/arm_atsam/main_arm_atsam.o
USB2422_init                                      .build/obj_massdrop_alt_default_md/protocol/arm_atsam/usb/usb2422.o
                                                  .build/obj_massdrop_alt_default_md/protocol/arm_atsam/main_arm_atsam.o
USB2422_shadow                                    .build/obj_massdrop_alt_default_md/protocol/arm_atsam/usb/usb2422.o
USB_0_Handler                                     .build/obj_massdrop_alt_default_md/protocol/arm_atsam/usb/usb.o
                                                  .build/obj_massdrop_alt_default_md/protocol/arm_atsam/startup.o
USB_1_Handler                                     .build/obj_massdrop_alt_default_md/protocol/arm_atsam/usb/usb.o
                                                  .build/obj_massdrop_alt_default_md/protocol/arm_atsam/startup.o
USB_2_Handler                                     .build/obj_massdrop_alt_default_md/protocol/arm_atsam/usb/usb.o
                                                  .build/obj_massdrop_alt_default_md/protocol/arm_atsam/startup.o
USB_3_Handler                                     .build/obj_massdrop_alt_default_md/protocol/arm_atsam/usb/usb.o
                                                  .build/obj_massdrop_alt_default_md/protocol/arm_atsam/startup.o
USB_ExtraSetState                                 .build/obj_massdrop_alt_default_md/protocol/arm_atsam/usb/usb2422.o
                                                  .build/obj_massdrop_alt_default_md/protocol/arm_atsam/led_matrix.o
USB_HandleExtraDevice                             .build/obj_massdrop_alt_default_md/protocol/arm_atsam/usb/usb2422.o
                                                  .build/obj_massdrop_alt_default_md/protocol/arm_atsam/main_arm_atsam.o
USB_active                                        .build/obj_massdrop_alt_default_md/protocol/arm_atsam/usb/usb2422.o
USB_configure                                     .build/obj_massdrop_alt_default_md/protocol/arm_atsam/usb/usb2422.o
USB_reset                                         .build/obj_massdrop_alt_default_md/protocol/arm_atsam/usb/usb2422.o
USB_set_host_by_voltage                           .build/obj_massdrop_alt_default_md/protocol/arm_atsam/usb/usb2422.o
USB_write2422_block                               .build/obj_massdrop_alt_default_md/protocol/arm_atsam/usb/usb2422.o
UTIL_itoa                                         .build/obj_massdrop_alt_default_md/protocol/arm_atsam/usb/usb_util.o
UTIL_ltoa                                         .build/obj_massdrop_alt_default_md/protocol/arm_atsam/usb/usb_util.o
UTIL_ltoa_radix                                   .build/obj_massdrop_alt_default_md/protocol/arm_atsam/usb/usb_util.o
UTIL_utoa                                         .build/obj_massdrop_alt_default_md/protocol/arm_atsam/usb/usb_util.o
UsageFault_Handler                                .build/obj_massdrop_alt_default_md/protocol/arm_atsam/startup.o
WDT_Handler                                       .build/obj_massdrop_alt_default_md/protocol/arm_atsam/startup.o
__adddf3                                          /usr/local/Cellar/gcc-arm-none-eabi/20180627/bin/../lib/gcc/arm-none-eabi/7.3.1/thumb/v7e-m/fpv4-sp/hard/libgcc.a(_arm_addsubdf3.o)
__aeabi_d2f                                       /usr/local/Cellar/gcc-arm-none-eabi/20180627/bin/../lib/gcc/arm-none-eabi/7.3.1/thumb/v7e-m/fpv4-sp/hard/libgcc.a(_arm_truncdfsf2.o)
                                                  .build/obj_massdrop_alt_default_md/protocol/arm_atsam/led_matrix.o
__aeabi_d2uiz                                     /usr/local/Cellar/gcc-arm-none-eabi/20180627/bin/../lib/gcc/arm-none-eabi/7.3.1/thumb/v7e-m/fpv4-sp/hard/libgcc.a(_arm_fixunsdfsi.o)
                                                  .build/obj_massdrop_alt_default_md/protocol/arm_atsam/usb/usb2422.o
                                                  .build/obj_massdrop_alt_default_md/protocol/arm_atsam/main_arm_atsam.o
__aeabi_dadd                                      /usr/local/Cellar/gcc-arm-none-eabi/20180627/bin/../lib/gcc/arm-none-eabi/7.3.1/thumb/v7e-m/fpv4-sp/hard/libgcc.a(_arm_addsubdf3.o)
                                                  .build/obj_massdrop_alt_default_md/protocol/arm_atsam/usb/usb2422.o
                                                  .build/obj_massdrop_alt_default_md/protocol/arm_atsam/main_arm_atsam.o
__aeabi_ddiv                                      /usr/local/Cellar/gcc-arm-none-eabi/20180627/bin/../lib/gcc/arm-none-eabi/7.3.1/thumb/v7e-m/fpv4-sp/hard/libgcc.a(_arm_muldivdf3.o)
__aeabi_dmul                                      /usr/local/Cellar/gcc-arm-none-eabi/20180627/bin/../lib/gcc/arm-none-eabi/7.3.1/thumb/v7e-m/fpv4-sp/hard/libgcc.a(_arm_muldivdf3.o)
                                                  .build/obj_massdrop_alt_default_md/protocol/arm_atsam/usb/usb2422.o
                                                  .build/obj_massdrop_alt_default_md/protocol/arm_atsam/main_arm_atsam.o
                                                  .build/obj_massdrop_alt_default_md/protocol/arm_atsam/led_matrix.o
__aeabi_drsub                                     /usr/local/Cellar/gcc-arm-none-eabi/20180627/bin/../lib/gcc/arm-none-eabi/7.3.1/thumb/v7e-m/fpv4-sp/hard/libgcc.a(_arm_addsubdf3.o)
__aeabi_dsub                                      /usr/local/Cellar/gcc-arm-none-eabi/20180627/bin/../lib/gcc/arm-none-eabi/7.3.1/thumb/v7e-m/fpv4-sp/hard/libgcc.a(_arm_addsubdf3.o)
__aeabi_f2d                                       /usr/local/Cellar/gcc-arm-none-eabi/20180627/bin/../lib/gcc/arm-none-eabi/7.3.1/thumb/v7e-m/fpv4-sp/hard/libgcc.a(_arm_addsubdf3.o)
__aeabi_i2d                                       /usr/local/Cellar/gcc-arm-none-eabi/20180627/bin/../lib/gcc/arm-none-eabi/7.3.1/thumb/v7e-m/fpv4-sp/hard/libgcc.a(_arm_addsubdf3.o)
                                                  .build/obj_massdrop_alt_default_md/protocol/arm_atsam/usb/usb2422.o
                                                  .build/obj_massdrop_alt_default_md/protocol/arm_atsam/main_arm_atsam.o
                                                  .build/obj_massdrop_alt_default_md/protocol/arm_atsam/led_matrix.o
__aeabi_idiv0                                     /usr/local/Cellar/gcc-arm-none-eabi/20180627/bin/../lib/gcc/arm-none-eabi/7.3.1/thumb/v7e-m/fpv4-sp/hard/libgcc.a(_dvmd_tls.o)
__aeabi_l2d                                       /usr/local/Cellar/gcc-arm-none-eabi/20180627/bin/../lib/gcc/arm-none-eabi/7.3.1/thumb/v7e-m/fpv4-sp/hard/libgcc.a(_arm_addsubdf3.o)
__aeabi_ldiv0                                     /usr/local/Cellar/gcc-arm-none-eabi/20180627/bin/../lib/gcc/arm-none-eabi/7.3.1/thumb/v7e-m/fpv4-sp/hard/libgcc.a(_dvmd_tls.o)
                                                  /usr/local/Cellar/gcc-arm-none-eabi/20180627/bin/../lib/gcc/arm-none-eabi/7.3.1/thumb/v7e-m/fpv4-sp/hard/libgcc.a(_aeabi_uldivmod.o)
                                                  /usr/local/Cellar/gcc-arm-none-eabi/20180627/bin/../lib/gcc/arm-none-eabi/7.3.1/thumb/v7e-m/fpv4-sp/hard/libgcc.a(_aeabi_ldivmod.o)
__aeabi_ldivmod                                   /usr/local/Cellar/gcc-arm-none-eabi/20180627/bin/../lib/gcc/arm-none-eabi/7.3.1/thumb/v7e-m/fpv4-sp/hard/libgcc.a(_aeabi_ldivmod.o)
                                                  .build/obj_massdrop_alt_default_md/protocol/arm_atsam/usb/usb_util.o
__aeabi_ui2d                                      /usr/local/Cellar/gcc-arm-none-eabi/20180627/bin/../lib/gcc/arm-none-eabi/7.3.1/thumb/v7e-m/fpv4-sp/hard/libgcc.a(_arm_addsubdf3.o)
__aeabi_ul2d                                      /usr/local/Cellar/gcc-arm-none-eabi/20180627/bin/../lib/gcc/arm-none-eabi/7.3.1/thumb/v7e-m/fpv4-sp/hard/libgcc.a(_arm_addsubdf3.o)
__aeabi_uldivmod                                  /usr/local/Cellar/gcc-arm-none-eabi/20180627/bin/../lib/gcc/arm-none-eabi/7.3.1/thumb/v7e-m/fpv4-sp/hard/libgcc.a(_aeabi_uldivmod.o)
                                                  .build/obj_massdrop_alt_default_md/protocol/arm_atsam/usb/usb2422.o
__atexit_recursive_mutex                          /usr/local/Cellar/gcc-arm-none-eabi/20180627/bin/../lib/gcc/arm-none-eabi/7.3.1/../../../../arm-none-eabi/lib/thumb/v7e-m/fpv4-sp/hard/libg.a(lib_a-__call_atexit.o)
                                                  /usr/local/Cellar/gcc-arm-none-eabi/20180627/bin/../lib/gcc/arm-none-eabi/7.3.1/../../../../arm-none-eabi/lib/thumb/v7e-m/fpv4-sp/hard/libg.a(lib_a-__atexit.o)
__bss_end__                                       /usr/local/Cellar/gcc-arm-none-eabi/20180627/bin/../lib/gcc/arm-none-eabi/7.3.1/../../../../arm-none-eabi/lib/thumb/v7e-m/fpv4-sp/hard/rdimon-crt0.o
__bss_start__                                     /usr/local/Cellar/gcc-arm-none-eabi/20180627/bin/../lib/gcc/arm-none-eabi/7.3.1/../../../../arm-none-eabi/lib/thumb/v7e-m/fpv4-sp/hard/rdimon-crt0.o
__call_exitprocs                                  /usr/local/Cellar/gcc-arm-none-eabi/20180627/bin/../lib/gcc/arm-none-eabi/7.3.1/../../../../arm-none-eabi/lib/thumb/v7e-m/fpv4-sp/hard/libg.a(lib_a-__call_atexit.o)
                                                  /usr/local/Cellar/gcc-arm-none-eabi/20180627/bin/../lib/gcc/arm-none-eabi/7.3.1/../../../../arm-none-eabi/lib/thumb/v7e-m/fpv4-sp/hard/libg.a(lib_a-exit.o)
__deregister_frame_info                           /usr/local/Cellar/gcc-arm-none-eabi/20180627/bin/../lib/gcc/arm-none-eabi/7.3.1/thumb/v7e-m/fpv4-sp/hard/crtbegin.o
__divdf3                                          /usr/local/Cellar/gcc-arm-none-eabi/20180627/bin/../lib/gcc/arm-none-eabi/7.3.1/thumb/v7e-m/fpv4-sp/hard/libgcc.a(_arm_muldivdf3.o)
__dso_handle                                      /usr/local/Cellar/gcc-arm-none-eabi/20180627/bin/../lib/gcc/arm-none-eabi/7.3.1/thumb/v7e-m/fpv4-sp/hard/crtbegin.o
__end__                                           /usr/local/Cellar/gcc-arm-none-eabi/20180627/bin/../lib/gcc/arm-none-eabi/7.3.1/../../../../arm-none-eabi/lib/thumb/v7e-m/fpv4-sp/hard/rdimon-crt0.o
__errno                                           /usr/local/Cellar/gcc-arm-none-eabi/20180627/bin/../lib/gcc/arm-none-eabi/7.3.1/../../../../arm-none-eabi/lib/thumb/v7e-m/fpv4-sp/hard/libc.a(lib_a-errno.o)
                                                  /usr/local/Cellar/gcc-arm-none-eabi/20180627/bin/../lib/gcc/arm-none-eabi/7.3.1/../../../../arm-none-eabi/lib/thumb/v7e-m/fpv4-sp/hard/librdimon.a(rdimon-syscalls.o)
__extendsfdf2                                     /usr/local/Cellar/gcc-arm-none-eabi/20180627/bin/../lib/gcc/arm-none-eabi/7.3.1/thumb/v7e-m/fpv4-sp/hard/libgcc.a(_arm_addsubdf3.o)
__fini_array_end                                  /usr/local/Cellar/gcc-arm-none-eabi/20180627/bin/../lib/gcc/arm-none-eabi/7.3.1/../../../../arm-none-eabi/lib/thumb/v7e-m/fpv4-sp/hard/libg.a(lib_a-fini.o)
__fini_array_start                                /usr/local/Cellar/gcc-arm-none-eabi/20180627/bin/../lib/gcc/arm-none-eabi/7.3.1/../../../../arm-none-eabi/lib/thumb/v7e-m/fpv4-sp/hard/libg.a(lib_a-fini.o)
__fixunsdfsi                                      /usr/local/Cellar/gcc-arm-none-eabi/20180627/bin/../lib/gcc/arm-none-eabi/7.3.1/thumb/v7e-m/fpv4-sp/hard/libgcc.a(_arm_fixunsdfsi.o)
__floatdidf                                       /usr/local/Cellar/gcc-arm-none-eabi/20180627/bin/../lib/gcc/arm-none-eabi/7.3.1/thumb/v7e-m/fpv4-sp/hard/libgcc.a(_arm_addsubdf3.o)
__floatsidf                                       /usr/local/Cellar/gcc-arm-none-eabi/20180627/bin/../lib/gcc/arm-none-eabi/7.3.1/thumb/v7e-m/fpv4-sp/hard/libgcc.a(_arm_addsubdf3.o)
__floatundidf                                     /usr/local/Cellar/gcc-arm-none-eabi/20180627/bin/../lib/gcc/arm-none-eabi/7.3.1/thumb/v7e-m/fpv4-sp/hard/libgcc.a(_arm_addsubdf3.o)
__floatunsidf                                     /usr/local/Cellar/gcc-arm-none-eabi/20180627/bin/../lib/gcc/arm-none-eabi/7.3.1/thumb/v7e-m/fpv4-sp/hard/libgcc.a(_arm_addsubdf3.o)
__fp_lock_all                                     /usr/local/Cellar/gcc-arm-none-eabi/20180627/bin/../lib/gcc/arm-none-eabi/7.3.1/../../../../arm-none-eabi/lib/thumb/v7e-m/fpv4-sp/hard/libc.a(lib_a-findfp.o)
__fp_unlock_all                                   /usr/local/Cellar/gcc-arm-none-eabi/20180627/bin/../lib/gcc/arm-none-eabi/7.3.1/../../../../arm-none-eabi/lib/thumb/v7e-m/fpv4-sp/hard/libc.a(lib_a-findfp.o)
__heap_limit                                      /usr/local/Cellar/gcc-arm-none-eabi/20180627/bin/../lib/gcc/arm-none-eabi/7.3.1/../../../../arm-none-eabi/lib/thumb/v7e-m/fpv4-sp/hard/librdimon.a(rdimon-syscalls.o)
                                                  /usr/local/Cellar/gcc-arm-none-eabi/20180627/bin/../lib/gcc/arm-none-eabi/7.3.1/../../../../arm-none-eabi/lib/thumb/v7e-m/fpv4-sp/hard/rdimon-crt0.o
__init_array_end                                  /usr/local/Cellar/gcc-arm-none-eabi/20180627/bin/../lib/gcc/arm-none-eabi/7.3.1/../../../../arm-none-eabi/lib/thumb/v7e-m/fpv4-sp/hard/libg.a(lib_a-init.o)
__init_array_start                                /usr/local/Cellar/gcc-arm-none-eabi/20180627/bin/../lib/gcc/arm-none-eabi/7.3.1/../../../../arm-none-eabi/lib/thumb/v7e-m/fpv4-sp/hard/libg.a(lib_a-init.o)
__libc_fini                                       /usr/local/Cellar/gcc-arm-none-eabi/20180627/bin/../lib/gcc/arm-none-eabi/7.3.1/../../../../arm-none-eabi/lib/thumb/v7e-m/fpv4-sp/hard/libg.a(lib_a-__call_atexit.o)
__libc_fini_array                                 /usr/local/Cellar/gcc-arm-none-eabi/20180627/bin/../lib/gcc/arm-none-eabi/7.3.1/../../../../arm-none-eabi/lib/thumb/v7e-m/fpv4-sp/hard/libg.a(lib_a-fini.o)
                                                  /usr/local/Cellar/gcc-arm-none-eabi/20180627/bin/../lib/gcc/arm-none-eabi/7.3.1/../../../../arm-none-eabi/lib/thumb/v7e-m/fpv4-sp/hard/libg.a(lib_a-__call_atexit.o)
                                                  /usr/local/Cellar/gcc-arm-none-eabi/20180627/bin/../lib/gcc/arm-none-eabi/7.3.1/../../../../arm-none-eabi/lib/thumb/v7e-m/fpv4-sp/hard/rdimon-crt0.o
__libc_init_array                                 /usr/local/Cellar/gcc-arm-none-eabi/20180627/bin/../lib/gcc/arm-none-eabi/7.3.1/../../../../arm-none-eabi/lib/thumb/v7e-m/fpv4-sp/hard/libg.a(lib_a-init.o)
                                                  .build/obj_massdrop_alt_default_md/protocol/arm_atsam/startup.o
                                                  /usr/local/Cellar/gcc-arm-none-eabi/20180627/bin/../lib/gcc/arm-none-eabi/7.3.1/../../../../arm-none-eabi/lib/thumb/v7e-m/fpv4-sp/hard/rdimon-crt0.o
__lock___arc4random_mutex                         /usr/local/Cellar/gcc-arm-none-eabi/20180627/bin/../lib/gcc/arm-none-eabi/7.3.1/../../../../arm-none-eabi/lib/thumb/v7e-m/fpv4-sp/hard/libg.a(lib_a-lock.o)
__lock___at_quick_exit_mutex                      /usr/local/Cellar/gcc-arm-none-eabi/20180627/bin/../lib/gcc/arm-none-eabi/7.3.1/../../../../arm-none-eabi/lib/thumb/v7e-m/fpv4-sp/hard/libg.a(lib_a-lock.o)
__lock___atexit_recursive_mutex                   /usr/local/Cellar/gcc-arm-none-eabi/20180627/bin/../lib/gcc/arm-none-eabi/7.3.1/../../../../arm-none-eabi/lib/thumb/v7e-m/fpv4-sp/hard/libg.a(lib_a-lock.o)
                                                  /usr/local/Cellar/gcc-arm-none-eabi/20180627/bin/../lib/gcc/arm-none-eabi/7.3.1/../../../../arm-none-eabi/lib/thumb/v7e-m/fpv4-sp/hard/libg.a(lib_a-__call_atexit.o)
__lock___dd_hash_mutex                            /usr/local/Cellar/gcc-arm-none-eabi/20180627/bin/../lib/gcc/arm-none-eabi/7.3.1/../../../../arm-none-eabi/lib/thumb/v7e-m/fpv4-sp/hard/libg.a(lib_a-lock.o)
__lock___env_recursive_mutex                      /usr/local/Cellar/gcc-arm-none-eabi/20180627/bin/../lib/gcc/arm-none-eabi/7.3.1/../../../../arm-none-eabi/lib/thumb/v7e-m/fpv4-sp/hard/libg.a(lib_a-lock.o)
__lock___malloc_recursive_mutex                   /usr/local/Cellar/gcc-arm-none-eabi/20180627/bin/../lib/gcc/arm-none-eabi/7.3.1/../../../../arm-none-eabi/lib/thumb/v7e-m/fpv4-sp/hard/libg.a(lib_a-lock.o)
                                                  /usr/local/Cellar/gcc-arm-none-eabi/20180627/bin/../lib/gcc/arm-none-eabi/7.3.1/../../../../arm-none-eabi/lib/thumb/v7e-m/fpv4-sp/hard/libc.a(lib_a-mlock.o)
__lock___sfp_recursive_mutex                      /usr/local/Cellar/gcc-arm-none-eabi/20180627/bin/../lib/gcc/arm-none-eabi/7.3.1/../../../../arm-none-eabi/lib/thumb/v7e-m/fpv4-sp/hard/libg.a(lib_a-lock.o)
                                                  /usr/local/Cellar/gcc-arm-none-eabi/20180627/bin/../lib/gcc/arm-none-eabi/7.3.1/../../../../arm-none-eabi/lib/thumb/v7e-m/fpv4-sp/hard/libc.a(lib_a-findfp.o)
__lock___sinit_recursive_mutex                    /usr/local/Cellar/gcc-arm-none-eabi/20180627/bin/../lib/gcc/arm-none-eabi/7.3.1/../../../../arm-none-eabi/lib/thumb/v7e-m/fpv4-sp/hard/libg.a(lib_a-lock.o)
                                                  /usr/local/Cellar/gcc-arm-none-eabi/20180627/bin/../lib/gcc/arm-none-eabi/7.3.1/../../../../arm-none-eabi/lib/thumb/v7e-m/fpv4-sp/hard/libc.a(lib_a-findfp.o)
__lock___tz_mutex                                 /usr/local/Cellar/gcc-arm-none-eabi/20180627/bin/../lib/gcc/arm-none-eabi/7.3.1/../../../../arm-none-eabi/lib/thumb/v7e-m/fpv4-sp/hard/libg.a(lib_a-lock.o)
__malloc_av_                                      /usr/local/Cellar/gcc-arm-none-eabi/20180627/bin/../lib/gcc/arm-none-eabi/7.3.1/../../../../arm-none-eabi/lib/thumb/v7e-m/fpv4-sp/hard/libc.a(lib_a-mallocr.o)
                                                  /usr/local/Cellar/gcc-arm-none-eabi/20180627/bin/../lib/gcc/arm-none-eabi/7.3.1/../../../../arm-none-eabi/lib/thumb/v7e-m/fpv4-sp/hard/libc.a(lib_a-freer.o)
__malloc_current_mallinfo                         /usr/local/Cellar/gcc-arm-none-eabi/20180627/bin/../lib/gcc/arm-none-eabi/7.3.1/../../../../arm-none-eabi/lib/thumb/v7e-m/fpv4-sp/hard/libc.a(lib_a-mallocr.o)
                                                  /usr/local/Cellar/gcc-arm-none-eabi/20180627/bin/../lib/gcc/arm-none-eabi/7.3.1/../../../../arm-none-eabi/lib/thumb/v7e-m/fpv4-sp/hard/libc.a(lib_a-freer.o)
__malloc_lock                                     /usr/local/Cellar/gcc-arm-none-eabi/20180627/bin/../lib/gcc/arm-none-eabi/7.3.1/../../../../arm-none-eabi/lib/thumb/v7e-m/fpv4-sp/hard/libc.a(lib_a-mlock.o)
                                                  /usr/local/Cellar/gcc-arm-none-eabi/20180627/bin/../lib/gcc/arm-none-eabi/7.3.1/../../../../arm-none-eabi/lib/thumb/v7e-m/fpv4-sp/hard/libc.a(lib_a-freer.o)
                                                  /usr/local/Cellar/gcc-arm-none-eabi/20180627/bin/../lib/gcc/arm-none-eabi/7.3.1/../../../../arm-none-eabi/lib/thumb/v7e-m/fpv4-sp/hard/libc.a(lib_a-mallocr.o)
__malloc_max_sbrked_mem                           /usr/local/Cellar/gcc-arm-none-eabi/20180627/bin/../lib/gcc/arm-none-eabi/7.3.1/../../../../arm-none-eabi/lib/thumb/v7e-m/fpv4-sp/hard/libc.a(lib_a-mallocr.o)
__malloc_max_total_mem                            /usr/local/Cellar/gcc-arm-none-eabi/20180627/bin/../lib/gcc/arm-none-eabi/7.3.1/../../../../arm-none-eabi/lib/thumb/v7e-m/fpv4-sp/hard/libc.a(lib_a-mallocr.o)
__malloc_sbrk_base                                /usr/local/Cellar/gcc-arm-none-eabi/20180627/bin/../lib/gcc/arm-none-eabi/7.3.1/../../../../arm-none-eabi/lib/thumb/v7e-m/fpv4-sp/hard/libc.a(lib_a-mallocr.o)
                                                  /usr/local/Cellar/gcc-arm-none-eabi/20180627/bin/../lib/gcc/arm-none-eabi/7.3.1/../../../../arm-none-eabi/lib/thumb/v7e-m/fpv4-sp/hard/libc.a(lib_a-freer.o)
__malloc_top_pad                                  /usr/local/Cellar/gcc-arm-none-eabi/20180627/bin/../lib/gcc/arm-none-eabi/7.3.1/../../../../arm-none-eabi/lib/thumb/v7e-m/fpv4-sp/hard/libc.a(lib_a-mallocr.o)
                                                  /usr/local/Cellar/gcc-arm-none-eabi/20180627/bin/../lib/gcc/arm-none-eabi/7.3.1/../../../../arm-none-eabi/lib/thumb/v7e-m/fpv4-sp/hard/libc.a(lib_a-freer.o)
__malloc_trim_threshold                           /usr/local/Cellar/gcc-arm-none-eabi/20180627/bin/../lib/gcc/arm-none-eabi/7.3.1/../../../../arm-none-eabi/lib/thumb/v7e-m/fpv4-sp/hard/libc.a(lib_a-mallocr.o)
                                                  /usr/local/Cellar/gcc-arm-none-eabi/20180627/bin/../lib/gcc/arm-none-eabi/7.3.1/../../../../arm-none-eabi/lib/thumb/v7e-m/fpv4-sp/hard/libc.a(lib_a-freer.o)
__malloc_unlock                                   /usr/local/Cellar/gcc-arm-none-eabi/20180627/bin/../lib/gcc/arm-none-eabi/7.3.1/../../../../arm-none-eabi/lib/thumb/v7e-m/fpv4-sp/hard/libc.a(lib_a-mlock.o)
                                                  /usr/local/Cellar/gcc-arm-none-eabi/20180627/bin/../lib/gcc/arm-none-eabi/7.3.1/../../../../arm-none-eabi/lib/thumb/v7e-m/fpv4-sp/hard/libc.a(lib_a-freer.o)
                                                  /usr/local/Cellar/gcc-arm-none-eabi/20180627/bin/../lib/gcc/arm-none-eabi/7.3.1/../../../../arm-none-eabi/lib/thumb/v7e-m/fpv4-sp/hard/libc.a(lib_a-mallocr.o)
__muldf3                                          /usr/local/Cellar/gcc-arm-none-eabi/20180627/bin/../lib/gcc/arm-none-eabi/7.3.1/thumb/v7e-m/fpv4-sp/hard/libgcc.a(_arm_muldivdf3.o)
__preinit_array_end                               /usr/local/Cellar/gcc-arm-none-eabi/20180627/bin/../lib/gcc/arm-none-eabi/7.3.1/../../../../arm-none-eabi/lib/thumb/v7e-m/fpv4-sp/hard/libg.a(lib_a-init.o)
__preinit_array_start                             /usr/local/Cellar/gcc-arm-none-eabi/20180627/bin/../lib/gcc/arm-none-eabi/7.3.1/../../../../arm-none-eabi/lib/thumb/v7e-m/fpv4-sp/hard/libg.a(lib_a-init.o)
__register_exitproc                               /usr/local/Cellar/gcc-arm-none-eabi/20180627/bin/../lib/gcc/arm-none-eabi/7.3.1/../../../../arm-none-eabi/lib/thumb/v7e-m/fpv4-sp/hard/libg.a(lib_a-__atexit.o)
                                                  /usr/local/Cellar/gcc-arm-none-eabi/20180627/bin/../lib/gcc/arm-none-eabi/7.3.1/../../../../arm-none-eabi/lib/thumb/v7e-m/fpv4-sp/hard/libg.a(lib_a-atexit.o)
__register_frame_info                             /usr/local/Cellar/gcc-arm-none-eabi/20180627/bin/../lib/gcc/arm-none-eabi/7.3.1/thumb/v7e-m/fpv4-sp/hard/crtbegin.o
__retarget_lock_acquire                           /usr/local/Cellar/gcc-arm-none-eabi/20180627/bin/../lib/gcc/arm-none-eabi/7.3.1/../../../../arm-none-eabi/lib/thumb/v7e-m/fpv4-sp/hard/libg.a(lib_a-lock.o)
__retarget_lock_acquire_recursive                 /usr/local/Cellar/gcc-arm-none-eabi/20180627/bin/../lib/gcc/arm-none-eabi/7.3.1/../../../../arm-none-eabi/lib/thumb/v7e-m/fpv4-sp/hard/libg.a(lib_a-lock.o)
                                                  /usr/local/Cellar/gcc-arm-none-eabi/20180627/bin/../lib/gcc/arm-none-eabi/7.3.1/../../../../arm-none-eabi/lib/thumb/v7e-m/fpv4-sp/hard/libc.a(lib_a-fflush.o)
                                                  /usr/local/Cellar/gcc-arm-none-eabi/20180627/bin/../lib/gcc/arm-none-eabi/7.3.1/../../../../arm-none-eabi/lib/thumb/v7e-m/fpv4-sp/hard/libc.a(lib_a-fclose.o)
                                                  /usr/local/Cellar/gcc-arm-none-eabi/20180627/bin/../lib/gcc/arm-none-eabi/7.3.1/../../../../arm-none-eabi/lib/thumb/v7e-m/fpv4-sp/hard/libc.a(lib_a-mlock.o)
                                                  /usr/local/Cellar/gcc-arm-none-eabi/20180627/bin/../lib/gcc/arm-none-eabi/7.3.1/../../../../arm-none-eabi/lib/thumb/v7e-m/fpv4-sp/hard/libc.a(lib_a-findfp.o)
                                                  /usr/local/Cellar/gcc-arm-none-eabi/20180627/bin/../lib/gcc/arm-none-eabi/7.3.1/../../../../arm-none-eabi/lib/thumb/v7e-m/fpv4-sp/hard/libg.a(lib_a-__atexit.o)
                                                  /usr/local/Cellar/gcc-arm-none-eabi/20180627/bin/../lib/gcc/arm-none-eabi/7.3.1/../../../../arm-none-eabi/lib/thumb/v7e-m/fpv4-sp/hard/libg.a(lib_a-__call_atexit.o)
__retarget_lock_close                             /usr/local/Cellar/gcc-arm-none-eabi/20180627/bin/../lib/gcc/arm-none-eabi/7.3.1/../../../../arm-none-eabi/lib/thumb/v7e-m/fpv4-sp/hard/libg.a(lib_a-lock.o)
__retarget_lock_close_recursive                   /usr/local/Cellar/gcc-arm-none-eabi/20180627/bin/../lib/gcc/arm-none-eabi/7.3.1/../../../../arm-none-eabi/lib/thumb/v7e-m/fpv4-sp/hard/libg.a(lib_a-lock.o)
                                                  /usr/local/Cellar/gcc-arm-none-eabi/20180627/bin/../lib/gcc/arm-none-eabi/7.3.1/../../../../arm-none-eabi/lib/thumb/v7e-m/fpv4-sp/hard/libc.a(lib_a-fclose.o)
__retarget_lock_init                              /usr/local/Cellar/gcc-arm-none-eabi/20180627/bin/../lib/gcc/arm-none-eabi/7.3.1/../../../../arm-none-eabi/lib/thumb/v7e-m/fpv4-sp/hard/libg.a(lib_a-lock.o)
__retarget_lock_init_recursive                    /usr/local/Cellar/gcc-arm-none-eabi/20180627/bin/../lib/gcc/arm-none-eabi/7.3.1/../../../../arm-none-eabi/lib/thumb/v7e-m/fpv4-sp/hard/libg.a(lib_a-lock.o)
                                                  /usr/local/Cellar/gcc-arm-none-eabi/20180627/bin/../lib/gcc/arm-none-eabi/7.3.1/../../../../arm-none-eabi/lib/thumb/v7e-m/fpv4-sp/hard/libc.a(lib_a-findfp.o)
__retarget_lock_release                           /usr/local/Cellar/gcc-arm-none-eabi/20180627/bin/../lib/gcc/arm-none-eabi/7.3.1/../../../../arm-none-eabi/lib/thumb/v7e-m/fpv4-sp/hard/libg.a(lib_a-lock.o)
__retarget_lock_release_recursive                 /usr/local/Cellar/gcc-arm-none-eabi/20180627/bin/../lib/gcc/arm-none-eabi/7.3.1/../../../../arm-none-eabi/lib/thumb/v7e-m/fpv4-sp/hard/libg.a(lib_a-lock.o)
                                                  /usr/local/Cellar/gcc-arm-none-eabi/20180627/bin/../lib/gcc/arm-none-eabi/7.3.1/../../../../arm-none-eabi/lib/thumb/v7e-m/fpv4-sp/hard/libc.a(lib_a-fflush.o)
                                                  /usr/local/Cellar/gcc-arm-none-eabi/20180627/bin/../lib/gcc/arm-none-eabi/7.3.1/../../../../arm-none-eabi/lib/thumb/v7e-m/fpv4-sp/hard/libc.a(lib_a-fclose.o)
                                                  /usr/local/Cellar/gcc-arm-none-eabi/20180627/bin/../lib/gcc/arm-none-eabi/7.3.1/../../../../arm-none-eabi/lib/thumb/v7e-m/fpv4-sp/hard/libc.a(lib_a-mlock.o)
                                                  /usr/local/Cellar/gcc-arm-none-eabi/20180627/bin/../lib/gcc/arm-none-eabi/7.3.1/../../../../arm-none-eabi/lib/thumb/v7e-m/fpv4-sp/hard/libc.a(lib_a-findfp.o)
                                                  /usr/local/Cellar/gcc-arm-none-eabi/20180627/bin/../lib/gcc/arm-none-eabi/7.3.1/../../../../arm-none-eabi/lib/thumb/v7e-m/fpv4-sp/hard/libg.a(lib_a-__atexit.o)
                                                  /usr/local/Cellar/gcc-arm-none-eabi/20180627/bin/../lib/gcc/arm-none-eabi/7.3.1/../../../../arm-none-eabi/lib/thumb/v7e-m/fpv4-sp/hard/libg.a(lib_a-__call_atexit.o)
__retarget_lock_try_acquire                       /usr/local/Cellar/gcc-arm-none-eabi/20180627/bin/../lib/gcc/arm-none-eabi/7.3.1/../../../../arm-none-eabi/lib/thumb/v7e-m/fpv4-sp/hard/libg.a(lib_a-lock.o)
__retarget_lock_try_acquire_recursive             /usr/local/Cellar/gcc-arm-none-eabi/20180627/bin/../lib/gcc/arm-none-eabi/7.3.1/../../../../arm-none-eabi/lib/thumb/v7e-m/fpv4-sp/hard/libg.a(lib_a-lock.o)
__sclose                                          /usr/local/Cellar/gcc-arm-none-eabi/20180627/bin/../lib/gcc/arm-none-eabi/7.3.1/../../../../arm-none-eabi/lib/thumb/v7e-m/fpv4-sp/hard/libc.a(lib_a-stdio.o)
                                                  /usr/local/Cellar/gcc-arm-none-eabi/20180627/bin/../lib/gcc/arm-none-eabi/7.3.1/../../../../arm-none-eabi/lib/thumb/v7e-m/fpv4-sp/hard/libc.a(lib_a-findfp.o)
__seofread                                        /usr/local/Cellar/gcc-arm-none-eabi/20180627/bin/../lib/gcc/arm-none-eabi/7.3.1/../../../../arm-none-eabi/lib/thumb/v7e-m/fpv4-sp/hard/libc.a(lib_a-stdio.o)
__sflush_r                                        /usr/local/Cellar/gcc-arm-none-eabi/20180627/bin/../lib/gcc/arm-none-eabi/7.3.1/../../../../arm-none-eabi/lib/thumb/v7e-m/fpv4-sp/hard/libc.a(lib_a-fflush.o)
                                                  /usr/local/Cellar/gcc-arm-none-eabi/20180627/bin/../lib/gcc/arm-none-eabi/7.3.1/../../../../arm-none-eabi/lib/thumb/v7e-m/fpv4-sp/hard/libc.a(lib_a-fclose.o)
__sfmoreglue                                      /usr/local/Cellar/gcc-arm-none-eabi/20180627/bin/../lib/gcc/arm-none-eabi/7.3.1/../../../../arm-none-eabi/lib/thumb/v7e-m/fpv4-sp/hard/libc.a(lib_a-findfp.o)
__sfp                                             /usr/local/Cellar/gcc-arm-none-eabi/20180627/bin/../lib/gcc/arm-none-eabi/7.3.1/../../../../arm-none-eabi/lib/thumb/v7e-m/fpv4-sp/hard/libc.a(lib_a-findfp.o)
__sfp_lock_acquire                                /usr/local/Cellar/gcc-arm-none-eabi/20180627/bin/../lib/gcc/arm-none-eabi/7.3.1/../../../../arm-none-eabi/lib/thumb/v7e-m/fpv4-sp/hard/libc.a(lib_a-findfp.o)
                                                  /usr/local/Cellar/gcc-arm-none-eabi/20180627/bin/../lib/gcc/arm-none-eabi/7.3.1/../../../../arm-none-eabi/lib/thumb/v7e-m/fpv4-sp/hard/libc.a(lib_a-fclose.o)
__sfp_lock_release                                /usr/local/Cellar/gcc-arm-none-eabi/20180627/bin/../lib/gcc/arm-none-eabi/7.3.1/../../../../arm-none-eabi/lib/thumb/v7e-m/fpv4-sp/hard/libc.a(lib_a-findfp.o)
                                                  /usr/local/Cellar/gcc-arm-none-eabi/20180627/bin/../lib/gcc/arm-none-eabi/7.3.1/../../../../arm-none-eabi/lib/thumb/v7e-m/fpv4-sp/hard/libc.a(lib_a-fclose.o)
__sinit                                           /usr/local/Cellar/gcc-arm-none-eabi/20180627/bin/../lib/gcc/arm-none-eabi/7.3.1/../../../../arm-none-eabi/lib/thumb/v7e-m/fpv4-sp/hard/libc.a(lib_a-findfp.o)
                                                  /usr/local/Cellar/gcc-arm-none-eabi/20180627/bin/../lib/gcc/arm-none-eabi/7.3.1/../../../../arm-none-eabi/lib/thumb/v7e-m/fpv4-sp/hard/libc.a(lib_a-fflush.o)
                                                  /usr/local/Cellar/gcc-arm-none-eabi/20180627/bin/../lib/gcc/arm-none-eabi/7.3.1/../../../../arm-none-eabi/lib/thumb/v7e-m/fpv4-sp/hard/libc.a(lib_a-fclose.o)
                                                  /usr/local/Cellar/gcc-arm-none-eabi/20180627/bin/../lib/gcc/arm-none-eabi/7.3.1/../../../../arm-none-eabi/lib/thumb/v7e-m/fpv4-sp/hard/librdimon.a(rdimon-syscalls.o)
__sinit_lock_acquire                              /usr/local/Cellar/gcc-arm-none-eabi/20180627/bin/../lib/gcc/arm-none-eabi/7.3.1/../../../../arm-none-eabi/lib/thumb/v7e-m/fpv4-sp/hard/libc.a(lib_a-findfp.o)
__sinit_lock_release                              /usr/local/Cellar/gcc-arm-none-eabi/20180627/bin/../lib/gcc/arm-none-eabi/7.3.1/../../../../arm-none-eabi/lib/thumb/v7e-m/fpv4-sp/hard/libc.a(lib_a-findfp.o)
__sread                                           /usr/local/Cellar/gcc-arm-none-eabi/20180627/bin/../lib/gcc/arm-none-eabi/7.3.1/../../../../arm-none-eabi/lib/thumb/v7e-m/fpv4-sp/hard/libc.a(lib_a-stdio.o)
                                                  /usr/local/Cellar/gcc-arm-none-eabi/20180627/bin/../lib/gcc/arm-none-eabi/7.3.1/../../../../arm-none-eabi/lib/thumb/v7e-m/fpv4-sp/hard/libc.a(lib_a-findfp.o)
__sseek                                           /usr/local/Cellar/gcc-arm-none-eabi/20180627/bin/../lib/gcc/arm-none-eabi/7.3.1/../../../../arm-none-eabi/lib/thumb/v7e-m/fpv4-sp/hard/libc.a(lib_a-stdio.o)
                                                  /usr/local/Cellar/gcc-arm-none-eabi/20180627/bin/../lib/gcc/arm-none-eabi/7.3.1/../../../../arm-none-eabi/lib/thumb/v7e-m/fpv4-sp/hard/libc.a(lib_a-findfp.o)
__stack_base__                                    /usr/local/Cellar/gcc-arm-none-eabi/20180627/bin/../lib/gcc/arm-none-eabi/7.3.1/../../../../arm-none-eabi/lib/thumb/v7e-m/fpv4-sp/hard/rdimon-crt0.o
__subdf3                                          /usr/local/Cellar/gcc-arm-none-eabi/20180627/bin/../lib/gcc/arm-none-eabi/7.3.1/thumb/v7e-m/fpv4-sp/hard/libgcc.a(_arm_addsubdf3.o)
__swrite                                          /usr/local/Cellar/gcc-arm-none-eabi/20180627/bin/../lib/gcc/arm-none-eabi/7.3.1/../../../../arm-none-eabi/lib/thumb/v7e-m/fpv4-sp/hard/libc.a(lib_a-stdio.o)
                                                  /usr/local/Cellar/gcc-arm-none-eabi/20180627/bin/../lib/gcc/arm-none-eabi/7.3.1/../../../../arm-none-eabi/lib/thumb/v7e-m/fpv4-sp/hard/libc.a(lib_a-findfp.o)
__truncdfsf2                                      /usr/local/Cellar/gcc-arm-none-eabi/20180627/bin/../lib/gcc/arm-none-eabi/7.3.1/thumb/v7e-m/fpv4-sp/hard/libgcc.a(_arm_truncdfsf2.o)
__udivmoddi4                                      /usr/local/Cellar/gcc-arm-none-eabi/20180627/bin/../lib/gcc/arm-none-eabi/7.3.1/thumb/v7e-m/fpv4-sp/hard/libgcc.a(_udivmoddi4.o)
                                                  /usr/local/Cellar/gcc-arm-none-eabi/20180627/bin/../lib/gcc/arm-none-eabi/7.3.1/thumb/v7e-m/fpv4-sp/hard/libgcc.a(_aeabi_uldivmod.o)
                                                  /usr/local/Cellar/gcc-arm-none-eabi/20180627/bin/../lib/gcc/arm-none-eabi/7.3.1/thumb/v7e-m/fpv4-sp/hard/libgcc.a(_aeabi_ldivmod.o)
_cleanup                                          /usr/local/Cellar/gcc-arm-none-eabi/20180627/bin/../lib/gcc/arm-none-eabi/7.3.1/../../../../arm-none-eabi/lib/thumb/v7e-m/fpv4-sp/hard/libc.a(lib_a-findfp.o)
_cleanup_r                                        /usr/local/Cellar/gcc-arm-none-eabi/20180627/bin/../lib/gcc/arm-none-eabi/7.3.1/../../../../arm-none-eabi/lib/thumb/v7e-m/fpv4-sp/hard/libc.a(lib_a-findfp.o)
_clock                                            /usr/local/Cellar/gcc-arm-none-eabi/20180627/bin/../lib/gcc/arm-none-eabi/7.3.1/../../../../arm-none-eabi/lib/thumb/v7e-m/fpv4-sp/hard/librdimon.a(rdimon-syscalls.o)
_close                                            /usr/local/Cellar/gcc-arm-none-eabi/20180627/bin/../lib/gcc/arm-none-eabi/7.3.1/../../../../arm-none-eabi/lib/thumb/v7e-m/fpv4-sp/hard/librdimon.a(rdimon-syscalls.o)
                                                  /usr/local/Cellar/gcc-arm-none-eabi/20180627/bin/../lib/gcc/arm-none-eabi/7.3.1/../../../../arm-none-eabi/lib/thumb/v7e-m/fpv4-sp/hard/libc.a(lib_a-closer.o)
_close_r                                          /usr/local/Cellar/gcc-arm-none-eabi/20180627/bin/../lib/gcc/arm-none-eabi/7.3.1/../../../../arm-none-eabi/lib/thumb/v7e-m/fpv4-sp/hard/libc.a(lib_a-closer.o)
                                                  /usr/local/Cellar/gcc-arm-none-eabi/20180627/bin/../lib/gcc/arm-none-eabi/7.3.1/../../../../arm-none-eabi/lib/thumb/v7e-m/fpv4-sp/hard/libc.a(lib_a-stdio.o)
_erelocate                                        .build/obj_massdrop_alt_default_md/protocol/arm_atsam/startup.o
_estack                                           .build/obj_massdrop_alt_default_md/protocol/arm_atsam/startup.o
_etext                                            .build/obj_massdrop_alt_default_md/protocol/arm_atsam/startup.o
_exit                                             /usr/local/Cellar/gcc-arm-none-eabi/20180627/bin/../lib/gcc/arm-none-eabi/7.3.1/../../../../arm-none-eabi/lib/thumb/v7e-m/fpv4-sp/hard/librdimon.a(rdimon-_exit.o)
                                                  /usr/local/Cellar/gcc-arm-none-eabi/20180627/bin/../lib/gcc/arm-none-eabi/7.3.1/../../../../arm-none-eabi/lib/thumb/v7e-m/fpv4-sp/hard/libg.a(lib_a-exit.o)
_ezero                                            .build/obj_massdrop_alt_default_md/protocol/arm_atsam/startup.o
_fclose_r                                         /usr/local/Cellar/gcc-arm-none-eabi/20180627/bin/../lib/gcc/arm-none-eabi/7.3.1/../../../../arm-none-eabi/lib/thumb/v7e-m/fpv4-sp/hard/libc.a(lib_a-fclose.o)
                                                  /usr/local/Cellar/gcc-arm-none-eabi/20180627/bin/../lib/gcc/arm-none-eabi/7.3.1/../../../../arm-none-eabi/lib/thumb/v7e-m/fpv4-sp/hard/libc.a(lib_a-findfp.o)
_fflush_r                                         /usr/local/Cellar/gcc-arm-none-eabi/20180627/bin/../lib/gcc/arm-none-eabi/7.3.1/../../../../arm-none-eabi/lib/thumb/v7e-m/fpv4-sp/hard/libc.a(lib_a-fflush.o)
_fini                                             /usr/local/Cellar/gcc-arm-none-eabi/20180627/bin/../lib/gcc/arm-none-eabi/7.3.1/thumb/v7e-m/fpv4-sp/hard/crti.o
                                                  /usr/local/Cellar/gcc-arm-none-eabi/20180627/bin/../lib/gcc/arm-none-eabi/7.3.1/../../../../arm-none-eabi/lib/thumb/v7e-m/fpv4-sp/hard/libg.a(lib_a-fini.o)
_free_r                                           /usr/local/Cellar/gcc-arm-none-eabi/20180627/bin/../lib/gcc/arm-none-eabi/7.3.1/../../../../arm-none-eabi/lib/thumb/v7e-m/fpv4-sp/hard/libc.a(lib_a-freer.o)
                                                  /usr/local/Cellar/gcc-arm-none-eabi/20180627/bin/../lib/gcc/arm-none-eabi/7.3.1/../../../../arm-none-eabi/lib/thumb/v7e-m/fpv4-sp/hard/libc.a(lib_a-reent.o)
                                                  /usr/local/Cellar/gcc-arm-none-eabi/20180627/bin/../lib/gcc/arm-none-eabi/7.3.1/../../../../arm-none-eabi/lib/thumb/v7e-m/fpv4-sp/hard/libc.a(lib_a-fflush.o)
                                                  /usr/local/Cellar/gcc-arm-none-eabi/20180627/bin/../lib/gcc/arm-none-eabi/7.3.1/../../../../arm-none-eabi/lib/thumb/v7e-m/fpv4-sp/hard/libc.a(lib_a-fclose.o)
                                                  /usr/local/Cellar/gcc-arm-none-eabi/20180627/bin/../lib/gcc/arm-none-eabi/7.3.1/../../../../arm-none-eabi/lib/thumb/v7e-m/fpv4-sp/hard/libc.a(lib_a-mallocr.o)
_fstat                                            /usr/local/Cellar/gcc-arm-none-eabi/20180627/bin/../lib/gcc/arm-none-eabi/7.3.1/../../../../arm-none-eabi/lib/thumb/v7e-m/fpv4-sp/hard/librdimon.a(rdimon-syscalls.o)
_fwalk                                            /usr/local/Cellar/gcc-arm-none-eabi/20180627/bin/../lib/gcc/arm-none-eabi/7.3.1/../../../../arm-none-eabi/lib/thumb/v7e-m/fpv4-sp/hard/libc.a(lib_a-fwalk.o)
                                                  /usr/local/Cellar/gcc-arm-none-eabi/20180627/bin/../lib/gcc/arm-none-eabi/7.3.1/../../../../arm-none-eabi/lib/thumb/v7e-m/fpv4-sp/hard/libc.a(lib_a-findfp.o)
_fwalk_reent                                      /usr/local/Cellar/gcc-arm-none-eabi/20180627/bin/../lib/gcc/arm-none-eabi/7.3.1/../../../../arm-none-eabi/lib/thumb/v7e-m/fpv4-sp/hard/libc.a(lib_a-fwalk.o)
                                                  /usr/local/Cellar/gcc-arm-none-eabi/20180627/bin/../lib/gcc/arm-none-eabi/7.3.1/../../../../arm-none-eabi/lib/thumb/v7e-m/fpv4-sp/hard/libc.a(lib_a-fflush.o)
                                                  /usr/local/Cellar/gcc-arm-none-eabi/20180627/bin/../lib/gcc/arm-none-eabi/7.3.1/../../../../arm-none-eabi/lib/thumb/v7e-m/fpv4-sp/hard/libc.a(lib_a-findfp.o)
_get_semihosting_exts                             /usr/local/Cellar/gcc-arm-none-eabi/20180627/bin/../lib/gcc/arm-none-eabi/7.3.1/../../../../arm-none-eabi/lib/thumb/v7e-m/fpv4-sp/hard/librdimon.a(rdimon-syscalls.o)
_getpid                                           /usr/local/Cellar/gcc-arm-none-eabi/20180627/bin/../lib/gcc/arm-none-eabi/7.3.1/../../../../arm-none-eabi/lib/thumb/v7e-m/fpv4-sp/hard/librdimon.a(rdimon-syscalls.o)
_gettimeofday                                     /usr/local/Cellar/gcc-arm-none-eabi/20180627/bin/../lib/gcc/arm-none-eabi/7.3.1/../../../../arm-none-eabi/lib/thumb/v7e-m/fpv4-sp/hard/librdimon.a(rdimon-syscalls.o)
_global_impure_ptr                                /usr/local/Cellar/gcc-arm-none-eabi/20180627/bin/../lib/gcc/arm-none-eabi/7.3.1/../../../../arm-none-eabi/lib/thumb/v7e-m/fpv4-sp/hard/libg.a(lib_a-impure.o)
                                                  /usr/local/Cellar/gcc-arm-none-eabi/20180627/bin/../lib/gcc/arm-none-eabi/7.3.1/../../../../arm-none-eabi/lib/thumb/v7e-m/fpv4-sp/hard/libc.a(lib_a-fflush.o)
                                                  /usr/local/Cellar/gcc-arm-none-eabi/20180627/bin/../lib/gcc/arm-none-eabi/7.3.1/../../../../arm-none-eabi/lib/thumb/v7e-m/fpv4-sp/hard/libc.a(lib_a-findfp.o)
                                                  /usr/local/Cellar/gcc-arm-none-eabi/20180627/bin/../lib/gcc/arm-none-eabi/7.3.1/../../../../arm-none-eabi/lib/thumb/v7e-m/fpv4-sp/hard/libg.a(lib_a-__atexit.o)
                                                  /usr/local/Cellar/gcc-arm-none-eabi/20180627/bin/../lib/gcc/arm-none-eabi/7.3.1/../../../../arm-none-eabi/lib/thumb/v7e-m/fpv4-sp/hard/libg.a(lib_a-__call_atexit.o)
                                                  /usr/local/Cellar/gcc-arm-none-eabi/20180627/bin/../lib/gcc/arm-none-eabi/7.3.1/../../../../arm-none-eabi/lib/thumb/v7e-m/fpv4-sp/hard/libg.a(lib_a-exit.o)
_has_ext_exit_extended                            /usr/local/Cellar/gcc-arm-none-eabi/20180627/bin/../lib/gcc/arm-none-eabi/7.3.1/../../../../arm-none-eabi/lib/thumb/v7e-m/fpv4-sp/hard/librdimon.a(rdimon-syscalls.o)
                                                  /usr/local/Cellar/gcc-arm-none-eabi/20180627/bin/../lib/gcc/arm-none-eabi/7.3.1/../../../../arm-none-eabi/lib/thumb/v7e-m/fpv4-sp/hard/librdimon.a(rdimon-_kill.o)
_has_ext_stdout_stderr                            /usr/local/Cellar/gcc-arm-none-eabi/20180627/bin/../lib/gcc/arm-none-eabi/7.3.1/../../../../arm-none-eabi/lib/thumb/v7e-m/fpv4-sp/hard/librdimon.a(rdimon-syscalls.o)
_impure_ptr                                       /usr/local/Cellar/gcc-arm-none-eabi/20180627/bin/../lib/gcc/arm-none-eabi/7.3.1/../../../../arm-none-eabi/lib/thumb/v7e-m/fpv4-sp/hard/libg.a(lib_a-impure.o)
                                                  /usr/local/Cellar/gcc-arm-none-eabi/20180627/bin/../lib/gcc/arm-none-eabi/7.3.1/../../../../arm-none-eabi/lib/thumb/v7e-m/fpv4-sp/hard/libc.a(lib_a-reent.o)
                                                  /usr/local/Cellar/gcc-arm-none-eabi/20180627/bin/../lib/gcc/arm-none-eabi/7.3.1/../../../../arm-none-eabi/lib/thumb/v7e-m/fpv4-sp/hard/libc.a(lib_a-fflush.o)
                                                  /usr/local/Cellar/gcc-arm-none-eabi/20180627/bin/../lib/gcc/arm-none-eabi/7.3.1/../../../../arm-none-eabi/lib/thumb/v7e-m/fpv4-sp/hard/libc.a(lib_a-fclose.o)
                                                  /usr/local/Cellar/gcc-arm-none-eabi/20180627/bin/../lib/gcc/arm-none-eabi/7.3.1/../../../../arm-none-eabi/lib/thumb/v7e-m/fpv4-sp/hard/libc.a(lib_a-findfp.o)
                                                  /usr/local/Cellar/gcc-arm-none-eabi/20180627/bin/../lib/gcc/arm-none-eabi/7.3.1/../../../../arm-none-eabi/lib/thumb/v7e-m/fpv4-sp/hard/libc.a(lib_a-errno.o)
                                                  /usr/local/Cellar/gcc-arm-none-eabi/20180627/bin/../lib/gcc/arm-none-eabi/7.3.1/../../../../arm-none-eabi/lib/thumb/v7e-m/fpv4-sp/hard/librdimon.a(rdimon-syscalls.o)
                                                  /usr/local/Cellar/gcc-arm-none-eabi/20180627/bin/../lib/gcc/arm-none-eabi/7.3.1/../../../../arm-none-eabi/lib/thumb/v7e-m/fpv4-sp/hard/libg.a(lib_a-rand.o)
_init                                             /usr/local/Cellar/gcc-arm-none-eabi/20180627/bin/../lib/gcc/arm-none-eabi/7.3.1/thumb/v7e-m/fpv4-sp/hard/crti.o
                                                  /usr/local/Cellar/gcc-arm-none-eabi/20180627/bin/../lib/gcc/arm-none-eabi/7.3.1/../../../../arm-none-eabi/lib/thumb/v7e-m/fpv4-sp/hard/libg.a(lib_a-init.o)
_isatty                                           /usr/local/Cellar/gcc-arm-none-eabi/20180627/bin/../lib/gcc/arm-none-eabi/7.3.1/../../../../arm-none-eabi/lib/thumb/v7e-m/fpv4-sp/hard/librdimon.a(rdimon-syscalls.o)
_kill                                             /usr/local/Cellar/gcc-arm-none-eabi/20180627/bin/../lib/gcc/arm-none-eabi/7.3.1/../../../../arm-none-eabi/lib/thumb/v7e-m/fpv4-sp/hard/librdimon.a(rdimon-_kill.o)
                                                  /usr/local/Cellar/gcc-arm-none-eabi/20180627/bin/../lib/gcc/arm-none-eabi/7.3.1/../../../../arm-none-eabi/lib/thumb/v7e-m/fpv4-sp/hard/librdimon.a(rdimon-_exit.o)
_link                                             /usr/local/Cellar/gcc-arm-none-eabi/20180627/bin/../lib/gcc/arm-none-eabi/7.3.1/../../../../arm-none-eabi/lib/thumb/v7e-m/fpv4-sp/hard/librdimon.a(rdimon-syscalls.o)
_lseek                                            /usr/local/Cellar/gcc-arm-none-eabi/20180627/bin/../lib/gcc/arm-none-eabi/7.3.1/../../../../arm-none-eabi/lib/thumb/v7e-m/fpv4-sp/hard/librdimon.a(rdimon-syscalls.o)
                                                  /usr/local/Cellar/gcc-arm-none-eabi/20180627/bin/../lib/gcc/arm-none-eabi/7.3.1/../../../../arm-none-eabi/lib/thumb/v7e-m/fpv4-sp/hard/libc.a(lib_a-lseekr.o)
_lseek_r                                          /usr/local/Cellar/gcc-arm-none-eabi/20180627/bin/../lib/gcc/arm-none-eabi/7.3.1/../../../../arm-none-eabi/lib/thumb/v7e-m/fpv4-sp/hard/libc.a(lib_a-lseekr.o)
                                                  /usr/local/Cellar/gcc-arm-none-eabi/20180627/bin/../lib/gcc/arm-none-eabi/7.3.1/../../../../arm-none-eabi/lib/thumb/v7e-m/fpv4-sp/hard/libc.a(lib_a-stdio.o)
_mainCRTStartup                                   /usr/local/Cellar/gcc-arm-none-eabi/20180627/bin/../lib/gcc/arm-none-eabi/7.3.1/../../../../arm-none-eabi/lib/thumb/v7e-m/fpv4-sp/hard/rdimon-crt0.o
_malloc_r                                         /usr/local/Cellar/gcc-arm-none-eabi/20180627/bin/../lib/gcc/arm-none-eabi/7.3.1/../../../../arm-none-eabi/lib/thumb/v7e-m/fpv4-sp/hard/libc.a(lib_a-mallocr.o)
                                                  /usr/local/Cellar/gcc-arm-none-eabi/20180627/bin/../lib/gcc/arm-none-eabi/7.3.1/../../../../arm-none-eabi/lib/thumb/v7e-m/fpv4-sp/hard/libc.a(lib_a-findfp.o)
_malloc_trim_r                                    /usr/local/Cellar/gcc-arm-none-eabi/20180627/bin/../lib/gcc/arm-none-eabi/7.3.1/../../../../arm-none-eabi/lib/thumb/v7e-m/fpv4-sp/hard/libc.a(lib_a-freer.o)
_open                                             /usr/local/Cellar/gcc-arm-none-eabi/20180627/bin/../lib/gcc/arm-none-eabi/7.3.1/../../../../arm-none-eabi/lib/thumb/v7e-m/fpv4-sp/hard/librdimon.a(rdimon-syscalls.o)
_read                                             /usr/local/Cellar/gcc-arm-none-eabi/20180627/bin/../lib/gcc/arm-none-eabi/7.3.1/../../../../arm-none-eabi/lib/thumb/v7e-m/fpv4-sp/hard/librdimon.a(rdimon-syscalls.o)
                                                  /usr/local/Cellar/gcc-arm-none-eabi/20180627/bin/../lib/gcc/arm-none-eabi/7.3.1/../../../../arm-none-eabi/lib/thumb/v7e-m/fpv4-sp/hard/libc.a(lib_a-readr.o)
_read_r                                           /usr/local/Cellar/gcc-arm-none-eabi/20180627/bin/../lib/gcc/arm-none-eabi/7.3.1/../../../../arm-none-eabi/lib/thumb/v7e-m/fpv4-sp/hard/libc.a(lib_a-readr.o)
                                                  /usr/local/Cellar/gcc-arm-none-eabi/20180627/bin/../lib/gcc/arm-none-eabi/7.3.1/../../../../arm-none-eabi/lib/thumb/v7e-m/fpv4-sp/hard/libc.a(lib_a-stdio.o)
_reclaim_reent                                    /usr/local/Cellar/gcc-arm-none-eabi/20180627/bin/../lib/gcc/arm-none-eabi/7.3.1/../../../../arm-none-eabi/lib/thumb/v7e-m/fpv4-sp/hard/libc.a(lib_a-reent.o)
_rename                                           /usr/local/Cellar/gcc-arm-none-eabi/20180627/bin/../lib/gcc/arm-none-eabi/7.3.1/../../../../arm-none-eabi/lib/thumb/v7e-m/fpv4-sp/hard/librdimon.a(rdimon-syscalls.o)
_sbrk                                             /usr/local/Cellar/gcc-arm-none-eabi/20180627/bin/../lib/gcc/arm-none-eabi/7.3.1/../../../../arm-none-eabi/lib/thumb/v7e-m/fpv4-sp/hard/librdimon.a(rdimon-syscalls.o)
                                                  /usr/local/Cellar/gcc-arm-none-eabi/20180627/bin/../lib/gcc/arm-none-eabi/7.3.1/../../../../arm-none-eabi/lib/thumb/v7e-m/fpv4-sp/hard/libc.a(lib_a-sbrkr.o)
_sbrk_r                                           /usr/local/Cellar/gcc-arm-none-eabi/20180627/bin/../lib/gcc/arm-none-eabi/7.3.1/../../../../arm-none-eabi/lib/thumb/v7e-m/fpv4-sp/hard/libc.a(lib_a-sbrkr.o)
                                                  /usr/local/Cellar/gcc-arm-none-eabi/20180627/bin/../lib/gcc/arm-none-eabi/7.3.1/../../../../arm-none-eabi/lib/thumb/v7e-m/fpv4-sp/hard/libc.a(lib_a-freer.o)
                                                  /usr/local/Cellar/gcc-arm-none-eabi/20180627/bin/../lib/gcc/arm-none-eabi/7.3.1/../../../../arm-none-eabi/lib/thumb/v7e-m/fpv4-sp/hard/libc.a(lib_a-mallocr.o)
_sfixed                                           .build/obj_massdrop_alt_default_md/protocol/arm_atsam/startup.o
_srelocate                                        .build/obj_massdrop_alt_default_md/protocol/arm_atsam/startup.o
_srom                                             .build/obj_massdrop_alt_default_md/protocol/arm_atsam/usb/usb2422.o
                                                  .build/obj_massdrop_alt_default_md/protocol/arm_atsam/usb/udc.o
_start                                            /usr/local/Cellar/gcc-arm-none-eabi/20180627/bin/../lib/gcc/arm-none-eabi/7.3.1/../../../../arm-none-eabi/lib/thumb/v7e-m/fpv4-sp/hard/rdimon-crt0.o
_stat                                             /usr/local/Cellar/gcc-arm-none-eabi/20180627/bin/../lib/gcc/arm-none-eabi/7.3.1/../../../../arm-none-eabi/lib/thumb/v7e-m/fpv4-sp/hard/librdimon.a(rdimon-syscalls.o)
_swiclose                                         /usr/local/Cellar/gcc-arm-none-eabi/20180627/bin/../lib/gcc/arm-none-eabi/7.3.1/../../../../arm-none-eabi/lib/thumb/v7e-m/fpv4-sp/hard/librdimon.a(rdimon-syscalls.o)
_swilseek                                         /usr/local/Cellar/gcc-arm-none-eabi/20180627/bin/../lib/gcc/arm-none-eabi/7.3.1/../../../../arm-none-eabi/lib/thumb/v7e-m/fpv4-sp/hard/librdimon.a(rdimon-syscalls.o)
_swiopen                                          /usr/local/Cellar/gcc-arm-none-eabi/20180627/bin/../lib/gcc/arm-none-eabi/7.3.1/../../../../arm-none-eabi/lib/thumb/v7e-m/fpv4-sp/hard/librdimon.a(rdimon-syscalls.o)
_swiread                                          /usr/local/Cellar/gcc-arm-none-eabi/20180627/bin/../lib/gcc/arm-none-eabi/7.3.1/../../../../arm-none-eabi/lib/thumb/v7e-m/fpv4-sp/hard/librdimon.a(rdimon-syscalls.o)
_swistat                                          /usr/local/Cellar/gcc-arm-none-eabi/20180627/bin/../lib/gcc/arm-none-eabi/7.3.1/../../../../arm-none-eabi/lib/thumb/v7e-m/fpv4-sp/hard/librdimon.a(rdimon-syscalls.o)
_swiwrite                                         /usr/local/Cellar/gcc-arm-none-eabi/20180627/bin/../lib/gcc/arm-none-eabi/7.3.1/../../../../arm-none-eabi/lib/thumb/v7e-m/fpv4-sp/hard/librdimon.a(rdimon-syscalls.o)
_system                                           /usr/local/Cellar/gcc-arm-none-eabi/20180627/bin/../lib/gcc/arm-none-eabi/7.3.1/../../../../arm-none-eabi/lib/thumb/v7e-m/fpv4-sp/hard/librdimon.a(rdimon-syscalls.o)
_szero                                            .build/obj_massdrop_alt_default_md/protocol/arm_atsam/startup.o
_times                                            /usr/local/Cellar/gcc-arm-none-eabi/20180627/bin/../lib/gcc/arm-none-eabi/7.3.1/../../../../arm-none-eabi/lib/thumb/v7e-m/fpv4-sp/hard/librdimon.a(rdimon-syscalls.o)
_unlink                                           /usr/local/Cellar/gcc-arm-none-eabi/20180627/bin/../lib/gcc/arm-none-eabi/7.3.1/../../../../arm-none-eabi/lib/thumb/v7e-m/fpv4-sp/hard/librdimon.a(rdimon-syscalls.o)
_write                                            /usr/local/Cellar/gcc-arm-none-eabi/20180627/bin/../lib/gcc/arm-none-eabi/7.3.1/../../../../arm-none-eabi/lib/thumb/v7e-m/fpv4-sp/hard/librdimon.a(rdimon-syscalls.o)
                                                  /usr/local/Cellar/gcc-arm-none-eabi/20180627/bin/../lib/gcc/arm-none-eabi/7.3.1/../../../../arm-none-eabi/lib/thumb/v7e-m/fpv4-sp/hard/libc.a(lib_a-writer.o)
_write_r                                          /usr/local/Cellar/gcc-arm-none-eabi/20180627/bin/../lib/gcc/arm-none-eabi/7.3.1/../../../../arm-none-eabi/lib/thumb/v7e-m/fpv4-sp/hard/libc.a(lib_a-writer.o)
                                                  /usr/local/Cellar/gcc-arm-none-eabi/20180627/bin/../lib/gcc/arm-none-eabi/7.3.1/../../../../arm-none-eabi/lib/thumb/v7e-m/fpv4-sp/hard/libc.a(lib_a-stdio.o)
action_exec                                       .build/obj_massdrop_alt_default_md/common/action.o
                                                  .build/obj_massdrop_alt_default_md/common/keyboard.o
action_for_key                                    .build/obj_massdrop_alt_default_md/quantum/keymap_common.o
                                                  .build/obj_massdrop_alt_default_md/common/action_layer.o
action_function                                   .build/obj_massdrop_alt_default_md/quantum/keymap_common.o
                                                  .build/obj_massdrop_alt_default_md/common/action.o
action_get_macro                                  .build/obj_massdrop_alt_default_md/quantum/keymap_common.o
                                                  .build/obj_massdrop_alt_default_md/common/action.o
action_macro_play                                 .build/obj_massdrop_alt_default_md/common/action_macro.o
                                                  .build/obj_massdrop_alt_default_md/common/action.o
action_tapping_process                            .build/obj_massdrop_alt_default_md/common/action_tapping.o
                                                  .build/obj_massdrop_alt_default_md/common/action.o
adc_extra                                         .build/obj_massdrop_alt_default_md/protocol/arm_atsam/usb/usb2422.o
adc_get                                           .build/obj_massdrop_alt_default_md/protocol/arm_atsam/adc.o
                                                  .build/obj_massdrop_alt_default_md/protocol/arm_atsam/usb/usb2422.o
                                                  .build/obj_massdrop_alt_default_md/protocol/arm_atsam/main_arm_atsam.o
add_key                                           .build/obj_massdrop_alt_default_md/common/action_util.o
                                                  .build/obj_massdrop_alt_default_md/common/action.o
                                                  .build/obj_massdrop_alt_default_md/quantum/quantum.o
add_key_bit                                       .build/obj_massdrop_alt_default_md/common/report.o
add_key_byte                                      .build/obj_massdrop_alt_default_md/common/report.o
add_key_to_report                                 .build/obj_massdrop_alt_default_md/common/report.o
                                                  .build/obj_massdrop_alt_default_md/common/action_util.o
add_macro_mods                                    .build/obj_massdrop_alt_default_md/common/action_util.o
                                                  .build/obj_massdrop_alt_default_md/common/action_macro.o
add_mods                                          .build/obj_massdrop_alt_default_md/common/action_util.o
                                                  .build/obj_massdrop_alt_default_md/common/action.o
add_weak_mods                                     .build/obj_massdrop_alt_default_md/common/action_util.o
                                                  .build/obj_massdrop_alt_default_md/common/action.o
                                                  .build/obj_massdrop_alt_default_md/quantum/quantum.o
api_send_unicode                                  .build/obj_massdrop_alt_default_md/quantum/quantum.o
arm_atsam_driver                                  .build/obj_massdrop_alt_default_md/protocol/arm_atsam/main_arm_atsam.o
ascii_to_altgr_lut                                .build/obj_massdrop_alt_default_md/quantum/quantum.o
ascii_to_keycode_lut                              .build/obj_massdrop_alt_default_md/quantum/quantum.o
ascii_to_shift_lut                                .build/obj_massdrop_alt_default_md/quantum/quantum.o
atexit                                            /usr/local/Cellar/gcc-arm-none-eabi/20180627/bin/../lib/gcc/arm-none-eabi/7.3.1/../../../../arm-none-eabi/lib/thumb/v7e-m/fpv4-sp/hard/libg.a(lib_a-atexit.o)
                                                  /usr/local/Cellar/gcc-arm-none-eabi/20180627/bin/../lib/gcc/arm-none-eabi/7.3.1/../../../../arm-none-eabi/lib/thumb/v7e-m/fpv4-sp/hard/libg.a(lib_a-__call_atexit.o)
                                                  /usr/local/Cellar/gcc-arm-none-eabi/20180627/bin/../lib/gcc/arm-none-eabi/7.3.1/../../../../arm-none-eabi/lib/thumb/v7e-m/fpv4-sp/hard/rdimon-crt0.o
backlight_init_ports                              .build/obj_massdrop_alt_default_md/quantum/quantum.o
backlight_set                                     .build/obj_massdrop_alt_default_md/quantum/quantum.o
biton                                             .build/obj_massdrop_alt_default_md/common/util.o
                                                  .build/obj_massdrop_alt_default_md/common/report.o
biton16                                           .build/obj_massdrop_alt_default_md/common/util.o
biton32                                           .build/obj_massdrop_alt_default_md/common/util.o
                                                  .build/obj_massdrop_alt_default_md/protocol/arm_atsam/led_matrix.o
bitpop                                            .build/obj_massdrop_alt_default_md/common/util.o
                                                  .build/obj_massdrop_alt_default_md/common/action_util.o
bitpop16                                          .build/obj_massdrop_alt_default_md/common/util.o
bitpop32                                          .build/obj_massdrop_alt_default_md/common/util.o
bitrev                                            .build/obj_massdrop_alt_default_md/common/util.o
bitrev16                                          .build/obj_massdrop_alt_default_md/common/util.o
bitrev32                                          .build/obj_massdrop_alt_default_md/common/util.o
bootloader_jump                                   .build/obj_massdrop_alt_default_md/common/arm_atsam/bootloader.o
                                                  .build/obj_massdrop_alt_default_md/quantum/quantum.o
bootloader_serial_number                          .build/obj_massdrop_alt_default_md/protocol/arm_atsam/usb/udc.o
bootmagic_lite                                    .build/obj_massdrop_alt_default_md/quantum/quantum.o
breathe_dir                                       .build/obj_massdrop_alt_default_md/protocol/arm_atsam/led_matrix.o
                                                  .build/obj_massdrop_alt_default_md/keyboards/massdrop/alt/keymaps/default_md/keymap.o
breathe_mult                                      .build/obj_massdrop_alt_default_md/protocol/arm_atsam/led_matrix.o
cleanup_glue                                      /usr/local/Cellar/gcc-arm-none-eabi/20180627/bin/../lib/gcc/arm-none-eabi/7.3.1/../../../../arm-none-eabi/lib/thumb/v7e-m/fpv4-sp/hard/libc.a(lib_a-reent.o)
clear_keyboard                                    .build/obj_massdrop_alt_default_md/common/action.o
                                                  .build/obj_massdrop_alt_default_md/common/action_tapping.o
                                                  .build/obj_massdrop_alt_default_md/quantum/quantum.o
clear_keyboard_but_mods                           .build/obj_massdrop_alt_default_md/common/action.o
clear_keyboard_but_mods_and_keys                  .build/obj_massdrop_alt_default_md/common/action.o
                                                  .build/obj_massdrop_alt_default_md/common/action_layer.o
clear_keys                                        .build/obj_massdrop_alt_default_md/common/action_util.o
                                                  .build/obj_massdrop_alt_default_md/common/action.o
clear_keys_from_report                            .build/obj_massdrop_alt_default_md/common/report.o
                                                  .build/obj_massdrop_alt_default_md/common/action_util.o
clear_macro_mods                                  .build/obj_massdrop_alt_default_md/common/action_util.o
                                                  .build/obj_massdrop_alt_default_md/common/action.o
clear_mods                                        .build/obj_massdrop_alt_default_md/common/action_util.o
                                                  .build/obj_massdrop_alt_default_md/common/action.o
clear_oneshot_layer_state                         .build/obj_massdrop_alt_default_md/common/action_util.o
                                                  .build/obj_massdrop_alt_default_md/common/action.o
clear_oneshot_locked_mods                         .build/obj_massdrop_alt_default_md/common/action_util.o
clear_oneshot_mods                                .build/obj_massdrop_alt_default_md/common/action_util.o
                                                  .build/obj_massdrop_alt_default_md/common/action.o
clear_weak_mods                                   .build/obj_massdrop_alt_default_md/common/action_util.o
                                                  .build/obj_massdrop_alt_default_md/common/action.o
clk_enable_sercom_apbmask                         .build/obj_massdrop_alt_default_md/protocol/arm_atsam/clks.o
col_pins                                          .build/obj_massdrop_alt_default_md/matrix.o
col_ports                                         .build/obj_massdrop_alt_default_md/matrix.o
dbg_print                                         .build/obj_massdrop_alt_default_md/protocol/arm_atsam/d51_util.o
debounce                                          .build/obj_massdrop_alt_default_md/quantum/debounce/sym_g.o
debounce_active                                   .build/obj_massdrop_alt_default_md/quantum/debounce/sym_g.o
debounce_init                                     .build/obj_massdrop_alt_default_md/quantum/debounce/sym_g.o
debug_action                                      .build/obj_massdrop_alt_default_md/common/action.o
debug_code                                        .build/obj_massdrop_alt_default_md/protocol/arm_atsam/d51_util.o
                                                  .build/obj_massdrop_alt_default_md/protocol/arm_atsam/usb/usb2422.o
                                                  .build/obj_massdrop_alt_default_md/protocol/arm_atsam/spi.o
                                                  .build/obj_massdrop_alt_default_md/protocol/arm_atsam/main_arm_atsam.o
                                                  .build/obj_massdrop_alt_default_md/protocol/arm_atsam/led_matrix.o
                                                  .build/obj_massdrop_alt_default_md/protocol/arm_atsam/i2c_master.o
                                                  .build/obj_massdrop_alt_default_md/protocol/arm_atsam/clks.o
                                                  .build/obj_massdrop_alt_default_md/protocol/arm_atsam/adc.o
debug_code_disable                                .build/obj_massdrop_alt_default_md/protocol/arm_atsam/d51_util.o
                                                  .build/obj_massdrop_alt_default_md/protocol/arm_atsam/main_arm_atsam.o
debug_code_init                                   .build/obj_massdrop_alt_default_md/protocol/arm_atsam/d51_util.o
                                                  .build/obj_massdrop_alt_default_md/protocol/arm_atsam/main_arm_atsam.o
debug_config                                      .build/obj_massdrop_alt_default_md/common/debug.o
                                                  .build/obj_massdrop_alt_default_md/common/magic.o
                                                  .build/obj_massdrop_alt_default_md/common/keyboard.o
                                                  .build/obj_massdrop_alt_default_md/quantum/quantum.o
                                                  .build/obj_massdrop_alt_default_md/keyboards/massdrop/alt/keymaps/default_md/keymap.o
debug_event                                       .build/obj_massdrop_alt_default_md/common/action.o
                                                  .build/obj_massdrop_alt_default_md/common/action_tapping.o
debug_record                                      .build/obj_massdrop_alt_default_md/common/action.o
                                                  .build/obj_massdrop_alt_default_md/common/action_tapping.o
default_layer_and                                 .build/obj_massdrop_alt_default_md/common/action_layer.o
                                                  .build/obj_massdrop_alt_default_md/common/action.o
default_layer_debug                               .build/obj_massdrop_alt_default_md/common/action_layer.o
                                                  .build/obj_massdrop_alt_default_md/common/action.o
default_layer_or                                  .build/obj_massdrop_alt_default_md/common/action_layer.o
                                                  .build/obj_massdrop_alt_default_md/common/action.o
default_layer_set                                 .build/obj_massdrop_alt_default_md/common/action_layer.o
                                                  .build/obj_massdrop_alt_default_md/common/magic.o
                                                  .build/obj_massdrop_alt_default_md/common/action.o
                                                  .build/obj_massdrop_alt_default_md/quantum/quantum.o
default_layer_state                               .build/obj_massdrop_alt_default_md/common/action_layer.o
                                                  .build/obj_massdrop_alt_default_md/common/eeconfig.o
default_layer_state_set_kb                        .build/obj_massdrop_alt_default_md/common/action_layer.o
default_layer_state_set_user                      .build/obj_massdrop_alt_default_md/common/action_layer.o
default_layer_xor                                 .build/obj_massdrop_alt_default_md/common/action_layer.o
                                                  .build/obj_massdrop_alt_default_md/common/action.o
del_key                                           .build/obj_massdrop_alt_default_md/common/action_util.o
                                                  .build/obj_massdrop_alt_default_md/common/action.o
                                                  .build/obj_massdrop_alt_default_md/quantum/quantum.o
del_key_bit                                       .build/obj_massdrop_alt_default_md/common/report.o
del_key_byte                                      .build/obj_massdrop_alt_default_md/common/report.o
del_key_from_report                               .build/obj_massdrop_alt_default_md/common/report.o
                                                  .build/obj_massdrop_alt_default_md/common/action_util.o
del_macro_mods                                    .build/obj_massdrop_alt_default_md/common/action_util.o
                                                  .build/obj_massdrop_alt_default_md/common/action_macro.o
del_mods                                          .build/obj_massdrop_alt_default_md/common/action_util.o
                                                  .build/obj_massdrop_alt_default_md/common/action.o
del_weak_mods                                     .build/obj_massdrop_alt_default_md/common/action_util.o
                                                  .build/obj_massdrop_alt_default_md/common/action.o
                                                  .build/obj_massdrop_alt_default_md/quantum/quantum.o
digit                                             .build/obj_massdrop_alt_default_md/protocol/arm_atsam/usb/usb_util.o
disable_action_cache                              .build/obj_massdrop_alt_default_md/common/action.o
                                                  .build/obj_massdrop_alt_default_md/common/action_layer.o
                                                  .build/obj_massdrop_alt_default_md/quantum/quantum.o
disable_jtag                                      .build/obj_massdrop_alt_default_md/common/keyboard.o
dled_print                                        .build/obj_massdrop_alt_default_md/protocol/arm_atsam/d51_util.o
dmac_desc                                         .build/obj_massdrop_alt_default_md/protocol/arm_atsam/usb/usb2422.o
                                                  .build/obj_massdrop_alt_default_md/protocol/arm_atsam/spi.o
                                                  .build/obj_massdrop_alt_default_md/protocol/arm_atsam/main_arm_atsam.o
                                                  .build/obj_massdrop_alt_default_md/protocol/arm_atsam/led_matrix.o
                                                  .build/obj_massdrop_alt_default_md/protocol/arm_atsam/i2c_master.o
                                                  .build/obj_massdrop_alt_default_md/protocol/arm_atsam/clks.o
                                                  .build/obj_massdrop_alt_default_md/protocol/arm_atsam/adc.o
                                                  .build/obj_massdrop_alt_default_md/common/arm_atsam/suspend.o
                                                  .build/obj_massdrop_alt_default_md/keyboards/massdrop/alt/keymaps/default_md/keymap.o
                                                  .build/obj_massdrop_alt_default_md/config_led.o
                                                  .build/obj_massdrop_alt_default_md/matrix.o
dmac_desc_wb                                      .build/obj_massdrop_alt_default_md/protocol/arm_atsam/usb/usb2422.o
                                                  .build/obj_massdrop_alt_default_md/protocol/arm_atsam/spi.o
                                                  .build/obj_massdrop_alt_default_md/protocol/arm_atsam/main_arm_atsam.o
                                                  .build/obj_massdrop_alt_default_md/protocol/arm_atsam/led_matrix.o
                                                  .build/obj_massdrop_alt_default_md/protocol/arm_atsam/i2c_master.o
                                                  .build/obj_massdrop_alt_default_md/protocol/arm_atsam/clks.o
                                                  .build/obj_massdrop_alt_default_md/protocol/arm_atsam/adc.o
                                                  .build/obj_massdrop_alt_default_md/common/arm_atsam/suspend.o
                                                  .build/obj_massdrop_alt_default_md/keyboards/massdrop/alt/keymaps/default_md/keymap.o
                                                  .build/obj_massdrop_alt_default_md/config_led.o
                                                  .build/obj_massdrop_alt_default_md/matrix.o
eeconfig_debug_rgb_matrix                         .build/obj_massdrop_alt_default_md/quantum/rgb_matrix.o
eeconfig_disable                                  .build/obj_massdrop_alt_default_md/common/eeconfig.o
                                                  .build/obj_massdrop_alt_default_md/quantum/quantum.o
eeconfig_enable                                   .build/obj_massdrop_alt_default_md/common/eeconfig.o
eeconfig_init                                     .build/obj_massdrop_alt_default_md/common/eeconfig.o
                                                  .build/obj_massdrop_alt_default_md/common/magic.o
                                                  .build/obj_massdrop_alt_default_md/quantum/rgb_matrix.o
                                                  .build/obj_massdrop_alt_default_md/quantum/quantum.o
eeconfig_init_kb                                  .build/obj_massdrop_alt_default_md/common/eeconfig.o
eeconfig_init_quantum                             .build/obj_massdrop_alt_default_md/common/eeconfig.o
eeconfig_init_user                                .build/obj_massdrop_alt_default_md/common/eeconfig.o
eeconfig_is_disabled                              .build/obj_massdrop_alt_default_md/common/eeconfig.o
eeconfig_is_enabled                               .build/obj_massdrop_alt_default_md/common/eeconfig.o
                                                  .build/obj_massdrop_alt_default_md/common/magic.o
                                                  .build/obj_massdrop_alt_default_md/quantum/rgb_matrix.o
                                                  .build/obj_massdrop_alt_default_md/quantum/quantum.o
eeconfig_read_audio                               .build/obj_massdrop_alt_default_md/common/eeconfig.o
eeconfig_read_backlight                           .build/obj_massdrop_alt_default_md/common/eeconfig.o
eeconfig_read_debug                               .build/obj_massdrop_alt_default_md/common/eeconfig.o
                                                  .build/obj_massdrop_alt_default_md/common/magic.o
eeconfig_read_default_layer                       .build/obj_massdrop_alt_default_md/common/eeconfig.o
                                                  .build/obj_massdrop_alt_default_md/common/magic.o
eeconfig_read_haptic                              .build/obj_massdrop_alt_default_md/common/eeconfig.o
eeconfig_read_kb                                  .build/obj_massdrop_alt_default_md/common/eeconfig.o
eeconfig_read_keymap                              .build/obj_massdrop_alt_default_md/common/eeconfig.o
                                                  .build/obj_massdrop_alt_default_md/common/magic.o
                                                  .build/obj_massdrop_alt_default_md/quantum/quantum.o
eeconfig_read_rgb_matrix                          .build/obj_massdrop_alt_default_md/quantum/rgb_matrix.o
eeconfig_read_user                                .build/obj_massdrop_alt_default_md/common/eeconfig.o
eeconfig_update_audio                             .build/obj_massdrop_alt_default_md/common/eeconfig.o
eeconfig_update_backlight                         .build/obj_massdrop_alt_default_md/common/eeconfig.o
eeconfig_update_debug                             .build/obj_massdrop_alt_default_md/common/eeconfig.o
eeconfig_update_default_layer                     .build/obj_massdrop_alt_default_md/common/eeconfig.o
                                                  .build/obj_massdrop_alt_default_md/quantum/quantum.o
eeconfig_update_haptic                            .build/obj_massdrop_alt_default_md/common/eeconfig.o
eeconfig_update_kb                                .build/obj_massdrop_alt_default_md/common/eeconfig.o
eeconfig_update_keymap                            .build/obj_massdrop_alt_default_md/common/eeconfig.o
                                                  .build/obj_massdrop_alt_default_md/quantum/quantum.o
eeconfig_update_rgb_matrix                        .build/obj_massdrop_alt_default_md/quantum/rgb_matrix.o
eeconfig_update_rgb_matrix_default                .build/obj_massdrop_alt_default_md/quantum/rgb_matrix.o
eeconfig_update_user                              .build/obj_massdrop_alt_default_md/common/eeconfig.o
eeprom_read_block                                 .build/obj_massdrop_alt_default_md/common/arm_atsam/eeprom.o
                                                  .build/obj_massdrop_alt_default_md/quantum/rgb_matrix.o
eeprom_read_byte                                  .build/obj_massdrop_alt_default_md/common/arm_atsam/eeprom.o
                                                  .build/obj_massdrop_alt_default_md/common/eeconfig.o
eeprom_read_dword                                 .build/obj_massdrop_alt_default_md/common/arm_atsam/eeprom.o
                                                  .build/obj_massdrop_alt_default_md/common/eeconfig.o
eeprom_read_word                                  .build/obj_massdrop_alt_default_md/common/arm_atsam/eeprom.o
                                                  .build/obj_massdrop_alt_default_md/common/eeconfig.o
eeprom_update_block                               .build/obj_massdrop_alt_default_md/common/arm_atsam/eeprom.o
                                                  .build/obj_massdrop_alt_default_md/quantum/rgb_matrix.o
eeprom_update_byte                                .build/obj_massdrop_alt_default_md/common/arm_atsam/eeprom.o
                                                  .build/obj_massdrop_alt_default_md/common/eeconfig.o
eeprom_update_dword                               .build/obj_massdrop_alt_default_md/common/arm_atsam/eeprom.o
                                                  .build/obj_massdrop_alt_default_md/common/eeconfig.o
eeprom_update_word                                .build/obj_massdrop_alt_default_md/common/arm_atsam/eeprom.o
                                                  .build/obj_massdrop_alt_default_md/common/eeconfig.o
eeprom_write_block                                .build/obj_massdrop_alt_default_md/common/arm_atsam/eeprom.o
eeprom_write_byte                                 .build/obj_massdrop_alt_default_md/common/arm_atsam/eeprom.o
eeprom_write_dword                                .build/obj_massdrop_alt_default_md/common/arm_atsam/eeprom.o
eeprom_write_word                                 .build/obj_massdrop_alt_default_md/common/arm_atsam/eeprom.o
effect_runner_dx_dy                               .build/obj_massdrop_alt_default_md/quantum/rgb_matrix.o
effect_runner_dx_dy_dist                          .build/obj_massdrop_alt_default_md/quantum/rgb_matrix.o
effect_runner_i                                   .build/obj_massdrop_alt_default_md/quantum/rgb_matrix.o
effect_runner_reactive                            .build/obj_massdrop_alt_default_md/quantum/rgb_matrix.o
effect_runner_reactive_splash                     .build/obj_massdrop_alt_default_md/quantum/rgb_matrix.o
effect_runner_sin_cos_i                           .build/obj_massdrop_alt_default_md/quantum/rgb_matrix.o
end                                               /usr/local/Cellar/gcc-arm-none-eabi/20180627/bin/../lib/gcc/arm-none-eabi/7.3.1/../../../../arm-none-eabi/lib/thumb/v7e-m/fpv4-sp/hard/librdimon.a(rdimon-syscalls.o)
errno                                             /usr/local/Cellar/gcc-arm-none-eabi/20180627/bin/../lib/gcc/arm-none-eabi/7.3.1/../../../../arm-none-eabi/lib/thumb/v7e-m/fpv4-sp/hard/libc.a(lib_a-reent.o)
                                                  /usr/local/Cellar/gcc-arm-none-eabi/20180627/bin/../lib/gcc/arm-none-eabi/7.3.1/../../../../arm-none-eabi/lib/thumb/v7e-m/fpv4-sp/hard/libc.a(lib_a-readr.o)
                                                  /usr/local/Cellar/gcc-arm-none-eabi/20180627/bin/../lib/gcc/arm-none-eabi/7.3.1/../../../../arm-none-eabi/lib/thumb/v7e-m/fpv4-sp/hard/libc.a(lib_a-lseekr.o)
                                                  /usr/local/Cellar/gcc-arm-none-eabi/20180627/bin/../lib/gcc/arm-none-eabi/7.3.1/../../../../arm-none-eabi/lib/thumb/v7e-m/fpv4-sp/hard/libc.a(lib_a-closer.o)
                                                  /usr/local/Cellar/gcc-arm-none-eabi/20180627/bin/../lib/gcc/arm-none-eabi/7.3.1/../../../../arm-none-eabi/lib/thumb/v7e-m/fpv4-sp/hard/libc.a(lib_a-writer.o)
                                                  /usr/local/Cellar/gcc-arm-none-eabi/20180627/bin/../lib/gcc/arm-none-eabi/7.3.1/../../../../arm-none-eabi/lib/thumb/v7e-m/fpv4-sp/hard/libc.a(lib_a-sbrkr.o)
exception_table                                   .build/obj_massdrop_alt_default_md/protocol/arm_atsam/startup.o
exit                                              /usr/local/Cellar/gcc-arm-none-eabi/20180627/bin/../lib/gcc/arm-none-eabi/7.3.1/../../../../arm-none-eabi/lib/thumb/v7e-m/fpv4-sp/hard/libg.a(lib_a-exit.o)
                                                  /usr/local/Cellar/gcc-arm-none-eabi/20180627/bin/../lib/gcc/arm-none-eabi/7.3.1/../../../../arm-none-eabi/lib/thumb/v7e-m/fpv4-sp/hard/rdimon-crt0.o
fclose                                            /usr/local/Cellar/gcc-arm-none-eabi/20180627/bin/../lib/gcc/arm-none-eabi/7.3.1/../../../../arm-none-eabi/lib/thumb/v7e-m/fpv4-sp/hard/libc.a(lib_a-fclose.o)
fflush                                            /usr/local/Cellar/gcc-arm-none-eabi/20180627/bin/../lib/gcc/arm-none-eabi/7.3.1/../../../../arm-none-eabi/lib/thumb/v7e-m/fpv4-sp/hard/libc.a(lib_a-fflush.o)
flush                                             .build/obj_massdrop_alt_default_md/protocol/arm_atsam/led_matrix.o
fn_actions                                        .build/obj_massdrop_alt_default_md/quantum/keymap_common.o
free                                              /usr/local/Cellar/gcc-arm-none-eabi/20180627/bin/../lib/gcc/arm-none-eabi/7.3.1/../../../../arm-none-eabi/lib/thumb/v7e-m/fpv4-sp/hard/libg.a(lib_a-__call_atexit.o)
g_last_hit_tracker                                .build/obj_massdrop_alt_default_md/quantum/rgb_matrix.o
g_led_config                                      .build/obj_massdrop_alt_default_md/config_led.o
                                                  .build/obj_massdrop_alt_default_md/protocol/arm_atsam/led_matrix.o
                                                  .build/obj_massdrop_alt_default_md/quantum/rgb_matrix.o
g_rgb_counters                                    .build/obj_massdrop_alt_default_md/quantum/rgb_matrix.o
                                                  .build/obj_massdrop_alt_default_md/protocol/arm_atsam/led_matrix.o
g_suspend_state                                   .build/obj_massdrop_alt_default_md/quantum/rgb_matrix.o
g_usb_state                                       .build/obj_massdrop_alt_default_md/protocol/arm_atsam/main_arm_atsam.o
gcr_actual                                        .build/obj_massdrop_alt_default_md/protocol/arm_atsam/led_matrix.o
                                                  .build/obj_massdrop_alt_default_md/protocol/arm_atsam/i2c_master.o
gcr_actual_last                                   .build/obj_massdrop_alt_default_md/protocol/arm_atsam/led_matrix.o
                                                  .build/obj_massdrop_alt_default_md/protocol/arm_atsam/i2c_master.o
gcr_breathe                                       .build/obj_massdrop_alt_default_md/protocol/arm_atsam/led_matrix.o
                                                  .build/obj_massdrop_alt_default_md/protocol/arm_atsam/usb/usb2422.o
                                                  .build/obj_massdrop_alt_default_md/keyboards/massdrop/alt/keymaps/default_md/keymap.o
gcr_compute                                       .build/obj_massdrop_alt_default_md/protocol/arm_atsam/led_matrix.o
                                                  .build/obj_massdrop_alt_default_md/protocol/arm_atsam/main_arm_atsam.o
gcr_desired                                       .build/obj_massdrop_alt_default_md/protocol/arm_atsam/led_matrix.o
                                                  .build/obj_massdrop_alt_default_md/protocol/arm_atsam/usb/usb2422.o
                                                  .build/obj_massdrop_alt_default_md/protocol/arm_atsam/i2c_master.o
                                                  .build/obj_massdrop_alt_default_md/keyboards/massdrop/alt/keymaps/default_md/keymap.o
get_event_keycode                                 .build/obj_massdrop_alt_default_md/quantum/quantum.o
get_first_key                                     .build/obj_massdrop_alt_default_md/common/report.o
get_macro_mods                                    .build/obj_massdrop_alt_default_md/common/action_util.o
get_mods                                          .build/obj_massdrop_alt_default_md/common/action_util.o
                                                  .build/obj_massdrop_alt_default_md/quantum/quantum.o
                                                  .build/obj_massdrop_alt_default_md/keyboards/massdrop/alt/keymaps/default_md/keymap.o
get_oneshot_layer                                 .build/obj_massdrop_alt_default_md/common/action_util.o
                                                  .build/obj_massdrop_alt_default_md/common/action.o
get_oneshot_layer_state                           .build/obj_massdrop_alt_default_md/common/action_util.o
                                                  .build/obj_massdrop_alt_default_md/common/action.o
get_oneshot_locked_mods                           .build/obj_massdrop_alt_default_md/common/action_util.o
get_oneshot_mods                                  .build/obj_massdrop_alt_default_md/common/action_util.o
                                                  .build/obj_massdrop_alt_default_md/common/action.o
get_record_keycode                                .build/obj_massdrop_alt_default_md/quantum/quantum.o
get_tapping_term                                  .build/obj_massdrop_alt_default_md/common/action_tapping.o
get_weak_mods                                     .build/obj_massdrop_alt_default_md/common/action_util.o
has_anykey                                        .build/obj_massdrop_alt_default_md/common/report.o
                                                  .build/obj_massdrop_alt_default_md/common/action_util.o
has_anymod                                        .build/obj_massdrop_alt_default_md/common/action_util.o
has_oneshot_mods_timed_out                        .build/obj_massdrop_alt_default_md/common/action_util.o
hex_to_keycode                                    .build/obj_massdrop_alt_default_md/quantum/quantum.o
host_consumer_send                                .build/obj_massdrop_alt_default_md/common/host.o
                                                  .build/obj_massdrop_alt_default_md/common/action.o
host_get_driver                                   .build/obj_massdrop_alt_default_md/common/host.o
host_keyboard_leds                                .build/obj_massdrop_alt_default_md/common/host.o
                                                  .build/obj_massdrop_alt_default_md/common/action.o
                                                  .build/obj_massdrop_alt_default_md/common/keyboard.o
host_keyboard_send                                .build/obj_massdrop_alt_default_md/common/host.o
                                                  .build/obj_massdrop_alt_default_md/common/action_util.o
host_last_consumer_report                         .build/obj_massdrop_alt_default_md/common/host.o
host_last_system_report                           .build/obj_massdrop_alt_default_md/common/host.o
host_mouse_send                                   .build/obj_massdrop_alt_default_md/common/host.o
host_set_driver                                   .build/obj_massdrop_alt_default_md/common/host.o
                                                  .build/obj_massdrop_alt_default_md/protocol/arm_atsam/main_arm_atsam.o
host_system_send                                  .build/obj_massdrop_alt_default_md/common/host.o
                                                  .build/obj_massdrop_alt_default_md/common/action.o
hsv_to_rgb                                        .build/obj_massdrop_alt_default_md/quantum/color.o
                                                  .build/obj_massdrop_alt_default_md/quantum/rgb_matrix.o
i2c0_buf                                          .build/obj_massdrop_alt_default_md/protocol/arm_atsam/usb/usb2422.o
i2c0_init                                         .build/obj_massdrop_alt_default_md/protocol/arm_atsam/i2c_master.o
                                                  .build/obj_massdrop_alt_default_md/protocol/arm_atsam/usb/usb2422.o
i2c0_start                                        .build/obj_massdrop_alt_default_md/protocol/arm_atsam/i2c_master.o
i2c0_stop                                         .build/obj_massdrop_alt_default_md/protocol/arm_atsam/i2c_master.o
i2c0_transmit                                     .build/obj_massdrop_alt_default_md/protocol/arm_atsam/i2c_master.o
                                                  .build/obj_massdrop_alt_default_md/protocol/arm_atsam/usb/usb2422.o
i2c1_init                                         .build/obj_massdrop_alt_default_md/protocol/arm_atsam/i2c_master.o
                                                  .build/obj_massdrop_alt_default_md/protocol/arm_atsam/main_arm_atsam.o
i2c1_start                                        .build/obj_massdrop_alt_default_md/protocol/arm_atsam/i2c_master.o
i2c1_stop                                         .build/obj_massdrop_alt_default_md/protocol/arm_atsam/i2c_master.o
                                                  .build/obj_massdrop_alt_default_md/protocol/arm_atsam/led_matrix.o
i2c1_transmit                                     .build/obj_massdrop_alt_default_md/protocol/arm_atsam/i2c_master.o
i2c_led_begin_dma                                 .build/obj_massdrop_alt_default_md/protocol/arm_atsam/i2c_master.o
i2c_led_desc_defaults                             .build/obj_massdrop_alt_default_md/protocol/arm_atsam/i2c_master.o
i2c_led_prepare_send_dma                          .build/obj_massdrop_alt_default_md/protocol/arm_atsam/i2c_master.o
i2c_led_q_add                                     .build/obj_massdrop_alt_default_md/protocol/arm_atsam/i2c_master.o
                                                  .build/obj_massdrop_alt_default_md/protocol/arm_atsam/main_arm_atsam.o
                                                  .build/obj_massdrop_alt_default_md/protocol/arm_atsam/led_matrix.o
i2c_led_q_available                               .build/obj_massdrop_alt_default_md/protocol/arm_atsam/i2c_master.o
i2c_led_q_init                                    .build/obj_massdrop_alt_default_md/protocol/arm_atsam/i2c_master.o
                                                  .build/obj_massdrop_alt_default_md/protocol/arm_atsam/main_arm_atsam.o
i2c_led_q_isempty                                 .build/obj_massdrop_alt_default_md/protocol/arm_atsam/i2c_master.o
i2c_led_q_request_room                            .build/obj_massdrop_alt_default_md/protocol/arm_atsam/i2c_master.o
                                                  .build/obj_massdrop_alt_default_md/protocol/arm_atsam/main_arm_atsam.o
                                                  .build/obj_massdrop_alt_default_md/protocol/arm_atsam/led_matrix.o
i2c_led_q_run                                     .build/obj_massdrop_alt_default_md/protocol/arm_atsam/i2c_master.o
                                                  .build/obj_massdrop_alt_default_md/protocol/arm_atsam/led_matrix.o
i2c_led_q_running                                 .build/obj_massdrop_alt_default_md/protocol/arm_atsam/i2c_master.o
                                                  .build/obj_massdrop_alt_default_md/protocol/arm_atsam/led_matrix.o
i2c_led_q_s_advance                               .build/obj_massdrop_alt_default_md/protocol/arm_atsam/i2c_master.o
i2c_led_q_size                                    .build/obj_massdrop_alt_default_md/protocol/arm_atsam/i2c_master.o
i2c_led_select_page                               .build/obj_massdrop_alt_default_md/protocol/arm_atsam/i2c_master.o
i2c_led_select_page_dma                           .build/obj_massdrop_alt_default_md/protocol/arm_atsam/i2c_master.o
i2c_led_send_CRWL                                 .build/obj_massdrop_alt_default_md/protocol/arm_atsam/i2c_master.o
i2c_led_send_CRWL_dma                             .build/obj_massdrop_alt_default_md/protocol/arm_atsam/i2c_master.o
i2c_led_send_GCR                                  .build/obj_massdrop_alt_default_md/protocol/arm_atsam/i2c_master.o
i2c_led_send_GCR_dma                              .build/obj_massdrop_alt_default_md/protocol/arm_atsam/i2c_master.o
i2c_led_send_mode_op_gcr                          .build/obj_massdrop_alt_default_md/protocol/arm_atsam/i2c_master.o
i2c_led_send_onoff                                .build/obj_massdrop_alt_default_md/protocol/arm_atsam/i2c_master.o
i2c_led_send_onoff_dma                            .build/obj_massdrop_alt_default_md/protocol/arm_atsam/i2c_master.o
i2c_led_send_pur_pdr                              .build/obj_massdrop_alt_default_md/protocol/arm_atsam/i2c_master.o
i2c_led_send_pwm                                  .build/obj_massdrop_alt_default_md/protocol/arm_atsam/i2c_master.o
i2c_led_send_pwm_dma                              .build/obj_massdrop_alt_default_md/protocol/arm_atsam/i2c_master.o
inbuf                                             .build/obj_massdrop_alt_default_md/protocol/arm_atsam/usb/udi_cdc.o
init                                              .build/obj_massdrop_alt_default_md/protocol/arm_atsam/led_matrix.o
initialise_monitor_handles                        /usr/local/Cellar/gcc-arm-none-eabi/20180627/bin/../lib/gcc/arm-none-eabi/7.3.1/../../../../arm-none-eabi/lib/thumb/v7e-m/fpv4-sp/hard/librdimon.a(rdimon-syscalls.o)
                                                  /usr/local/Cellar/gcc-arm-none-eabi/20180627/bin/../lib/gcc/arm-none-eabi/7.3.1/../../../../arm-none-eabi/lib/thumb/v7e-m/fpv4-sp/hard/rdimon-crt0.o
is_keyboard_master                                .build/obj_massdrop_alt_default_md/common/keyboard.o
is_oneshot_layer_active                           .build/obj_massdrop_alt_default_md/common/action_util.o
                                                  .build/obj_massdrop_alt_default_md/common/action.o
is_tap_action                                     .build/obj_massdrop_alt_default_md/common/action.o
is_tap_key                                        .build/obj_massdrop_alt_default_md/common/action.o
                                                  .build/obj_massdrop_alt_default_md/common/action_tapping.o
issi3733_prepare_arrays                           .build/obj_massdrop_alt_default_md/protocol/arm_atsam/led_matrix.o
issidrv                                           .build/obj_massdrop_alt_default_md/protocol/arm_atsam/led_matrix.o
                                                  .build/obj_massdrop_alt_default_md/protocol/arm_atsam/i2c_master.o
k_rgb_matrix_center                               .build/obj_massdrop_alt_default_md/quantum/rgb_matrix.o
keyboard_init                                     .build/obj_massdrop_alt_default_md/common/keyboard.o
                                                  .build/obj_massdrop_alt_default_md/protocol/arm_atsam/main_arm_atsam.o
keyboard_leds                                     .build/obj_massdrop_alt_default_md/protocol/arm_atsam/main_arm_atsam.o
                                                  .build/obj_massdrop_alt_default_md/protocol/arm_atsam/led_matrix.o
keyboard_post_init_kb                             .build/obj_massdrop_alt_default_md/common/keyboard.o
keyboard_post_init_user                           .build/obj_massdrop_alt_default_md/common/keyboard.o
keyboard_pre_init_kb                              .build/obj_massdrop_alt_default_md/common/keyboard.o
keyboard_pre_init_user                            .build/obj_massdrop_alt_default_md/common/keyboard.o
keyboard_protocol                                 .build/obj_massdrop_alt_default_md/protocol/arm_atsam/usb/main_usb.o
                                                  .build/obj_massdrop_alt_default_md/common/report.o
keyboard_report                                   .build/obj_massdrop_alt_default_md/common/action_util.o
keyboard_set_leds                                 .build/obj_massdrop_alt_default_md/common/keyboard.o
keyboard_setup                                    .build/obj_massdrop_alt_default_md/common/keyboard.o
                                                  .build/obj_massdrop_alt_default_md/protocol/arm_atsam/main_arm_atsam.o
keyboard_task                                     .build/obj_massdrop_alt_default_md/common/keyboard.o
                                                  .build/obj_massdrop_alt_default_md/protocol/arm_atsam/main_arm_atsam.o
keycode_config                                    .build/obj_massdrop_alt_default_md/quantum/keycode_config.o
                                                  .build/obj_massdrop_alt_default_md/quantum/keymap_common.o
keymap_config                                     .build/obj_massdrop_alt_default_md/common/magic.o
                                                  .build/obj_massdrop_alt_default_md/keyboards/massdrop/alt/keymaps/default_md/keymap.o
                                                  .build/obj_massdrop_alt_default_md/protocol/arm_atsam/main_arm_atsam.o
                                                  .build/obj_massdrop_alt_default_md/common/report.o
                                                  .build/obj_massdrop_alt_default_md/quantum/keycode_config.o
                                                  .build/obj_massdrop_alt_default_md/quantum/quantum.o
keymap_function_id_to_action                      .build/obj_massdrop_alt_default_md/quantum/keymap_common.o
keymap_key_to_keycode                             .build/obj_massdrop_alt_default_md/quantum/keymap_common.o
                                                  .build/obj_massdrop_alt_default_md/quantum/quantum.o
keymaps                                           .build/obj_massdrop_alt_default_md/keyboards/massdrop/alt/keymaps/default_md/keymap.o
                                                  .build/obj_massdrop_alt_default_md/quantum/keymap_common.o
layer_and                                         .build/obj_massdrop_alt_default_md/common/action_layer.o
                                                  .build/obj_massdrop_alt_default_md/common/action.o
layer_clear                                       .build/obj_massdrop_alt_default_md/common/action_layer.o
                                                  .build/obj_massdrop_alt_default_md/common/action.o
layer_debug                                       .build/obj_massdrop_alt_default_md/common/action_layer.o
                                                  .build/obj_massdrop_alt_default_md/common/action.o
layer_invert                                      .build/obj_massdrop_alt_default_md/common/action_layer.o
                                                  .build/obj_massdrop_alt_default_md/common/action.o
layer_move                                        .build/obj_massdrop_alt_default_md/common/action_layer.o
                                                  .build/obj_massdrop_alt_default_md/common/action.o
layer_off                                         .build/obj_massdrop_alt_default_md/common/action_layer.o
                                                  .build/obj_massdrop_alt_default_md/common/action_util.o
                                                  .build/obj_massdrop_alt_default_md/common/action.o
layer_on                                          .build/obj_massdrop_alt_default_md/common/action_layer.o
                                                  .build/obj_massdrop_alt_default_md/common/action_util.o
                                                  .build/obj_massdrop_alt_default_md/common/action.o
layer_or                                          .build/obj_massdrop_alt_default_md/common/action_layer.o
                                                  .build/obj_massdrop_alt_default_md/common/action.o
layer_state                                       .build/obj_massdrop_alt_default_md/common/action_layer.o
                                                  .build/obj_massdrop_alt_default_md/protocol/arm_atsam/led_matrix.o
                                                  .build/obj_massdrop_alt_default_md/quantum/quantum.o
layer_state_cmp                                   .build/obj_massdrop_alt_default_md/common/action_layer.o
layer_state_is                                    .build/obj_massdrop_alt_default_md/common/action_layer.o
layer_state_set                                   .build/obj_massdrop_alt_default_md/common/action_layer.o
                                                  .build/obj_massdrop_alt_default_md/common/action.o
                                                  .build/obj_massdrop_alt_default_md/quantum/quantum.o
layer_state_set_kb                                .build/obj_massdrop_alt_default_md/common/action_layer.o
layer_state_set_user                              .build/obj_massdrop_alt_default_md/common/action_layer.o
layer_switch_get_action                           .build/obj_massdrop_alt_default_md/common/action_layer.o
                                                  .build/obj_massdrop_alt_default_md/common/action_tapping.o
                                                  .build/obj_massdrop_alt_default_md/common/action.o
layer_switch_get_layer                            .build/obj_massdrop_alt_default_md/common/action_layer.o
                                                  .build/obj_massdrop_alt_default_md/quantum/quantum.o
layer_xor                                         .build/obj_massdrop_alt_default_md/common/action_layer.o
                                                  .build/obj_massdrop_alt_default_md/common/action.o
led_animation_breathe_cur                         .build/obj_massdrop_alt_default_md/protocol/arm_atsam/led_matrix.o
                                                  .build/obj_massdrop_alt_default_md/keyboards/massdrop/alt/keymaps/default_md/keymap.o
led_animation_breathing                           .build/obj_massdrop_alt_default_md/protocol/arm_atsam/led_matrix.o
                                                  .build/obj_massdrop_alt_default_md/protocol/arm_atsam/usb/usb2422.o
                                                  .build/obj_massdrop_alt_default_md/keyboards/massdrop/alt/keymaps/default_md/keymap.o
led_animation_direction                           .build/obj_massdrop_alt_default_md/protocol/arm_atsam/led_matrix.o
                                                  .build/obj_massdrop_alt_default_md/keyboards/massdrop/alt/keymaps/default_md/keymap.o
led_animation_id                                  .build/obj_massdrop_alt_default_md/protocol/arm_atsam/led_matrix.o
                                                  .build/obj_massdrop_alt_default_md/keyboards/massdrop/alt/keymaps/default_md/keymap.o
led_animation_orientation                         .build/obj_massdrop_alt_default_md/protocol/arm_atsam/led_matrix.o
led_animation_speed                               .build/obj_massdrop_alt_default_md/protocol/arm_atsam/led_matrix.o
                                                  .build/obj_massdrop_alt_default_md/keyboards/massdrop/alt/keymaps/default_md/keymap.o
led_buffer                                        .build/obj_massdrop_alt_default_md/protocol/arm_atsam/led_matrix.o
led_enabled                                       .build/obj_massdrop_alt_default_md/protocol/arm_atsam/led_matrix.o
                                                  .build/obj_massdrop_alt_default_md/common/arm_atsam/suspend.o
                                                  .build/obj_massdrop_alt_default_md/keyboards/massdrop/alt/keymaps/default_md/keymap.o
led_init_ports                                    .build/obj_massdrop_alt_default_md/quantum/quantum.o
led_instructions                                  .build/obj_massdrop_alt_default_md/keyboards/massdrop/alt/keymaps/default_md/keymap.o
led_lighting_mode                                 .build/obj_massdrop_alt_default_md/protocol/arm_atsam/led_matrix.o
                                                  .build/obj_massdrop_alt_default_md/keyboards/massdrop/alt/keymaps/default_md/keymap.o
led_map                                           .build/obj_massdrop_alt_default_md/protocol/arm_atsam/led_matrix.o
led_matrix_indicators                             .build/obj_massdrop_alt_default_md/protocol/arm_atsam/led_matrix.o
                                                  .build/obj_massdrop_alt_default_md/config_led.o
led_matrix_prepare                                .build/obj_massdrop_alt_default_md/protocol/arm_atsam/led_matrix.o
led_set                                           .build/obj_massdrop_alt_default_md/quantum/quantum.o
                                                  .build/obj_massdrop_alt_default_md/common/action.o
                                                  .build/obj_massdrop_alt_default_md/common/keyboard.o
led_set_all                                       .build/obj_massdrop_alt_default_md/protocol/arm_atsam/led_matrix.o
led_set_kb                                        .build/obj_massdrop_alt_default_md/quantum/quantum.o
led_set_one                                       .build/obj_massdrop_alt_default_md/protocol/arm_atsam/led_matrix.o
led_set_user                                      .build/obj_massdrop_alt_default_md/quantum/quantum.o
led_setups                                        .build/obj_massdrop_alt_default_md/protocol/arm_atsam/led_matrix_programs.o
                                                  .build/obj_massdrop_alt_default_md/protocol/arm_atsam/led_matrix.o
led_setups_count                                  .build/obj_massdrop_alt_default_md/protocol/arm_atsam/led_matrix_programs.o
                                                  .build/obj_massdrop_alt_default_md/keyboards/massdrop/alt/keymaps/default_md/keymap.o
led_states                                        .build/obj_massdrop_alt_default_md/protocol/arm_atsam/main_arm_atsam.o
leds_black_with_red_stripe                        .build/obj_massdrop_alt_default_md/protocol/arm_atsam/led_matrix_programs.o
leds_blue                                         .build/obj_massdrop_alt_default_md/protocol/arm_atsam/led_matrix_programs.o
leds_green                                        .build/obj_massdrop_alt_default_md/protocol/arm_atsam/led_matrix_programs.o
leds_off                                          .build/obj_massdrop_alt_default_md/protocol/arm_atsam/led_matrix_programs.o
leds_rainbow_ns                                   .build/obj_massdrop_alt_default_md/protocol/arm_atsam/led_matrix_programs.o
leds_rainbow_s                                    .build/obj_massdrop_alt_default_md/protocol/arm_atsam/led_matrix_programs.o
leds_red                                          .build/obj_massdrop_alt_default_md/protocol/arm_atsam/led_matrix_programs.o
leds_teal_salmon                                  .build/obj_massdrop_alt_default_md/protocol/arm_atsam/led_matrix_programs.o
leds_white                                        .build/obj_massdrop_alt_default_md/protocol/arm_atsam/led_matrix_programs.o
leds_white_with_red_stripe                        .build/obj_massdrop_alt_default_md/protocol/arm_atsam/led_matrix_programs.o
leds_yellow                                       .build/obj_massdrop_alt_default_md/protocol/arm_atsam/led_matrix_programs.o
magic                                             .build/obj_massdrop_alt_default_md/common/magic.o
                                                  .build/obj_massdrop_alt_default_md/common/keyboard.o
main                                              .build/obj_massdrop_alt_default_md/protocol/arm_atsam/main_arm_atsam.o
                                                  .build/obj_massdrop_alt_default_md/protocol/arm_atsam/startup.o
                                                  /usr/local/Cellar/gcc-arm-none-eabi/20180627/bin/../lib/gcc/arm-none-eabi/7.3.1/../../../../arm-none-eabi/lib/thumb/v7e-m/fpv4-sp/hard/rdimon-crt0.o
main_b_exk_enable                                 .build/obj_massdrop_alt_default_md/protocol/arm_atsam/usb/main_usb.o
                                                  .build/obj_massdrop_alt_default_md/protocol/arm_atsam/usb/udi_hid_kbd.o
main_b_kbd_enable                                 .build/obj_massdrop_alt_default_md/protocol/arm_atsam/usb/main_usb.o
                                                  .build/obj_massdrop_alt_default_md/protocol/arm_atsam/usb/udi_hid_kbd.o
main_b_nkro_enable                                .build/obj_massdrop_alt_default_md/protocol/arm_atsam/usb/main_usb.o
                                                  .build/obj_massdrop_alt_default_md/protocol/arm_atsam/usb/udi_hid_kbd.o
main_exk_disable                                  .build/obj_massdrop_alt_default_md/protocol/arm_atsam/usb/main_usb.o
                                                  .build/obj_massdrop_alt_default_md/protocol/arm_atsam/usb/udi_hid_kbd.o
main_exk_enable                                   .build/obj_massdrop_alt_default_md/protocol/arm_atsam/usb/main_usb.o
                                                  .build/obj_massdrop_alt_default_md/protocol/arm_atsam/usb/udi_hid_kbd.o
main_kbd_disable                                  .build/obj_massdrop_alt_default_md/protocol/arm_atsam/usb/main_usb.o
                                                  .build/obj_massdrop_alt_default_md/protocol/arm_atsam/usb/udi_hid_kbd.o
main_kbd_enable                                   .build/obj_massdrop_alt_default_md/protocol/arm_atsam/usb/main_usb.o
                                                  .build/obj_massdrop_alt_default_md/protocol/arm_atsam/usb/udi_hid_kbd.o
main_nkro_disable                                 .build/obj_massdrop_alt_default_md/protocol/arm_atsam/usb/main_usb.o
                                                  .build/obj_massdrop_alt_default_md/protocol/arm_atsam/usb/udi_hid_kbd.o
main_nkro_enable                                  .build/obj_massdrop_alt_default_md/protocol/arm_atsam/usb/main_usb.o
                                                  .build/obj_massdrop_alt_default_md/protocol/arm_atsam/usb/udi_hid_kbd.o
main_remotewakeup_disable                         .build/obj_massdrop_alt_default_md/protocol/arm_atsam/usb/main_usb.o
                                                  .build/obj_massdrop_alt_default_md/protocol/arm_atsam/usb/udc.o
main_remotewakeup_enable                          .build/obj_massdrop_alt_default_md/protocol/arm_atsam/usb/main_usb.o
                                                  .build/obj_massdrop_alt_default_md/protocol/arm_atsam/usb/udc.o
main_resume_action                                .build/obj_massdrop_alt_default_md/protocol/arm_atsam/usb/main_usb.o
                                                  .build/obj_massdrop_alt_default_md/protocol/arm_atsam/usb/usb_device_udd.o
main_sof_action                                   .build/obj_massdrop_alt_default_md/protocol/arm_atsam/usb/main_usb.o
                                                  .build/obj_massdrop_alt_default_md/protocol/arm_atsam/usb/usb_device_udd.o
main_subtask_power_check                          .build/obj_massdrop_alt_default_md/protocol/arm_atsam/main_arm_atsam.o
main_subtask_usb_extra_device                     .build/obj_massdrop_alt_default_md/protocol/arm_atsam/main_arm_atsam.o
main_subtask_usb_state                            .build/obj_massdrop_alt_default_md/protocol/arm_atsam/main_arm_atsam.o
main_subtasks                                     .build/obj_massdrop_alt_default_md/protocol/arm_atsam/main_arm_atsam.o
main_suspend_action                               .build/obj_massdrop_alt_default_md/protocol/arm_atsam/usb/main_usb.o
                                                  .build/obj_massdrop_alt_default_md/protocol/arm_atsam/usb/usb_device_udd.o
malloc                                            /usr/local/Cellar/gcc-arm-none-eabi/20180627/bin/../lib/gcc/arm-none-eabi/7.3.1/../../../../arm-none-eabi/lib/thumb/v7e-m/fpv4-sp/hard/libg.a(lib_a-__atexit.o)
matrix_get_row                                    .build/obj_massdrop_alt_default_md/matrix.o
                                                  .build/obj_massdrop_alt_default_md/common/arm_atsam/suspend.o
                                                  .build/obj_massdrop_alt_default_md/common/keyboard.o
                                                  .build/obj_massdrop_alt_default_md/quantum/quantum.o
matrix_init                                       .build/obj_massdrop_alt_default_md/matrix.o
                                                  .build/obj_massdrop_alt_default_md/protocol/arm_atsam/main_arm_atsam.o
                                                  .build/obj_massdrop_alt_default_md/common/keyboard.o
matrix_init_kb                                    .build/obj_massdrop_alt_default_md/matrix.o
                                                  .build/obj_massdrop_alt_default_md/quantum/quantum.o
matrix_init_quantum                               .build/obj_massdrop_alt_default_md/quantum/quantum.o
                                                  .build/obj_massdrop_alt_default_md/matrix.o
matrix_init_user                                  .build/obj_massdrop_alt_default_md/keyboards/massdrop/alt/keymaps/default_md/keymap.o
                                                  .build/obj_massdrop_alt_default_md/matrix.o
matrix_power_down                                 .build/obj_massdrop_alt_default_md/common/arm_atsam/suspend.o
matrix_power_up                                   .build/obj_massdrop_alt_default_md/common/arm_atsam/suspend.o
matrix_print                                      .build/obj_massdrop_alt_default_md/matrix.o
                                                  .build/obj_massdrop_alt_default_md/common/keyboard.o
matrix_scan                                       .build/obj_massdrop_alt_default_md/matrix.o
                                                  .build/obj_massdrop_alt_default_md/common/arm_atsam/suspend.o
                                                  .build/obj_massdrop_alt_default_md/common/keyboard.o
                                                  .build/obj_massdrop_alt_default_md/quantum/quantum.o
matrix_scan_kb                                    .build/obj_massdrop_alt_default_md/matrix.o
                                                  .build/obj_massdrop_alt_default_md/quantum/quantum.o
matrix_scan_quantum                               .build/obj_massdrop_alt_default_md/quantum/quantum.o
                                                  .build/obj_massdrop_alt_default_md/matrix.o
matrix_scan_user                                  .build/obj_massdrop_alt_default_md/keyboards/massdrop/alt/keymaps/default_md/keymap.o
                                                  .build/obj_massdrop_alt_default_md/matrix.o
matrix_setup                                      .build/obj_massdrop_alt_default_md/common/keyboard.o
mdebounced                                        .build/obj_massdrop_alt_default_md/matrix.o
mdebouncing                                       .build/obj_massdrop_alt_default_md/matrix.o
memcpy                                            /usr/local/Cellar/gcc-arm-none-eabi/20180627/bin/../lib/gcc/arm-none-eabi/7.3.1/../../../../arm-none-eabi/lib/thumb/v7e-m/fpv4-sp/hard/libg.a(lib_a-memcpy.o)
                                                  .build/obj_massdrop_alt_default_md/protocol/arm_atsam/usb/usb_util.o
                                                  .build/obj_massdrop_alt_default_md/protocol/arm_atsam/usb/usb_device_udd.o
                                                  .build/obj_massdrop_alt_default_md/protocol/arm_atsam/usb/usb2422.o
                                                  .build/obj_massdrop_alt_default_md/protocol/arm_atsam/i2c_master.o
                                                  .build/obj_massdrop_alt_default_md/quantum/rgb_matrix.o
memset                                            /usr/local/Cellar/gcc-arm-none-eabi/20180627/bin/../lib/gcc/arm-none-eabi/7.3.1/../../../../arm-none-eabi/lib/thumb/v7e-m/fpv4-sp/hard/libg.a(lib_a-memset.o)
                                                  /usr/local/Cellar/gcc-arm-none-eabi/20180627/bin/../lib/gcc/arm-none-eabi/7.3.1/../../../../arm-none-eabi/lib/thumb/v7e-m/fpv4-sp/hard/libc.a(lib_a-findfp.o)
                                                  /usr/local/Cellar/gcc-arm-none-eabi/20180627/bin/../lib/gcc/arm-none-eabi/7.3.1/../../../../arm-none-eabi/lib/thumb/v7e-m/fpv4-sp/hard/librdimon.a(rdimon-syscalls.o)
                                                  .build/obj_massdrop_alt_default_md/protocol/arm_atsam/usb/usb_util.o
                                                  .build/obj_massdrop_alt_default_md/protocol/arm_atsam/usb/usb.o
                                                  .build/obj_massdrop_alt_default_md/protocol/arm_atsam/usb/usb2422.o
                                                  .build/obj_massdrop_alt_default_md/protocol/arm_atsam/usb/udi_hid_kbd.o
                                                  .build/obj_massdrop_alt_default_md/protocol/arm_atsam/led_matrix.o
                                                  .build/obj_massdrop_alt_default_md/protocol/arm_atsam/i2c_master.o
                                                  .build/obj_massdrop_alt_default_md/protocol/arm_atsam/clks.o
                                                  .build/obj_massdrop_alt_default_md/common/report.o
                                                  /usr/local/Cellar/gcc-arm-none-eabi/20180627/bin/../lib/gcc/arm-none-eabi/7.3.1/../../../../arm-none-eabi/lib/thumb/v7e-m/fpv4-sp/hard/rdimon-crt0.o
mlast                                             .build/obj_massdrop_alt_default_md/matrix.o
mlatest                                           .build/obj_massdrop_alt_default_md/matrix.o
mod_config                                        .build/obj_massdrop_alt_default_md/quantum/keycode_config.o
                                                  .build/obj_massdrop_alt_default_md/quantum/keymap_common.o
ms_clk                                            .build/obj_massdrop_alt_default_md/protocol/arm_atsam/clks.o
                                                  .build/obj_massdrop_alt_default_md/common/arm_atsam/timer.o
oneshot_layer_changed_kb                          .build/obj_massdrop_alt_default_md/common/action_util.o
oneshot_layer_changed_user                        .build/obj_massdrop_alt_default_md/common/action_util.o
oneshot_locked_mods_changed_kb                    .build/obj_massdrop_alt_default_md/common/action_util.o
oneshot_locked_mods_changed_user                  .build/obj_massdrop_alt_default_md/common/action_util.o
oneshot_mods_changed_kb                           .build/obj_massdrop_alt_default_md/common/action_util.o
oneshot_mods_changed_user                         .build/obj_massdrop_alt_default_md/common/action_util.o
perform_space_cadet                               .build/obj_massdrop_alt_default_md/quantum/process_keycode/process_space_cadet.o
pomod                                             .build/obj_massdrop_alt_default_md/protocol/arm_atsam/led_matrix.o
printbuf                                          .build/obj_massdrop_alt_default_md/protocol/arm_atsam/usb/udi_cdc.o
process_action                                    .build/obj_massdrop_alt_default_md/common/action.o
process_action_kb                                 .build/obj_massdrop_alt_default_md/quantum/quantum.o
process_record                                    .build/obj_massdrop_alt_default_md/common/action.o
                                                  .build/obj_massdrop_alt_default_md/common/action_tapping.o
process_record_kb                                 .build/obj_massdrop_alt_default_md/quantum/quantum.o
process_record_nocache                            .build/obj_massdrop_alt_default_md/common/action.o
process_record_quantum                            .build/obj_massdrop_alt_default_md/quantum/quantum.o
process_record_tap_hint                           .build/obj_massdrop_alt_default_md/common/action.o
                                                  .build/obj_massdrop_alt_default_md/common/action_tapping.o
process_record_user                               .build/obj_massdrop_alt_default_md/keyboards/massdrop/alt/keymaps/default_md/keymap.o
process_rgb_matrix                                .build/obj_massdrop_alt_default_md/quantum/rgb_matrix.o
                                                  .build/obj_massdrop_alt_default_md/quantum/quantum.o
process_space_cadet                               .build/obj_massdrop_alt_default_md/quantum/process_keycode/process_space_cadet.o
                                                  .build/obj_massdrop_alt_default_md/quantum/quantum.o
rand                                              /usr/local/Cellar/gcc-arm-none-eabi/20180627/bin/../lib/gcc/arm-none-eabi/7.3.1/../../../../arm-none-eabi/lib/thumb/v7e-m/fpv4-sp/hard/libg.a(lib_a-rand.o)
                                                  .build/obj_massdrop_alt_default_md/quantum/rgb_matrix.o
                                                  .build/obj_massdrop_alt_default_md/quantum/quantum.o
read_source_layers_cache                          .build/obj_massdrop_alt_default_md/common/action_layer.o
                                                  .build/obj_massdrop_alt_default_md/quantum/quantum.o
register_code                                     .build/obj_massdrop_alt_default_md/common/action.o
                                                  .build/obj_massdrop_alt_default_md/common/action_macro.o
                                                  .build/obj_massdrop_alt_default_md/quantum/quantum.o
register_code16                                   .build/obj_massdrop_alt_default_md/quantum/quantum.o
register_mods                                     .build/obj_massdrop_alt_default_md/common/action.o
                                                  .build/obj_massdrop_alt_default_md/quantum/process_keycode/process_space_cadet.o
reset_keyboard                                    .build/obj_massdrop_alt_default_md/quantum/quantum.o
                                                  .build/obj_massdrop_alt_default_md/keyboards/massdrop/alt/keymaps/default_md/keymap.o
reset_oneshot_layer                               .build/obj_massdrop_alt_default_md/common/action_util.o
rgb_matrix_config                                 .build/obj_massdrop_alt_default_md/quantum/rgb_matrix.o
                                                  .build/obj_massdrop_alt_default_md/protocol/arm_atsam/led_matrix.o
rgb_matrix_decrease_hue                           .build/obj_massdrop_alt_default_md/quantum/rgb_matrix.o
                                                  .build/obj_massdrop_alt_default_md/quantum/quantum.o
rgb_matrix_decrease_sat                           .build/obj_massdrop_alt_default_md/quantum/rgb_matrix.o
                                                  .build/obj_massdrop_alt_default_md/quantum/quantum.o
rgb_matrix_decrease_speed                         .build/obj_massdrop_alt_default_md/quantum/rgb_matrix.o
                                                  .build/obj_massdrop_alt_default_md/quantum/quantum.o
rgb_matrix_decrease_val                           .build/obj_massdrop_alt_default_md/quantum/rgb_matrix.o
                                                  .build/obj_massdrop_alt_default_md/quantum/quantum.o
rgb_matrix_disable                                .build/obj_massdrop_alt_default_md/quantum/rgb_matrix.o
rgb_matrix_disable_noeeprom                       .build/obj_massdrop_alt_default_md/quantum/rgb_matrix.o
rgb_matrix_driver                                 .build/obj_massdrop_alt_default_md/protocol/arm_atsam/led_matrix.o
                                                  .build/obj_massdrop_alt_default_md/quantum/rgb_matrix.o
rgb_matrix_enable                                 .build/obj_massdrop_alt_default_md/quantum/rgb_matrix.o
rgb_matrix_enable_noeeprom                        .build/obj_massdrop_alt_default_md/quantum/rgb_matrix.o
rgb_matrix_get_flags                              .build/obj_massdrop_alt_default_md/quantum/rgb_matrix.o
rgb_matrix_get_mode                               .build/obj_massdrop_alt_default_md/quantum/rgb_matrix.o
rgb_matrix_increase_hue                           .build/obj_massdrop_alt_default_md/quantum/rgb_matrix.o
                                                  .build/obj_massdrop_alt_default_md/quantum/quantum.o
rgb_matrix_increase_sat                           .build/obj_massdrop_alt_default_md/quantum/rgb_matrix.o
                                                  .build/obj_massdrop_alt_default_md/quantum/quantum.o
rgb_matrix_increase_speed                         .build/obj_massdrop_alt_default_md/quantum/rgb_matrix.o
                                                  .build/obj_massdrop_alt_default_md/quantum/quantum.o
rgb_matrix_increase_val                           .build/obj_massdrop_alt_default_md/quantum/rgb_matrix.o
                                                  .build/obj_massdrop_alt_default_md/quantum/quantum.o
rgb_matrix_indicators                             .build/obj_massdrop_alt_default_md/quantum/rgb_matrix.o
rgb_matrix_indicators_kb                          .build/obj_massdrop_alt_default_md/config_led.o
rgb_matrix_indicators_user                        .build/obj_massdrop_alt_default_md/quantum/rgb_matrix.o
rgb_matrix_init                                   .build/obj_massdrop_alt_default_md/quantum/rgb_matrix.o
                                                  .build/obj_massdrop_alt_default_md/quantum/quantum.o
rgb_matrix_map_row_column_to_led                  .build/obj_massdrop_alt_default_md/quantum/rgb_matrix.o
rgb_matrix_map_row_column_to_led_kb               .build/obj_massdrop_alt_default_md/quantum/rgb_matrix.o
rgb_matrix_mode                                   .build/obj_massdrop_alt_default_md/quantum/rgb_matrix.o
                                                  .build/obj_massdrop_alt_default_md/quantum/quantum.o
rgb_matrix_mode_noeeprom                          .build/obj_massdrop_alt_default_md/quantum/rgb_matrix.o
rgb_matrix_set_color                              .build/obj_massdrop_alt_default_md/quantum/rgb_matrix.o
rgb_matrix_set_color_all                          .build/obj_massdrop_alt_default_md/quantum/rgb_matrix.o
rgb_matrix_set_flags                              .build/obj_massdrop_alt_default_md/quantum/rgb_matrix.o
rgb_matrix_set_suspend_state                      .build/obj_massdrop_alt_default_md/quantum/rgb_matrix.o
rgb_matrix_sethsv                                 .build/obj_massdrop_alt_default_md/quantum/rgb_matrix.o
rgb_matrix_sethsv_noeeprom                        .build/obj_massdrop_alt_default_md/quantum/rgb_matrix.o
rgb_matrix_step                                   .build/obj_massdrop_alt_default_md/quantum/rgb_matrix.o
                                                  .build/obj_massdrop_alt_default_md/quantum/quantum.o
rgb_matrix_step_reverse                           .build/obj_massdrop_alt_default_md/quantum/rgb_matrix.o
                                                  .build/obj_massdrop_alt_default_md/quantum/quantum.o
rgb_matrix_task                                   .build/obj_massdrop_alt_default_md/quantum/rgb_matrix.o
                                                  .build/obj_massdrop_alt_default_md/quantum/quantum.o
rgb_matrix_test                                   .build/obj_massdrop_alt_default_md/quantum/rgb_matrix.o
rgb_matrix_toggle                                 .build/obj_massdrop_alt_default_md/quantum/rgb_matrix.o
                                                  .build/obj_massdrop_alt_default_md/quantum/quantum.o
rgb_matrix_update_pwm_buffers                     .build/obj_massdrop_alt_default_md/quantum/rgb_matrix.o
row_masks                                         .build/obj_massdrop_alt_default_md/matrix.o
row_pins                                          .build/obj_massdrop_alt_default_md/matrix.o
row_ports                                         .build/obj_massdrop_alt_default_md/matrix.o
send_byte                                         .build/obj_massdrop_alt_default_md/quantum/quantum.o
send_char                                         .build/obj_massdrop_alt_default_md/quantum/quantum.o
send_consumer                                     .build/obj_massdrop_alt_default_md/protocol/arm_atsam/main_arm_atsam.o
send_dword                                        .build/obj_massdrop_alt_default_md/quantum/quantum.o
send_keyboard                                     .build/obj_massdrop_alt_default_md/protocol/arm_atsam/main_arm_atsam.o
send_keyboard_report                              .build/obj_massdrop_alt_default_md/common/action_util.o
                                                  .build/obj_massdrop_alt_default_md/common/action_macro.o
                                                  .build/obj_massdrop_alt_default_md/common/action.o
                                                  .build/obj_massdrop_alt_default_md/quantum/quantum.o
send_mouse                                        .build/obj_massdrop_alt_default_md/protocol/arm_atsam/main_arm_atsam.o
send_nibble                                       .build/obj_massdrop_alt_default_md/quantum/quantum.o
send_string                                       .build/obj_massdrop_alt_default_md/quantum/quantum.o
send_string_P                                     .build/obj_massdrop_alt_default_md/quantum/quantum.o
send_string_with_delay                            .build/obj_massdrop_alt_default_md/quantum/quantum.o
send_string_with_delay_P                          .build/obj_massdrop_alt_default_md/quantum/quantum.o
send_system                                       .build/obj_massdrop_alt_default_md/protocol/arm_atsam/main_arm_atsam.o
send_word                                         .build/obj_massdrop_alt_default_md/quantum/quantum.o
sercom_apbbase                                    .build/obj_massdrop_alt_default_md/protocol/arm_atsam/clks.o
sercom_pchan                                      .build/obj_massdrop_alt_default_md/protocol/arm_atsam/clks.o
set_macro_mods                                    .build/obj_massdrop_alt_default_md/common/action_util.o
set_mods                                          .build/obj_massdrop_alt_default_md/common/action_util.o
set_oneshot_layer                                 .build/obj_massdrop_alt_default_md/common/action_util.o
                                                  .build/obj_massdrop_alt_default_md/common/action.o
set_oneshot_locked_mods                           .build/obj_massdrop_alt_default_md/common/action_util.o
set_oneshot_mods                                  .build/obj_massdrop_alt_default_md/common/action_util.o
                                                  .build/obj_massdrop_alt_default_md/common/action.o
set_single_persistent_default_layer               .build/obj_massdrop_alt_default_md/quantum/quantum.o
set_time                                          .build/obj_massdrop_alt_default_md/common/arm_atsam/timer.o
set_weak_mods                                     .build/obj_massdrop_alt_default_md/common/action_util.o
shutdown_user                                     .build/obj_massdrop_alt_default_md/quantum/quantum.o
source_layers_cache                               .build/obj_massdrop_alt_default_md/common/action_layer.o
sr_exp_data                                       .build/obj_massdrop_alt_default_md/protocol/arm_atsam/spi.o
                                                  .build/obj_massdrop_alt_default_md/protocol/arm_atsam/usb/usb2422.o
                                                  .build/obj_massdrop_alt_default_md/protocol/arm_atsam/i2c_master.o
srand                                             /usr/local/Cellar/gcc-arm-none-eabi/20180627/bin/../lib/gcc/arm-none-eabi/7.3.1/../../../../arm-none-eabi/lib/thumb/v7e-m/fpv4-sp/hard/libg.a(lib_a-rand.o)
startup_user                                      .build/obj_massdrop_alt_default_md/quantum/quantum.o
store_or_get_action                               .build/obj_massdrop_alt_default_md/common/action_layer.o
                                                  .build/obj_massdrop_alt_default_md/common/action.o
strlen                                            /usr/local/Cellar/gcc-arm-none-eabi/20180627/bin/../lib/gcc/arm-none-eabi/7.3.1/../../../../arm-none-eabi/lib/thumb/v7e-m/fpv4-sp/hard/libc.a(lib_a-strlen.o)
                                                  /usr/local/Cellar/gcc-arm-none-eabi/20180627/bin/../lib/gcc/arm-none-eabi/7.3.1/../../../../arm-none-eabi/lib/thumb/v7e-m/fpv4-sp/hard/librdimon.a(rdimon-syscalls.o)
suspend_idle                                      .build/obj_massdrop_alt_default_md/common/arm_atsam/suspend.o
suspend_power_down                                .build/obj_massdrop_alt_default_md/common/arm_atsam/suspend.o
                                                  .build/obj_massdrop_alt_default_md/protocol/arm_atsam/main_arm_atsam.o
suspend_power_down_kb                             .build/obj_massdrop_alt_default_md/common/arm_atsam/suspend.o
suspend_power_down_user                           .build/obj_massdrop_alt_default_md/common/arm_atsam/suspend.o
suspend_wakeup_condition                          .build/obj_massdrop_alt_default_md/common/arm_atsam/suspend.o
                                                  .build/obj_massdrop_alt_default_md/protocol/arm_atsam/main_arm_atsam.o
suspend_wakeup_init                               .build/obj_massdrop_alt_default_md/common/arm_atsam/suspend.o
                                                  .build/obj_massdrop_alt_default_md/protocol/arm_atsam/main_arm_atsam.o
suspend_wakeup_init_kb                            .build/obj_massdrop_alt_default_md/common/arm_atsam/suspend.o
suspend_wakeup_init_user                          .build/obj_massdrop_alt_default_md/common/arm_atsam/suspend.o
system_clks                                       .build/obj_massdrop_alt_default_md/protocol/arm_atsam/clks.o
tap_code                                          .build/obj_massdrop_alt_default_md/common/action.o
                                                  .build/obj_massdrop_alt_default_md/quantum/process_keycode/process_space_cadet.o
                                                  .build/obj_massdrop_alt_default_md/quantum/quantum.o
tap_code16                                        .build/obj_massdrop_alt_default_md/quantum/quantum.o
tap_random_base64                                 .build/obj_massdrop_alt_default_md/quantum/quantum.o
timer_clear                                       .build/obj_massdrop_alt_default_md/common/arm_atsam/timer.o
timer_elapsed                                     .build/obj_massdrop_alt_default_md/common/arm_atsam/timer.o
                                                  .build/obj_massdrop_alt_default_md/quantum/process_keycode/process_space_cadet.o
                                                  .build/obj_massdrop_alt_default_md/quantum/debounce/sym_g.o
timer_elapsed32                                   .build/obj_massdrop_alt_default_md/common/arm_atsam/timer.o
                                                  .build/obj_massdrop_alt_default_md/quantum/rgb_matrix.o
                                                  .build/obj_massdrop_alt_default_md/keyboards/massdrop/alt/keymaps/default_md/keymap.o
timer_init                                        .build/obj_massdrop_alt_default_md/common/arm_atsam/timer.o
                                                  .build/obj_massdrop_alt_default_md/common/keyboard.o
timer_read                                        .build/obj_massdrop_alt_default_md/common/arm_atsam/timer.o
                                                  .build/obj_massdrop_alt_default_md/common/keyboard.o
                                                  .build/obj_massdrop_alt_default_md/quantum/process_keycode/process_space_cadet.o
                                                  .build/obj_massdrop_alt_default_md/quantum/debounce/sym_g.o
timer_read32                                      .build/obj_massdrop_alt_default_md/common/arm_atsam/timer.o
                                                  .build/obj_massdrop_alt_default_md/quantum/rgb_matrix.o
                                                  .build/obj_massdrop_alt_default_md/keyboards/massdrop/alt/keymaps/default_md/keymap.o
timer_read64                                      .build/obj_massdrop_alt_default_md/common/arm_atsam/timer.o
                                                  .build/obj_massdrop_alt_default_md/protocol/arm_atsam/usb/usb2422.o
                                                  .build/obj_massdrop_alt_default_md/protocol/arm_atsam/main_arm_atsam.o
                                                  .build/obj_massdrop_alt_default_md/protocol/arm_atsam/clks.o
                                                  .build/obj_massdrop_alt_default_md/matrix.o
tp_buttons                                        .build/obj_massdrop_alt_default_md/common/action.o
udc_config                                        .build/obj_massdrop_alt_default_md/protocol/arm_atsam/usb/udi_hid_kbd_desc.o
                                                  .build/obj_massdrop_alt_default_md/protocol/arm_atsam/usb/udc.o
udc_config_fshs                                   .build/obj_massdrop_alt_default_md/protocol/arm_atsam/usb/udi_hid_kbd_desc.o
udc_desc                                          .build/obj_massdrop_alt_default_md/protocol/arm_atsam/usb/udi_hid_kbd_desc.o
udc_device_desc                                   .build/obj_massdrop_alt_default_md/protocol/arm_atsam/usb/udi_hid_kbd_desc.o
udc_get_interface_desc                            .build/obj_massdrop_alt_default_md/protocol/arm_atsam/usb/udc.o
                                                  .build/obj_massdrop_alt_default_md/protocol/arm_atsam/usb/udi_hid.o
udc_process_setup                                 .build/obj_massdrop_alt_default_md/protocol/arm_atsam/usb/udc.o
                                                  .build/obj_massdrop_alt_default_md/protocol/arm_atsam/usb/usb_device_udd.o
udc_reset                                         .build/obj_massdrop_alt_default_md/protocol/arm_atsam/usb/udc.o
                                                  .build/obj_massdrop_alt_default_md/protocol/arm_atsam/usb/usb_device_udd.o
udc_sof_notify                                    .build/obj_massdrop_alt_default_md/protocol/arm_atsam/usb/udc.o
                                                  .build/obj_massdrop_alt_default_md/protocol/arm_atsam/usb/usb_device_udd.o
udc_start                                         .build/obj_massdrop_alt_default_md/protocol/arm_atsam/usb/udc.o
                                                  .build/obj_massdrop_alt_default_md/protocol/arm_atsam/main_arm_atsam.o
udc_stop                                          .build/obj_massdrop_alt_default_md/protocol/arm_atsam/usb/udc.o
udd_attach                                        .build/obj_massdrop_alt_default_md/protocol/arm_atsam/usb/usb_device_udd.o
udd_ctrl_buffer                                   .build/obj_massdrop_alt_default_md/protocol/arm_atsam/usb/usb_device_udd.o
udd_detach                                        .build/obj_massdrop_alt_default_md/protocol/arm_atsam/usb/usb_device_udd.o
udd_disable                                       .build/obj_massdrop_alt_default_md/protocol/arm_atsam/usb/usb_device_udd.o
                                                  .build/obj_massdrop_alt_default_md/protocol/arm_atsam/usb/udc.o
udd_enable                                        .build/obj_massdrop_alt_default_md/protocol/arm_atsam/usb/usb_device_udd.o
                                                  .build/obj_massdrop_alt_default_md/protocol/arm_atsam/usb/udc.o
udd_ep_abort                                      .build/obj_massdrop_alt_default_md/protocol/arm_atsam/usb/usb_device_udd.o
                                                  .build/obj_massdrop_alt_default_md/protocol/arm_atsam/usb/udc.o
udd_ep_alloc                                      .build/obj_massdrop_alt_default_md/protocol/arm_atsam/usb/usb_device_udd.o
                                                  .build/obj_massdrop_alt_default_md/protocol/arm_atsam/usb/udc.o
udd_ep_clear_halt                                 .build/obj_massdrop_alt_default_md/protocol/arm_atsam/usb/usb_device_udd.o
                                                  .build/obj_massdrop_alt_default_md/protocol/arm_atsam/usb/udc.o
udd_ep_free                                       .build/obj_massdrop_alt_default_md/protocol/arm_atsam/usb/usb_device_udd.o
                                                  .build/obj_massdrop_alt_default_md/protocol/arm_atsam/usb/udc.o
udd_ep_is_halted                                  .build/obj_massdrop_alt_default_md/protocol/arm_atsam/usb/usb_device_udd.o
                                                  .build/obj_massdrop_alt_default_md/protocol/arm_atsam/usb/udc.o
udd_ep_out_cache_buffer                           .build/obj_massdrop_alt_default_md/protocol/arm_atsam/usb/usb_device_udd.o
udd_ep_run                                        .build/obj_massdrop_alt_default_md/protocol/arm_atsam/usb/usb_device_udd.o
                                                  .build/obj_massdrop_alt_default_md/protocol/arm_atsam/usb/udi_hid_kbd.o
udd_ep_set_halt                                   .build/obj_massdrop_alt_default_md/protocol/arm_atsam/usb/usb_device_udd.o
                                                  .build/obj_massdrop_alt_default_md/protocol/arm_atsam/usb/udc.o
udd_ep_wait_stall_clear                           .build/obj_massdrop_alt_default_md/protocol/arm_atsam/usb/usb_device_udd.o
udd_g_ctrlreq                                     .build/obj_massdrop_alt_default_md/protocol/arm_atsam/usb/usb_device_udd.o
                                                  .build/obj_massdrop_alt_default_md/protocol/arm_atsam/usb/udi_hid_kbd.o
                                                  .build/obj_massdrop_alt_default_md/protocol/arm_atsam/usb/udi_hid.o
                                                  .build/obj_massdrop_alt_default_md/protocol/arm_atsam/usb/udc.o
udd_get_frame_number                              .build/obj_massdrop_alt_default_md/protocol/arm_atsam/usb/usb_device_udd.o
                                                  .build/obj_massdrop_alt_default_md/protocol/arm_atsam/usb/main_usb.o
udd_get_micro_frame_number                        .build/obj_massdrop_alt_default_md/protocol/arm_atsam/usb/usb_device_udd.o
udd_getaddress                                    .build/obj_massdrop_alt_default_md/protocol/arm_atsam/usb/usb_device_udd.o
                                                  .build/obj_massdrop_alt_default_md/protocol/arm_atsam/usb/udc.o
udd_is_high_speed                                 .build/obj_massdrop_alt_default_md/protocol/arm_atsam/usb/usb_device_udd.o
udd_send_remotewakeup                             .build/obj_massdrop_alt_default_md/protocol/arm_atsam/usb/usb_device_udd.o
                                                  .build/obj_massdrop_alt_default_md/protocol/arm_atsam/main_arm_atsam.o
udd_set_address                                   .build/obj_massdrop_alt_default_md/protocol/arm_atsam/usb/usb_device_udd.o
                                                  .build/obj_massdrop_alt_default_md/protocol/arm_atsam/usb/udc.o
udd_set_setup_payload                             .build/obj_massdrop_alt_default_md/protocol/arm_atsam/usb/usb_device_udd.o
                                                  .build/obj_massdrop_alt_default_md/protocol/arm_atsam/usb/udc.o
udi_api_hid_exk                                   .build/obj_massdrop_alt_default_md/protocol/arm_atsam/usb/udi_hid_kbd.o
                                                  .build/obj_massdrop_alt_default_md/protocol/arm_atsam/usb/udi_hid_kbd_desc.o
udi_api_hid_kbd                                   .build/obj_massdrop_alt_default_md/protocol/arm_atsam/usb/udi_hid_kbd.o
                                                  .build/obj_massdrop_alt_default_md/protocol/arm_atsam/usb/udi_hid_kbd_desc.o
udi_api_hid_nkro                                  .build/obj_massdrop_alt_default_md/protocol/arm_atsam/usb/udi_hid_kbd.o
                                                  .build/obj_massdrop_alt_default_md/protocol/arm_atsam/usb/udi_hid_kbd_desc.o
udi_apis                                          .build/obj_massdrop_alt_default_md/protocol/arm_atsam/usb/udi_hid_kbd_desc.o
udi_hid_exk_b_report_valid                        .build/obj_massdrop_alt_default_md/protocol/arm_atsam/usb/udi_hid_kbd.o
                                                  .build/obj_massdrop_alt_default_md/protocol/arm_atsam/main_arm_atsam.o
udi_hid_exk_disable                               .build/obj_massdrop_alt_default_md/protocol/arm_atsam/usb/udi_hid_kbd.o
udi_hid_exk_enable                                .build/obj_massdrop_alt_default_md/protocol/arm_atsam/usb/udi_hid_kbd.o
udi_hid_exk_getsetting                            .build/obj_massdrop_alt_default_md/protocol/arm_atsam/usb/udi_hid_kbd.o
udi_hid_exk_report                                .build/obj_massdrop_alt_default_md/protocol/arm_atsam/usb/udi_hid_kbd.o
                                                  .build/obj_massdrop_alt_default_md/protocol/arm_atsam/main_arm_atsam.o
udi_hid_exk_report_desc                           .build/obj_massdrop_alt_default_md/protocol/arm_atsam/usb/udi_hid_kbd.o
udi_hid_exk_report_set                            .build/obj_massdrop_alt_default_md/protocol/arm_atsam/usb/udi_hid_kbd.o
udi_hid_exk_send_report                           .build/obj_massdrop_alt_default_md/protocol/arm_atsam/usb/udi_hid_kbd.o
                                                  .build/obj_massdrop_alt_default_md/protocol/arm_atsam/main_arm_atsam.o
udi_hid_exk_setup                                 .build/obj_massdrop_alt_default_md/protocol/arm_atsam/usb/udi_hid_kbd.o
udi_hid_kbd_b_report_trans_ongoing                .build/obj_massdrop_alt_default_md/protocol/arm_atsam/usb/udi_hid_kbd.o
                                                  .build/obj_massdrop_alt_default_md/protocol/arm_atsam/main_arm_atsam.o
udi_hid_kbd_b_report_valid                        .build/obj_massdrop_alt_default_md/protocol/arm_atsam/usb/udi_hid_kbd.o
                                                  .build/obj_massdrop_alt_default_md/protocol/arm_atsam/main_arm_atsam.o
udi_hid_kbd_disable                               .build/obj_massdrop_alt_default_md/protocol/arm_atsam/usb/udi_hid_kbd.o
udi_hid_kbd_enable                                .build/obj_massdrop_alt_default_md/protocol/arm_atsam/usb/udi_hid_kbd.o
udi_hid_kbd_getsetting                            .build/obj_massdrop_alt_default_md/protocol/arm_atsam/usb/udi_hid_kbd.o
udi_hid_kbd_report                                .build/obj_massdrop_alt_default_md/protocol/arm_atsam/usb/udi_hid_kbd.o
                                                  .build/obj_massdrop_alt_default_md/protocol/arm_atsam/main_arm_atsam.o
udi_hid_kbd_report_desc                           .build/obj_massdrop_alt_default_md/protocol/arm_atsam/usb/udi_hid_kbd.o
udi_hid_kbd_report_set                            .build/obj_massdrop_alt_default_md/protocol/arm_atsam/usb/udi_hid_kbd.o
                                                  .build/obj_massdrop_alt_default_md/protocol/arm_atsam/main_arm_atsam.o
udi_hid_kbd_send_report                           .build/obj_massdrop_alt_default_md/protocol/arm_atsam/usb/udi_hid_kbd.o
                                                  .build/obj_massdrop_alt_default_md/protocol/arm_atsam/main_arm_atsam.o
udi_hid_kbd_setup                                 .build/obj_massdrop_alt_default_md/protocol/arm_atsam/usb/udi_hid_kbd.o
udi_hid_nkro_b_report_trans_ongoing               .build/obj_massdrop_alt_default_md/protocol/arm_atsam/usb/udi_hid_kbd.o
                                                  .build/obj_massdrop_alt_default_md/protocol/arm_atsam/main_arm_atsam.o
udi_hid_nkro_b_report_valid                       .build/obj_massdrop_alt_default_md/protocol/arm_atsam/usb/udi_hid_kbd.o
                                                  .build/obj_massdrop_alt_default_md/protocol/arm_atsam/main_arm_atsam.o
udi_hid_nkro_disable                              .build/obj_massdrop_alt_default_md/protocol/arm_atsam/usb/udi_hid_kbd.o
udi_hid_nkro_enable                               .build/obj_massdrop_alt_default_md/protocol/arm_atsam/usb/udi_hid_kbd.o
udi_hid_nkro_getsetting                           .build/obj_massdrop_alt_default_md/protocol/arm_atsam/usb/udi_hid_kbd.o
udi_hid_nkro_report                               .build/obj_massdrop_alt_default_md/protocol/arm_atsam/usb/udi_hid_kbd.o
                                                  .build/obj_massdrop_alt_default_md/protocol/arm_atsam/main_arm_atsam.o
udi_hid_nkro_report_desc                          .build/obj_massdrop_alt_default_md/protocol/arm_atsam/usb/udi_hid_kbd.o
udi_hid_nkro_report_set                           .build/obj_massdrop_alt_default_md/protocol/arm_atsam/usb/udi_hid_kbd.o
                                                  .build/obj_massdrop_alt_default_md/protocol/arm_atsam/main_arm_atsam.o
udi_hid_nkro_send_report                          .build/obj_massdrop_alt_default_md/protocol/arm_atsam/usb/udi_hid_kbd.o
                                                  .build/obj_massdrop_alt_default_md/protocol/arm_atsam/main_arm_atsam.o
udi_hid_nkro_setup                                .build/obj_massdrop_alt_default_md/protocol/arm_atsam/usb/udi_hid_kbd.o
udi_hid_setup                                     .build/obj_massdrop_alt_default_md/protocol/arm_atsam/usb/udi_hid.o
                                                  .build/obj_massdrop_alt_default_md/protocol/arm_atsam/usb/udi_hid_kbd.o
ui_init                                           .build/obj_massdrop_alt_default_md/protocol/arm_atsam/usb/ui.o
ui_kbd_led                                        .build/obj_massdrop_alt_default_md/protocol/arm_atsam/usb/ui.o
ui_powerdown                                      .build/obj_massdrop_alt_default_md/protocol/arm_atsam/usb/ui.o
                                                  .build/obj_massdrop_alt_default_md/protocol/arm_atsam/usb/main_usb.o
ui_process                                        .build/obj_massdrop_alt_default_md/protocol/arm_atsam/usb/ui.o
                                                  .build/obj_massdrop_alt_default_md/protocol/arm_atsam/usb/main_usb.o
ui_wakeup                                         .build/obj_massdrop_alt_default_md/protocol/arm_atsam/usb/ui.o
                                                  .build/obj_massdrop_alt_default_md/protocol/arm_atsam/usb/main_usb.o
ui_wakeup_disable                                 .build/obj_massdrop_alt_default_md/protocol/arm_atsam/usb/ui.o
                                                  .build/obj_massdrop_alt_default_md/protocol/arm_atsam/usb/main_usb.o
ui_wakeup_enable                                  .build/obj_massdrop_alt_default_md/protocol/arm_atsam/usb/ui.o
                                                  .build/obj_massdrop_alt_default_md/protocol/arm_atsam/usb/main_usb.o
unregister_code                                   .build/obj_massdrop_alt_default_md/common/action.o
                                                  .build/obj_massdrop_alt_default_md/common/action_macro.o
                                                  .build/obj_massdrop_alt_default_md/quantum/quantum.o
unregister_code16                                 .build/obj_massdrop_alt_default_md/quantum/quantum.o
unregister_mods                                   .build/obj_massdrop_alt_default_md/common/action.o
                                                  .build/obj_massdrop_alt_default_md/quantum/process_keycode/process_space_cadet.o
update_source_layers_cache                        .build/obj_massdrop_alt_default_md/common/action_layer.o
                                                  .build/obj_massdrop_alt_default_md/quantum/quantum.o
update_tri_layer                                  .build/obj_massdrop_alt_default_md/quantum/quantum.o
update_tri_layer_state                            .build/obj_massdrop_alt_default_md/quantum/quantum.o
usb_descriptor_table                              .build/obj_massdrop_alt_default_md/protocol/arm_atsam/usb/usb.o
usb_device                                        .build/obj_massdrop_alt_default_md/protocol/arm_atsam/usb/usb_device_udd.o
usb_device_disable_callback                       .build/obj_massdrop_alt_default_md/protocol/arm_atsam/usb/usb.o
                                                  .build/obj_massdrop_alt_default_md/protocol/arm_atsam/usb/usb_device_udd.o
usb_device_enable_callback                        .build/obj_massdrop_alt_default_md/protocol/arm_atsam/usb/usb.o
                                                  .build/obj_massdrop_alt_default_md/protocol/arm_atsam/usb/usb_device_udd.o
usb_device_endpoint_abort_job                     .build/obj_massdrop_alt_default_md/protocol/arm_atsam/usb/usb.o
                                                  .build/obj_massdrop_alt_default_md/protocol/arm_atsam/usb/usb_device_udd.o
usb_device_endpoint_clear_halt                    .build/obj_massdrop_alt_default_md/protocol/arm_atsam/usb/usb.o
                                                  .build/obj_massdrop_alt_default_md/protocol/arm_atsam/usb/usb_device_udd.o
usb_device_endpoint_disable_callback              .build/obj_massdrop_alt_default_md/protocol/arm_atsam/usb/usb.o
                                                  .build/obj_massdrop_alt_default_md/protocol/arm_atsam/usb/usb_device_udd.o
usb_device_endpoint_enable_callback               .build/obj_massdrop_alt_default_md/protocol/arm_atsam/usb/usb.o
                                                  .build/obj_massdrop_alt_default_md/protocol/arm_atsam/usb/usb_device_udd.o
usb_device_endpoint_get_config_defaults           .build/obj_massdrop_alt_default_md/protocol/arm_atsam/usb/usb.o
                                                  .build/obj_massdrop_alt_default_md/protocol/arm_atsam/usb/usb_device_udd.o
usb_device_endpoint_is_configured                 .build/obj_massdrop_alt_default_md/protocol/arm_atsam/usb/usb.o
                                                  .build/obj_massdrop_alt_default_md/protocol/arm_atsam/usb/usb_device_udd.o
usb_device_endpoint_is_halted                     .build/obj_massdrop_alt_default_md/protocol/arm_atsam/usb/usb.o
                                                  .build/obj_massdrop_alt_default_md/protocol/arm_atsam/usb/usb_device_udd.o
usb_device_endpoint_read_buffer_job               .build/obj_massdrop_alt_default_md/protocol/arm_atsam/usb/usb.o
                                                  .build/obj_massdrop_alt_default_md/protocol/arm_atsam/usb/usb_device_udd.o
usb_device_endpoint_register_callback             .build/obj_massdrop_alt_default_md/protocol/arm_atsam/usb/usb.o
                                                  .build/obj_massdrop_alt_default_md/protocol/arm_atsam/usb/usb_device_udd.o
usb_device_endpoint_set_config                    .build/obj_massdrop_alt_default_md/protocol/arm_atsam/usb/usb.o
                                                  .build/obj_massdrop_alt_default_md/protocol/arm_atsam/usb/usb_device_udd.o
usb_device_endpoint_set_halt                      .build/obj_massdrop_alt_default_md/protocol/arm_atsam/usb/usb.o
                                                  .build/obj_massdrop_alt_default_md/protocol/arm_atsam/usb/usb_device_udd.o
usb_device_endpoint_setup_buffer_job              .build/obj_massdrop_alt_default_md/protocol/arm_atsam/usb/usb.o
                                                  .build/obj_massdrop_alt_default_md/protocol/arm_atsam/usb/usb_device_udd.o
usb_device_endpoint_unregister_callback           .build/obj_massdrop_alt_default_md/protocol/arm_atsam/usb/usb.o
                                                  .build/obj_massdrop_alt_default_md/protocol/arm_atsam/usb/usb_device_udd.o
usb_device_endpoint_write_buffer_job              .build/obj_massdrop_alt_default_md/protocol/arm_atsam/usb/usb.o
                                                  .build/obj_massdrop_alt_default_md/protocol/arm_atsam/usb/usb_device_udd.o
usb_device_register_callback                      .build/obj_massdrop_alt_default_md/protocol/arm_atsam/usb/usb.o
                                                  .build/obj_massdrop_alt_default_md/protocol/arm_atsam/usb/usb_device_udd.o
usb_device_serial_name_size                       .build/obj_massdrop_alt_default_md/protocol/arm_atsam/usb/udc.o
usb_device_unregister_callback                    .build/obj_massdrop_alt_default_md/protocol/arm_atsam/usb/usb.o
usb_disable                                       .build/obj_massdrop_alt_default_md/protocol/arm_atsam/usb/usb.o
usb_enable                                        .build/obj_massdrop_alt_default_md/protocol/arm_atsam/usb/usb.o
                                                  .build/obj_massdrop_alt_default_md/protocol/arm_atsam/usb/usb_device_udd.o
usb_extra_manual                                  .build/obj_massdrop_alt_default_md/protocol/arm_atsam/usb/usb2422.o
                                                  .build/obj_massdrop_alt_default_md/protocol/arm_atsam/led_matrix.o
usb_extra_state                                   .build/obj_massdrop_alt_default_md/protocol/arm_atsam/usb/usb2422.o
                                                  .build/obj_massdrop_alt_default_md/protocol/arm_atsam/led_matrix.o
usb_gcr_auto                                      .build/obj_massdrop_alt_default_md/protocol/arm_atsam/usb/usb2422.o
                                                  .build/obj_massdrop_alt_default_md/protocol/arm_atsam/led_matrix.o
                                                  .build/obj_massdrop_alt_default_md/keyboards/massdrop/alt/keymaps/default_md/keymap.o
usb_get_config_defaults                           .build/obj_massdrop_alt_default_md/protocol/arm_atsam/usb/usb.o
                                                  .build/obj_massdrop_alt_default_md/protocol/arm_atsam/usb/usb_device_udd.o
usb_host_port                                     .build/obj_massdrop_alt_default_md/protocol/arm_atsam/usb/usb2422.o
usb_init                                          .build/obj_massdrop_alt_default_md/protocol/arm_atsam/usb/usb.o
                                                  .build/obj_massdrop_alt_default_md/protocol/arm_atsam/usb/usb_device_udd.o
usec_delay_mult                                   .build/obj_massdrop_alt_default_md/protocol/arm_atsam/clks.o
v_5v                                              .build/obj_massdrop_alt_default_md/protocol/arm_atsam/adc.o
                                                  .build/obj_massdrop_alt_default_md/protocol/arm_atsam/usb/usb2422.o
                                                  .build/obj_massdrop_alt_default_md/protocol/arm_atsam/main_arm_atsam.o
                                                  .build/obj_massdrop_alt_default_md/protocol/arm_atsam/led_matrix.o
v_5v_avg                                          .build/obj_massdrop_alt_default_md/protocol/arm_atsam/adc.o
                                                  .build/obj_massdrop_alt_default_md/protocol/arm_atsam/main_arm_atsam.o
                                                  .build/obj_massdrop_alt_default_md/protocol/arm_atsam/led_matrix.o
v_con_1                                           .build/obj_massdrop_alt_default_md/protocol/arm_atsam/adc.o
                                                  .build/obj_massdrop_alt_default_md/protocol/arm_atsam/usb/usb2422.o
v_con_1_boot                                      .build/obj_massdrop_alt_default_md/protocol/arm_atsam/adc.o
                                                  .build/obj_massdrop_alt_default_md/protocol/arm_atsam/usb/usb2422.o
v_con_2                                           .build/obj_massdrop_alt_default_md/protocol/arm_atsam/adc.o
                                                  .build/obj_massdrop_alt_default_md/protocol/arm_atsam/usb/usb2422.o
v_con_2_boot                                      .build/obj_massdrop_alt_default_md/protocol/arm_atsam/adc.o
                                                  .build/obj_massdrop_alt_default_md/protocol/arm_atsam/usb/usb2422.o
