Archive member included to satisfy reference by file (symbol)

/usr/local/Cellar/gcc-arm-none-eabi/20180627/bin/../lib/gcc/arm-none-eabi/7.3.1/thumb/v7e-m/fpv4-sp/hard/libgcc.a(_arm_addsubdf3.o)
                              .build/obj_massdrop_alt_default/protocol/arm_atsam/main_arm_atsam.o (__aeabi_dadd)
/usr/local/Cellar/gcc-arm-none-eabi/20180627/bin/../lib/gcc/arm-none-eabi/7.3.1/thumb/v7e-m/fpv4-sp/hard/libgcc.a(_arm_muldivdf3.o)
                              .build/obj_massdrop_alt_default/protocol/arm_atsam/main_arm_atsam.o (__aeabi_dmul)
/usr/local/Cellar/gcc-arm-none-eabi/20180627/bin/../lib/gcc/arm-none-eabi/7.3.1/thumb/v7e-m/fpv4-sp/hard/libgcc.a(_arm_fixunsdfsi.o)
                              .build/obj_massdrop_alt_default/protocol/arm_atsam/main_arm_atsam.o (__aeabi_d2uiz)
/usr/local/Cellar/gcc-arm-none-eabi/20180627/bin/../lib/gcc/arm-none-eabi/7.3.1/thumb/v7e-m/fpv4-sp/hard/libgcc.a(_aeabi_ldivmod.o)
                              .build/obj_massdrop_alt_default/protocol/arm_atsam/usb/usb_util.o (__aeabi_ldivmod)
/usr/local/Cellar/gcc-arm-none-eabi/20180627/bin/../lib/gcc/arm-none-eabi/7.3.1/thumb/v7e-m/fpv4-sp/hard/libgcc.a(_aeabi_uldivmod.o)
                              .build/obj_massdrop_alt_default/protocol/arm_atsam/usb/usb2422.o (__aeabi_uldivmod)
/usr/local/Cellar/gcc-arm-none-eabi/20180627/bin/../lib/gcc/arm-none-eabi/7.3.1/thumb/v7e-m/fpv4-sp/hard/libgcc.a(_udivmoddi4.o)
                              /usr/local/Cellar/gcc-arm-none-eabi/20180627/bin/../lib/gcc/arm-none-eabi/7.3.1/thumb/v7e-m/fpv4-sp/hard/libgcc.a(_aeabi_ldivmod.o) (__udivmoddi4)
/usr/local/Cellar/gcc-arm-none-eabi/20180627/bin/../lib/gcc/arm-none-eabi/7.3.1/thumb/v7e-m/fpv4-sp/hard/libgcc.a(_dvmd_tls.o)
                              /usr/local/Cellar/gcc-arm-none-eabi/20180627/bin/../lib/gcc/arm-none-eabi/7.3.1/thumb/v7e-m/fpv4-sp/hard/libgcc.a(_aeabi_ldivmod.o) (__aeabi_ldiv0)
/usr/local/Cellar/gcc-arm-none-eabi/20180627/bin/../lib/gcc/arm-none-eabi/7.3.1/../../../../arm-none-eabi/lib/thumb/v7e-m/fpv4-sp/hard/libg.a(lib_a-exit.o)
                              /usr/local/Cellar/gcc-arm-none-eabi/20180627/bin/../lib/gcc/arm-none-eabi/7.3.1/../../../../arm-none-eabi/lib/thumb/v7e-m/fpv4-sp/hard/rdimon-crt0.o (exit)
/usr/local/Cellar/gcc-arm-none-eabi/20180627/bin/../lib/gcc/arm-none-eabi/7.3.1/../../../../arm-none-eabi/lib/thumb/v7e-m/fpv4-sp/hard/libg.a(lib_a-impure.o)
                              /usr/local/Cellar/gcc-arm-none-eabi/20180627/bin/../lib/gcc/arm-none-eabi/7.3.1/../../../../arm-none-eabi/lib/thumb/v7e-m/fpv4-sp/hard/libg.a(lib_a-exit.o) (_global_impure_ptr)
/usr/local/Cellar/gcc-arm-none-eabi/20180627/bin/../lib/gcc/arm-none-eabi/7.3.1/../../../../arm-none-eabi/lib/thumb/v7e-m/fpv4-sp/hard/libg.a(lib_a-init.o)
                              /usr/local/Cellar/gcc-arm-none-eabi/20180627/bin/../lib/gcc/arm-none-eabi/7.3.1/../../../../arm-none-eabi/lib/thumb/v7e-m/fpv4-sp/hard/rdimon-crt0.o (__libc_init_array)
/usr/local/Cellar/gcc-arm-none-eabi/20180627/bin/../lib/gcc/arm-none-eabi/7.3.1/../../../../arm-none-eabi/lib/thumb/v7e-m/fpv4-sp/hard/libg.a(lib_a-memcpy.o)
                              .build/obj_massdrop_alt_default/quantum/rgb_matrix.o (memcpy)
/usr/local/Cellar/gcc-arm-none-eabi/20180627/bin/../lib/gcc/arm-none-eabi/7.3.1/../../../../arm-none-eabi/lib/thumb/v7e-m/fpv4-sp/hard/libg.a(lib_a-memset.o)
                              /usr/local/Cellar/gcc-arm-none-eabi/20180627/bin/../lib/gcc/arm-none-eabi/7.3.1/../../../../arm-none-eabi/lib/thumb/v7e-m/fpv4-sp/hard/rdimon-crt0.o (memset)
/usr/local/Cellar/gcc-arm-none-eabi/20180627/bin/../lib/gcc/arm-none-eabi/7.3.1/../../../../arm-none-eabi/lib/thumb/v7e-m/fpv4-sp/hard/libg.a(lib_a-rand.o)
                              .build/obj_massdrop_alt_default/quantum/quantum.o (rand)
/usr/local/Cellar/gcc-arm-none-eabi/20180627/bin/../lib/gcc/arm-none-eabi/7.3.1/../../../../arm-none-eabi/lib/thumb/v7e-m/fpv4-sp/hard/libg.a(lib_a-__call_atexit.o)
                              /usr/local/Cellar/gcc-arm-none-eabi/20180627/bin/../lib/gcc/arm-none-eabi/7.3.1/../../../../arm-none-eabi/lib/thumb/v7e-m/fpv4-sp/hard/libg.a(lib_a-exit.o) (__call_exitprocs)
/usr/local/Cellar/gcc-arm-none-eabi/20180627/bin/../lib/gcc/arm-none-eabi/7.3.1/../../../../arm-none-eabi/lib/thumb/v7e-m/fpv4-sp/hard/libg.a(lib_a-atexit.o)
                              /usr/local/Cellar/gcc-arm-none-eabi/20180627/bin/../lib/gcc/arm-none-eabi/7.3.1/../../../../arm-none-eabi/lib/thumb/v7e-m/fpv4-sp/hard/libg.a(lib_a-__call_atexit.o) (atexit)
/usr/local/Cellar/gcc-arm-none-eabi/20180627/bin/../lib/gcc/arm-none-eabi/7.3.1/../../../../arm-none-eabi/lib/thumb/v7e-m/fpv4-sp/hard/libg.a(lib_a-fini.o)
                              /usr/local/Cellar/gcc-arm-none-eabi/20180627/bin/../lib/gcc/arm-none-eabi/7.3.1/../../../../arm-none-eabi/lib/thumb/v7e-m/fpv4-sp/hard/libg.a(lib_a-__call_atexit.o) (__libc_fini_array)
/usr/local/Cellar/gcc-arm-none-eabi/20180627/bin/../lib/gcc/arm-none-eabi/7.3.1/../../../../arm-none-eabi/lib/thumb/v7e-m/fpv4-sp/hard/libg.a(lib_a-lock.o)
                              /usr/local/Cellar/gcc-arm-none-eabi/20180627/bin/../lib/gcc/arm-none-eabi/7.3.1/../../../../arm-none-eabi/lib/thumb/v7e-m/fpv4-sp/hard/libg.a(lib_a-__call_atexit.o) (__retarget_lock_acquire_recursive)
/usr/local/Cellar/gcc-arm-none-eabi/20180627/bin/../lib/gcc/arm-none-eabi/7.3.1/../../../../arm-none-eabi/lib/thumb/v7e-m/fpv4-sp/hard/libg.a(lib_a-__atexit.o)
                              /usr/local/Cellar/gcc-arm-none-eabi/20180627/bin/../lib/gcc/arm-none-eabi/7.3.1/../../../../arm-none-eabi/lib/thumb/v7e-m/fpv4-sp/hard/libg.a(lib_a-atexit.o) (__register_exitproc)
/usr/local/Cellar/gcc-arm-none-eabi/20180627/bin/../lib/gcc/arm-none-eabi/7.3.1/../../../../arm-none-eabi/lib/thumb/v7e-m/fpv4-sp/hard/librdimon.a(rdimon-syscalls.o)
                              /usr/local/Cellar/gcc-arm-none-eabi/20180627/bin/../lib/gcc/arm-none-eabi/7.3.1/../../../../arm-none-eabi/lib/thumb/v7e-m/fpv4-sp/hard/rdimon-crt0.o (initialise_monitor_handles)
/usr/local/Cellar/gcc-arm-none-eabi/20180627/bin/../lib/gcc/arm-none-eabi/7.3.1/../../../../arm-none-eabi/lib/thumb/v7e-m/fpv4-sp/hard/librdimon.a(rdimon-_exit.o)
                              /usr/local/Cellar/gcc-arm-none-eabi/20180627/bin/../lib/gcc/arm-none-eabi/7.3.1/../../../../arm-none-eabi/lib/thumb/v7e-m/fpv4-sp/hard/libg.a(lib_a-exit.o) (_exit)
/usr/local/Cellar/gcc-arm-none-eabi/20180627/bin/../lib/gcc/arm-none-eabi/7.3.1/../../../../arm-none-eabi/lib/thumb/v7e-m/fpv4-sp/hard/librdimon.a(rdimon-_kill.o)
                              /usr/local/Cellar/gcc-arm-none-eabi/20180627/bin/../lib/gcc/arm-none-eabi/7.3.1/../../../../arm-none-eabi/lib/thumb/v7e-m/fpv4-sp/hard/librdimon.a(rdimon-_exit.o) (_kill)
/usr/local/Cellar/gcc-arm-none-eabi/20180627/bin/../lib/gcc/arm-none-eabi/7.3.1/../../../../arm-none-eabi/lib/thumb/v7e-m/fpv4-sp/hard/libc.a(lib_a-errno.o)
                              /usr/local/Cellar/gcc-arm-none-eabi/20180627/bin/../lib/gcc/arm-none-eabi/7.3.1/../../../../arm-none-eabi/lib/thumb/v7e-m/fpv4-sp/hard/librdimon.a(rdimon-syscalls.o) (__errno)
/usr/local/Cellar/gcc-arm-none-eabi/20180627/bin/../lib/gcc/arm-none-eabi/7.3.1/../../../../arm-none-eabi/lib/thumb/v7e-m/fpv4-sp/hard/libc.a(lib_a-findfp.o)
                              /usr/local/Cellar/gcc-arm-none-eabi/20180627/bin/../lib/gcc/arm-none-eabi/7.3.1/../../../../arm-none-eabi/lib/thumb/v7e-m/fpv4-sp/hard/librdimon.a(rdimon-syscalls.o) (__sinit)
/usr/local/Cellar/gcc-arm-none-eabi/20180627/bin/../lib/gcc/arm-none-eabi/7.3.1/../../../../arm-none-eabi/lib/thumb/v7e-m/fpv4-sp/hard/libc.a(lib_a-fwalk.o)
                              /usr/local/Cellar/gcc-arm-none-eabi/20180627/bin/../lib/gcc/arm-none-eabi/7.3.1/../../../../arm-none-eabi/lib/thumb/v7e-m/fpv4-sp/hard/libc.a(lib_a-findfp.o) (_fwalk)
/usr/local/Cellar/gcc-arm-none-eabi/20180627/bin/../lib/gcc/arm-none-eabi/7.3.1/../../../../arm-none-eabi/lib/thumb/v7e-m/fpv4-sp/hard/libc.a(lib_a-mallocr.o)
                              /usr/local/Cellar/gcc-arm-none-eabi/20180627/bin/../lib/gcc/arm-none-eabi/7.3.1/../../../../arm-none-eabi/lib/thumb/v7e-m/fpv4-sp/hard/libc.a(lib_a-findfp.o) (_malloc_r)
/usr/local/Cellar/gcc-arm-none-eabi/20180627/bin/../lib/gcc/arm-none-eabi/7.3.1/../../../../arm-none-eabi/lib/thumb/v7e-m/fpv4-sp/hard/libc.a(lib_a-mlock.o)
                              /usr/local/Cellar/gcc-arm-none-eabi/20180627/bin/../lib/gcc/arm-none-eabi/7.3.1/../../../../arm-none-eabi/lib/thumb/v7e-m/fpv4-sp/hard/libc.a(lib_a-mallocr.o) (__malloc_lock)
/usr/local/Cellar/gcc-arm-none-eabi/20180627/bin/../lib/gcc/arm-none-eabi/7.3.1/../../../../arm-none-eabi/lib/thumb/v7e-m/fpv4-sp/hard/libc.a(lib_a-sbrkr.o)
                              /usr/local/Cellar/gcc-arm-none-eabi/20180627/bin/../lib/gcc/arm-none-eabi/7.3.1/../../../../arm-none-eabi/lib/thumb/v7e-m/fpv4-sp/hard/libc.a(lib_a-mallocr.o) (_sbrk_r)
/usr/local/Cellar/gcc-arm-none-eabi/20180627/bin/../lib/gcc/arm-none-eabi/7.3.1/../../../../arm-none-eabi/lib/thumb/v7e-m/fpv4-sp/hard/libc.a(lib_a-stdio.o)
                              /usr/local/Cellar/gcc-arm-none-eabi/20180627/bin/../lib/gcc/arm-none-eabi/7.3.1/../../../../arm-none-eabi/lib/thumb/v7e-m/fpv4-sp/hard/libc.a(lib_a-findfp.o) (__sread)
/usr/local/Cellar/gcc-arm-none-eabi/20180627/bin/../lib/gcc/arm-none-eabi/7.3.1/../../../../arm-none-eabi/lib/thumb/v7e-m/fpv4-sp/hard/libc.a(lib_a-strlen.o)
                              /usr/local/Cellar/gcc-arm-none-eabi/20180627/bin/../lib/gcc/arm-none-eabi/7.3.1/../../../../arm-none-eabi/lib/thumb/v7e-m/fpv4-sp/hard/librdimon.a(rdimon-syscalls.o) (strlen)
/usr/local/Cellar/gcc-arm-none-eabi/20180627/bin/../lib/gcc/arm-none-eabi/7.3.1/../../../../arm-none-eabi/lib/thumb/v7e-m/fpv4-sp/hard/libc.a(lib_a-writer.o)
                              /usr/local/Cellar/gcc-arm-none-eabi/20180627/bin/../lib/gcc/arm-none-eabi/7.3.1/../../../../arm-none-eabi/lib/thumb/v7e-m/fpv4-sp/hard/libc.a(lib_a-stdio.o) (_write_r)
/usr/local/Cellar/gcc-arm-none-eabi/20180627/bin/../lib/gcc/arm-none-eabi/7.3.1/../../../../arm-none-eabi/lib/thumb/v7e-m/fpv4-sp/hard/libc.a(lib_a-closer.o)
                              /usr/local/Cellar/gcc-arm-none-eabi/20180627/bin/../lib/gcc/arm-none-eabi/7.3.1/../../../../arm-none-eabi/lib/thumb/v7e-m/fpv4-sp/hard/libc.a(lib_a-stdio.o) (_close_r)
/usr/local/Cellar/gcc-arm-none-eabi/20180627/bin/../lib/gcc/arm-none-eabi/7.3.1/../../../../arm-none-eabi/lib/thumb/v7e-m/fpv4-sp/hard/libc.a(lib_a-fclose.o)
                              /usr/local/Cellar/gcc-arm-none-eabi/20180627/bin/../lib/gcc/arm-none-eabi/7.3.1/../../../../arm-none-eabi/lib/thumb/v7e-m/fpv4-sp/hard/libc.a(lib_a-findfp.o) (_fclose_r)
/usr/local/Cellar/gcc-arm-none-eabi/20180627/bin/../lib/gcc/arm-none-eabi/7.3.1/../../../../arm-none-eabi/lib/thumb/v7e-m/fpv4-sp/hard/libc.a(lib_a-fflush.o)
                              /usr/local/Cellar/gcc-arm-none-eabi/20180627/bin/../lib/gcc/arm-none-eabi/7.3.1/../../../../arm-none-eabi/lib/thumb/v7e-m/fpv4-sp/hard/libc.a(lib_a-fclose.o) (__sflush_r)
/usr/local/Cellar/gcc-arm-none-eabi/20180627/bin/../lib/gcc/arm-none-eabi/7.3.1/../../../../arm-none-eabi/lib/thumb/v7e-m/fpv4-sp/hard/libc.a(lib_a-freer.o)
                              /usr/local/Cellar/gcc-arm-none-eabi/20180627/bin/../lib/gcc/arm-none-eabi/7.3.1/../../../../arm-none-eabi/lib/thumb/v7e-m/fpv4-sp/hard/libc.a(lib_a-mallocr.o) (_free_r)
/usr/local/Cellar/gcc-arm-none-eabi/20180627/bin/../lib/gcc/arm-none-eabi/7.3.1/../../../../arm-none-eabi/lib/thumb/v7e-m/fpv4-sp/hard/libc.a(lib_a-lseekr.o)
                              /usr/local/Cellar/gcc-arm-none-eabi/20180627/bin/../lib/gcc/arm-none-eabi/7.3.1/../../../../arm-none-eabi/lib/thumb/v7e-m/fpv4-sp/hard/libc.a(lib_a-stdio.o) (_lseek_r)
/usr/local/Cellar/gcc-arm-none-eabi/20180627/bin/../lib/gcc/arm-none-eabi/7.3.1/../../../../arm-none-eabi/lib/thumb/v7e-m/fpv4-sp/hard/libc.a(lib_a-readr.o)
                              /usr/local/Cellar/gcc-arm-none-eabi/20180627/bin/../lib/gcc/arm-none-eabi/7.3.1/../../../../arm-none-eabi/lib/thumb/v7e-m/fpv4-sp/hard/libc.a(lib_a-stdio.o) (_read_r)
/usr/local/Cellar/gcc-arm-none-eabi/20180627/bin/../lib/gcc/arm-none-eabi/7.3.1/../../../../arm-none-eabi/lib/thumb/v7e-m/fpv4-sp/hard/libc.a(lib_a-reent.o)
                              /usr/local/Cellar/gcc-arm-none-eabi/20180627/bin/../lib/gcc/arm-none-eabi/7.3.1/../../../../arm-none-eabi/lib/thumb/v7e-m/fpv4-sp/hard/libc.a(lib_a-sbrkr.o) (errno)

Allocating common symbols
Common symbol       size              file

dmac_desc_wb        0x10              .build/obj_massdrop_alt_default/matrix.o
inbuf               0xc               .build/obj_massdrop_alt_default/protocol/arm_atsam/usb/udi_cdc.o
usb_gcr_auto        0x1               .build/obj_massdrop_alt_default/protocol/arm_atsam/usb/usb2422.o
udd_ep_out_cache_buffer
                    0x100             .build/obj_massdrop_alt_default/protocol/arm_atsam/usb/usb_device_udd.o
usec_delay_mult     0x4               .build/obj_massdrop_alt_default/protocol/arm_atsam/clks.o
usb_descriptor_table
                    0x100             .build/obj_massdrop_alt_default/protocol/arm_atsam/usb/usb.o
__lock___atexit_recursive_mutex
                    0x1               /usr/local/Cellar/gcc-arm-none-eabi/20180627/bin/../lib/gcc/arm-none-eabi/7.3.1/../../../../arm-none-eabi/lib/thumb/v7e-m/fpv4-sp/hard/libg.a(lib_a-lock.o)
udi_hid_nkro_b_report_valid
                    0x1               .build/obj_massdrop_alt_default/protocol/arm_atsam/usb/udi_hid_kbd.o
rgb_matrix_config   0x8               .build/obj_massdrop_alt_default/quantum/rgb_matrix.o
keymap_config       0x2               .build/obj_massdrop_alt_default/keyboards/massdrop/alt/keymaps/default/keymap.o
__lock___arc4random_mutex
                    0x1               /usr/local/Cellar/gcc-arm-none-eabi/20180627/bin/../lib/gcc/arm-none-eabi/7.3.1/../../../../arm-none-eabi/lib/thumb/v7e-m/fpv4-sp/hard/libg.a(lib_a-lock.o)
printbuf            0x1               .build/obj_massdrop_alt_default/protocol/arm_atsam/usb/udi_cdc.o
errno               0x4               /usr/local/Cellar/gcc-arm-none-eabi/20180627/bin/../lib/gcc/arm-none-eabi/7.3.1/../../../../arm-none-eabi/lib/thumb/v7e-m/fpv4-sp/hard/libc.a(lib_a-reent.o)
usb_device          0xb4              .build/obj_massdrop_alt_default/protocol/arm_atsam/usb/usb_device_udd.o
udi_hid_kbd_report  0x8               .build/obj_massdrop_alt_default/protocol/arm_atsam/usb/udi_hid_kbd.o
row_masks           0x8               .build/obj_massdrop_alt_default/matrix.o
led_states          0x1               .build/obj_massdrop_alt_default/protocol/arm_atsam/main_arm_atsam.o
udi_hid_kbd_b_report_valid
                    0x1               .build/obj_massdrop_alt_default/protocol/arm_atsam/usb/udi_hid_kbd.o
i2c0_buf            0x22              .build/obj_massdrop_alt_default/protocol/arm_atsam/usb/usb2422.o
v_con_1_boot        0x2               .build/obj_massdrop_alt_default/protocol/arm_atsam/adc.o
issidrv             0x3c2             .build/obj_massdrop_alt_default/protocol/arm_atsam/led_matrix.o
__lock___env_recursive_mutex
                    0x1               /usr/local/Cellar/gcc-arm-none-eabi/20180627/bin/../lib/gcc/arm-none-eabi/7.3.1/../../../../arm-none-eabi/lib/thumb/v7e-m/fpv4-sp/hard/libg.a(lib_a-lock.o)
led_buffer          0x13b             .build/obj_massdrop_alt_default/protocol/arm_atsam/led_matrix.o
i2c_led_q_running   0x1               .build/obj_massdrop_alt_default/protocol/arm_atsam/i2c_master.o
__lock___sinit_recursive_mutex
                    0x1               /usr/local/Cellar/gcc-arm-none-eabi/20180627/bin/../lib/gcc/arm-none-eabi/7.3.1/../../../../arm-none-eabi/lib/thumb/v7e-m/fpv4-sp/hard/libg.a(lib_a-lock.o)
sr_exp_data         0x2               .build/obj_massdrop_alt_default/protocol/arm_atsam/spi.o
gcr_desired         0x1               .build/obj_massdrop_alt_default/protocol/arm_atsam/led_matrix.o
debug_code          0x4               .build/obj_massdrop_alt_default/protocol/arm_atsam/d51_util.o
mdebounced          0xa               .build/obj_massdrop_alt_default/matrix.o
v_con_1             0x2               .build/obj_massdrop_alt_default/protocol/arm_atsam/adc.o
udi_hid_kbd_b_report_trans_ongoing
                    0x1               .build/obj_massdrop_alt_default/protocol/arm_atsam/usb/udi_hid_kbd.o
__lock___malloc_recursive_mutex
                    0x1               /usr/local/Cellar/gcc-arm-none-eabi/20180627/bin/../lib/gcc/arm-none-eabi/7.3.1/../../../../arm-none-eabi/lib/thumb/v7e-m/fpv4-sp/hard/libg.a(lib_a-lock.o)
udi_hid_exk_b_report_valid
                    0x1               .build/obj_massdrop_alt_default/protocol/arm_atsam/usb/udi_hid_kbd.o
usb_extra_state     0x1               .build/obj_massdrop_alt_default/protocol/arm_atsam/usb/usb2422.o
udi_hid_nkro_b_report_trans_ongoing
                    0x1               .build/obj_massdrop_alt_default/protocol/arm_atsam/usb/udi_hid_kbd.o
mlatest             0xa               .build/obj_massdrop_alt_default/matrix.o
udi_hid_exk_report_set
                    0x1               .build/obj_massdrop_alt_default/protocol/arm_atsam/usb/udi_hid_kbd.o
mlast               0xa               .build/obj_massdrop_alt_default/matrix.o
udi_hid_nkro_report
                    0x20              .build/obj_massdrop_alt_default/protocol/arm_atsam/usb/udi_hid_kbd.o
system_clks         0x68              .build/obj_massdrop_alt_default/protocol/arm_atsam/clks.o
udd_g_ctrlreq       0x18              .build/obj_massdrop_alt_default/protocol/arm_atsam/usb/usb_device_udd.o
gcr_actual          0x1               .build/obj_massdrop_alt_default/protocol/arm_atsam/led_matrix.o
v_con_2             0x2               .build/obj_massdrop_alt_default/protocol/arm_atsam/adc.o
ms_clk              0x8               .build/obj_massdrop_alt_default/protocol/arm_atsam/clks.o
usb_extra_manual    0x1               .build/obj_massdrop_alt_default/protocol/arm_atsam/usb/usb2422.o
udi_hid_exk_report  0x3               .build/obj_massdrop_alt_default/protocol/arm_atsam/usb/udi_hid_kbd.o
tp_buttons          0x4               .build/obj_massdrop_alt_default/common/action.o
v_con_2_boot        0x2               .build/obj_massdrop_alt_default/protocol/arm_atsam/adc.o
v_5v                0x2               .build/obj_massdrop_alt_default/protocol/arm_atsam/adc.o
dmac_desc           0x10              .build/obj_massdrop_alt_default/matrix.o
g_last_hit_tracker  0x29              .build/obj_massdrop_alt_default/quantum/rgb_matrix.o
adc_extra           0x2               .build/obj_massdrop_alt_default/protocol/arm_atsam/usb/usb2422.o
udi_hid_nkro_report_set
                    0x1               .build/obj_massdrop_alt_default/protocol/arm_atsam/usb/udi_hid_kbd.o
usb_host_port       0x1               .build/obj_massdrop_alt_default/protocol/arm_atsam/usb/usb2422.o
__lock___at_quick_exit_mutex
                    0x1               /usr/local/Cellar/gcc-arm-none-eabi/20180627/bin/../lib/gcc/arm-none-eabi/7.3.1/../../../../arm-none-eabi/lib/thumb/v7e-m/fpv4-sp/hard/libg.a(lib_a-lock.o)
g_rgb_counters      0x8               .build/obj_massdrop_alt_default/quantum/rgb_matrix.o
gcr_actual_last     0x1               .build/obj_massdrop_alt_default/protocol/arm_atsam/led_matrix.o
__lock___dd_hash_mutex
                    0x1               /usr/local/Cellar/gcc-arm-none-eabi/20180627/bin/../lib/gcc/arm-none-eabi/7.3.1/../../../../arm-none-eabi/lib/thumb/v7e-m/fpv4-sp/hard/libg.a(lib_a-lock.o)
__lock___tz_mutex   0x1               /usr/local/Cellar/gcc-arm-none-eabi/20180627/bin/../lib/gcc/arm-none-eabi/7.3.1/../../../../arm-none-eabi/lib/thumb/v7e-m/fpv4-sp/hard/libg.a(lib_a-lock.o)
udd_ctrl_buffer     0x8               .build/obj_massdrop_alt_default/protocol/arm_atsam/usb/usb_device_udd.o
udi_hid_kbd_report_set
                    0x1               .build/obj_massdrop_alt_default/protocol/arm_atsam/usb/udi_hid_kbd.o
USB2422_shadow      0x100             .build/obj_massdrop_alt_default/protocol/arm_atsam/usb/usb2422.o
__lock___sfp_recursive_mutex
                    0x1               /usr/local/Cellar/gcc-arm-none-eabi/20180627/bin/../lib/gcc/arm-none-eabi/7.3.1/../../../../arm-none-eabi/lib/thumb/v7e-m/fpv4-sp/hard/libg.a(lib_a-lock.o)
v_5v_avg            0x2               .build/obj_massdrop_alt_default/protocol/arm_atsam/adc.o

Discarded input sections

 .text          0x0000000000000000        0x0 /usr/local/Cellar/gcc-arm-none-eabi/20180627/bin/../lib/gcc/arm-none-eabi/7.3.1/thumb/v7e-m/fpv4-sp/hard/crti.o
 .data          0x0000000000000000        0x0 /usr/local/Cellar/gcc-arm-none-eabi/20180627/bin/../lib/gcc/arm-none-eabi/7.3.1/thumb/v7e-m/fpv4-sp/hard/crti.o
 .bss           0x0000000000000000        0x0 /usr/local/Cellar/gcc-arm-none-eabi/20180627/bin/../lib/gcc/arm-none-eabi/7.3.1/thumb/v7e-m/fpv4-sp/hard/crti.o
 .data          0x0000000000000000        0x4 /usr/local/Cellar/gcc-arm-none-eabi/20180627/bin/../lib/gcc/arm-none-eabi/7.3.1/thumb/v7e-m/fpv4-sp/hard/crtbegin.o
 .text          0x0000000000000000       0xe8 /usr/local/Cellar/gcc-arm-none-eabi/20180627/bin/../lib/gcc/arm-none-eabi/7.3.1/../../../../arm-none-eabi/lib/thumb/v7e-m/fpv4-sp/hard/rdimon-crt0.o
 .data          0x0000000000000000      0x118 /usr/local/Cellar/gcc-arm-none-eabi/20180627/bin/../lib/gcc/arm-none-eabi/7.3.1/../../../../arm-none-eabi/lib/thumb/v7e-m/fpv4-sp/hard/rdimon-crt0.o
 .bss           0x0000000000000000        0x0 /usr/local/Cellar/gcc-arm-none-eabi/20180627/bin/../lib/gcc/arm-none-eabi/7.3.1/../../../../arm-none-eabi/lib/thumb/v7e-m/fpv4-sp/hard/rdimon-crt0.o
 .ARM.extab     0x0000000000000000        0x0 /usr/local/Cellar/gcc-arm-none-eabi/20180627/bin/../lib/gcc/arm-none-eabi/7.3.1/../../../../arm-none-eabi/lib/thumb/v7e-m/fpv4-sp/hard/rdimon-crt0.o
 .ARM.exidx     0x0000000000000000        0x8 /usr/local/Cellar/gcc-arm-none-eabi/20180627/bin/../lib/gcc/arm-none-eabi/7.3.1/../../../../arm-none-eabi/lib/thumb/v7e-m/fpv4-sp/hard/rdimon-crt0.o
 .ARM.attributes
                0x0000000000000000       0x20 /usr/local/Cellar/gcc-arm-none-eabi/20180627/bin/../lib/gcc/arm-none-eabi/7.3.1/../../../../arm-none-eabi/lib/thumb/v7e-m/fpv4-sp/hard/rdimon-crt0.o
 .text          0x0000000000000000        0x0 .build/obj_massdrop_alt_default/matrix.o
 .text.matrix_init_user
                0x0000000000000000        0x2 .build/obj_massdrop_alt_default/matrix.o
 .text.matrix_scan_user
                0x0000000000000000        0x2 .build/obj_massdrop_alt_default/matrix.o
 .text          0x0000000000000000        0x0 .build/obj_massdrop_alt_default/config_led.o
 .bss           0x0000000000000000        0x0 .build/obj_massdrop_alt_default/config_led.o
 .text          0x0000000000000000        0x0 .build/obj_massdrop_alt_default/keyboards/massdrop/alt/keymaps/default/keymap.o
 .data          0x0000000000000000        0x0 .build/obj_massdrop_alt_default/keyboards/massdrop/alt/keymaps/default/keymap.o
 .text          0x0000000000000000        0x0 .build/obj_massdrop_alt_default/quantum/quantum.o
 .data          0x0000000000000000        0x0 .build/obj_massdrop_alt_default/quantum/quantum.o
 .text.do_code16
                0x0000000000000000       0x4e .build/obj_massdrop_alt_default/quantum/quantum.o
 .text.qk_register_weak_mods
                0x0000000000000000       0x18 .build/obj_massdrop_alt_default/quantum/quantum.o
 .text.qk_register_mods
                0x0000000000000000        0x4 .build/obj_massdrop_alt_default/quantum/quantum.o
 .text.qk_unregister_weak_mods
                0x0000000000000000       0x18 .build/obj_massdrop_alt_default/quantum/quantum.o
 .text.qk_unregister_mods
                0x0000000000000000        0x4 .build/obj_massdrop_alt_default/quantum/quantum.o
 .text.register_code16
                0x0000000000000000       0x2c .build/obj_massdrop_alt_default/quantum/quantum.o
 .text.unregister_code16
                0x0000000000000000       0x2c .build/obj_massdrop_alt_default/quantum/quantum.o
 .text.tap_code16
                0x0000000000000000       0x12 .build/obj_massdrop_alt_default/quantum/quantum.o
 .text.process_record_user
                0x0000000000000000        0x4 .build/obj_massdrop_alt_default/quantum/quantum.o
 .text.send_char
                0x0000000000000000       0x48 .build/obj_massdrop_alt_default/quantum/quantum.o
 .text.send_string_with_delay
                0x0000000000000000       0x54 .build/obj_massdrop_alt_default/quantum/quantum.o
 .text.send_string
                0x0000000000000000        0x6 .build/obj_massdrop_alt_default/quantum/quantum.o
 .text.send_string_P
                0x0000000000000000        0x4 .build/obj_massdrop_alt_default/quantum/quantum.o
 .text.send_string_with_delay_P
                0x0000000000000000        0x4 .build/obj_massdrop_alt_default/quantum/quantum.o
 .text.set_single_persistent_default_layer
                0x0000000000000000       0x16 .build/obj_massdrop_alt_default/quantum/quantum.o
 .text.update_tri_layer_state
                0x0000000000000000       0x1e .build/obj_massdrop_alt_default/quantum/quantum.o
 .text.update_tri_layer
                0x0000000000000000       0x1c .build/obj_massdrop_alt_default/quantum/quantum.o
 .text.tap_random_base64
                0x0000000000000000       0x82 .build/obj_massdrop_alt_default/quantum/quantum.o
 .text.bootmagic_lite
                0x0000000000000000       0x2a .build/obj_massdrop_alt_default/quantum/quantum.o
 .text.backlight_init_ports
                0x0000000000000000        0x2 .build/obj_massdrop_alt_default/quantum/quantum.o
 .text.send_nibble
                0x0000000000000000       0x3e .build/obj_massdrop_alt_default/quantum/quantum.o
 .text.send_byte
                0x0000000000000000       0x16 .build/obj_massdrop_alt_default/quantum/quantum.o
 .text.send_word
                0x0000000000000000       0x14 .build/obj_massdrop_alt_default/quantum/quantum.o
 .text.send_dword
                0x0000000000000000       0x14 .build/obj_massdrop_alt_default/quantum/quantum.o
 .text.hex_to_keycode
                0x0000000000000000       0x18 .build/obj_massdrop_alt_default/quantum/quantum.o
 .text.api_send_unicode
                0x0000000000000000        0x2 .build/obj_massdrop_alt_default/quantum/quantum.o
 .text.backlight_set
                0x0000000000000000        0x2 .build/obj_massdrop_alt_default/quantum/quantum.o
 .text.led_init_ports
                0x0000000000000000        0x2 .build/obj_massdrop_alt_default/quantum/quantum.o
 .text.startup_user
                0x0000000000000000        0x2 .build/obj_massdrop_alt_default/quantum/quantum.o
 .rodata        0x0000000000000000      0x180 .build/obj_massdrop_alt_default/quantum/quantum.o
 .text          0x0000000000000000        0x0 .build/obj_massdrop_alt_default/quantum/keymap_common.o
 .data          0x0000000000000000        0x0 .build/obj_massdrop_alt_default/quantum/keymap_common.o
 .bss           0x0000000000000000        0x0 .build/obj_massdrop_alt_default/quantum/keymap_common.o
 .text          0x0000000000000000        0x0 .build/obj_massdrop_alt_default/quantum/keycode_config.o
 .data          0x0000000000000000        0x0 .build/obj_massdrop_alt_default/quantum/keycode_config.o
 .bss           0x0000000000000000        0x0 .build/obj_massdrop_alt_default/quantum/keycode_config.o
 .text          0x0000000000000000        0x0 .build/obj_massdrop_alt_default/quantum/debounce/sym_g.o
 .data          0x0000000000000000        0x0 .build/obj_massdrop_alt_default/quantum/debounce/sym_g.o
 .bss           0x0000000000000000        0x4 .build/obj_massdrop_alt_default/quantum/debounce/sym_g.o
 .text.debounce_init
                0x0000000000000000        0x2 .build/obj_massdrop_alt_default/quantum/debounce/sym_g.o
 .text.debounce
                0x0000000000000000       0x44 .build/obj_massdrop_alt_default/quantum/debounce/sym_g.o
 .text.debounce_active
                0x0000000000000000        0xc .build/obj_massdrop_alt_default/quantum/debounce/sym_g.o
 .debug_info    0x0000000000000000     0x1050 .build/obj_massdrop_alt_default/quantum/debounce/sym_g.o
 .debug_abbrev  0x0000000000000000      0x282 .build/obj_massdrop_alt_default/quantum/debounce/sym_g.o
 .debug_loc     0x0000000000000000       0x91 .build/obj_massdrop_alt_default/quantum/debounce/sym_g.o
 .debug_aranges
                0x0000000000000000       0x30 .build/obj_massdrop_alt_default/quantum/debounce/sym_g.o
 .debug_ranges  0x0000000000000000       0x38 .build/obj_massdrop_alt_default/quantum/debounce/sym_g.o
 .debug_line    0x0000000000000000      0x323 .build/obj_massdrop_alt_default/quantum/debounce/sym_g.o
 .debug_str     0x0000000000000000      0xa1a .build/obj_massdrop_alt_default/quantum/debounce/sym_g.o
 .comment       0x0000000000000000       0x80 .build/obj_massdrop_alt_default/quantum/debounce/sym_g.o
 .debug_frame   0x0000000000000000       0x58 .build/obj_massdrop_alt_default/quantum/debounce/sym_g.o
 .ARM.attributes
                0x0000000000000000       0x39 .build/obj_massdrop_alt_default/quantum/debounce/sym_g.o
 .text          0x0000000000000000        0x0 .build/obj_massdrop_alt_default/quantum/color.o
 .data          0x0000000000000000        0x0 .build/obj_massdrop_alt_default/quantum/color.o
 .bss           0x0000000000000000        0x0 .build/obj_massdrop_alt_default/quantum/color.o
 .text          0x0000000000000000        0x0 .build/obj_massdrop_alt_default/quantum/rgb_matrix.o
 .text.eeconfig_debug_rgb_matrix
                0x0000000000000000        0x2 .build/obj_massdrop_alt_default/quantum/rgb_matrix.o
 .text.rgb_matrix_test
                0x0000000000000000       0x38 .build/obj_massdrop_alt_default/quantum/rgb_matrix.o
 .text.rgb_matrix_indicators_kb
                0x0000000000000000        0x2 .build/obj_massdrop_alt_default/quantum/rgb_matrix.o
 .text.rgb_matrix_set_suspend_state
                0x0000000000000000        0xc .build/obj_massdrop_alt_default/quantum/rgb_matrix.o
 .text.rgb_matrix_enable
                0x0000000000000000        0xe .build/obj_massdrop_alt_default/quantum/rgb_matrix.o
 .text.rgb_matrix_disable
                0x0000000000000000        0xe .build/obj_massdrop_alt_default/quantum/rgb_matrix.o
 .text.rgb_matrix_mode_noeeprom
                0x0000000000000000       0x10 .build/obj_massdrop_alt_default/quantum/rgb_matrix.o
 .text.rgb_matrix_get_mode
                0x0000000000000000        0xc .build/obj_massdrop_alt_default/quantum/rgb_matrix.o
 .text.rgb_matrix_sethsv
                0x0000000000000000       0x10 .build/obj_massdrop_alt_default/quantum/rgb_matrix.o
 .text.rgb_matrix_sethsv_noeeprom
                0x0000000000000000       0x10 .build/obj_massdrop_alt_default/quantum/rgb_matrix.o
 .text          0x0000000000000000        0x0 .build/obj_massdrop_alt_default/quantum/rgb_matrix_drivers.o
 .data          0x0000000000000000        0x0 .build/obj_massdrop_alt_default/quantum/rgb_matrix_drivers.o
 .bss           0x0000000000000000        0x0 .build/obj_massdrop_alt_default/quantum/rgb_matrix_drivers.o
 .debug_info    0x0000000000000000      0xf4c .build/obj_massdrop_alt_default/quantum/rgb_matrix_drivers.o
 .debug_abbrev  0x0000000000000000      0x1da .build/obj_massdrop_alt_default/quantum/rgb_matrix_drivers.o
 .debug_aranges
                0x0000000000000000       0x18 .build/obj_massdrop_alt_default/quantum/rgb_matrix_drivers.o
 .debug_line    0x0000000000000000      0x294 .build/obj_massdrop_alt_default/quantum/rgb_matrix_drivers.o
 .debug_str     0x0000000000000000      0x99e .build/obj_massdrop_alt_default/quantum/rgb_matrix_drivers.o
 .comment       0x0000000000000000       0x80 .build/obj_massdrop_alt_default/quantum/rgb_matrix_drivers.o
 .ARM.attributes
                0x0000000000000000       0x39 .build/obj_massdrop_alt_default/quantum/rgb_matrix_drivers.o
 .text          0x0000000000000000        0x0 .build/obj_massdrop_alt_default/quantum/led_tables.o
 .data          0x0000000000000000        0x0 .build/obj_massdrop_alt_default/quantum/led_tables.o
 .bss           0x0000000000000000        0x0 .build/obj_massdrop_alt_default/quantum/led_tables.o
 .text          0x0000000000000000        0x0 .build/obj_massdrop_alt_default/quantum/process_keycode/process_space_cadet.o
 .data          0x0000000000000000        0x0 .build/obj_massdrop_alt_default/quantum/process_keycode/process_space_cadet.o
 .text          0x0000000000000000        0x0 .build/obj_massdrop_alt_default/common/host.o
 .data          0x0000000000000000        0x0 .build/obj_massdrop_alt_default/common/host.o
 .text.host_get_driver
                0x0000000000000000        0xc .build/obj_massdrop_alt_default/common/host.o
 .text.host_mouse_send
                0x0000000000000000       0x10 .build/obj_massdrop_alt_default/common/host.o
 .text.host_last_system_report
                0x0000000000000000        0xc .build/obj_massdrop_alt_default/common/host.o
 .text.host_last_consumer_report
                0x0000000000000000        0xc .build/obj_massdrop_alt_default/common/host.o
 .text          0x0000000000000000        0x0 .build/obj_massdrop_alt_default/common/keyboard.o
 .data          0x0000000000000000        0x0 .build/obj_massdrop_alt_default/common/keyboard.o
 .text.disable_jtag
                0x0000000000000000        0x2 .build/obj_massdrop_alt_default/common/keyboard.o
 .text.keyboard_set_leds
                0x0000000000000000        0x4 .build/obj_massdrop_alt_default/common/keyboard.o
 .text          0x0000000000000000        0x0 .build/obj_massdrop_alt_default/common/action.o
 .data          0x0000000000000000        0x0 .build/obj_massdrop_alt_default/common/action.o
 .text.process_record_quantum
                0x0000000000000000        0x4 .build/obj_massdrop_alt_default/common/action.o
 .text.process_record_nocache
                0x0000000000000000       0x18 .build/obj_massdrop_alt_default/common/action.o
 .text.debug_action
                0x0000000000000000        0x2 .build/obj_massdrop_alt_default/common/action.o
 COMMON         0x0000000000000000        0x4 .build/obj_massdrop_alt_default/common/action.o
 .text          0x0000000000000000        0x0 .build/obj_massdrop_alt_default/common/action_tapping.o
 .data          0x0000000000000000        0x0 .build/obj_massdrop_alt_default/common/action_tapping.o
 .text.get_tapping_term
                0x0000000000000000        0x4 .build/obj_massdrop_alt_default/common/action_tapping.o
 .text          0x0000000000000000        0x0 .build/obj_massdrop_alt_default/common/action_macro.o
 .data          0x0000000000000000        0x0 .build/obj_massdrop_alt_default/common/action_macro.o
 .bss           0x0000000000000000        0x0 .build/obj_massdrop_alt_default/common/action_macro.o
 .text          0x0000000000000000        0x0 .build/obj_massdrop_alt_default/common/action_layer.o
 .data          0x0000000000000000        0x0 .build/obj_massdrop_alt_default/common/action_layer.o
 .text.layer_state_cmp
                0x0000000000000000       0x12 .build/obj_massdrop_alt_default/common/action_layer.o
 .text.layer_state_is
                0x0000000000000000       0x10 .build/obj_massdrop_alt_default/common/action_layer.o
 .text          0x0000000000000000        0x0 .build/obj_massdrop_alt_default/common/action_util.o
 .text.get_oneshot_locked_mods
                0x0000000000000000        0xc .build/obj_massdrop_alt_default/common/action_util.o
 .text.has_oneshot_mods_timed_out
                0x0000000000000000        0x4 .build/obj_massdrop_alt_default/common/action_util.o
 .text.set_mods
                0x0000000000000000        0xc .build/obj_massdrop_alt_default/common/action_util.o
 .text.get_weak_mods
                0x0000000000000000        0xc .build/obj_massdrop_alt_default/common/action_util.o
 .text.set_weak_mods
                0x0000000000000000        0xc .build/obj_massdrop_alt_default/common/action_util.o
 .text.get_macro_mods
                0x0000000000000000        0xc .build/obj_massdrop_alt_default/common/action_util.o
 .text.set_macro_mods
                0x0000000000000000        0xc .build/obj_massdrop_alt_default/common/action_util.o
 .text.oneshot_locked_mods_changed_user
                0x0000000000000000        0x2 .build/obj_massdrop_alt_default/common/action_util.o
 .text.oneshot_locked_mods_changed_kb
                0x0000000000000000        0x8 .build/obj_massdrop_alt_default/common/action_util.o
 .text.set_oneshot_locked_mods
                0x0000000000000000       0x18 .build/obj_massdrop_alt_default/common/action_util.o
 .text.clear_oneshot_locked_mods
                0x0000000000000000       0x18 .build/obj_massdrop_alt_default/common/action_util.o
 .text.has_anymod
                0x0000000000000000        0xc .build/obj_massdrop_alt_default/common/action_util.o
 .text          0x0000000000000000        0x0 .build/obj_massdrop_alt_default/common/print.o
 .data          0x0000000000000000        0x0 .build/obj_massdrop_alt_default/common/print.o
 .bss           0x0000000000000000        0x0 .build/obj_massdrop_alt_default/common/print.o
 .debug_info    0x0000000000000000       0x64 .build/obj_massdrop_alt_default/common/print.o
 .debug_abbrev  0x0000000000000000       0x26 .build/obj_massdrop_alt_default/common/print.o
 .debug_aranges
                0x0000000000000000       0x18 .build/obj_massdrop_alt_default/common/print.o
 .debug_line    0x0000000000000000       0x1d .build/obj_massdrop_alt_default/common/print.o
 .debug_str     0x0000000000000000      0x1cd .build/obj_massdrop_alt_default/common/print.o
 .comment       0x0000000000000000       0x80 .build/obj_massdrop_alt_default/common/print.o
 .ARM.attributes
                0x0000000000000000       0x39 .build/obj_massdrop_alt_default/common/print.o
 .text          0x0000000000000000        0x0 .build/obj_massdrop_alt_default/common/debug.o
 .data          0x0000000000000000        0x0 .build/obj_massdrop_alt_default/common/debug.o
 .text          0x0000000000000000        0x0 .build/obj_massdrop_alt_default/common/util.o
 .data          0x0000000000000000        0x0 .build/obj_massdrop_alt_default/common/util.o
 .bss           0x0000000000000000        0x0 .build/obj_massdrop_alt_default/common/util.o
 .text.bitpop   0x0000000000000000       0x12 .build/obj_massdrop_alt_default/common/util.o
 .text.bitpop16
                0x0000000000000000       0x12 .build/obj_massdrop_alt_default/common/util.o
 .text.bitpop32
                0x0000000000000000       0x12 .build/obj_massdrop_alt_default/common/util.o
 .text.biton    0x0000000000000000       0x26 .build/obj_massdrop_alt_default/common/util.o
 .text.biton16  0x0000000000000000       0x30 .build/obj_massdrop_alt_default/common/util.o
 .text.biton32  0x0000000000000000       0x34 .build/obj_massdrop_alt_default/common/util.o
 .text.bitrev   0x0000000000000000       0x26 .build/obj_massdrop_alt_default/common/util.o
 .text.bitrev16
                0x0000000000000000       0x1a .build/obj_massdrop_alt_default/common/util.o
 .text.bitrev32
                0x0000000000000000       0x18 .build/obj_massdrop_alt_default/common/util.o
 .debug_info    0x0000000000000000      0x2b6 .build/obj_massdrop_alt_default/common/util.o
 .debug_abbrev  0x0000000000000000       0xaf .build/obj_massdrop_alt_default/common/util.o
 .debug_loc     0x0000000000000000     0x10aa .build/obj_massdrop_alt_default/common/util.o
 .debug_aranges
                0x0000000000000000       0x60 .build/obj_massdrop_alt_default/common/util.o
 .debug_ranges  0x0000000000000000       0x50 .build/obj_massdrop_alt_default/common/util.o
 .debug_line    0x0000000000000000      0x1cb .build/obj_massdrop_alt_default/common/util.o
 .debug_str     0x0000000000000000      0x253 .build/obj_massdrop_alt_default/common/util.o
 .comment       0x0000000000000000       0x80 .build/obj_massdrop_alt_default/common/util.o
 .debug_frame   0x0000000000000000       0xbc .build/obj_massdrop_alt_default/common/util.o
 .ARM.attributes
                0x0000000000000000       0x39 .build/obj_massdrop_alt_default/common/util.o
 .text          0x0000000000000000        0x0 .build/obj_massdrop_alt_default/common/eeconfig.o
 .data          0x0000000000000000        0x0 .build/obj_massdrop_alt_default/common/eeconfig.o
 .bss           0x0000000000000000        0x0 .build/obj_massdrop_alt_default/common/eeconfig.o
 .text.eeconfig_enable
                0x0000000000000000        0xa .build/obj_massdrop_alt_default/common/eeconfig.o
 .text.eeconfig_disable
                0x0000000000000000        0xa .build/obj_massdrop_alt_default/common/eeconfig.o
 .text.eeconfig_is_disabled
                0x0000000000000000       0x14 .build/obj_massdrop_alt_default/common/eeconfig.o
 .text.eeconfig_update_debug
                0x0000000000000000        0x8 .build/obj_massdrop_alt_default/common/eeconfig.o
 .text.eeconfig_update_default_layer
                0x0000000000000000        0x8 .build/obj_massdrop_alt_default/common/eeconfig.o
 .text.eeconfig_read_backlight
                0x0000000000000000        0x6 .build/obj_massdrop_alt_default/common/eeconfig.o
 .text.eeconfig_update_backlight
                0x0000000000000000        0x8 .build/obj_massdrop_alt_default/common/eeconfig.o
 .text.eeconfig_read_audio
                0x0000000000000000        0x6 .build/obj_massdrop_alt_default/common/eeconfig.o
 .text.eeconfig_update_audio
                0x0000000000000000        0x8 .build/obj_massdrop_alt_default/common/eeconfig.o
 .text.eeconfig_read_kb
                0x0000000000000000        0x6 .build/obj_massdrop_alt_default/common/eeconfig.o
 .text.eeconfig_read_user
                0x0000000000000000        0x6 .build/obj_massdrop_alt_default/common/eeconfig.o
 .text.eeconfig_read_haptic
                0x0000000000000000        0x6 .build/obj_massdrop_alt_default/common/eeconfig.o
 .text.eeconfig_update_haptic
                0x0000000000000000        0x8 .build/obj_massdrop_alt_default/common/eeconfig.o
 .text          0x0000000000000000        0x0 .build/obj_massdrop_alt_default/common/report.o
 .data          0x0000000000000000        0x0 .build/obj_massdrop_alt_default/common/report.o
 .bss           0x0000000000000000        0x0 .build/obj_massdrop_alt_default/common/report.o
 .text.get_first_key
                0x0000000000000000       0x44 .build/obj_massdrop_alt_default/common/report.o
 .text          0x0000000000000000        0x0 .build/obj_massdrop_alt_default/common/arm_atsam/suspend.o
 .data          0x0000000000000000        0x0 .build/obj_massdrop_alt_default/common/arm_atsam/suspend.o
 .bss           0x0000000000000000        0x0 .build/obj_massdrop_alt_default/common/arm_atsam/suspend.o
 .text.suspend_idle
                0x0000000000000000        0x2 .build/obj_massdrop_alt_default/common/arm_atsam/suspend.o
 .text          0x0000000000000000        0x0 .build/obj_massdrop_alt_default/common/arm_atsam/timer.o
 .data          0x0000000000000000        0x0 .build/obj_massdrop_alt_default/common/arm_atsam/timer.o
 .bss           0x0000000000000000        0x0 .build/obj_massdrop_alt_default/common/arm_atsam/timer.o
 .text.set_time
                0x0000000000000000        0xc .build/obj_massdrop_alt_default/common/arm_atsam/timer.o
 .text          0x0000000000000000        0x0 .build/obj_massdrop_alt_default/common/arm_atsam/bootloader.o
 .data          0x0000000000000000        0x0 .build/obj_massdrop_alt_default/common/arm_atsam/bootloader.o
 .bss           0x0000000000000000        0x0 .build/obj_massdrop_alt_default/common/arm_atsam/bootloader.o
 .text          0x0000000000000000        0x0 .build/obj_massdrop_alt_default/common/arm_atsam/printf.o
 .data          0x0000000000000000        0x0 .build/obj_massdrop_alt_default/common/arm_atsam/printf.o
 .bss           0x0000000000000000        0x0 .build/obj_massdrop_alt_default/common/arm_atsam/printf.o
 .debug_line    0x0000000000000000        0x0 .build/obj_massdrop_alt_default/common/arm_atsam/printf.o
 .debug_str     0x0000000000000000      0x154 .build/obj_massdrop_alt_default/common/arm_atsam/printf.o
 .comment       0x0000000000000000       0x80 .build/obj_massdrop_alt_default/common/arm_atsam/printf.o
 .ARM.attributes
                0x0000000000000000       0x39 .build/obj_massdrop_alt_default/common/arm_atsam/printf.o
 .text          0x0000000000000000        0x0 .build/obj_massdrop_alt_default/common/arm_atsam/eeprom.o
 .data          0x0000000000000000        0x0 .build/obj_massdrop_alt_default/common/arm_atsam/eeprom.o
 .text.eeprom_write_byte
                0x0000000000000000        0xc .build/obj_massdrop_alt_default/common/arm_atsam/eeprom.o
 .text.eeprom_read_dword
                0x0000000000000000       0x20 .build/obj_massdrop_alt_default/common/arm_atsam/eeprom.o
 .text          0x0000000000000000        0x0 .build/obj_massdrop_alt_default/common/magic.o
 .data          0x0000000000000000        0x0 .build/obj_massdrop_alt_default/common/magic.o
 .bss           0x0000000000000000        0x0 .build/obj_massdrop_alt_default/common/magic.o
 .text          0x0000000000000000        0x0 .build/obj_massdrop_alt_default/protocol/arm_atsam/adc.o
 .data          0x0000000000000000        0x0 .build/obj_massdrop_alt_default/protocol/arm_atsam/adc.o
 .bss           0x0000000000000000        0x0 .build/obj_massdrop_alt_default/protocol/arm_atsam/adc.o
 .text          0x0000000000000000        0x0 .build/obj_massdrop_alt_default/protocol/arm_atsam/clks.o
 .data          0x0000000000000000        0x0 .build/obj_massdrop_alt_default/protocol/arm_atsam/clks.o
 .bss           0x0000000000000000        0x0 .build/obj_massdrop_alt_default/protocol/arm_atsam/clks.o
 .text          0x0000000000000000        0x0 .build/obj_massdrop_alt_default/protocol/arm_atsam/d51_util.o
 .data          0x0000000000000000        0x0 .build/obj_massdrop_alt_default/protocol/arm_atsam/d51_util.o
 .text.dbg_print
                0x0000000000000000       0xcc .build/obj_massdrop_alt_default/protocol/arm_atsam/d51_util.o
 .text          0x0000000000000000        0x0 .build/obj_massdrop_alt_default/protocol/arm_atsam/i2c_master.o
 .data          0x0000000000000000        0x0 .build/obj_massdrop_alt_default/protocol/arm_atsam/i2c_master.o
 .text.i2c_led_send_GCR
                0x0000000000000000       0x3c .build/obj_massdrop_alt_default/protocol/arm_atsam/i2c_master.o
 .text.i2c_led_send_onoff
                0x0000000000000000       0x34 .build/obj_massdrop_alt_default/protocol/arm_atsam/i2c_master.o
 .text.i2c_led_send_pwm
                0x0000000000000000       0x38 .build/obj_massdrop_alt_default/protocol/arm_atsam/i2c_master.o
 .text          0x0000000000000000        0x0 .build/obj_massdrop_alt_default/protocol/arm_atsam/led_matrix_programs.o
 .data          0x0000000000000000        0x0 .build/obj_massdrop_alt_default/protocol/arm_atsam/led_matrix_programs.o
 .bss           0x0000000000000000        0x0 .build/obj_massdrop_alt_default/protocol/arm_atsam/led_matrix_programs.o
 .debug_line    0x0000000000000000        0x0 .build/obj_massdrop_alt_default/protocol/arm_atsam/led_matrix_programs.o
 .debug_str     0x0000000000000000      0x163 .build/obj_massdrop_alt_default/protocol/arm_atsam/led_matrix_programs.o
 .comment       0x0000000000000000       0x80 .build/obj_massdrop_alt_default/protocol/arm_atsam/led_matrix_programs.o
 .ARM.attributes
                0x0000000000000000       0x39 .build/obj_massdrop_alt_default/protocol/arm_atsam/led_matrix_programs.o
 .text          0x0000000000000000        0x0 .build/obj_massdrop_alt_default/protocol/arm_atsam/led_matrix.o
 .text          0x0000000000000000        0x0 .build/obj_massdrop_alt_default/protocol/arm_atsam/main_arm_atsam.o
 COMMON         0x0000000000000000        0x1 .build/obj_massdrop_alt_default/protocol/arm_atsam/main_arm_atsam.o
 .text          0x0000000000000000        0x0 .build/obj_massdrop_alt_default/protocol/arm_atsam/spi.o
 .data          0x0000000000000000        0x0 .build/obj_massdrop_alt_default/protocol/arm_atsam/spi.o
 .bss           0x0000000000000000        0x0 .build/obj_massdrop_alt_default/protocol/arm_atsam/spi.o
 .text          0x0000000000000000        0x0 .build/obj_massdrop_alt_default/protocol/arm_atsam/startup.o
 .data          0x0000000000000000        0x0 .build/obj_massdrop_alt_default/protocol/arm_atsam/startup.o
 .bss           0x0000000000000000        0x0 .build/obj_massdrop_alt_default/protocol/arm_atsam/startup.o
 .text          0x0000000000000000        0x0 .build/obj_massdrop_alt_default/protocol/arm_atsam/usb/main_usb.o
 .text          0x0000000000000000        0x0 .build/obj_massdrop_alt_default/protocol/arm_atsam/usb/udc.o
 .text.udc_stop
                0x0000000000000000        0xe .build/obj_massdrop_alt_default/protocol/arm_atsam/usb/udc.o
 .text          0x0000000000000000        0x0 .build/obj_massdrop_alt_default/protocol/arm_atsam/usb/udi_cdc.o
 .data          0x0000000000000000        0x0 .build/obj_massdrop_alt_default/protocol/arm_atsam/usb/udi_cdc.o
 .bss           0x0000000000000000        0x0 .build/obj_massdrop_alt_default/protocol/arm_atsam/usb/udi_cdc.o
 .text.CDC_send
                0x0000000000000000        0x2 .build/obj_massdrop_alt_default/protocol/arm_atsam/usb/udi_cdc.o
 .text.CDC_printf
                0x0000000000000000        0x8 .build/obj_massdrop_alt_default/protocol/arm_atsam/usb/udi_cdc.o
 .text.CDC_input
                0x0000000000000000        0x4 .build/obj_massdrop_alt_default/protocol/arm_atsam/usb/udi_cdc.o
 .text          0x0000000000000000        0x0 .build/obj_massdrop_alt_default/protocol/arm_atsam/usb/udi_hid.o
 .data          0x0000000000000000        0x0 .build/obj_massdrop_alt_default/protocol/arm_atsam/usb/udi_hid.o
 .bss           0x0000000000000000        0x0 .build/obj_massdrop_alt_default/protocol/arm_atsam/usb/udi_hid.o
 .text          0x0000000000000000        0x0 .build/obj_massdrop_alt_default/protocol/arm_atsam/usb/udi_hid_kbd.o
 .text          0x0000000000000000        0x0 .build/obj_massdrop_alt_default/protocol/arm_atsam/usb/udi_hid_kbd_desc.o
 .bss           0x0000000000000000        0x0 .build/obj_massdrop_alt_default/protocol/arm_atsam/usb/udi_hid_kbd_desc.o
 .text          0x0000000000000000        0x0 .build/obj_massdrop_alt_default/protocol/arm_atsam/usb/ui.o
 .data          0x0000000000000000        0x0 .build/obj_massdrop_alt_default/protocol/arm_atsam/usb/ui.o
 .bss           0x0000000000000000        0x0 .build/obj_massdrop_alt_default/protocol/arm_atsam/usb/ui.o
 .text.ui_init  0x0000000000000000        0x2 .build/obj_massdrop_alt_default/protocol/arm_atsam/usb/ui.o
 .text.ui_kbd_led
                0x0000000000000000        0x2 .build/obj_massdrop_alt_default/protocol/arm_atsam/usb/ui.o
 .text          0x0000000000000000        0x0 .build/obj_massdrop_alt_default/protocol/arm_atsam/usb/usb2422.o
 .data          0x0000000000000000        0x0 .build/obj_massdrop_alt_default/protocol/arm_atsam/usb/usb2422.o
 .bss           0x0000000000000000        0x0 .build/obj_massdrop_alt_default/protocol/arm_atsam/usb/usb2422.o
 .text          0x0000000000000000        0x0 .build/obj_massdrop_alt_default/protocol/arm_atsam/usb/usb.o
 .data          0x0000000000000000        0x0 .build/obj_massdrop_alt_default/protocol/arm_atsam/usb/usb.o
 .text.usb_device_unregister_callback
                0x0000000000000000       0x24 .build/obj_massdrop_alt_default/protocol/arm_atsam/usb/usb.o
 .text.usb_device_endpoint_is_configured
                0x0000000000000000       0x22 .build/obj_massdrop_alt_default/protocol/arm_atsam/usb/usb.o
 .text.usb_disable
                0x0000000000000000       0x20 .build/obj_massdrop_alt_default/protocol/arm_atsam/usb/usb.o
 .text          0x0000000000000000        0x0 .build/obj_massdrop_alt_default/protocol/arm_atsam/usb/usb_device_udd.o
 .data          0x0000000000000000        0x0 .build/obj_massdrop_alt_default/protocol/arm_atsam/usb/usb_device_udd.o
 .text.udd_is_high_speed
                0x0000000000000000        0x4 .build/obj_massdrop_alt_default/protocol/arm_atsam/usb/usb_device_udd.o
 .text.udd_get_micro_frame_number
                0x0000000000000000        0xc .build/obj_massdrop_alt_default/protocol/arm_atsam/usb/usb_device_udd.o
 .text.udd_ep_wait_stall_clear
                0x0000000000000000       0x50 .build/obj_massdrop_alt_default/protocol/arm_atsam/usb/usb_device_udd.o
 .text.udd_detach
                0x0000000000000000       0x14 .build/obj_massdrop_alt_default/protocol/arm_atsam/usb/usb_device_udd.o
 .text.udd_disable
                0x0000000000000000        0x4 .build/obj_massdrop_alt_default/protocol/arm_atsam/usb/usb_device_udd.o
 .text          0x0000000000000000        0x0 .build/obj_massdrop_alt_default/protocol/arm_atsam/usb/usb_util.o
 .data          0x0000000000000000        0x0 .build/obj_massdrop_alt_default/protocol/arm_atsam/usb/usb_util.o
 .bss           0x0000000000000000        0x0 .build/obj_massdrop_alt_default/protocol/arm_atsam/usb/usb_util.o
 .text.digit    0x0000000000000000       0x12 .build/obj_massdrop_alt_default/protocol/arm_atsam/usb/usb_util.o
 .text.UTIL_ltoa_radix
                0x0000000000000000       0x92 .build/obj_massdrop_alt_default/protocol/arm_atsam/usb/usb_util.o
 .text.UTIL_ltoa
                0x0000000000000000        0x6 .build/obj_massdrop_alt_default/protocol/arm_atsam/usb/usb_util.o
 .text.UTIL_itoa
                0x0000000000000000        0xa .build/obj_massdrop_alt_default/protocol/arm_atsam/usb/usb_util.o
 .text.UTIL_utoa
                0x0000000000000000        0xa .build/obj_massdrop_alt_default/protocol/arm_atsam/usb/usb_util.o
 .debug_info    0x0000000000000000      0xb49 .build/obj_massdrop_alt_default/protocol/arm_atsam/usb/usb_util.o
 .debug_abbrev  0x0000000000000000      0x2d8 .build/obj_massdrop_alt_default/protocol/arm_atsam/usb/usb_util.o
 .debug_loc     0x0000000000000000      0x224 .build/obj_massdrop_alt_default/protocol/arm_atsam/usb/usb_util.o
 .debug_aranges
                0x0000000000000000       0x40 .build/obj_massdrop_alt_default/protocol/arm_atsam/usb/usb_util.o
 .debug_ranges  0x0000000000000000       0x48 .build/obj_massdrop_alt_default/protocol/arm_atsam/usb/usb_util.o
 .debug_line    0x0000000000000000      0x2ab .build/obj_massdrop_alt_default/protocol/arm_atsam/usb/usb_util.o
 .debug_str     0x0000000000000000      0x69e .build/obj_massdrop_alt_default/protocol/arm_atsam/usb/usb_util.o
 .comment       0x0000000000000000       0x80 .build/obj_massdrop_alt_default/protocol/arm_atsam/usb/usb_util.o
 .debug_frame   0x0000000000000000       0x8c .build/obj_massdrop_alt_default/protocol/arm_atsam/usb/usb_util.o
 .ARM.attributes
                0x0000000000000000       0x39 .build/obj_massdrop_alt_default/protocol/arm_atsam/usb/usb_util.o
 .data          0x0000000000000000        0x0 /usr/local/Cellar/gcc-arm-none-eabi/20180627/bin/../lib/gcc/arm-none-eabi/7.3.1/thumb/v7e-m/fpv4-sp/hard/libgcc.a(_arm_addsubdf3.o)
 .bss           0x0000000000000000        0x0 /usr/local/Cellar/gcc-arm-none-eabi/20180627/bin/../lib/gcc/arm-none-eabi/7.3.1/thumb/v7e-m/fpv4-sp/hard/libgcc.a(_arm_addsubdf3.o)
 .data          0x0000000000000000        0x0 /usr/local/Cellar/gcc-arm-none-eabi/20180627/bin/../lib/gcc/arm-none-eabi/7.3.1/thumb/v7e-m/fpv4-sp/hard/libgcc.a(_arm_muldivdf3.o)
 .bss           0x0000000000000000        0x0 /usr/local/Cellar/gcc-arm-none-eabi/20180627/bin/../lib/gcc/arm-none-eabi/7.3.1/thumb/v7e-m/fpv4-sp/hard/libgcc.a(_arm_muldivdf3.o)
 .data          0x0000000000000000        0x0 /usr/local/Cellar/gcc-arm-none-eabi/20180627/bin/../lib/gcc/arm-none-eabi/7.3.1/thumb/v7e-m/fpv4-sp/hard/libgcc.a(_arm_fixunsdfsi.o)
 .bss           0x0000000000000000        0x0 /usr/local/Cellar/gcc-arm-none-eabi/20180627/bin/../lib/gcc/arm-none-eabi/7.3.1/thumb/v7e-m/fpv4-sp/hard/libgcc.a(_arm_fixunsdfsi.o)
 .text          0x0000000000000000       0xa0 /usr/local/Cellar/gcc-arm-none-eabi/20180627/bin/../lib/gcc/arm-none-eabi/7.3.1/thumb/v7e-m/fpv4-sp/hard/libgcc.a(_aeabi_ldivmod.o)
 .data          0x0000000000000000        0x0 /usr/local/Cellar/gcc-arm-none-eabi/20180627/bin/../lib/gcc/arm-none-eabi/7.3.1/thumb/v7e-m/fpv4-sp/hard/libgcc.a(_aeabi_ldivmod.o)
 .bss           0x0000000000000000        0x0 /usr/local/Cellar/gcc-arm-none-eabi/20180627/bin/../lib/gcc/arm-none-eabi/7.3.1/thumb/v7e-m/fpv4-sp/hard/libgcc.a(_aeabi_ldivmod.o)
 .debug_frame   0x0000000000000000       0x44 /usr/local/Cellar/gcc-arm-none-eabi/20180627/bin/../lib/gcc/arm-none-eabi/7.3.1/thumb/v7e-m/fpv4-sp/hard/libgcc.a(_aeabi_ldivmod.o)
 .ARM.attributes
                0x0000000000000000       0x22 /usr/local/Cellar/gcc-arm-none-eabi/20180627/bin/../lib/gcc/arm-none-eabi/7.3.1/thumb/v7e-m/fpv4-sp/hard/libgcc.a(_aeabi_ldivmod.o)
 .data          0x0000000000000000        0x0 /usr/local/Cellar/gcc-arm-none-eabi/20180627/bin/../lib/gcc/arm-none-eabi/7.3.1/thumb/v7e-m/fpv4-sp/hard/libgcc.a(_aeabi_uldivmod.o)
 .bss           0x0000000000000000        0x0 /usr/local/Cellar/gcc-arm-none-eabi/20180627/bin/../lib/gcc/arm-none-eabi/7.3.1/thumb/v7e-m/fpv4-sp/hard/libgcc.a(_aeabi_uldivmod.o)
 .data          0x0000000000000000        0x0 /usr/local/Cellar/gcc-arm-none-eabi/20180627/bin/../lib/gcc/arm-none-eabi/7.3.1/thumb/v7e-m/fpv4-sp/hard/libgcc.a(_udivmoddi4.o)
 .bss           0x0000000000000000        0x0 /usr/local/Cellar/gcc-arm-none-eabi/20180627/bin/../lib/gcc/arm-none-eabi/7.3.1/thumb/v7e-m/fpv4-sp/hard/libgcc.a(_udivmoddi4.o)
 .ARM.extab     0x0000000000000000        0x0 /usr/local/Cellar/gcc-arm-none-eabi/20180627/bin/../lib/gcc/arm-none-eabi/7.3.1/thumb/v7e-m/fpv4-sp/hard/libgcc.a(_udivmoddi4.o)
 .data          0x0000000000000000        0x0 /usr/local/Cellar/gcc-arm-none-eabi/20180627/bin/../lib/gcc/arm-none-eabi/7.3.1/thumb/v7e-m/fpv4-sp/hard/libgcc.a(_dvmd_tls.o)
 .bss           0x0000000000000000        0x0 /usr/local/Cellar/gcc-arm-none-eabi/20180627/bin/../lib/gcc/arm-none-eabi/7.3.1/thumb/v7e-m/fpv4-sp/hard/libgcc.a(_dvmd_tls.o)
 .text          0x0000000000000000        0x0 /usr/local/Cellar/gcc-arm-none-eabi/20180627/bin/../lib/gcc/arm-none-eabi/7.3.1/../../../../arm-none-eabi/lib/thumb/v7e-m/fpv4-sp/hard/libg.a(lib_a-exit.o)
 .data          0x0000000000000000        0x0 /usr/local/Cellar/gcc-arm-none-eabi/20180627/bin/../lib/gcc/arm-none-eabi/7.3.1/../../../../arm-none-eabi/lib/thumb/v7e-m/fpv4-sp/hard/libg.a(lib_a-exit.o)
 .bss           0x0000000000000000        0x0 /usr/local/Cellar/gcc-arm-none-eabi/20180627/bin/../lib/gcc/arm-none-eabi/7.3.1/../../../../arm-none-eabi/lib/thumb/v7e-m/fpv4-sp/hard/libg.a(lib_a-exit.o)
 .text.exit     0x0000000000000000       0x20 /usr/local/Cellar/gcc-arm-none-eabi/20180627/bin/../lib/gcc/arm-none-eabi/7.3.1/../../../../arm-none-eabi/lib/thumb/v7e-m/fpv4-sp/hard/libg.a(lib_a-exit.o)
 .debug_frame   0x0000000000000000       0x28 /usr/local/Cellar/gcc-arm-none-eabi/20180627/bin/../lib/gcc/arm-none-eabi/7.3.1/../../../../arm-none-eabi/lib/thumb/v7e-m/fpv4-sp/hard/libg.a(lib_a-exit.o)
 .ARM.attributes
                0x0000000000000000       0x34 /usr/local/Cellar/gcc-arm-none-eabi/20180627/bin/../lib/gcc/arm-none-eabi/7.3.1/../../../../arm-none-eabi/lib/thumb/v7e-m/fpv4-sp/hard/libg.a(lib_a-exit.o)
 .text          0x0000000000000000        0x0 /usr/local/Cellar/gcc-arm-none-eabi/20180627/bin/../lib/gcc/arm-none-eabi/7.3.1/../../../../arm-none-eabi/lib/thumb/v7e-m/fpv4-sp/hard/libg.a(lib_a-impure.o)
 .data          0x0000000000000000        0x0 /usr/local/Cellar/gcc-arm-none-eabi/20180627/bin/../lib/gcc/arm-none-eabi/7.3.1/../../../../arm-none-eabi/lib/thumb/v7e-m/fpv4-sp/hard/libg.a(lib_a-impure.o)
 .bss           0x0000000000000000        0x0 /usr/local/Cellar/gcc-arm-none-eabi/20180627/bin/../lib/gcc/arm-none-eabi/7.3.1/../../../../arm-none-eabi/lib/thumb/v7e-m/fpv4-sp/hard/libg.a(lib_a-impure.o)
 .text          0x0000000000000000        0x0 /usr/local/Cellar/gcc-arm-none-eabi/20180627/bin/../lib/gcc/arm-none-eabi/7.3.1/../../../../arm-none-eabi/lib/thumb/v7e-m/fpv4-sp/hard/libg.a(lib_a-init.o)
 .data          0x0000000000000000        0x0 /usr/local/Cellar/gcc-arm-none-eabi/20180627/bin/../lib/gcc/arm-none-eabi/7.3.1/../../../../arm-none-eabi/lib/thumb/v7e-m/fpv4-sp/hard/libg.a(lib_a-init.o)
 .bss           0x0000000000000000        0x0 /usr/local/Cellar/gcc-arm-none-eabi/20180627/bin/../lib/gcc/arm-none-eabi/7.3.1/../../../../arm-none-eabi/lib/thumb/v7e-m/fpv4-sp/hard/libg.a(lib_a-init.o)
 .data          0x0000000000000000        0x0 /usr/local/Cellar/gcc-arm-none-eabi/20180627/bin/../lib/gcc/arm-none-eabi/7.3.1/../../../../arm-none-eabi/lib/thumb/v7e-m/fpv4-sp/hard/libg.a(lib_a-memcpy.o)
 .bss           0x0000000000000000        0x0 /usr/local/Cellar/gcc-arm-none-eabi/20180627/bin/../lib/gcc/arm-none-eabi/7.3.1/../../../../arm-none-eabi/lib/thumb/v7e-m/fpv4-sp/hard/libg.a(lib_a-memcpy.o)
 .text          0x0000000000000000        0x0 /usr/local/Cellar/gcc-arm-none-eabi/20180627/bin/../lib/gcc/arm-none-eabi/7.3.1/../../../../arm-none-eabi/lib/thumb/v7e-m/fpv4-sp/hard/libg.a(lib_a-memset.o)
 .data          0x0000000000000000        0x0 /usr/local/Cellar/gcc-arm-none-eabi/20180627/bin/../lib/gcc/arm-none-eabi/7.3.1/../../../../arm-none-eabi/lib/thumb/v7e-m/fpv4-sp/hard/libg.a(lib_a-memset.o)
 .bss           0x0000000000000000        0x0 /usr/local/Cellar/gcc-arm-none-eabi/20180627/bin/../lib/gcc/arm-none-eabi/7.3.1/../../../../arm-none-eabi/lib/thumb/v7e-m/fpv4-sp/hard/libg.a(lib_a-memset.o)
 .text          0x0000000000000000        0x0 /usr/local/Cellar/gcc-arm-none-eabi/20180627/bin/../lib/gcc/arm-none-eabi/7.3.1/../../../../arm-none-eabi/lib/thumb/v7e-m/fpv4-sp/hard/libg.a(lib_a-rand.o)
 .data          0x0000000000000000        0x0 /usr/local/Cellar/gcc-arm-none-eabi/20180627/bin/../lib/gcc/arm-none-eabi/7.3.1/../../../../arm-none-eabi/lib/thumb/v7e-m/fpv4-sp/hard/libg.a(lib_a-rand.o)
 .bss           0x0000000000000000        0x0 /usr/local/Cellar/gcc-arm-none-eabi/20180627/bin/../lib/gcc/arm-none-eabi/7.3.1/../../../../arm-none-eabi/lib/thumb/v7e-m/fpv4-sp/hard/libg.a(lib_a-rand.o)
 .text.srand    0x0000000000000000       0x10 /usr/local/Cellar/gcc-arm-none-eabi/20180627/bin/../lib/gcc/arm-none-eabi/7.3.1/../../../../arm-none-eabi/lib/thumb/v7e-m/fpv4-sp/hard/libg.a(lib_a-rand.o)
 .text          0x0000000000000000        0x0 /usr/local/Cellar/gcc-arm-none-eabi/20180627/bin/../lib/gcc/arm-none-eabi/7.3.1/../../../../arm-none-eabi/lib/thumb/v7e-m/fpv4-sp/hard/libg.a(lib_a-__call_atexit.o)
 .data          0x0000000000000000        0x0 /usr/local/Cellar/gcc-arm-none-eabi/20180627/bin/../lib/gcc/arm-none-eabi/7.3.1/../../../../arm-none-eabi/lib/thumb/v7e-m/fpv4-sp/hard/libg.a(lib_a-__call_atexit.o)
 .bss           0x0000000000000000        0x0 /usr/local/Cellar/gcc-arm-none-eabi/20180627/bin/../lib/gcc/arm-none-eabi/7.3.1/../../../../arm-none-eabi/lib/thumb/v7e-m/fpv4-sp/hard/libg.a(lib_a-__call_atexit.o)
 .text.__call_exitprocs
                0x0000000000000000       0xe8 /usr/local/Cellar/gcc-arm-none-eabi/20180627/bin/../lib/gcc/arm-none-eabi/7.3.1/../../../../arm-none-eabi/lib/thumb/v7e-m/fpv4-sp/hard/libg.a(lib_a-__call_atexit.o)
 .text          0x0000000000000000        0x0 /usr/local/Cellar/gcc-arm-none-eabi/20180627/bin/../lib/gcc/arm-none-eabi/7.3.1/../../../../arm-none-eabi/lib/thumb/v7e-m/fpv4-sp/hard/libg.a(lib_a-atexit.o)
 .data          0x0000000000000000        0x0 /usr/local/Cellar/gcc-arm-none-eabi/20180627/bin/../lib/gcc/arm-none-eabi/7.3.1/../../../../arm-none-eabi/lib/thumb/v7e-m/fpv4-sp/hard/libg.a(lib_a-atexit.o)
 .bss           0x0000000000000000        0x0 /usr/local/Cellar/gcc-arm-none-eabi/20180627/bin/../lib/gcc/arm-none-eabi/7.3.1/../../../../arm-none-eabi/lib/thumb/v7e-m/fpv4-sp/hard/libg.a(lib_a-atexit.o)
 .text          0x0000000000000000        0x0 /usr/local/Cellar/gcc-arm-none-eabi/20180627/bin/../lib/gcc/arm-none-eabi/7.3.1/../../../../arm-none-eabi/lib/thumb/v7e-m/fpv4-sp/hard/libg.a(lib_a-fini.o)
 .data          0x0000000000000000        0x0 /usr/local/Cellar/gcc-arm-none-eabi/20180627/bin/../lib/gcc/arm-none-eabi/7.3.1/../../../../arm-none-eabi/lib/thumb/v7e-m/fpv4-sp/hard/libg.a(lib_a-fini.o)
 .bss           0x0000000000000000        0x0 /usr/local/Cellar/gcc-arm-none-eabi/20180627/bin/../lib/gcc/arm-none-eabi/7.3.1/../../../../arm-none-eabi/lib/thumb/v7e-m/fpv4-sp/hard/libg.a(lib_a-fini.o)
 .text          0x0000000000000000        0x0 /usr/local/Cellar/gcc-arm-none-eabi/20180627/bin/../lib/gcc/arm-none-eabi/7.3.1/../../../../arm-none-eabi/lib/thumb/v7e-m/fpv4-sp/hard/libg.a(lib_a-lock.o)
 .data          0x0000000000000000        0x0 /usr/local/Cellar/gcc-arm-none-eabi/20180627/bin/../lib/gcc/arm-none-eabi/7.3.1/../../../../arm-none-eabi/lib/thumb/v7e-m/fpv4-sp/hard/libg.a(lib_a-lock.o)
 .bss           0x0000000000000000        0x0 /usr/local/Cellar/gcc-arm-none-eabi/20180627/bin/../lib/gcc/arm-none-eabi/7.3.1/../../../../arm-none-eabi/lib/thumb/v7e-m/fpv4-sp/hard/libg.a(lib_a-lock.o)
 .text.__retarget_lock_init
                0x0000000000000000        0x4 /usr/local/Cellar/gcc-arm-none-eabi/20180627/bin/../lib/gcc/arm-none-eabi/7.3.1/../../../../arm-none-eabi/lib/thumb/v7e-m/fpv4-sp/hard/libg.a(lib_a-lock.o)
 .text.__retarget_lock_init_recursive
                0x0000000000000000        0x4 /usr/local/Cellar/gcc-arm-none-eabi/20180627/bin/../lib/gcc/arm-none-eabi/7.3.1/../../../../arm-none-eabi/lib/thumb/v7e-m/fpv4-sp/hard/libg.a(lib_a-lock.o)
 .text.__retarget_lock_close
                0x0000000000000000        0x4 /usr/local/Cellar/gcc-arm-none-eabi/20180627/bin/../lib/gcc/arm-none-eabi/7.3.1/../../../../arm-none-eabi/lib/thumb/v7e-m/fpv4-sp/hard/libg.a(lib_a-lock.o)
 .text.__retarget_lock_close_recursive
                0x0000000000000000        0x4 /usr/local/Cellar/gcc-arm-none-eabi/20180627/bin/../lib/gcc/arm-none-eabi/7.3.1/../../../../arm-none-eabi/lib/thumb/v7e-m/fpv4-sp/hard/libg.a(lib_a-lock.o)
 .text.__retarget_lock_acquire
                0x0000000000000000        0x4 /usr/local/Cellar/gcc-arm-none-eabi/20180627/bin/../lib/gcc/arm-none-eabi/7.3.1/../../../../arm-none-eabi/lib/thumb/v7e-m/fpv4-sp/hard/libg.a(lib_a-lock.o)
 .text.__retarget_lock_try_acquire
                0x0000000000000000        0x4 /usr/local/Cellar/gcc-arm-none-eabi/20180627/bin/../lib/gcc/arm-none-eabi/7.3.1/../../../../arm-none-eabi/lib/thumb/v7e-m/fpv4-sp/hard/libg.a(lib_a-lock.o)
 .text.__retarget_lock_try_acquire_recursive
                0x0000000000000000        0x4 /usr/local/Cellar/gcc-arm-none-eabi/20180627/bin/../lib/gcc/arm-none-eabi/7.3.1/../../../../arm-none-eabi/lib/thumb/v7e-m/fpv4-sp/hard/libg.a(lib_a-lock.o)
 .text.__retarget_lock_release
                0x0000000000000000        0x4 /usr/local/Cellar/gcc-arm-none-eabi/20180627/bin/../lib/gcc/arm-none-eabi/7.3.1/../../../../arm-none-eabi/lib/thumb/v7e-m/fpv4-sp/hard/libg.a(lib_a-lock.o)
 .text          0x0000000000000000        0x0 /usr/local/Cellar/gcc-arm-none-eabi/20180627/bin/../lib/gcc/arm-none-eabi/7.3.1/../../../../arm-none-eabi/lib/thumb/v7e-m/fpv4-sp/hard/libg.a(lib_a-__atexit.o)
 .data          0x0000000000000000        0x0 /usr/local/Cellar/gcc-arm-none-eabi/20180627/bin/../lib/gcc/arm-none-eabi/7.3.1/../../../../arm-none-eabi/lib/thumb/v7e-m/fpv4-sp/hard/libg.a(lib_a-__atexit.o)
 .bss           0x0000000000000000        0x0 /usr/local/Cellar/gcc-arm-none-eabi/20180627/bin/../lib/gcc/arm-none-eabi/7.3.1/../../../../arm-none-eabi/lib/thumb/v7e-m/fpv4-sp/hard/libg.a(lib_a-__atexit.o)
 .text          0x0000000000000000        0x0 /usr/local/Cellar/gcc-arm-none-eabi/20180627/bin/../lib/gcc/arm-none-eabi/7.3.1/../../../../arm-none-eabi/lib/thumb/v7e-m/fpv4-sp/hard/librdimon.a(rdimon-syscalls.o)
 .data          0x0000000000000000        0x0 /usr/local/Cellar/gcc-arm-none-eabi/20180627/bin/../lib/gcc/arm-none-eabi/7.3.1/../../../../arm-none-eabi/lib/thumb/v7e-m/fpv4-sp/hard/librdimon.a(rdimon-syscalls.o)
 .bss           0x0000000000000000        0x0 /usr/local/Cellar/gcc-arm-none-eabi/20180627/bin/../lib/gcc/arm-none-eabi/7.3.1/../../../../arm-none-eabi/lib/thumb/v7e-m/fpv4-sp/hard/librdimon.a(rdimon-syscalls.o)
 .text.findslot
                0x0000000000000000       0x38 /usr/local/Cellar/gcc-arm-none-eabi/20180627/bin/../lib/gcc/arm-none-eabi/7.3.1/../../../../arm-none-eabi/lib/thumb/v7e-m/fpv4-sp/hard/librdimon.a(rdimon-syscalls.o)
 .text.checkerror.part.0
                0x0000000000000000       0x1c /usr/local/Cellar/gcc-arm-none-eabi/20180627/bin/../lib/gcc/arm-none-eabi/7.3.1/../../../../arm-none-eabi/lib/thumb/v7e-m/fpv4-sp/hard/librdimon.a(rdimon-syscalls.o)
 .text._swiread
                0x0000000000000000       0x28 /usr/local/Cellar/gcc-arm-none-eabi/20180627/bin/../lib/gcc/arm-none-eabi/7.3.1/../../../../arm-none-eabi/lib/thumb/v7e-m/fpv4-sp/hard/librdimon.a(rdimon-syscalls.o)
 .text._read    0x0000000000000000       0x50 /usr/local/Cellar/gcc-arm-none-eabi/20180627/bin/../lib/gcc/arm-none-eabi/7.3.1/../../../../arm-none-eabi/lib/thumb/v7e-m/fpv4-sp/hard/librdimon.a(rdimon-syscalls.o)
 .text._swilseek
                0x0000000000000000       0x9c /usr/local/Cellar/gcc-arm-none-eabi/20180627/bin/../lib/gcc/arm-none-eabi/7.3.1/../../../../arm-none-eabi/lib/thumb/v7e-m/fpv4-sp/hard/librdimon.a(rdimon-syscalls.o)
 .text._lseek   0x0000000000000000        0x4 /usr/local/Cellar/gcc-arm-none-eabi/20180627/bin/../lib/gcc/arm-none-eabi/7.3.1/../../../../arm-none-eabi/lib/thumb/v7e-m/fpv4-sp/hard/librdimon.a(rdimon-syscalls.o)
 .text._swiwrite
                0x0000000000000000       0x28 /usr/local/Cellar/gcc-arm-none-eabi/20180627/bin/../lib/gcc/arm-none-eabi/7.3.1/../../../../arm-none-eabi/lib/thumb/v7e-m/fpv4-sp/hard/librdimon.a(rdimon-syscalls.o)
 .text._write   0x0000000000000000       0x74 /usr/local/Cellar/gcc-arm-none-eabi/20180627/bin/../lib/gcc/arm-none-eabi/7.3.1/../../../../arm-none-eabi/lib/thumb/v7e-m/fpv4-sp/hard/librdimon.a(rdimon-syscalls.o)
 .text._swiclose
                0x0000000000000000       0x28 /usr/local/Cellar/gcc-arm-none-eabi/20180627/bin/../lib/gcc/arm-none-eabi/7.3.1/../../../../arm-none-eabi/lib/thumb/v7e-m/fpv4-sp/hard/librdimon.a(rdimon-syscalls.o)
 .text._close   0x0000000000000000       0x6c /usr/local/Cellar/gcc-arm-none-eabi/20180627/bin/../lib/gcc/arm-none-eabi/7.3.1/../../../../arm-none-eabi/lib/thumb/v7e-m/fpv4-sp/hard/librdimon.a(rdimon-syscalls.o)
 .text._getpid  0x0000000000000000        0x4 /usr/local/Cellar/gcc-arm-none-eabi/20180627/bin/../lib/gcc/arm-none-eabi/7.3.1/../../../../arm-none-eabi/lib/thumb/v7e-m/fpv4-sp/hard/librdimon.a(rdimon-syscalls.o)
 .text._sbrk    0x0000000000000000       0x4c /usr/local/Cellar/gcc-arm-none-eabi/20180627/bin/../lib/gcc/arm-none-eabi/7.3.1/../../../../arm-none-eabi/lib/thumb/v7e-m/fpv4-sp/hard/librdimon.a(rdimon-syscalls.o)
 .text._swistat
                0x0000000000000000       0x48 /usr/local/Cellar/gcc-arm-none-eabi/20180627/bin/../lib/gcc/arm-none-eabi/7.3.1/../../../../arm-none-eabi/lib/thumb/v7e-m/fpv4-sp/hard/librdimon.a(rdimon-syscalls.o)
 .text._fstat   0x0000000000000000       0x1c /usr/local/Cellar/gcc-arm-none-eabi/20180627/bin/../lib/gcc/arm-none-eabi/7.3.1/../../../../arm-none-eabi/lib/thumb/v7e-m/fpv4-sp/hard/librdimon.a(rdimon-syscalls.o)
 .text._stat    0x0000000000000000       0x3c /usr/local/Cellar/gcc-arm-none-eabi/20180627/bin/../lib/gcc/arm-none-eabi/7.3.1/../../../../arm-none-eabi/lib/thumb/v7e-m/fpv4-sp/hard/librdimon.a(rdimon-syscalls.o)
 .text._swiopen
                0x0000000000000000       0xd8 /usr/local/Cellar/gcc-arm-none-eabi/20180627/bin/../lib/gcc/arm-none-eabi/7.3.1/../../../../arm-none-eabi/lib/thumb/v7e-m/fpv4-sp/hard/librdimon.a(rdimon-syscalls.o)
 .text._open    0x0000000000000000       0x14 /usr/local/Cellar/gcc-arm-none-eabi/20180627/bin/../lib/gcc/arm-none-eabi/7.3.1/../../../../arm-none-eabi/lib/thumb/v7e-m/fpv4-sp/hard/librdimon.a(rdimon-syscalls.o)
 .text._get_semihosting_exts
                0x0000000000000000       0xd0 /usr/local/Cellar/gcc-arm-none-eabi/20180627/bin/../lib/gcc/arm-none-eabi/7.3.1/../../../../arm-none-eabi/lib/thumb/v7e-m/fpv4-sp/hard/librdimon.a(rdimon-syscalls.o)
 .text.initialise_semihosting_exts
                0x0000000000000000       0x3c /usr/local/Cellar/gcc-arm-none-eabi/20180627/bin/../lib/gcc/arm-none-eabi/7.3.1/../../../../arm-none-eabi/lib/thumb/v7e-m/fpv4-sp/hard/librdimon.a(rdimon-syscalls.o)
 .text._has_ext_exit_extended
                0x0000000000000000       0x18 /usr/local/Cellar/gcc-arm-none-eabi/20180627/bin/../lib/gcc/arm-none-eabi/7.3.1/../../../../arm-none-eabi/lib/thumb/v7e-m/fpv4-sp/hard/librdimon.a(rdimon-syscalls.o)
 .text._has_ext_stdout_stderr
                0x0000000000000000       0x18 /usr/local/Cellar/gcc-arm-none-eabi/20180627/bin/../lib/gcc/arm-none-eabi/7.3.1/../../../../arm-none-eabi/lib/thumb/v7e-m/fpv4-sp/hard/librdimon.a(rdimon-syscalls.o)
 .text.initialise_monitor_handles
                0x0000000000000000       0xfc /usr/local/Cellar/gcc-arm-none-eabi/20180627/bin/../lib/gcc/arm-none-eabi/7.3.1/../../../../arm-none-eabi/lib/thumb/v7e-m/fpv4-sp/hard/librdimon.a(rdimon-syscalls.o)
 .text._link    0x0000000000000000       0x10 /usr/local/Cellar/gcc-arm-none-eabi/20180627/bin/../lib/gcc/arm-none-eabi/7.3.1/../../../../arm-none-eabi/lib/thumb/v7e-m/fpv4-sp/hard/librdimon.a(rdimon-syscalls.o)
 .text._unlink  0x0000000000000000       0x3c /usr/local/Cellar/gcc-arm-none-eabi/20180627/bin/../lib/gcc/arm-none-eabi/7.3.1/../../../../arm-none-eabi/lib/thumb/v7e-m/fpv4-sp/hard/librdimon.a(rdimon-syscalls.o)
 .text._gettimeofday
                0x0000000000000000       0x2c /usr/local/Cellar/gcc-arm-none-eabi/20180627/bin/../lib/gcc/arm-none-eabi/7.3.1/../../../../arm-none-eabi/lib/thumb/v7e-m/fpv4-sp/hard/librdimon.a(rdimon-syscalls.o)
 .text._clock   0x0000000000000000       0x14 /usr/local/Cellar/gcc-arm-none-eabi/20180627/bin/../lib/gcc/arm-none-eabi/7.3.1/../../../../arm-none-eabi/lib/thumb/v7e-m/fpv4-sp/hard/librdimon.a(rdimon-syscalls.o)
 .text._times   0x0000000000000000       0x20 /usr/local/Cellar/gcc-arm-none-eabi/20180627/bin/../lib/gcc/arm-none-eabi/7.3.1/../../../../arm-none-eabi/lib/thumb/v7e-m/fpv4-sp/hard/librdimon.a(rdimon-syscalls.o)
 .text._isatty  0x0000000000000000       0x3c /usr/local/Cellar/gcc-arm-none-eabi/20180627/bin/../lib/gcc/arm-none-eabi/7.3.1/../../../../arm-none-eabi/lib/thumb/v7e-m/fpv4-sp/hard/librdimon.a(rdimon-syscalls.o)
 .text._system  0x0000000000000000       0x44 /usr/local/Cellar/gcc-arm-none-eabi/20180627/bin/../lib/gcc/arm-none-eabi/7.3.1/../../../../arm-none-eabi/lib/thumb/v7e-m/fpv4-sp/hard/librdimon.a(rdimon-syscalls.o)
 .text._rename  0x0000000000000000       0x3c /usr/local/Cellar/gcc-arm-none-eabi/20180627/bin/../lib/gcc/arm-none-eabi/7.3.1/../../../../arm-none-eabi/lib/thumb/v7e-m/fpv4-sp/hard/librdimon.a(rdimon-syscalls.o)
 .bss.heap_end.7535
                0x0000000000000000        0x4 /usr/local/Cellar/gcc-arm-none-eabi/20180627/bin/../lib/gcc/arm-none-eabi/7.3.1/../../../../arm-none-eabi/lib/thumb/v7e-m/fpv4-sp/hard/librdimon.a(rdimon-syscalls.o)
 .bss.monitor_stderr
                0x0000000000000000        0x4 /usr/local/Cellar/gcc-arm-none-eabi/20180627/bin/../lib/gcc/arm-none-eabi/7.3.1/../../../../arm-none-eabi/lib/thumb/v7e-m/fpv4-sp/hard/librdimon.a(rdimon-syscalls.o)
 .bss.monitor_stdin
                0x0000000000000000        0x4 /usr/local/Cellar/gcc-arm-none-eabi/20180627/bin/../lib/gcc/arm-none-eabi/7.3.1/../../../../arm-none-eabi/lib/thumb/v7e-m/fpv4-sp/hard/librdimon.a(rdimon-syscalls.o)
 .bss.monitor_stdout
                0x0000000000000000        0x4 /usr/local/Cellar/gcc-arm-none-eabi/20180627/bin/../lib/gcc/arm-none-eabi/7.3.1/../../../../arm-none-eabi/lib/thumb/v7e-m/fpv4-sp/hard/librdimon.a(rdimon-syscalls.o)
 .bss.openfiles
                0x0000000000000000       0xa0 /usr/local/Cellar/gcc-arm-none-eabi/20180627/bin/../lib/gcc/arm-none-eabi/7.3.1/../../../../arm-none-eabi/lib/thumb/v7e-m/fpv4-sp/hard/librdimon.a(rdimon-syscalls.o)
 .data.__heap_limit
                0x0000000000000000        0x4 /usr/local/Cellar/gcc-arm-none-eabi/20180627/bin/../lib/gcc/arm-none-eabi/7.3.1/../../../../arm-none-eabi/lib/thumb/v7e-m/fpv4-sp/hard/librdimon.a(rdimon-syscalls.o)
 .data.supports_ext_exit_extended
                0x0000000000000000        0x4 /usr/local/Cellar/gcc-arm-none-eabi/20180627/bin/../lib/gcc/arm-none-eabi/7.3.1/../../../../arm-none-eabi/lib/thumb/v7e-m/fpv4-sp/hard/librdimon.a(rdimon-syscalls.o)
 .data.supports_ext_stdout_stderr
                0x0000000000000000        0x4 /usr/local/Cellar/gcc-arm-none-eabi/20180627/bin/../lib/gcc/arm-none-eabi/7.3.1/../../../../arm-none-eabi/lib/thumb/v7e-m/fpv4-sp/hard/librdimon.a(rdimon-syscalls.o)
 .rodata._get_semihosting_exts.str1.4
                0x0000000000000000       0x16 /usr/local/Cellar/gcc-arm-none-eabi/20180627/bin/../lib/gcc/arm-none-eabi/7.3.1/../../../../arm-none-eabi/lib/thumb/v7e-m/fpv4-sp/hard/librdimon.a(rdimon-syscalls.o)
 .rodata.initialise_monitor_handles.str1.4
                0x0000000000000000        0x4 /usr/local/Cellar/gcc-arm-none-eabi/20180627/bin/../lib/gcc/arm-none-eabi/7.3.1/../../../../arm-none-eabi/lib/thumb/v7e-m/fpv4-sp/hard/librdimon.a(rdimon-syscalls.o)
 .debug_frame   0x0000000000000000      0x418 /usr/local/Cellar/gcc-arm-none-eabi/20180627/bin/../lib/gcc/arm-none-eabi/7.3.1/../../../../arm-none-eabi/lib/thumb/v7e-m/fpv4-sp/hard/librdimon.a(rdimon-syscalls.o)
 .ARM.attributes
                0x0000000000000000       0x34 /usr/local/Cellar/gcc-arm-none-eabi/20180627/bin/../lib/gcc/arm-none-eabi/7.3.1/../../../../arm-none-eabi/lib/thumb/v7e-m/fpv4-sp/hard/librdimon.a(rdimon-syscalls.o)
 .text          0x0000000000000000        0x0 /usr/local/Cellar/gcc-arm-none-eabi/20180627/bin/../lib/gcc/arm-none-eabi/7.3.1/../../../../arm-none-eabi/lib/thumb/v7e-m/fpv4-sp/hard/librdimon.a(rdimon-_exit.o)
 .data          0x0000000000000000        0x0 /usr/local/Cellar/gcc-arm-none-eabi/20180627/bin/../lib/gcc/arm-none-eabi/7.3.1/../../../../arm-none-eabi/lib/thumb/v7e-m/fpv4-sp/hard/librdimon.a(rdimon-_exit.o)
 .bss           0x0000000000000000        0x0 /usr/local/Cellar/gcc-arm-none-eabi/20180627/bin/../lib/gcc/arm-none-eabi/7.3.1/../../../../arm-none-eabi/lib/thumb/v7e-m/fpv4-sp/hard/librdimon.a(rdimon-_exit.o)
 .text._exit    0x0000000000000000        0x8 /usr/local/Cellar/gcc-arm-none-eabi/20180627/bin/../lib/gcc/arm-none-eabi/7.3.1/../../../../arm-none-eabi/lib/thumb/v7e-m/fpv4-sp/hard/librdimon.a(rdimon-_exit.o)
 .debug_frame   0x0000000000000000       0x20 /usr/local/Cellar/gcc-arm-none-eabi/20180627/bin/../lib/gcc/arm-none-eabi/7.3.1/../../../../arm-none-eabi/lib/thumb/v7e-m/fpv4-sp/hard/librdimon.a(rdimon-_exit.o)
 .ARM.attributes
                0x0000000000000000       0x34 /usr/local/Cellar/gcc-arm-none-eabi/20180627/bin/../lib/gcc/arm-none-eabi/7.3.1/../../../../arm-none-eabi/lib/thumb/v7e-m/fpv4-sp/hard/librdimon.a(rdimon-_exit.o)
 .text          0x0000000000000000        0x0 /usr/local/Cellar/gcc-arm-none-eabi/20180627/bin/../lib/gcc/arm-none-eabi/7.3.1/../../../../arm-none-eabi/lib/thumb/v7e-m/fpv4-sp/hard/librdimon.a(rdimon-_kill.o)
 .data          0x0000000000000000        0x0 /usr/local/Cellar/gcc-arm-none-eabi/20180627/bin/../lib/gcc/arm-none-eabi/7.3.1/../../../../arm-none-eabi/lib/thumb/v7e-m/fpv4-sp/hard/librdimon.a(rdimon-_kill.o)
 .bss           0x0000000000000000        0x0 /usr/local/Cellar/gcc-arm-none-eabi/20180627/bin/../lib/gcc/arm-none-eabi/7.3.1/../../../../arm-none-eabi/lib/thumb/v7e-m/fpv4-sp/hard/librdimon.a(rdimon-_kill.o)
 .text._kill    0x0000000000000000       0x38 /usr/local/Cellar/gcc-arm-none-eabi/20180627/bin/../lib/gcc/arm-none-eabi/7.3.1/../../../../arm-none-eabi/lib/thumb/v7e-m/fpv4-sp/hard/librdimon.a(rdimon-_kill.o)
 .debug_frame   0x0000000000000000       0x30 /usr/local/Cellar/gcc-arm-none-eabi/20180627/bin/../lib/gcc/arm-none-eabi/7.3.1/../../../../arm-none-eabi/lib/thumb/v7e-m/fpv4-sp/hard/librdimon.a(rdimon-_kill.o)
 .ARM.attributes
                0x0000000000000000       0x34 /usr/local/Cellar/gcc-arm-none-eabi/20180627/bin/../lib/gcc/arm-none-eabi/7.3.1/../../../../arm-none-eabi/lib/thumb/v7e-m/fpv4-sp/hard/librdimon.a(rdimon-_kill.o)
 .text          0x0000000000000000        0x0 /usr/local/Cellar/gcc-arm-none-eabi/20180627/bin/../lib/gcc/arm-none-eabi/7.3.1/../../../../arm-none-eabi/lib/thumb/v7e-m/fpv4-sp/hard/libc.a(lib_a-errno.o)
 .data          0x0000000000000000        0x0 /usr/local/Cellar/gcc-arm-none-eabi/20180627/bin/../lib/gcc/arm-none-eabi/7.3.1/../../../../arm-none-eabi/lib/thumb/v7e-m/fpv4-sp/hard/libc.a(lib_a-errno.o)
 .bss           0x0000000000000000        0x0 /usr/local/Cellar/gcc-arm-none-eabi/20180627/bin/../lib/gcc/arm-none-eabi/7.3.1/../../../../arm-none-eabi/lib/thumb/v7e-m/fpv4-sp/hard/libc.a(lib_a-errno.o)
 .text.__errno  0x0000000000000000        0xc /usr/local/Cellar/gcc-arm-none-eabi/20180627/bin/../lib/gcc/arm-none-eabi/7.3.1/../../../../arm-none-eabi/lib/thumb/v7e-m/fpv4-sp/hard/libc.a(lib_a-errno.o)
 .debug_frame   0x0000000000000000       0x20 /usr/local/Cellar/gcc-arm-none-eabi/20180627/bin/../lib/gcc/arm-none-eabi/7.3.1/../../../../arm-none-eabi/lib/thumb/v7e-m/fpv4-sp/hard/libc.a(lib_a-errno.o)
 .ARM.attributes
                0x0000000000000000       0x34 /usr/local/Cellar/gcc-arm-none-eabi/20180627/bin/../lib/gcc/arm-none-eabi/7.3.1/../../../../arm-none-eabi/lib/thumb/v7e-m/fpv4-sp/hard/libc.a(lib_a-errno.o)
 .text          0x0000000000000000        0x0 /usr/local/Cellar/gcc-arm-none-eabi/20180627/bin/../lib/gcc/arm-none-eabi/7.3.1/../../../../arm-none-eabi/lib/thumb/v7e-m/fpv4-sp/hard/libc.a(lib_a-findfp.o)
 .data          0x0000000000000000        0x0 /usr/local/Cellar/gcc-arm-none-eabi/20180627/bin/../lib/gcc/arm-none-eabi/7.3.1/../../../../arm-none-eabi/lib/thumb/v7e-m/fpv4-sp/hard/libc.a(lib_a-findfp.o)
 .bss           0x0000000000000000        0x0 /usr/local/Cellar/gcc-arm-none-eabi/20180627/bin/../lib/gcc/arm-none-eabi/7.3.1/../../../../arm-none-eabi/lib/thumb/v7e-m/fpv4-sp/hard/libc.a(lib_a-findfp.o)
 .text.std      0x0000000000000000       0x50 /usr/local/Cellar/gcc-arm-none-eabi/20180627/bin/../lib/gcc/arm-none-eabi/7.3.1/../../../../arm-none-eabi/lib/thumb/v7e-m/fpv4-sp/hard/libc.a(lib_a-findfp.o)
 .text._cleanup_r
                0x0000000000000000        0xc /usr/local/Cellar/gcc-arm-none-eabi/20180627/bin/../lib/gcc/arm-none-eabi/7.3.1/../../../../arm-none-eabi/lib/thumb/v7e-m/fpv4-sp/hard/libc.a(lib_a-findfp.o)
 .text.__fp_lock
                0x0000000000000000       0x1c /usr/local/Cellar/gcc-arm-none-eabi/20180627/bin/../lib/gcc/arm-none-eabi/7.3.1/../../../../arm-none-eabi/lib/thumb/v7e-m/fpv4-sp/hard/libc.a(lib_a-findfp.o)
 .text.__fp_unlock
                0x0000000000000000       0x1c /usr/local/Cellar/gcc-arm-none-eabi/20180627/bin/../lib/gcc/arm-none-eabi/7.3.1/../../../../arm-none-eabi/lib/thumb/v7e-m/fpv4-sp/hard/libc.a(lib_a-findfp.o)
 .text.__sfmoreglue
                0x0000000000000000       0x30 /usr/local/Cellar/gcc-arm-none-eabi/20180627/bin/../lib/gcc/arm-none-eabi/7.3.1/../../../../arm-none-eabi/lib/thumb/v7e-m/fpv4-sp/hard/libc.a(lib_a-findfp.o)
 .text._cleanup
                0x0000000000000000       0x14 /usr/local/Cellar/gcc-arm-none-eabi/20180627/bin/../lib/gcc/arm-none-eabi/7.3.1/../../../../arm-none-eabi/lib/thumb/v7e-m/fpv4-sp/hard/libc.a(lib_a-findfp.o)
 .text.__sinit  0x0000000000000000       0x58 /usr/local/Cellar/gcc-arm-none-eabi/20180627/bin/../lib/gcc/arm-none-eabi/7.3.1/../../../../arm-none-eabi/lib/thumb/v7e-m/fpv4-sp/hard/libc.a(lib_a-findfp.o)
 .text.__sfp    0x0000000000000000       0xa4 /usr/local/Cellar/gcc-arm-none-eabi/20180627/bin/../lib/gcc/arm-none-eabi/7.3.1/../../../../arm-none-eabi/lib/thumb/v7e-m/fpv4-sp/hard/libc.a(lib_a-findfp.o)
 .text.__sfp_lock_acquire
                0x0000000000000000        0xc /usr/local/Cellar/gcc-arm-none-eabi/20180627/bin/../lib/gcc/arm-none-eabi/7.3.1/../../../../arm-none-eabi/lib/thumb/v7e-m/fpv4-sp/hard/libc.a(lib_a-findfp.o)
 .text.__sfp_lock_release
                0x0000000000000000        0xc /usr/local/Cellar/gcc-arm-none-eabi/20180627/bin/../lib/gcc/arm-none-eabi/7.3.1/../../../../arm-none-eabi/lib/thumb/v7e-m/fpv4-sp/hard/libc.a(lib_a-findfp.o)
 .text.__sinit_lock_acquire
                0x0000000000000000        0xc /usr/local/Cellar/gcc-arm-none-eabi/20180627/bin/../lib/gcc/arm-none-eabi/7.3.1/../../../../arm-none-eabi/lib/thumb/v7e-m/fpv4-sp/hard/libc.a(lib_a-findfp.o)
 .text.__sinit_lock_release
                0x0000000000000000        0xc /usr/local/Cellar/gcc-arm-none-eabi/20180627/bin/../lib/gcc/arm-none-eabi/7.3.1/../../../../arm-none-eabi/lib/thumb/v7e-m/fpv4-sp/hard/libc.a(lib_a-findfp.o)
 .text.__fp_lock_all
                0x0000000000000000       0x24 /usr/local/Cellar/gcc-arm-none-eabi/20180627/bin/../lib/gcc/arm-none-eabi/7.3.1/../../../../arm-none-eabi/lib/thumb/v7e-m/fpv4-sp/hard/libc.a(lib_a-findfp.o)
 .text.__fp_unlock_all
                0x0000000000000000       0x24 /usr/local/Cellar/gcc-arm-none-eabi/20180627/bin/../lib/gcc/arm-none-eabi/7.3.1/../../../../arm-none-eabi/lib/thumb/v7e-m/fpv4-sp/hard/libc.a(lib_a-findfp.o)
 .debug_frame   0x0000000000000000      0x148 /usr/local/Cellar/gcc-arm-none-eabi/20180627/bin/../lib/gcc/arm-none-eabi/7.3.1/../../../../arm-none-eabi/lib/thumb/v7e-m/fpv4-sp/hard/libc.a(lib_a-findfp.o)
 .ARM.attributes
                0x0000000000000000       0x34 /usr/local/Cellar/gcc-arm-none-eabi/20180627/bin/../lib/gcc/arm-none-eabi/7.3.1/../../../../arm-none-eabi/lib/thumb/v7e-m/fpv4-sp/hard/libc.a(lib_a-findfp.o)
 .text          0x0000000000000000        0x0 /usr/local/Cellar/gcc-arm-none-eabi/20180627/bin/../lib/gcc/arm-none-eabi/7.3.1/../../../../arm-none-eabi/lib/thumb/v7e-m/fpv4-sp/hard/libc.a(lib_a-fwalk.o)
 .data          0x0000000000000000        0x0 /usr/local/Cellar/gcc-arm-none-eabi/20180627/bin/../lib/gcc/arm-none-eabi/7.3.1/../../../../arm-none-eabi/lib/thumb/v7e-m/fpv4-sp/hard/libc.a(lib_a-fwalk.o)
 .bss           0x0000000000000000        0x0 /usr/local/Cellar/gcc-arm-none-eabi/20180627/bin/../lib/gcc/arm-none-eabi/7.3.1/../../../../arm-none-eabi/lib/thumb/v7e-m/fpv4-sp/hard/libc.a(lib_a-fwalk.o)
 .text._fwalk   0x0000000000000000       0x4c /usr/local/Cellar/gcc-arm-none-eabi/20180627/bin/../lib/gcc/arm-none-eabi/7.3.1/../../../../arm-none-eabi/lib/thumb/v7e-m/fpv4-sp/hard/libc.a(lib_a-fwalk.o)
 .text._fwalk_reent
                0x0000000000000000       0x54 /usr/local/Cellar/gcc-arm-none-eabi/20180627/bin/../lib/gcc/arm-none-eabi/7.3.1/../../../../arm-none-eabi/lib/thumb/v7e-m/fpv4-sp/hard/libc.a(lib_a-fwalk.o)
 .debug_frame   0x0000000000000000       0x54 /usr/local/Cellar/gcc-arm-none-eabi/20180627/bin/../lib/gcc/arm-none-eabi/7.3.1/../../../../arm-none-eabi/lib/thumb/v7e-m/fpv4-sp/hard/libc.a(lib_a-fwalk.o)
 .ARM.attributes
                0x0000000000000000       0x34 /usr/local/Cellar/gcc-arm-none-eabi/20180627/bin/../lib/gcc/arm-none-eabi/7.3.1/../../../../arm-none-eabi/lib/thumb/v7e-m/fpv4-sp/hard/libc.a(lib_a-fwalk.o)
 .text          0x0000000000000000        0x0 /usr/local/Cellar/gcc-arm-none-eabi/20180627/bin/../lib/gcc/arm-none-eabi/7.3.1/../../../../arm-none-eabi/lib/thumb/v7e-m/fpv4-sp/hard/libc.a(lib_a-mallocr.o)
 .data          0x0000000000000000        0x0 /usr/local/Cellar/gcc-arm-none-eabi/20180627/bin/../lib/gcc/arm-none-eabi/7.3.1/../../../../arm-none-eabi/lib/thumb/v7e-m/fpv4-sp/hard/libc.a(lib_a-mallocr.o)
 .bss           0x0000000000000000        0x0 /usr/local/Cellar/gcc-arm-none-eabi/20180627/bin/../lib/gcc/arm-none-eabi/7.3.1/../../../../arm-none-eabi/lib/thumb/v7e-m/fpv4-sp/hard/libc.a(lib_a-mallocr.o)
 .text._malloc_r
                0x0000000000000000      0x548 /usr/local/Cellar/gcc-arm-none-eabi/20180627/bin/../lib/gcc/arm-none-eabi/7.3.1/../../../../arm-none-eabi/lib/thumb/v7e-m/fpv4-sp/hard/libc.a(lib_a-mallocr.o)
 .bss.__malloc_current_mallinfo
                0x0000000000000000       0x28 /usr/local/Cellar/gcc-arm-none-eabi/20180627/bin/../lib/gcc/arm-none-eabi/7.3.1/../../../../arm-none-eabi/lib/thumb/v7e-m/fpv4-sp/hard/libc.a(lib_a-mallocr.o)
 .bss.__malloc_max_sbrked_mem
                0x0000000000000000        0x4 /usr/local/Cellar/gcc-arm-none-eabi/20180627/bin/../lib/gcc/arm-none-eabi/7.3.1/../../../../arm-none-eabi/lib/thumb/v7e-m/fpv4-sp/hard/libc.a(lib_a-mallocr.o)
 .bss.__malloc_max_total_mem
                0x0000000000000000        0x4 /usr/local/Cellar/gcc-arm-none-eabi/20180627/bin/../lib/gcc/arm-none-eabi/7.3.1/../../../../arm-none-eabi/lib/thumb/v7e-m/fpv4-sp/hard/libc.a(lib_a-mallocr.o)
 .bss.__malloc_top_pad
                0x0000000000000000        0x4 /usr/local/Cellar/gcc-arm-none-eabi/20180627/bin/../lib/gcc/arm-none-eabi/7.3.1/../../../../arm-none-eabi/lib/thumb/v7e-m/fpv4-sp/hard/libc.a(lib_a-mallocr.o)
 .data.__malloc_av_
                0x0000000000000000      0x408 /usr/local/Cellar/gcc-arm-none-eabi/20180627/bin/../lib/gcc/arm-none-eabi/7.3.1/../../../../arm-none-eabi/lib/thumb/v7e-m/fpv4-sp/hard/libc.a(lib_a-mallocr.o)
 .data.__malloc_sbrk_base
                0x0000000000000000        0x4 /usr/local/Cellar/gcc-arm-none-eabi/20180627/bin/../lib/gcc/arm-none-eabi/7.3.1/../../../../arm-none-eabi/lib/thumb/v7e-m/fpv4-sp/hard/libc.a(lib_a-mallocr.o)
 .data.__malloc_trim_threshold
                0x0000000000000000        0x4 /usr/local/Cellar/gcc-arm-none-eabi/20180627/bin/../lib/gcc/arm-none-eabi/7.3.1/../../../../arm-none-eabi/lib/thumb/v7e-m/fpv4-sp/hard/libc.a(lib_a-mallocr.o)
 .debug_frame   0x0000000000000000       0x54 /usr/local/Cellar/gcc-arm-none-eabi/20180627/bin/../lib/gcc/arm-none-eabi/7.3.1/../../../../arm-none-eabi/lib/thumb/v7e-m/fpv4-sp/hard/libc.a(lib_a-mallocr.o)
 .ARM.attributes
                0x0000000000000000       0x34 /usr/local/Cellar/gcc-arm-none-eabi/20180627/bin/../lib/gcc/arm-none-eabi/7.3.1/../../../../arm-none-eabi/lib/thumb/v7e-m/fpv4-sp/hard/libc.a(lib_a-mallocr.o)
 .text          0x0000000000000000        0x0 /usr/local/Cellar/gcc-arm-none-eabi/20180627/bin/../lib/gcc/arm-none-eabi/7.3.1/../../../../arm-none-eabi/lib/thumb/v7e-m/fpv4-sp/hard/libc.a(lib_a-mlock.o)
 .data          0x0000000000000000        0x0 /usr/local/Cellar/gcc-arm-none-eabi/20180627/bin/../lib/gcc/arm-none-eabi/7.3.1/../../../../arm-none-eabi/lib/thumb/v7e-m/fpv4-sp/hard/libc.a(lib_a-mlock.o)
 .bss           0x0000000000000000        0x0 /usr/local/Cellar/gcc-arm-none-eabi/20180627/bin/../lib/gcc/arm-none-eabi/7.3.1/../../../../arm-none-eabi/lib/thumb/v7e-m/fpv4-sp/hard/libc.a(lib_a-mlock.o)
 .text.__malloc_lock
                0x0000000000000000        0xc /usr/local/Cellar/gcc-arm-none-eabi/20180627/bin/../lib/gcc/arm-none-eabi/7.3.1/../../../../arm-none-eabi/lib/thumb/v7e-m/fpv4-sp/hard/libc.a(lib_a-mlock.o)
 .text.__malloc_unlock
                0x0000000000000000        0xc /usr/local/Cellar/gcc-arm-none-eabi/20180627/bin/../lib/gcc/arm-none-eabi/7.3.1/../../../../arm-none-eabi/lib/thumb/v7e-m/fpv4-sp/hard/libc.a(lib_a-mlock.o)
 .debug_frame   0x0000000000000000       0x30 /usr/local/Cellar/gcc-arm-none-eabi/20180627/bin/../lib/gcc/arm-none-eabi/7.3.1/../../../../arm-none-eabi/lib/thumb/v7e-m/fpv4-sp/hard/libc.a(lib_a-mlock.o)
 .ARM.attributes
                0x0000000000000000       0x34 /usr/local/Cellar/gcc-arm-none-eabi/20180627/bin/../lib/gcc/arm-none-eabi/7.3.1/../../../../arm-none-eabi/lib/thumb/v7e-m/fpv4-sp/hard/libc.a(lib_a-mlock.o)
 .text          0x0000000000000000        0x0 /usr/local/Cellar/gcc-arm-none-eabi/20180627/bin/../lib/gcc/arm-none-eabi/7.3.1/../../../../arm-none-eabi/lib/thumb/v7e-m/fpv4-sp/hard/libc.a(lib_a-sbrkr.o)
 .data          0x0000000000000000        0x0 /usr/local/Cellar/gcc-arm-none-eabi/20180627/bin/../lib/gcc/arm-none-eabi/7.3.1/../../../../arm-none-eabi/lib/thumb/v7e-m/fpv4-sp/hard/libc.a(lib_a-sbrkr.o)
 .bss           0x0000000000000000        0x0 /usr/local/Cellar/gcc-arm-none-eabi/20180627/bin/../lib/gcc/arm-none-eabi/7.3.1/../../../../arm-none-eabi/lib/thumb/v7e-m/fpv4-sp/hard/libc.a(lib_a-sbrkr.o)
 .text._sbrk_r  0x0000000000000000       0x24 /usr/local/Cellar/gcc-arm-none-eabi/20180627/bin/../lib/gcc/arm-none-eabi/7.3.1/../../../../arm-none-eabi/lib/thumb/v7e-m/fpv4-sp/hard/libc.a(lib_a-sbrkr.o)
 .debug_frame   0x0000000000000000       0x2c /usr/local/Cellar/gcc-arm-none-eabi/20180627/bin/../lib/gcc/arm-none-eabi/7.3.1/../../../../arm-none-eabi/lib/thumb/v7e-m/fpv4-sp/hard/libc.a(lib_a-sbrkr.o)
 .ARM.attributes
                0x0000000000000000       0x34 /usr/local/Cellar/gcc-arm-none-eabi/20180627/bin/../lib/gcc/arm-none-eabi/7.3.1/../../../../arm-none-eabi/lib/thumb/v7e-m/fpv4-sp/hard/libc.a(lib_a-sbrkr.o)
 .text          0x0000000000000000        0x0 /usr/local/Cellar/gcc-arm-none-eabi/20180627/bin/../lib/gcc/arm-none-eabi/7.3.1/../../../../arm-none-eabi/lib/thumb/v7e-m/fpv4-sp/hard/libc.a(lib_a-stdio.o)
 .data          0x0000000000000000        0x0 /usr/local/Cellar/gcc-arm-none-eabi/20180627/bin/../lib/gcc/arm-none-eabi/7.3.1/../../../../arm-none-eabi/lib/thumb/v7e-m/fpv4-sp/hard/libc.a(lib_a-stdio.o)
 .bss           0x0000000000000000        0x0 /usr/local/Cellar/gcc-arm-none-eabi/20180627/bin/../lib/gcc/arm-none-eabi/7.3.1/../../../../arm-none-eabi/lib/thumb/v7e-m/fpv4-sp/hard/libc.a(lib_a-stdio.o)
 .text.__sread  0x0000000000000000       0x24 /usr/local/Cellar/gcc-arm-none-eabi/20180627/bin/../lib/gcc/arm-none-eabi/7.3.1/../../../../arm-none-eabi/lib/thumb/v7e-m/fpv4-sp/hard/libc.a(lib_a-stdio.o)
 .text.__seofread
                0x0000000000000000        0x4 /usr/local/Cellar/gcc-arm-none-eabi/20180627/bin/../lib/gcc/arm-none-eabi/7.3.1/../../../../arm-none-eabi/lib/thumb/v7e-m/fpv4-sp/hard/libc.a(lib_a-stdio.o)
 .text.__swrite
                0x0000000000000000       0x3c /usr/local/Cellar/gcc-arm-none-eabi/20180627/bin/../lib/gcc/arm-none-eabi/7.3.1/../../../../arm-none-eabi/lib/thumb/v7e-m/fpv4-sp/hard/libc.a(lib_a-stdio.o)
 .text.__sseek  0x0000000000000000       0x20 /usr/local/Cellar/gcc-arm-none-eabi/20180627/bin/../lib/gcc/arm-none-eabi/7.3.1/../../../../arm-none-eabi/lib/thumb/v7e-m/fpv4-sp/hard/libc.a(lib_a-stdio.o)
 .text.__sclose
                0x0000000000000000        0x8 /usr/local/Cellar/gcc-arm-none-eabi/20180627/bin/../lib/gcc/arm-none-eabi/7.3.1/../../../../arm-none-eabi/lib/thumb/v7e-m/fpv4-sp/hard/libc.a(lib_a-stdio.o)
 .debug_frame   0x0000000000000000       0x88 /usr/local/Cellar/gcc-arm-none-eabi/20180627/bin/../lib/gcc/arm-none-eabi/7.3.1/../../../../arm-none-eabi/lib/thumb/v7e-m/fpv4-sp/hard/libc.a(lib_a-stdio.o)
 .ARM.attributes
                0x0000000000000000       0x34 /usr/local/Cellar/gcc-arm-none-eabi/20180627/bin/../lib/gcc/arm-none-eabi/7.3.1/../../../../arm-none-eabi/lib/thumb/v7e-m/fpv4-sp/hard/libc.a(lib_a-stdio.o)
 .text          0x0000000000000000       0xdc /usr/local/Cellar/gcc-arm-none-eabi/20180627/bin/../lib/gcc/arm-none-eabi/7.3.1/../../../../arm-none-eabi/lib/thumb/v7e-m/fpv4-sp/hard/libc.a(lib_a-strlen.o)
 .data          0x0000000000000000        0x0 /usr/local/Cellar/gcc-arm-none-eabi/20180627/bin/../lib/gcc/arm-none-eabi/7.3.1/../../../../arm-none-eabi/lib/thumb/v7e-m/fpv4-sp/hard/libc.a(lib_a-strlen.o)
 .bss           0x0000000000000000        0x0 /usr/local/Cellar/gcc-arm-none-eabi/20180627/bin/../lib/gcc/arm-none-eabi/7.3.1/../../../../arm-none-eabi/lib/thumb/v7e-m/fpv4-sp/hard/libc.a(lib_a-strlen.o)
 .ARM.attributes
                0x0000000000000000       0x20 /usr/local/Cellar/gcc-arm-none-eabi/20180627/bin/../lib/gcc/arm-none-eabi/7.3.1/../../../../arm-none-eabi/lib/thumb/v7e-m/fpv4-sp/hard/libc.a(lib_a-strlen.o)
 .text          0x0000000000000000        0x0 /usr/local/Cellar/gcc-arm-none-eabi/20180627/bin/../lib/gcc/arm-none-eabi/7.3.1/../../../../arm-none-eabi/lib/thumb/v7e-m/fpv4-sp/hard/libc.a(lib_a-writer.o)
 .data          0x0000000000000000        0x0 /usr/local/Cellar/gcc-arm-none-eabi/20180627/bin/../lib/gcc/arm-none-eabi/7.3.1/../../../../arm-none-eabi/lib/thumb/v7e-m/fpv4-sp/hard/libc.a(lib_a-writer.o)
 .bss           0x0000000000000000        0x0 /usr/local/Cellar/gcc-arm-none-eabi/20180627/bin/../lib/gcc/arm-none-eabi/7.3.1/../../../../arm-none-eabi/lib/thumb/v7e-m/fpv4-sp/hard/libc.a(lib_a-writer.o)
 .text._write_r
                0x0000000000000000       0x2c /usr/local/Cellar/gcc-arm-none-eabi/20180627/bin/../lib/gcc/arm-none-eabi/7.3.1/../../../../arm-none-eabi/lib/thumb/v7e-m/fpv4-sp/hard/libc.a(lib_a-writer.o)
 .debug_frame   0x0000000000000000       0x2c /usr/local/Cellar/gcc-arm-none-eabi/20180627/bin/../lib/gcc/arm-none-eabi/7.3.1/../../../../arm-none-eabi/lib/thumb/v7e-m/fpv4-sp/hard/libc.a(lib_a-writer.o)
 .ARM.attributes
                0x0000000000000000       0x34 /usr/local/Cellar/gcc-arm-none-eabi/20180627/bin/../lib/gcc/arm-none-eabi/7.3.1/../../../../arm-none-eabi/lib/thumb/v7e-m/fpv4-sp/hard/libc.a(lib_a-writer.o)
 .text          0x0000000000000000        0x0 /usr/local/Cellar/gcc-arm-none-eabi/20180627/bin/../lib/gcc/arm-none-eabi/7.3.1/../../../../arm-none-eabi/lib/thumb/v7e-m/fpv4-sp/hard/libc.a(lib_a-closer.o)
 .data          0x0000000000000000        0x0 /usr/local/Cellar/gcc-arm-none-eabi/20180627/bin/../lib/gcc/arm-none-eabi/7.3.1/../../../../arm-none-eabi/lib/thumb/v7e-m/fpv4-sp/hard/libc.a(lib_a-closer.o)
 .bss           0x0000000000000000        0x0 /usr/local/Cellar/gcc-arm-none-eabi/20180627/bin/../lib/gcc/arm-none-eabi/7.3.1/../../../../arm-none-eabi/lib/thumb/v7e-m/fpv4-sp/hard/libc.a(lib_a-closer.o)
 .text._close_r
                0x0000000000000000       0x24 /usr/local/Cellar/gcc-arm-none-eabi/20180627/bin/../lib/gcc/arm-none-eabi/7.3.1/../../../../arm-none-eabi/lib/thumb/v7e-m/fpv4-sp/hard/libc.a(lib_a-closer.o)
 .debug_frame   0x0000000000000000       0x2c /usr/local/Cellar/gcc-arm-none-eabi/20180627/bin/../lib/gcc/arm-none-eabi/7.3.1/../../../../arm-none-eabi/lib/thumb/v7e-m/fpv4-sp/hard/libc.a(lib_a-closer.o)
 .ARM.attributes
                0x0000000000000000       0x34 /usr/local/Cellar/gcc-arm-none-eabi/20180627/bin/../lib/gcc/arm-none-eabi/7.3.1/../../../../arm-none-eabi/lib/thumb/v7e-m/fpv4-sp/hard/libc.a(lib_a-closer.o)
 .text          0x0000000000000000        0x0 /usr/local/Cellar/gcc-arm-none-eabi/20180627/bin/../lib/gcc/arm-none-eabi/7.3.1/../../../../arm-none-eabi/lib/thumb/v7e-m/fpv4-sp/hard/libc.a(lib_a-fclose.o)
 .data          0x0000000000000000        0x0 /usr/local/Cellar/gcc-arm-none-eabi/20180627/bin/../lib/gcc/arm-none-eabi/7.3.1/../../../../arm-none-eabi/lib/thumb/v7e-m/fpv4-sp/hard/libc.a(lib_a-fclose.o)
 .bss           0x0000000000000000        0x0 /usr/local/Cellar/gcc-arm-none-eabi/20180627/bin/../lib/gcc/arm-none-eabi/7.3.1/../../../../arm-none-eabi/lib/thumb/v7e-m/fpv4-sp/hard/libc.a(lib_a-fclose.o)
 .text._fclose_r
                0x0000000000000000       0xd0 /usr/local/Cellar/gcc-arm-none-eabi/20180627/bin/../lib/gcc/arm-none-eabi/7.3.1/../../../../arm-none-eabi/lib/thumb/v7e-m/fpv4-sp/hard/libc.a(lib_a-fclose.o)
 .text.fclose   0x0000000000000000       0x10 /usr/local/Cellar/gcc-arm-none-eabi/20180627/bin/../lib/gcc/arm-none-eabi/7.3.1/../../../../arm-none-eabi/lib/thumb/v7e-m/fpv4-sp/hard/libc.a(lib_a-fclose.o)
 .debug_frame   0x0000000000000000       0x3c /usr/local/Cellar/gcc-arm-none-eabi/20180627/bin/../lib/gcc/arm-none-eabi/7.3.1/../../../../arm-none-eabi/lib/thumb/v7e-m/fpv4-sp/hard/libc.a(lib_a-fclose.o)
 .ARM.attributes
                0x0000000000000000       0x34 /usr/local/Cellar/gcc-arm-none-eabi/20180627/bin/../lib/gcc/arm-none-eabi/7.3.1/../../../../arm-none-eabi/lib/thumb/v7e-m/fpv4-sp/hard/libc.a(lib_a-fclose.o)
 .text          0x0000000000000000        0x0 /usr/local/Cellar/gcc-arm-none-eabi/20180627/bin/../lib/gcc/arm-none-eabi/7.3.1/../../../../arm-none-eabi/lib/thumb/v7e-m/fpv4-sp/hard/libc.a(lib_a-fflush.o)
 .data          0x0000000000000000        0x0 /usr/local/Cellar/gcc-arm-none-eabi/20180627/bin/../lib/gcc/arm-none-eabi/7.3.1/../../../../arm-none-eabi/lib/thumb/v7e-m/fpv4-sp/hard/libc.a(lib_a-fflush.o)
 .bss           0x0000000000000000        0x0 /usr/local/Cellar/gcc-arm-none-eabi/20180627/bin/../lib/gcc/arm-none-eabi/7.3.1/../../../../arm-none-eabi/lib/thumb/v7e-m/fpv4-sp/hard/libc.a(lib_a-fflush.o)
 .text.__sflush_r
                0x0000000000000000      0x154 /usr/local/Cellar/gcc-arm-none-eabi/20180627/bin/../lib/gcc/arm-none-eabi/7.3.1/../../../../arm-none-eabi/lib/thumb/v7e-m/fpv4-sp/hard/libc.a(lib_a-fflush.o)
 .text._fflush_r
                0x0000000000000000       0x5c /usr/local/Cellar/gcc-arm-none-eabi/20180627/bin/../lib/gcc/arm-none-eabi/7.3.1/../../../../arm-none-eabi/lib/thumb/v7e-m/fpv4-sp/hard/libc.a(lib_a-fflush.o)
 .text.fflush   0x0000000000000000       0x24 /usr/local/Cellar/gcc-arm-none-eabi/20180627/bin/../lib/gcc/arm-none-eabi/7.3.1/../../../../arm-none-eabi/lib/thumb/v7e-m/fpv4-sp/hard/libc.a(lib_a-fflush.o)
 .debug_frame   0x0000000000000000       0x5c /usr/local/Cellar/gcc-arm-none-eabi/20180627/bin/../lib/gcc/arm-none-eabi/7.3.1/../../../../arm-none-eabi/lib/thumb/v7e-m/fpv4-sp/hard/libc.a(lib_a-fflush.o)
 .ARM.attributes
                0x0000000000000000       0x34 /usr/local/Cellar/gcc-arm-none-eabi/20180627/bin/../lib/gcc/arm-none-eabi/7.3.1/../../../../arm-none-eabi/lib/thumb/v7e-m/fpv4-sp/hard/libc.a(lib_a-fflush.o)
 .text          0x0000000000000000        0x0 /usr/local/Cellar/gcc-arm-none-eabi/20180627/bin/../lib/gcc/arm-none-eabi/7.3.1/../../../../arm-none-eabi/lib/thumb/v7e-m/fpv4-sp/hard/libc.a(lib_a-freer.o)
 .data          0x0000000000000000        0x0 /usr/local/Cellar/gcc-arm-none-eabi/20180627/bin/../lib/gcc/arm-none-eabi/7.3.1/../../../../arm-none-eabi/lib/thumb/v7e-m/fpv4-sp/hard/libc.a(lib_a-freer.o)
 .bss           0x0000000000000000        0x0 /usr/local/Cellar/gcc-arm-none-eabi/20180627/bin/../lib/gcc/arm-none-eabi/7.3.1/../../../../arm-none-eabi/lib/thumb/v7e-m/fpv4-sp/hard/libc.a(lib_a-freer.o)
 .text._malloc_trim_r
                0x0000000000000000       0xa0 /usr/local/Cellar/gcc-arm-none-eabi/20180627/bin/../lib/gcc/arm-none-eabi/7.3.1/../../../../arm-none-eabi/lib/thumb/v7e-m/fpv4-sp/hard/libc.a(lib_a-freer.o)
 .text._free_r  0x0000000000000000      0x1e8 /usr/local/Cellar/gcc-arm-none-eabi/20180627/bin/../lib/gcc/arm-none-eabi/7.3.1/../../../../arm-none-eabi/lib/thumb/v7e-m/fpv4-sp/hard/libc.a(lib_a-freer.o)
 .debug_frame   0x0000000000000000       0x80 /usr/local/Cellar/gcc-arm-none-eabi/20180627/bin/../lib/gcc/arm-none-eabi/7.3.1/../../../../arm-none-eabi/lib/thumb/v7e-m/fpv4-sp/hard/libc.a(lib_a-freer.o)
 .ARM.attributes
                0x0000000000000000       0x34 /usr/local/Cellar/gcc-arm-none-eabi/20180627/bin/../lib/gcc/arm-none-eabi/7.3.1/../../../../arm-none-eabi/lib/thumb/v7e-m/fpv4-sp/hard/libc.a(lib_a-freer.o)
 .text          0x0000000000000000        0x0 /usr/local/Cellar/gcc-arm-none-eabi/20180627/bin/../lib/gcc/arm-none-eabi/7.3.1/../../../../arm-none-eabi/lib/thumb/v7e-m/fpv4-sp/hard/libc.a(lib_a-lseekr.o)
 .data          0x0000000000000000        0x0 /usr/local/Cellar/gcc-arm-none-eabi/20180627/bin/../lib/gcc/arm-none-eabi/7.3.1/../../../../arm-none-eabi/lib/thumb/v7e-m/fpv4-sp/hard/libc.a(lib_a-lseekr.o)
 .bss           0x0000000000000000        0x0 /usr/local/Cellar/gcc-arm-none-eabi/20180627/bin/../lib/gcc/arm-none-eabi/7.3.1/../../../../arm-none-eabi/lib/thumb/v7e-m/fpv4-sp/hard/libc.a(lib_a-lseekr.o)
 .text._lseek_r
                0x0000000000000000       0x2c /usr/local/Cellar/gcc-arm-none-eabi/20180627/bin/../lib/gcc/arm-none-eabi/7.3.1/../../../../arm-none-eabi/lib/thumb/v7e-m/fpv4-sp/hard/libc.a(lib_a-lseekr.o)
 .debug_frame   0x0000000000000000       0x2c /usr/local/Cellar/gcc-arm-none-eabi/20180627/bin/../lib/gcc/arm-none-eabi/7.3.1/../../../../arm-none-eabi/lib/thumb/v7e-m/fpv4-sp/hard/libc.a(lib_a-lseekr.o)
 .ARM.attributes
                0x0000000000000000       0x34 /usr/local/Cellar/gcc-arm-none-eabi/20180627/bin/../lib/gcc/arm-none-eabi/7.3.1/../../../../arm-none-eabi/lib/thumb/v7e-m/fpv4-sp/hard/libc.a(lib_a-lseekr.o)
 .text          0x0000000000000000        0x0 /usr/local/Cellar/gcc-arm-none-eabi/20180627/bin/../lib/gcc/arm-none-eabi/7.3.1/../../../../arm-none-eabi/lib/thumb/v7e-m/fpv4-sp/hard/libc.a(lib_a-readr.o)
 .data          0x0000000000000000        0x0 /usr/local/Cellar/gcc-arm-none-eabi/20180627/bin/../lib/gcc/arm-none-eabi/7.3.1/../../../../arm-none-eabi/lib/thumb/v7e-m/fpv4-sp/hard/libc.a(lib_a-readr.o)
 .bss           0x0000000000000000        0x0 /usr/local/Cellar/gcc-arm-none-eabi/20180627/bin/../lib/gcc/arm-none-eabi/7.3.1/../../../../arm-none-eabi/lib/thumb/v7e-m/fpv4-sp/hard/libc.a(lib_a-readr.o)
 .text._read_r  0x0000000000000000       0x2c /usr/local/Cellar/gcc-arm-none-eabi/20180627/bin/../lib/gcc/arm-none-eabi/7.3.1/../../../../arm-none-eabi/lib/thumb/v7e-m/fpv4-sp/hard/libc.a(lib_a-readr.o)
 .debug_frame   0x0000000000000000       0x2c /usr/local/Cellar/gcc-arm-none-eabi/20180627/bin/../lib/gcc/arm-none-eabi/7.3.1/../../../../arm-none-eabi/lib/thumb/v7e-m/fpv4-sp/hard/libc.a(lib_a-readr.o)
 .ARM.attributes
                0x0000000000000000       0x34 /usr/local/Cellar/gcc-arm-none-eabi/20180627/bin/../lib/gcc/arm-none-eabi/7.3.1/../../../../arm-none-eabi/lib/thumb/v7e-m/fpv4-sp/hard/libc.a(lib_a-readr.o)
 .text          0x0000000000000000        0x0 /usr/local/Cellar/gcc-arm-none-eabi/20180627/bin/../lib/gcc/arm-none-eabi/7.3.1/../../../../arm-none-eabi/lib/thumb/v7e-m/fpv4-sp/hard/libc.a(lib_a-reent.o)
 .data          0x0000000000000000        0x0 /usr/local/Cellar/gcc-arm-none-eabi/20180627/bin/../lib/gcc/arm-none-eabi/7.3.1/../../../../arm-none-eabi/lib/thumb/v7e-m/fpv4-sp/hard/libc.a(lib_a-reent.o)
 .bss           0x0000000000000000        0x0 /usr/local/Cellar/gcc-arm-none-eabi/20180627/bin/../lib/gcc/arm-none-eabi/7.3.1/../../../../arm-none-eabi/lib/thumb/v7e-m/fpv4-sp/hard/libc.a(lib_a-reent.o)
 .text.cleanup_glue
                0x0000000000000000       0x28 /usr/local/Cellar/gcc-arm-none-eabi/20180627/bin/../lib/gcc/arm-none-eabi/7.3.1/../../../../arm-none-eabi/lib/thumb/v7e-m/fpv4-sp/hard/libc.a(lib_a-reent.o)
 .text._reclaim_reent
                0x0000000000000000       0x88 /usr/local/Cellar/gcc-arm-none-eabi/20180627/bin/../lib/gcc/arm-none-eabi/7.3.1/../../../../arm-none-eabi/lib/thumb/v7e-m/fpv4-sp/hard/libc.a(lib_a-reent.o)
 .debug_frame   0x0000000000000000       0x68 /usr/local/Cellar/gcc-arm-none-eabi/20180627/bin/../lib/gcc/arm-none-eabi/7.3.1/../../../../arm-none-eabi/lib/thumb/v7e-m/fpv4-sp/hard/libc.a(lib_a-reent.o)
 .ARM.attributes
                0x0000000000000000       0x34 /usr/local/Cellar/gcc-arm-none-eabi/20180627/bin/../lib/gcc/arm-none-eabi/7.3.1/../../../../arm-none-eabi/lib/thumb/v7e-m/fpv4-sp/hard/libc.a(lib_a-reent.o)
 COMMON         0x0000000000000000        0x4 /usr/local/Cellar/gcc-arm-none-eabi/20180627/bin/../lib/gcc/arm-none-eabi/7.3.1/../../../../arm-none-eabi/lib/thumb/v7e-m/fpv4-sp/hard/libc.a(lib_a-reent.o)
 .text          0x0000000000000000        0x0 /usr/local/Cellar/gcc-arm-none-eabi/20180627/bin/../lib/gcc/arm-none-eabi/7.3.1/thumb/v7e-m/fpv4-sp/hard/crtend.o
 .data          0x0000000000000000        0x0 /usr/local/Cellar/gcc-arm-none-eabi/20180627/bin/../lib/gcc/arm-none-eabi/7.3.1/thumb/v7e-m/fpv4-sp/hard/crtend.o
 .bss           0x0000000000000000        0x0 /usr/local/Cellar/gcc-arm-none-eabi/20180627/bin/../lib/gcc/arm-none-eabi/7.3.1/thumb/v7e-m/fpv4-sp/hard/crtend.o
 .eh_frame      0x0000000000000000        0x4 /usr/local/Cellar/gcc-arm-none-eabi/20180627/bin/../lib/gcc/arm-none-eabi/7.3.1/thumb/v7e-m/fpv4-sp/hard/crtend.o
 .ARM.attributes
                0x0000000000000000       0x34 /usr/local/Cellar/gcc-arm-none-eabi/20180627/bin/../lib/gcc/arm-none-eabi/7.3.1/thumb/v7e-m/fpv4-sp/hard/crtend.o
 .text          0x0000000000000000        0x0 /usr/local/Cellar/gcc-arm-none-eabi/20180627/bin/../lib/gcc/arm-none-eabi/7.3.1/thumb/v7e-m/fpv4-sp/hard/crtn.o
 .data          0x0000000000000000        0x0 /usr/local/Cellar/gcc-arm-none-eabi/20180627/bin/../lib/gcc/arm-none-eabi/7.3.1/thumb/v7e-m/fpv4-sp/hard/crtn.o
 .bss           0x0000000000000000        0x0 /usr/local/Cellar/gcc-arm-none-eabi/20180627/bin/../lib/gcc/arm-none-eabi/7.3.1/thumb/v7e-m/fpv4-sp/hard/crtn.o

Memory Configuration

Name             Origin             Length             Attributes
rom              0x0000000000004000 0x000000000003c000 xr
ram              0x0000000020000000 0x0000000000020000 xrw
bkupram          0x0000000047000000 0x0000000000002000 xrw
qspi             0x0000000004000000 0x0000000001000000 xrw
*default*        0x0000000000000000 0xffffffffffffffff

Linker script and memory map

LOAD /usr/local/Cellar/gcc-arm-none-eabi/20180627/bin/../lib/gcc/arm-none-eabi/7.3.1/thumb/v7e-m/fpv4-sp/hard/crti.o
LOAD /usr/local/Cellar/gcc-arm-none-eabi/20180627/bin/../lib/gcc/arm-none-eabi/7.3.1/thumb/v7e-m/fpv4-sp/hard/crtbegin.o
LOAD /usr/local/Cellar/gcc-arm-none-eabi/20180627/bin/../lib/gcc/arm-none-eabi/7.3.1/../../../../arm-none-eabi/lib/thumb/v7e-m/fpv4-sp/hard/rdimon-crt0.o
LOAD .build/obj_massdrop_alt_default/matrix.o
LOAD .build/obj_massdrop_alt_default/config_led.o
LOAD .build/obj_massdrop_alt_default/keyboards/massdrop/alt/keymaps/default/keymap.o
LOAD .build/obj_massdrop_alt_default/quantum/quantum.o
LOAD .build/obj_massdrop_alt_default/quantum/keymap_common.o
LOAD .build/obj_massdrop_alt_default/quantum/keycode_config.o
LOAD .build/obj_massdrop_alt_default/quantum/debounce/sym_g.o
LOAD .build/obj_massdrop_alt_default/quantum/color.o
LOAD .build/obj_massdrop_alt_default/quantum/rgb_matrix.o
LOAD .build/obj_massdrop_alt_default/quantum/rgb_matrix_drivers.o
LOAD .build/obj_massdrop_alt_default/quantum/led_tables.o
LOAD .build/obj_massdrop_alt_default/quantum/process_keycode/process_space_cadet.o
LOAD .build/obj_massdrop_alt_default/common/host.o
LOAD .build/obj_massdrop_alt_default/common/keyboard.o
LOAD .build/obj_massdrop_alt_default/common/action.o
LOAD .build/obj_massdrop_alt_default/common/action_tapping.o
LOAD .build/obj_massdrop_alt_default/common/action_macro.o
LOAD .build/obj_massdrop_alt_default/common/action_layer.o
LOAD .build/obj_massdrop_alt_default/common/action_util.o
LOAD .build/obj_massdrop_alt_default/common/print.o
LOAD .build/obj_massdrop_alt_default/common/debug.o
LOAD .build/obj_massdrop_alt_default/common/util.o
LOAD .build/obj_massdrop_alt_default/common/eeconfig.o
LOAD .build/obj_massdrop_alt_default/common/report.o
LOAD .build/obj_massdrop_alt_default/common/arm_atsam/suspend.o
LOAD .build/obj_massdrop_alt_default/common/arm_atsam/timer.o
LOAD .build/obj_massdrop_alt_default/common/arm_atsam/bootloader.o
LOAD .build/obj_massdrop_alt_default/common/arm_atsam/printf.o
LOAD .build/obj_massdrop_alt_default/common/arm_atsam/eeprom.o
LOAD .build/obj_massdrop_alt_default/common/magic.o
LOAD .build/obj_massdrop_alt_default/protocol/arm_atsam/adc.o
LOAD .build/obj_massdrop_alt_default/protocol/arm_atsam/clks.o
LOAD .build/obj_massdrop_alt_default/protocol/arm_atsam/d51_util.o
LOAD .build/obj_massdrop_alt_default/protocol/arm_atsam/i2c_master.o
LOAD .build/obj_massdrop_alt_default/protocol/arm_atsam/led_matrix_programs.o
LOAD .build/obj_massdrop_alt_default/protocol/arm_atsam/led_matrix.o
LOAD .build/obj_massdrop_alt_default/protocol/arm_atsam/main_arm_atsam.o
LOAD .build/obj_massdrop_alt_default/protocol/arm_atsam/spi.o
LOAD .build/obj_massdrop_alt_default/protocol/arm_atsam/startup.o
LOAD .build/obj_massdrop_alt_default/protocol/arm_atsam/usb/main_usb.o
LOAD .build/obj_massdrop_alt_default/protocol/arm_atsam/usb/udc.o
LOAD .build/obj_massdrop_alt_default/protocol/arm_atsam/usb/udi_cdc.o
LOAD .build/obj_massdrop_alt_default/protocol/arm_atsam/usb/udi_hid.o
LOAD .build/obj_massdrop_alt_default/protocol/arm_atsam/usb/udi_hid_kbd.o
LOAD .build/obj_massdrop_alt_default/protocol/arm_atsam/usb/udi_hid_kbd_desc.o
LOAD .build/obj_massdrop_alt_default/protocol/arm_atsam/usb/ui.o
LOAD .build/obj_massdrop_alt_default/protocol/arm_atsam/usb/usb2422.o
LOAD .build/obj_massdrop_alt_default/protocol/arm_atsam/usb/usb.o
LOAD .build/obj_massdrop_alt_default/protocol/arm_atsam/usb/usb_device_udd.o
LOAD .build/obj_massdrop_alt_default/protocol/arm_atsam/usb/usb_util.o
START GROUP
END GROUP
LOAD /usr/local/Cellar/gcc-arm-none-eabi/20180627/bin/../lib/gcc/arm-none-eabi/7.3.1/../../../../arm-none-eabi/lib/thumb/v7e-m/fpv4-sp/hard/libm.a
START GROUP
LOAD /usr/local/Cellar/gcc-arm-none-eabi/20180627/bin/../lib/gcc/arm-none-eabi/7.3.1/thumb/v7e-m/fpv4-sp/hard/libgcc.a
LOAD /usr/local/Cellar/gcc-arm-none-eabi/20180627/bin/../lib/gcc/arm-none-eabi/7.3.1/../../../../arm-none-eabi/lib/thumb/v7e-m/fpv4-sp/hard/libg.a
LOAD /usr/local/Cellar/gcc-arm-none-eabi/20180627/bin/../lib/gcc/arm-none-eabi/7.3.1/../../../../arm-none-eabi/lib/thumb/v7e-m/fpv4-sp/hard/libc.a
END GROUP
START GROUP
LOAD /usr/local/Cellar/gcc-arm-none-eabi/20180627/bin/../lib/gcc/arm-none-eabi/7.3.1/thumb/v7e-m/fpv4-sp/hard/libgcc.a
LOAD /usr/local/Cellar/gcc-arm-none-eabi/20180627/bin/../lib/gcc/arm-none-eabi/7.3.1/../../../../arm-none-eabi/lib/thumb/v7e-m/fpv4-sp/hard/libc.a
LOAD /usr/local/Cellar/gcc-arm-none-eabi/20180627/bin/../lib/gcc/arm-none-eabi/7.3.1/../../../../arm-none-eabi/lib/thumb/v7e-m/fpv4-sp/hard/librdimon.a
END GROUP
LOAD /usr/local/Cellar/gcc-arm-none-eabi/20180627/bin/../lib/gcc/arm-none-eabi/7.3.1/thumb/v7e-m/fpv4-sp/hard/crtend.o
LOAD /usr/local/Cellar/gcc-arm-none-eabi/20180627/bin/../lib/gcc/arm-none-eabi/7.3.1/thumb/v7e-m/fpv4-sp/hard/crtn.o
                0x0000000000008000                STACK_SIZE = DEFINED (STACK_SIZE)?STACK_SIZE:DEFINED (__stack_size__)?__stack_size__:0x8000
                0x0000000000000800                HEAP_SIZE = DEFINED (HEAP_SIZE)?HEAP_SIZE:DEFINED (__heap_size__)?__heap_size__:0x800
                0x0000000000004000                _srom = ORIGIN (rom)
                0x000000000003c000                _lrom = LENGTH (rom)
                0x0000000000040000                _erom = (ORIGIN (rom) + LENGTH (rom))
                0x0000000020000000                _sram = ORIGIN (ram)
                0x0000000000020000                _lram = LENGTH (ram)
                0x0000000020020000                _eram = (ORIGIN (ram) + LENGTH (ram))

.text           0x0000000000004000     0x9484
                0x0000000000004000                . = ALIGN (0x4)
                0x0000000000004000                _sfixed = .
 *(.vectors .vectors.*)
 .vectors       0x0000000000004000      0x264 .build/obj_massdrop_alt_default/protocol/arm_atsam/startup.o
                0x0000000000004000                exception_table
 *(.text .text.* .gnu.linkonce.t.*)
 .text          0x0000000000004264       0x40 /usr/local/Cellar/gcc-arm-none-eabi/20180627/bin/../lib/gcc/arm-none-eabi/7.3.1/thumb/v7e-m/fpv4-sp/hard/crtbegin.o
 .text.matrix_init_kb
                0x00000000000042a4        0x8 .build/obj_massdrop_alt_default/matrix.o
                0x00000000000042a4                matrix_init_kb
 .text.matrix_scan_kb
                0x00000000000042ac        0x8 .build/obj_massdrop_alt_default/matrix.o
                0x00000000000042ac                matrix_scan_kb
 .text.matrix_init
                0x00000000000042b4       0xd4 .build/obj_massdrop_alt_default/matrix.o
                0x00000000000042b4                matrix_init
 .text.matrix_scan
                0x0000000000004388      0x128 .build/obj_massdrop_alt_default/matrix.o
                0x0000000000004388                matrix_scan
 .text.matrix_get_row
                0x00000000000044b0        0xc .build/obj_massdrop_alt_default/matrix.o
                0x00000000000044b0                matrix_get_row
 .text.matrix_print
                0x00000000000044bc        0x2 .build/obj_massdrop_alt_default/matrix.o
                0x00000000000044bc                matrix_print
 .text.rgb_matrix_indicators_kb
                0x00000000000044be        0x4 .build/obj_massdrop_alt_default/config_led.o
                0x00000000000044be                rgb_matrix_indicators_kb
 .text.matrix_init_user
                0x00000000000044c2        0x2 .build/obj_massdrop_alt_default/keyboards/massdrop/alt/keymaps/default/keymap.o
                0x00000000000044c2                matrix_init_user
 .text.matrix_scan_user
                0x00000000000044c4        0x2 .build/obj_massdrop_alt_default/keyboards/massdrop/alt/keymaps/default/keymap.o
                0x00000000000044c4                matrix_scan_user
 *fill*         0x00000000000044c6        0x2 
 .text.process_record_user
                0x00000000000044c8      0x180 .build/obj_massdrop_alt_default/keyboards/massdrop/alt/keymaps/default/keymap.o
                0x00000000000044c8                process_record_user
 .text.process_action_kb
                0x0000000000004648        0x4 .build/obj_massdrop_alt_default/quantum/quantum.o
                0x0000000000004648                process_action_kb
 .text.process_record_kb
                0x000000000000464c        0x8 .build/obj_massdrop_alt_default/quantum/quantum.o
                0x000000000000464c                process_record_kb
 .text.get_event_keycode
                0x0000000000004654       0x48 .build/obj_massdrop_alt_default/quantum/quantum.o
                0x0000000000004654                get_event_keycode
 .text.get_record_keycode
                0x000000000000469c        0xa .build/obj_massdrop_alt_default/quantum/quantum.o
                0x000000000000469c                get_record_keycode
 .text.matrix_init_quantum
                0x00000000000046a6       0x18 .build/obj_massdrop_alt_default/quantum/quantum.o
                0x00000000000046a6                matrix_init_quantum
 .text.matrix_scan_quantum
                0x00000000000046be        0xe .build/obj_massdrop_alt_default/quantum/quantum.o
                0x00000000000046be                matrix_scan_quantum
 .text.led_set_user
                0x00000000000046cc        0x2 .build/obj_massdrop_alt_default/quantum/quantum.o
                0x00000000000046cc                led_set_user
 .text.led_set_kb
                0x00000000000046ce        0x8 .build/obj_massdrop_alt_default/quantum/quantum.o
                0x00000000000046ce                led_set_kb
 .text.led_set  0x00000000000046d6        0x8 .build/obj_massdrop_alt_default/quantum/quantum.o
                0x00000000000046d6                led_set
 .text.shutdown_user
                0x00000000000046de        0x2 .build/obj_massdrop_alt_default/quantum/quantum.o
                0x00000000000046de                shutdown_user
 .text.reset_keyboard
                0x00000000000046e0       0x1a .build/obj_massdrop_alt_default/quantum/quantum.o
                0x00000000000046e0                reset_keyboard
 *fill*         0x00000000000046fa        0x2 
 .text.process_record_quantum
                0x00000000000046fc      0x424 .build/obj_massdrop_alt_default/quantum/quantum.o
                0x00000000000046fc                process_record_quantum
 .text.action_get_macro
                0x0000000000004b20        0x4 .build/obj_massdrop_alt_default/quantum/keymap_common.o
                0x0000000000004b20                action_get_macro
 .text.action_function
                0x0000000000004b24        0x2 .build/obj_massdrop_alt_default/quantum/keymap_common.o
                0x0000000000004b24                action_function
 *fill*         0x0000000000004b26        0x2 
 .text.keymap_key_to_keycode
                0x0000000000004b28       0x24 .build/obj_massdrop_alt_default/quantum/keymap_common.o
                0x0000000000004b28                keymap_key_to_keycode
 .text.keymap_function_id_to_action
                0x0000000000004b4c        0xc .build/obj_massdrop_alt_default/quantum/keymap_common.o
                0x0000000000004b4c                keymap_function_id_to_action
 .text.action_for_key
                0x0000000000004b58      0x2ba .build/obj_massdrop_alt_default/quantum/keymap_common.o
                0x0000000000004b58                action_for_key
 *fill*         0x0000000000004e12        0x2 
 .text.keycode_config
                0x0000000000004e14      0x104 .build/obj_massdrop_alt_default/quantum/keycode_config.o
                0x0000000000004e14                keycode_config
 .text.mod_config
                0x0000000000004f18       0xac .build/obj_massdrop_alt_default/quantum/keycode_config.o
                0x0000000000004f18                mod_config
 .text.hsv_to_rgb
                0x0000000000004fc4       0xcc .build/obj_massdrop_alt_default/quantum/color.o
                0x0000000000004fc4                hsv_to_rgb
 .text.sin8_C   0x0000000000005090       0x40 .build/obj_massdrop_alt_default/quantum/rgb_matrix.o
 .text.BAND_SAT_math
                0x00000000000050d0       0x5c .build/obj_massdrop_alt_default/quantum/rgb_matrix.o
 .text.BAND_VAL_math
                0x000000000000512c       0x5c .build/obj_massdrop_alt_default/quantum/rgb_matrix.o
 .text.CYCLE_ALL_math
                0x0000000000005188       0x26 .build/obj_massdrop_alt_default/quantum/rgb_matrix.o
 *fill*         0x00000000000051ae        0x2 
 .text.CYCLE_LEFT_RIGHT_math
                0x00000000000051b0       0x38 .build/obj_massdrop_alt_default/quantum/rgb_matrix.o
 .text.CYCLE_UP_DOWN_math
                0x00000000000051e8       0x38 .build/obj_massdrop_alt_default/quantum/rgb_matrix.o
 .text.RAINBOW_MOVING_CHEVRON_math
                0x0000000000005220       0x54 .build/obj_massdrop_alt_default/quantum/rgb_matrix.o
 .text.CYCLE_OUT_IN_math
                0x0000000000005274       0x32 .build/obj_massdrop_alt_default/quantum/rgb_matrix.o
 *fill*         0x00000000000052a6        0x2 
 .text.DUAL_BEACON_math
                0x00000000000052a8       0x4c .build/obj_massdrop_alt_default/quantum/rgb_matrix.o
 .text.RAINBOW_BEACON_math
                0x00000000000052f4       0x50 .build/obj_massdrop_alt_default/quantum/rgb_matrix.o
 .text.PINWHEELS_math
                0x0000000000005344       0x64 .build/obj_massdrop_alt_default/quantum/rgb_matrix.o
 .text.SOLID_REACTIVE_SIMPLE_math
                0x00000000000053a8       0x34 .build/obj_massdrop_alt_default/quantum/rgb_matrix.o
 .text.SOLID_REACTIVE_math
                0x00000000000053dc       0x34 .build/obj_massdrop_alt_default/quantum/rgb_matrix.o
 .text.SOLID_REACTIVE_WIDE_math
                0x0000000000005410       0x48 .build/obj_massdrop_alt_default/quantum/rgb_matrix.o
 .text.SOLID_REACTIVE_CROSS_math
                0x0000000000005458       0x72 .build/obj_massdrop_alt_default/quantum/rgb_matrix.o
 *fill*         0x00000000000054ca        0x2 
 .text.SOLID_REACTIVE_NEXUS_math
                0x00000000000054cc       0x74 .build/obj_massdrop_alt_default/quantum/rgb_matrix.o
 .text.SPLASH_math
                0x0000000000005540       0x4e .build/obj_massdrop_alt_default/quantum/rgb_matrix.o
                0x0000000000005540                SPLASH_math
 .text.SOLID_SPLASH_math
                0x000000000000558e       0x44 .build/obj_massdrop_alt_default/quantum/rgb_matrix.o
                0x000000000000558e                SOLID_SPLASH_math
 .text.sqrt16.part.0
                0x00000000000055d2       0x3e .build/obj_massdrop_alt_default/quantum/rgb_matrix.o
 .text.CYCLE_OUT_IN_DUAL_math
                0x0000000000005610       0x54 .build/obj_massdrop_alt_default/quantum/rgb_matrix.o
 .text.atan2_8  0x0000000000005664       0x4c .build/obj_massdrop_alt_default/quantum/rgb_matrix.o
 .text.BAND_PINWHEEL_SAT_math
                0x00000000000056b0       0x48 .build/obj_massdrop_alt_default/quantum/rgb_matrix.o
 .text.BAND_PINWHEEL_VAL_math
                0x00000000000056f8       0x48 .build/obj_massdrop_alt_default/quantum/rgb_matrix.o
 .text.BAND_SPIRAL_SAT_math
                0x0000000000005740       0x46 .build/obj_massdrop_alt_default/quantum/rgb_matrix.o
 .text.BAND_SPIRAL_VAL_math
                0x0000000000005786       0x46 .build/obj_massdrop_alt_default/quantum/rgb_matrix.o
 .text.CYCLE_PINWHEEL_math
                0x00000000000057cc       0x30 .build/obj_massdrop_alt_default/quantum/rgb_matrix.o
 .text.CYCLE_SPIRAL_math
                0x00000000000057fc       0x36 .build/obj_massdrop_alt_default/quantum/rgb_matrix.o
 *fill*         0x0000000000005832        0x2 
 .text.eeconfig_read_rgb_matrix
                0x0000000000005834       0x10 .build/obj_massdrop_alt_default/quantum/rgb_matrix.o
                0x0000000000005834                eeconfig_read_rgb_matrix
 .text.eeconfig_update_rgb_matrix
                0x0000000000005844       0x10 .build/obj_massdrop_alt_default/quantum/rgb_matrix.o
                0x0000000000005844                eeconfig_update_rgb_matrix
 .text.eeconfig_update_rgb_matrix_default
                0x0000000000005854       0x28 .build/obj_massdrop_alt_default/quantum/rgb_matrix.o
                0x0000000000005854                eeconfig_update_rgb_matrix_default
 .text.rgb_matrix_map_row_column_to_led_kb
                0x000000000000587c        0x4 .build/obj_massdrop_alt_default/quantum/rgb_matrix.o
                0x000000000000587c                rgb_matrix_map_row_column_to_led_kb
 .text.rgb_matrix_map_row_column_to_led
                0x0000000000005880       0x28 .build/obj_massdrop_alt_default/quantum/rgb_matrix.o
                0x0000000000005880                rgb_matrix_map_row_column_to_led
 .text.rgb_matrix_update_pwm_buffers
                0x00000000000058a8        0xc .build/obj_massdrop_alt_default/quantum/rgb_matrix.o
                0x00000000000058a8                rgb_matrix_update_pwm_buffers
 .text.rgb_matrix_set_color
                0x00000000000058b4       0x14 .build/obj_massdrop_alt_default/quantum/rgb_matrix.o
                0x00000000000058b4                rgb_matrix_set_color
 .text.effect_runner_dx_dy_dist
                0x00000000000058c8       0xe4 .build/obj_massdrop_alt_default/quantum/rgb_matrix.o
                0x00000000000058c8                effect_runner_dx_dy_dist
 .text.BAND_SPIRAL_SAT
                0x00000000000059ac        0xc .build/obj_massdrop_alt_default/quantum/rgb_matrix.o
                0x00000000000059ac                BAND_SPIRAL_SAT
 .text.BAND_SPIRAL_VAL
                0x00000000000059b8        0xc .build/obj_massdrop_alt_default/quantum/rgb_matrix.o
                0x00000000000059b8                BAND_SPIRAL_VAL
 .text.CYCLE_OUT_IN
                0x00000000000059c4        0xc .build/obj_massdrop_alt_default/quantum/rgb_matrix.o
                0x00000000000059c4                CYCLE_OUT_IN
 .text.CYCLE_SPIRAL
                0x00000000000059d0        0xc .build/obj_massdrop_alt_default/quantum/rgb_matrix.o
                0x00000000000059d0                CYCLE_SPIRAL
 .text.effect_runner_dx_dy
                0x00000000000059dc       0xbc .build/obj_massdrop_alt_default/quantum/rgb_matrix.o
                0x00000000000059dc                effect_runner_dx_dy
 .text.BAND_PINWHEEL_SAT
                0x0000000000005a98        0xc .build/obj_massdrop_alt_default/quantum/rgb_matrix.o
                0x0000000000005a98                BAND_PINWHEEL_SAT
 .text.BAND_PINWHEEL_VAL
                0x0000000000005aa4        0xc .build/obj_massdrop_alt_default/quantum/rgb_matrix.o
                0x0000000000005aa4                BAND_PINWHEEL_VAL
 .text.CYCLE_OUT_IN_DUAL
                0x0000000000005ab0        0xc .build/obj_massdrop_alt_default/quantum/rgb_matrix.o
                0x0000000000005ab0                CYCLE_OUT_IN_DUAL
 .text.CYCLE_PINWHEEL
                0x0000000000005abc        0xc .build/obj_massdrop_alt_default/quantum/rgb_matrix.o
                0x0000000000005abc                CYCLE_PINWHEEL
 .text.effect_runner_i
                0x0000000000005ac8       0xac .build/obj_massdrop_alt_default/quantum/rgb_matrix.o
                0x0000000000005ac8                effect_runner_i
 .text.BAND_SAT
                0x0000000000005b74        0xc .build/obj_massdrop_alt_default/quantum/rgb_matrix.o
                0x0000000000005b74                BAND_SAT
 .text.BAND_VAL
                0x0000000000005b80        0xc .build/obj_massdrop_alt_default/quantum/rgb_matrix.o
                0x0000000000005b80                BAND_VAL
 .text.CYCLE_ALL
                0x0000000000005b8c        0xc .build/obj_massdrop_alt_default/quantum/rgb_matrix.o
                0x0000000000005b8c                CYCLE_ALL
 .text.CYCLE_LEFT_RIGHT
                0x0000000000005b98        0xc .build/obj_massdrop_alt_default/quantum/rgb_matrix.o
                0x0000000000005b98                CYCLE_LEFT_RIGHT
 .text.CYCLE_UP_DOWN
                0x0000000000005ba4        0xc .build/obj_massdrop_alt_default/quantum/rgb_matrix.o
                0x0000000000005ba4                CYCLE_UP_DOWN
 .text.RAINBOW_MOVING_CHEVRON
                0x0000000000005bb0        0xc .build/obj_massdrop_alt_default/quantum/rgb_matrix.o
                0x0000000000005bb0                RAINBOW_MOVING_CHEVRON
 .text.effect_runner_sin_cos_i
                0x0000000000005bbc       0xcc .build/obj_massdrop_alt_default/quantum/rgb_matrix.o
                0x0000000000005bbc                effect_runner_sin_cos_i
 .text.DUAL_BEACON
                0x0000000000005c88        0xc .build/obj_massdrop_alt_default/quantum/rgb_matrix.o
                0x0000000000005c88                DUAL_BEACON
 .text.RAINBOW_BEACON
                0x0000000000005c94        0xc .build/obj_massdrop_alt_default/quantum/rgb_matrix.o
                0x0000000000005c94                RAINBOW_BEACON
 .text.PINWHEELS
                0x0000000000005ca0        0xc .build/obj_massdrop_alt_default/quantum/rgb_matrix.o
                0x0000000000005ca0                PINWHEELS
 .text.effect_runner_reactive
                0x0000000000005cac       0xdc .build/obj_massdrop_alt_default/quantum/rgb_matrix.o
                0x0000000000005cac                effect_runner_reactive
 .text.SOLID_REACTIVE_SIMPLE
                0x0000000000005d88        0xc .build/obj_massdrop_alt_default/quantum/rgb_matrix.o
                0x0000000000005d88                SOLID_REACTIVE_SIMPLE
 .text.SOLID_REACTIVE
                0x0000000000005d94        0xc .build/obj_massdrop_alt_default/quantum/rgb_matrix.o
                0x0000000000005d94                SOLID_REACTIVE
 .text.effect_runner_reactive_splash
                0x0000000000005da0      0x130 .build/obj_massdrop_alt_default/quantum/rgb_matrix.o
                0x0000000000005da0                effect_runner_reactive_splash
 .text.SOLID_REACTIVE_WIDE
                0x0000000000005ed0       0x20 .build/obj_massdrop_alt_default/quantum/rgb_matrix.o
                0x0000000000005ed0                SOLID_REACTIVE_WIDE
 .text.SOLID_REACTIVE_MULTIWIDE
                0x0000000000005ef0       0x10 .build/obj_massdrop_alt_default/quantum/rgb_matrix.o
                0x0000000000005ef0                SOLID_REACTIVE_MULTIWIDE
 .text.SOLID_REACTIVE_CROSS
                0x0000000000005f00       0x20 .build/obj_massdrop_alt_default/quantum/rgb_matrix.o
                0x0000000000005f00                SOLID_REACTIVE_CROSS
 .text.SOLID_REACTIVE_MULTICROSS
                0x0000000000005f20       0x10 .build/obj_massdrop_alt_default/quantum/rgb_matrix.o
                0x0000000000005f20                SOLID_REACTIVE_MULTICROSS
 .text.SOLID_REACTIVE_NEXUS
                0x0000000000005f30       0x20 .build/obj_massdrop_alt_default/quantum/rgb_matrix.o
                0x0000000000005f30                SOLID_REACTIVE_NEXUS
 .text.SOLID_REACTIVE_MULTINEXUS
                0x0000000000005f50       0x10 .build/obj_massdrop_alt_default/quantum/rgb_matrix.o
                0x0000000000005f50                SOLID_REACTIVE_MULTINEXUS
 .text.SPLASH   0x0000000000005f60       0x20 .build/obj_massdrop_alt_default/quantum/rgb_matrix.o
                0x0000000000005f60                SPLASH
 .text.MULTISPLASH
                0x0000000000005f80       0x10 .build/obj_massdrop_alt_default/quantum/rgb_matrix.o
                0x0000000000005f80                MULTISPLASH
 .text.SOLID_SPLASH
                0x0000000000005f90       0x20 .build/obj_massdrop_alt_default/quantum/rgb_matrix.o
                0x0000000000005f90                SOLID_SPLASH
 .text.SOLID_MULTISPLASH
                0x0000000000005fb0       0x10 .build/obj_massdrop_alt_default/quantum/rgb_matrix.o
                0x0000000000005fb0                SOLID_MULTISPLASH
 .text.SOLID_COLOR
                0x0000000000005fc0       0x88 .build/obj_massdrop_alt_default/quantum/rgb_matrix.o
                0x0000000000005fc0                SOLID_COLOR
 .text.ALPHAS_MODS
                0x0000000000006048       0xd0 .build/obj_massdrop_alt_default/quantum/rgb_matrix.o
                0x0000000000006048                ALPHAS_MODS
 .text.GRADIENT_UP_DOWN
                0x0000000000006118       0x94 .build/obj_massdrop_alt_default/quantum/rgb_matrix.o
                0x0000000000006118                GRADIENT_UP_DOWN
 .text.BREATHING
                0x00000000000061ac       0xc0 .build/obj_massdrop_alt_default/quantum/rgb_matrix.o
                0x00000000000061ac                BREATHING
 .text.raindrops_set_color.isra.2
                0x000000000000626c       0x70 .build/obj_massdrop_alt_default/quantum/rgb_matrix.o
 .text.RAINDROPS
                0x00000000000062dc       0x80 .build/obj_massdrop_alt_default/quantum/rgb_matrix.o
                0x00000000000062dc                RAINDROPS
 .text.jellybean_raindrops_set_color.isra.3
                0x000000000000635c       0x50 .build/obj_massdrop_alt_default/quantum/rgb_matrix.o
 .text.JELLYBEAN_RAINDROPS
                0x00000000000063ac       0x80 .build/obj_massdrop_alt_default/quantum/rgb_matrix.o
                0x00000000000063ac                JELLYBEAN_RAINDROPS
 .text.rgb_matrix_set_color_all
                0x000000000000642c        0xc .build/obj_massdrop_alt_default/quantum/rgb_matrix.o
                0x000000000000642c                rgb_matrix_set_color_all
 .text.process_rgb_matrix
                0x0000000000006438       0xd0 .build/obj_massdrop_alt_default/quantum/rgb_matrix.o
                0x0000000000006438                process_rgb_matrix
 .text.rgb_matrix_indicators_user
                0x0000000000006508        0x2 .build/obj_massdrop_alt_default/quantum/rgb_matrix.o
                0x0000000000006508                rgb_matrix_indicators_user
 .text.rgb_matrix_indicators
                0x000000000000650a        0xc .build/obj_massdrop_alt_default/quantum/rgb_matrix.o
                0x000000000000650a                rgb_matrix_indicators
 *fill*         0x0000000000006516        0x2 
 .text.rgb_matrix_task
                0x0000000000006518      0x2dc .build/obj_massdrop_alt_default/quantum/rgb_matrix.o
                0x0000000000006518                rgb_matrix_task
 .text.rgb_matrix_init
                0x00000000000067f4       0xb0 .build/obj_massdrop_alt_default/quantum/rgb_matrix.o
                0x00000000000067f4                rgb_matrix_init
 .text.rgb_matrix_toggle
                0x00000000000068a4       0x1c .build/obj_massdrop_alt_default/quantum/rgb_matrix.o
                0x00000000000068a4                rgb_matrix_toggle
 .text.rgb_matrix_enable_noeeprom
                0x00000000000068c0       0x24 .build/obj_massdrop_alt_default/quantum/rgb_matrix.o
                0x00000000000068c0                rgb_matrix_enable_noeeprom
 .text.rgb_matrix_disable_noeeprom
                0x00000000000068e4       0x20 .build/obj_massdrop_alt_default/quantum/rgb_matrix.o
                0x00000000000068e4                rgb_matrix_disable_noeeprom
 .text.rgb_matrix_step
                0x0000000000006904       0x2c .build/obj_massdrop_alt_default/quantum/rgb_matrix.o
                0x0000000000006904                rgb_matrix_step
 .text.rgb_matrix_step_reverse
                0x0000000000006930       0x2c .build/obj_massdrop_alt_default/quantum/rgb_matrix.o
                0x0000000000006930                rgb_matrix_step_reverse
 .text.rgb_matrix_increase_hue
                0x000000000000695c       0x10 .build/obj_massdrop_alt_default/quantum/rgb_matrix.o
                0x000000000000695c                rgb_matrix_increase_hue
 .text.rgb_matrix_decrease_hue
                0x000000000000696c       0x10 .build/obj_massdrop_alt_default/quantum/rgb_matrix.o
                0x000000000000696c                rgb_matrix_decrease_hue
 .text.rgb_matrix_increase_sat
                0x000000000000697c       0x18 .build/obj_massdrop_alt_default/quantum/rgb_matrix.o
                0x000000000000697c                rgb_matrix_increase_sat
 .text.rgb_matrix_decrease_sat
                0x0000000000006994       0x14 .build/obj_massdrop_alt_default/quantum/rgb_matrix.o
                0x0000000000006994                rgb_matrix_decrease_sat
 .text.rgb_matrix_increase_val
                0x00000000000069a8       0x18 .build/obj_massdrop_alt_default/quantum/rgb_matrix.o
                0x00000000000069a8                rgb_matrix_increase_val
 .text.rgb_matrix_decrease_val
                0x00000000000069c0       0x14 .build/obj_massdrop_alt_default/quantum/rgb_matrix.o
                0x00000000000069c0                rgb_matrix_decrease_val
 .text.rgb_matrix_increase_speed
                0x00000000000069d4       0x18 .build/obj_massdrop_alt_default/quantum/rgb_matrix.o
                0x00000000000069d4                rgb_matrix_increase_speed
 .text.rgb_matrix_decrease_speed
                0x00000000000069ec       0x14 .build/obj_massdrop_alt_default/quantum/rgb_matrix.o
                0x00000000000069ec                rgb_matrix_decrease_speed
 .text.rgb_matrix_get_flags
                0x0000000000006a00        0xc .build/obj_massdrop_alt_default/quantum/rgb_matrix.o
                0x0000000000006a00                rgb_matrix_get_flags
 .text.rgb_matrix_set_flags
                0x0000000000006a0c        0xc .build/obj_massdrop_alt_default/quantum/rgb_matrix.o
                0x0000000000006a0c                rgb_matrix_set_flags
 .text.rgb_matrix_mode
                0x0000000000006a18       0x1c .build/obj_massdrop_alt_default/quantum/rgb_matrix.o
                0x0000000000006a18                rgb_matrix_mode
 .text.perform_space_cadet
                0x0000000000006a34       0xbc .build/obj_massdrop_alt_default/quantum/process_keycode/process_space_cadet.o
                0x0000000000006a34                perform_space_cadet
 .text.process_space_cadet
                0x0000000000006af0       0x8c .build/obj_massdrop_alt_default/quantum/process_keycode/process_space_cadet.o
                0x0000000000006af0                process_space_cadet
 .text.host_set_driver
                0x0000000000006b7c        0xc .build/obj_massdrop_alt_default/common/host.o
                0x0000000000006b7c                host_set_driver
 .text.host_keyboard_leds
                0x0000000000006b88       0x10 .build/obj_massdrop_alt_default/common/host.o
                0x0000000000006b88                host_keyboard_leds
 .text.host_keyboard_send
                0x0000000000006b98       0x10 .build/obj_massdrop_alt_default/common/host.o
                0x0000000000006b98                host_keyboard_send
 .text.host_system_send
                0x0000000000006ba8       0x18 .build/obj_massdrop_alt_default/common/host.o
                0x0000000000006ba8                host_system_send
 .text.host_consumer_send
                0x0000000000006bc0       0x18 .build/obj_massdrop_alt_default/common/host.o
                0x0000000000006bc0                host_consumer_send
 .text.keyboard_pre_init_user
                0x0000000000006bd8        0x2 .build/obj_massdrop_alt_default/common/keyboard.o
                0x0000000000006bd8                keyboard_pre_init_user
 .text.matrix_setup
                0x0000000000006bda        0x2 .build/obj_massdrop_alt_default/common/keyboard.o
                0x0000000000006bda                matrix_setup
 .text.keyboard_pre_init_kb
                0x0000000000006bdc        0x8 .build/obj_massdrop_alt_default/common/keyboard.o
                0x0000000000006bdc                keyboard_pre_init_kb
 .text.keyboard_post_init_user
                0x0000000000006be4        0x2 .build/obj_massdrop_alt_default/common/keyboard.o
                0x0000000000006be4                keyboard_post_init_user
 .text.keyboard_post_init_kb
                0x0000000000006be6        0x8 .build/obj_massdrop_alt_default/common/keyboard.o
                0x0000000000006be6                keyboard_post_init_kb
 .text.keyboard_setup
                0x0000000000006bee        0xc .build/obj_massdrop_alt_default/common/keyboard.o
                0x0000000000006bee                keyboard_setup
 .text.is_keyboard_master
                0x0000000000006bfa        0x4 .build/obj_massdrop_alt_default/common/keyboard.o
                0x0000000000006bfa                is_keyboard_master
 .text.keyboard_init
                0x0000000000006bfe       0x14 .build/obj_massdrop_alt_default/common/keyboard.o
                0x0000000000006bfe                keyboard_init
 *fill*         0x0000000000006c12        0x2 
 .text.keyboard_task
                0x0000000000006c14       0xe0 .build/obj_massdrop_alt_default/common/keyboard.o
                0x0000000000006c14                keyboard_task
 .text.action_exec
                0x0000000000006cf4       0x24 .build/obj_massdrop_alt_default/common/action.o
                0x0000000000006cf4                action_exec
 .text.process_record_tap_hint
                0x0000000000006d18        0x6 .build/obj_massdrop_alt_default/common/action.o
                0x0000000000006d18                process_record_tap_hint
 .text.register_code
                0x0000000000006d1e      0x13a .build/obj_massdrop_alt_default/common/action.o
                0x0000000000006d1e                register_code
 .text.unregister_code
                0x0000000000006e58       0x5c .build/obj_massdrop_alt_default/common/action.o
                0x0000000000006e58                unregister_code
 .text.tap_code
                0x0000000000006eb4       0x20 .build/obj_massdrop_alt_default/common/action.o
                0x0000000000006eb4                tap_code
 .text.register_mods
                0x0000000000006ed4       0x12 .build/obj_massdrop_alt_default/common/action.o
                0x0000000000006ed4                register_mods
 .text.unregister_mods
                0x0000000000006ee6       0x12 .build/obj_massdrop_alt_default/common/action.o
                0x0000000000006ee6                unregister_mods
 .text.process_action
                0x0000000000006ef8      0x38c .build/obj_massdrop_alt_default/common/action.o
                0x0000000000006ef8                process_action
 .text.process_record
                0x0000000000007284       0x44 .build/obj_massdrop_alt_default/common/action.o
                0x0000000000007284                process_record
 .text.clear_keyboard_but_mods_and_keys
                0x00000000000072c8       0x1e .build/obj_massdrop_alt_default/common/action.o
                0x00000000000072c8                clear_keyboard_but_mods_and_keys
 .text.clear_keyboard_but_mods
                0x00000000000072e6        0xe .build/obj_massdrop_alt_default/common/action.o
                0x00000000000072e6                clear_keyboard_but_mods
 .text.clear_keyboard
                0x00000000000072f4        0xe .build/obj_massdrop_alt_default/common/action.o
                0x00000000000072f4                clear_keyboard
 .text.is_tap_action
                0x0000000000007302       0x50 .build/obj_massdrop_alt_default/common/action.o
                0x0000000000007302                is_tap_action
 .text.is_tap_key
                0x0000000000007352       0x16 .build/obj_massdrop_alt_default/common/action.o
                0x0000000000007352                is_tap_key
 .text.debug_event
                0x0000000000007368        0xc .build/obj_massdrop_alt_default/common/action.o
                0x0000000000007368                debug_event
 .text.debug_record
                0x0000000000007374        0xc .build/obj_massdrop_alt_default/common/action.o
                0x0000000000007374                debug_record
 .text.debug_waiting_buffer
                0x0000000000007380       0x2c .build/obj_massdrop_alt_default/common/action_tapping.o
 .text.debug_tapping_key
                0x00000000000073ac       0x10 .build/obj_massdrop_alt_default/common/action_tapping.o
 .text.waiting_buffer_scan_tap
                0x00000000000073bc       0xac .build/obj_massdrop_alt_default/common/action_tapping.o
 .text.process_tapping
                0x0000000000007468      0x3f4 .build/obj_massdrop_alt_default/common/action_tapping.o
 .text.action_tapping_process
                0x000000000000785c       0xd8 .build/obj_massdrop_alt_default/common/action_tapping.o
                0x000000000000785c                action_tapping_process
 .text.action_macro_play
                0x0000000000007934       0xb2 .build/obj_massdrop_alt_default/common/action_macro.o
                0x0000000000007934                action_macro_play
 .text.default_layer_state_set_user
                0x00000000000079e6        0x2 .build/obj_massdrop_alt_default/common/action_layer.o
                0x00000000000079e6                default_layer_state_set_user
 .text.default_layer_state_set_kb
                0x00000000000079e8        0x8 .build/obj_massdrop_alt_default/common/action_layer.o
                0x00000000000079e8                default_layer_state_set_kb
 .text.default_layer_state_set
                0x00000000000079f0       0x18 .build/obj_massdrop_alt_default/common/action_layer.o
 .text.default_layer_debug
                0x0000000000007a08        0x2 .build/obj_massdrop_alt_default/common/action_layer.o
                0x0000000000007a08                default_layer_debug
 .text.default_layer_set
                0x0000000000007a0a        0x4 .build/obj_massdrop_alt_default/common/action_layer.o
                0x0000000000007a0a                default_layer_set
 *fill*         0x0000000000007a0e        0x2 
 .text.default_layer_or
                0x0000000000007a10       0x10 .build/obj_massdrop_alt_default/common/action_layer.o
                0x0000000000007a10                default_layer_or
 .text.default_layer_and
                0x0000000000007a20       0x10 .build/obj_massdrop_alt_default/common/action_layer.o
                0x0000000000007a20                default_layer_and
 .text.default_layer_xor
                0x0000000000007a30       0x10 .build/obj_massdrop_alt_default/common/action_layer.o
                0x0000000000007a30                default_layer_xor
 .text.layer_state_set_user
                0x0000000000007a40        0x4 .build/obj_massdrop_alt_default/common/action_layer.o
                0x0000000000007a40                layer_state_set_user
 .text.layer_state_set_kb
                0x0000000000007a44        0x8 .build/obj_massdrop_alt_default/common/action_layer.o
                0x0000000000007a44                layer_state_set_kb
 .text.layer_state_set
                0x0000000000007a4c       0x18 .build/obj_massdrop_alt_default/common/action_layer.o
                0x0000000000007a4c                layer_state_set
 .text.layer_clear
                0x0000000000007a64        0x6 .build/obj_massdrop_alt_default/common/action_layer.o
                0x0000000000007a64                layer_clear
 .text.layer_move
                0x0000000000007a6a        0xa .build/obj_massdrop_alt_default/common/action_layer.o
                0x0000000000007a6a                layer_move
 .text.layer_on
                0x0000000000007a74       0x14 .build/obj_massdrop_alt_default/common/action_layer.o
                0x0000000000007a74                layer_on
 .text.layer_off
                0x0000000000007a88       0x18 .build/obj_massdrop_alt_default/common/action_layer.o
                0x0000000000007a88                layer_off
 .text.layer_invert
                0x0000000000007aa0       0x14 .build/obj_massdrop_alt_default/common/action_layer.o
                0x0000000000007aa0                layer_invert
 .text.layer_or
                0x0000000000007ab4       0x10 .build/obj_massdrop_alt_default/common/action_layer.o
                0x0000000000007ab4                layer_or
 .text.layer_and
                0x0000000000007ac4       0x10 .build/obj_massdrop_alt_default/common/action_layer.o
                0x0000000000007ac4                layer_and
 .text.layer_xor
                0x0000000000007ad4       0x10 .build/obj_massdrop_alt_default/common/action_layer.o
                0x0000000000007ad4                layer_xor
 .text.layer_debug
                0x0000000000007ae4        0x2 .build/obj_massdrop_alt_default/common/action_layer.o
                0x0000000000007ae4                layer_debug
 *fill*         0x0000000000007ae6        0x2 
 .text.update_source_layers_cache
                0x0000000000007ae8       0x48 .build/obj_massdrop_alt_default/common/action_layer.o
                0x0000000000007ae8                update_source_layers_cache
 .text.read_source_layers_cache
                0x0000000000007b30       0x40 .build/obj_massdrop_alt_default/common/action_layer.o
                0x0000000000007b30                read_source_layers_cache
 .text.layer_switch_get_layer
                0x0000000000007b70       0x3c .build/obj_massdrop_alt_default/common/action_layer.o
                0x0000000000007b70                layer_switch_get_layer
 .text.layer_switch_get_action
                0x0000000000007bac       0x18 .build/obj_massdrop_alt_default/common/action_layer.o
                0x0000000000007bac                layer_switch_get_action
 .text.store_or_get_action
                0x0000000000007bc4       0x48 .build/obj_massdrop_alt_default/common/action_layer.o
                0x0000000000007bc4                store_or_get_action
 .text.add_key  0x0000000000007c0c       0x10 .build/obj_massdrop_alt_default/common/action_util.o
                0x0000000000007c0c                add_key
 .text.del_key  0x0000000000007c1c       0x10 .build/obj_massdrop_alt_default/common/action_util.o
                0x0000000000007c1c                del_key
 .text.clear_keys
                0x0000000000007c2c        0xc .build/obj_massdrop_alt_default/common/action_util.o
                0x0000000000007c2c                clear_keys
 .text.get_oneshot_layer
                0x0000000000007c38       0x10 .build/obj_massdrop_alt_default/common/action_util.o
                0x0000000000007c38                get_oneshot_layer
 .text.get_oneshot_layer_state
                0x0000000000007c48       0x10 .build/obj_massdrop_alt_default/common/action_util.o
                0x0000000000007c48                get_oneshot_layer_state
 .text.is_oneshot_layer_active
                0x0000000000007c58       0x14 .build/obj_massdrop_alt_default/common/action_util.o
                0x0000000000007c58                is_oneshot_layer_active
 .text.get_mods
                0x0000000000007c6c        0xc .build/obj_massdrop_alt_default/common/action_util.o
                0x0000000000007c6c                get_mods
 .text.add_mods
                0x0000000000007c78       0x10 .build/obj_massdrop_alt_default/common/action_util.o
                0x0000000000007c78                add_mods
 .text.del_mods
                0x0000000000007c88       0x10 .build/obj_massdrop_alt_default/common/action_util.o
                0x0000000000007c88                del_mods
 .text.clear_mods
                0x0000000000007c98        0xc .build/obj_massdrop_alt_default/common/action_util.o
                0x0000000000007c98                clear_mods
 .text.add_weak_mods
                0x0000000000007ca4       0x10 .build/obj_massdrop_alt_default/common/action_util.o
                0x0000000000007ca4                add_weak_mods
 .text.del_weak_mods
                0x0000000000007cb4       0x10 .build/obj_massdrop_alt_default/common/action_util.o
                0x0000000000007cb4                del_weak_mods
 .text.clear_weak_mods
                0x0000000000007cc4        0xc .build/obj_massdrop_alt_default/common/action_util.o
                0x0000000000007cc4                clear_weak_mods
 .text.add_macro_mods
                0x0000000000007cd0       0x10 .build/obj_massdrop_alt_default/common/action_util.o
                0x0000000000007cd0                add_macro_mods
 .text.del_macro_mods
                0x0000000000007ce0       0x10 .build/obj_massdrop_alt_default/common/action_util.o
                0x0000000000007ce0                del_macro_mods
 .text.clear_macro_mods
                0x0000000000007cf0        0xc .build/obj_massdrop_alt_default/common/action_util.o
                0x0000000000007cf0                clear_macro_mods
 .text.get_oneshot_mods
                0x0000000000007cfc        0xc .build/obj_massdrop_alt_default/common/action_util.o
                0x0000000000007cfc                get_oneshot_mods
 .text.oneshot_mods_changed_user
                0x0000000000007d08        0x2 .build/obj_massdrop_alt_default/common/action_util.o
                0x0000000000007d08                oneshot_mods_changed_user
 .text.oneshot_mods_changed_kb
                0x0000000000007d0a        0x8 .build/obj_massdrop_alt_default/common/action_util.o
                0x0000000000007d0a                oneshot_mods_changed_kb
 *fill*         0x0000000000007d12        0x2 
 .text.set_oneshot_mods
                0x0000000000007d14       0x18 .build/obj_massdrop_alt_default/common/action_util.o
                0x0000000000007d14                set_oneshot_mods
 .text.clear_oneshot_mods
                0x0000000000007d2c       0x18 .build/obj_massdrop_alt_default/common/action_util.o
                0x0000000000007d2c                clear_oneshot_mods
 .text.send_keyboard_report
                0x0000000000007d44       0x4c .build/obj_massdrop_alt_default/common/action_util.o
                0x0000000000007d44                send_keyboard_report
 .text.oneshot_layer_changed_user
                0x0000000000007d90        0x2 .build/obj_massdrop_alt_default/common/action_util.o
                0x0000000000007d90                oneshot_layer_changed_user
 .text.oneshot_layer_changed_kb
                0x0000000000007d92        0x8 .build/obj_massdrop_alt_default/common/action_util.o
                0x0000000000007d92                oneshot_layer_changed_kb
 *fill*         0x0000000000007d9a        0x2 
 .text.set_oneshot_layer
                0x0000000000007d9c       0x20 .build/obj_massdrop_alt_default/common/action_util.o
                0x0000000000007d9c                set_oneshot_layer
 .text.reset_oneshot_layer
                0x0000000000007dbc       0x14 .build/obj_massdrop_alt_default/common/action_util.o
                0x0000000000007dbc                reset_oneshot_layer
 .text.clear_oneshot_layer_state
                0x0000000000007dd0       0x30 .build/obj_massdrop_alt_default/common/action_util.o
                0x0000000000007dd0                clear_oneshot_layer_state
 .text.eeconfig_is_enabled
                0x0000000000007e00       0x14 .build/obj_massdrop_alt_default/common/eeconfig.o
                0x0000000000007e00                eeconfig_is_enabled
 .text.eeconfig_read_debug
                0x0000000000007e14        0x6 .build/obj_massdrop_alt_default/common/eeconfig.o
                0x0000000000007e14                eeconfig_read_debug
 .text.eeconfig_read_default_layer
                0x0000000000007e1a        0x6 .build/obj_massdrop_alt_default/common/eeconfig.o
                0x0000000000007e1a                eeconfig_read_default_layer
 .text.eeconfig_read_keymap
                0x0000000000007e20       0x18 .build/obj_massdrop_alt_default/common/eeconfig.o
                0x0000000000007e20                eeconfig_read_keymap
 .text.eeconfig_update_keymap
                0x0000000000007e38       0x18 .build/obj_massdrop_alt_default/common/eeconfig.o
                0x0000000000007e38                eeconfig_update_keymap
 .text.eeconfig_update_kb
                0x0000000000007e50        0x8 .build/obj_massdrop_alt_default/common/eeconfig.o
                0x0000000000007e50                eeconfig_update_kb
 .text.eeconfig_update_user
                0x0000000000007e58        0x8 .build/obj_massdrop_alt_default/common/eeconfig.o
                0x0000000000007e58                eeconfig_update_user
 .text.eeconfig_init_user
                0x0000000000007e60        0x6 .build/obj_massdrop_alt_default/common/eeconfig.o
                0x0000000000007e60                eeconfig_init_user
 .text.eeconfig_init_kb
                0x0000000000007e66        0xe .build/obj_massdrop_alt_default/common/eeconfig.o
                0x0000000000007e66                eeconfig_init_kb
 .text.eeconfig_init_quantum
                0x0000000000007e74       0x84 .build/obj_massdrop_alt_default/common/eeconfig.o
                0x0000000000007e74                eeconfig_init_quantum
 .text.eeconfig_init
                0x0000000000007ef8        0x4 .build/obj_massdrop_alt_default/common/eeconfig.o
                0x0000000000007ef8                eeconfig_init
 .text.has_anykey
                0x0000000000007efc       0x3c .build/obj_massdrop_alt_default/common/report.o
                0x0000000000007efc                has_anykey
 .text.add_key_byte
                0x0000000000007f38       0x32 .build/obj_massdrop_alt_default/common/report.o
                0x0000000000007f38                add_key_byte
 .text.del_key_byte
                0x0000000000007f6a       0x1a .build/obj_massdrop_alt_default/common/report.o
                0x0000000000007f6a                del_key_byte
 .text.add_key_bit
                0x0000000000007f84       0x18 .build/obj_massdrop_alt_default/common/report.o
                0x0000000000007f84                add_key_bit
 .text.del_key_bit
                0x0000000000007f9c       0x1a .build/obj_massdrop_alt_default/common/report.o
                0x0000000000007f9c                del_key_bit
 *fill*         0x0000000000007fb6        0x2 
 .text.add_key_to_report
                0x0000000000007fb8       0x34 .build/obj_massdrop_alt_default/common/report.o
                0x0000000000007fb8                add_key_to_report
 .text.del_key_from_report
                0x0000000000007fec       0x34 .build/obj_massdrop_alt_default/common/report.o
                0x0000000000007fec                del_key_from_report
 .text.clear_keys_from_report
                0x0000000000008020       0x2c .build/obj_massdrop_alt_default/common/report.o
                0x0000000000008020                clear_keys_from_report
 .text.matrix_power_up
                0x000000000000804c        0x2 .build/obj_massdrop_alt_default/common/arm_atsam/suspend.o
                0x000000000000804c                matrix_power_up
 .text.suspend_power_down_user
                0x000000000000804e        0x2 .build/obj_massdrop_alt_default/common/arm_atsam/suspend.o
                0x000000000000804e                suspend_power_down_user
 .text.suspend_power_down_kb
                0x0000000000008050        0x8 .build/obj_massdrop_alt_default/common/arm_atsam/suspend.o
                0x0000000000008050                suspend_power_down_kb
 .text.suspend_power_down
                0x0000000000008058        0xe .build/obj_massdrop_alt_default/common/arm_atsam/suspend.o
                0x0000000000008058                suspend_power_down
 .text.matrix_power_down
                0x0000000000008066        0x2 .build/obj_massdrop_alt_default/common/arm_atsam/suspend.o
                0x0000000000008066                matrix_power_down
 .text.suspend_wakeup_condition
                0x0000000000008068       0x24 .build/obj_massdrop_alt_default/common/arm_atsam/suspend.o
                0x0000000000008068                suspend_wakeup_condition
 .text.suspend_wakeup_init_user
                0x000000000000808c        0x2 .build/obj_massdrop_alt_default/common/arm_atsam/suspend.o
                0x000000000000808c                suspend_wakeup_init_user
 .text.suspend_wakeup_init_kb
                0x000000000000808e        0x8 .build/obj_massdrop_alt_default/common/arm_atsam/suspend.o
                0x000000000000808e                suspend_wakeup_init_kb
 .text.suspend_wakeup_init
                0x0000000000008096        0xe .build/obj_massdrop_alt_default/common/arm_atsam/suspend.o
                0x0000000000008096                suspend_wakeup_init
 .text.timer_read
                0x00000000000080a4       0x10 .build/obj_massdrop_alt_default/common/arm_atsam/timer.o
                0x00000000000080a4                timer_read
 .text.timer_read32
                0x00000000000080b4        0xc .build/obj_massdrop_alt_default/common/arm_atsam/timer.o
                0x00000000000080b4                timer_read32
 .text.timer_read64
                0x00000000000080c0        0xc .build/obj_massdrop_alt_default/common/arm_atsam/timer.o
                0x00000000000080c0                timer_read64
 .text.timer_elapsed
                0x00000000000080cc       0x28 .build/obj_massdrop_alt_default/common/arm_atsam/timer.o
                0x00000000000080cc                timer_elapsed
 .text.timer_elapsed32
                0x00000000000080f4       0x1c .build/obj_massdrop_alt_default/common/arm_atsam/timer.o
                0x00000000000080f4                timer_elapsed32
 .text.timer_clear
                0x0000000000008110       0x10 .build/obj_massdrop_alt_default/common/arm_atsam/timer.o
                0x0000000000008110                timer_clear
 .text.timer_init
                0x0000000000008120        0x4 .build/obj_massdrop_alt_default/common/arm_atsam/timer.o
                0x0000000000008120                timer_init
 .text.bootloader_jump
                0x0000000000008124       0x50 .build/obj_massdrop_alt_default/common/arm_atsam/bootloader.o
                0x0000000000008124                bootloader_jump
 .text.eeprom_read_byte
                0x0000000000008174        0xc .build/obj_massdrop_alt_default/common/arm_atsam/eeprom.o
                0x0000000000008174                eeprom_read_byte
 .text.eeprom_read_word
                0x0000000000008180       0x14 .build/obj_massdrop_alt_default/common/arm_atsam/eeprom.o
                0x0000000000008180                eeprom_read_word
 .text.eeprom_read_block
                0x0000000000008194       0x1c .build/obj_massdrop_alt_default/common/arm_atsam/eeprom.o
                0x0000000000008194                eeprom_read_block
 .text.eeprom_write_word
                0x00000000000081b0       0x10 .build/obj_massdrop_alt_default/common/arm_atsam/eeprom.o
                0x00000000000081b0                eeprom_write_word
 .text.eeprom_write_dword
                0x00000000000081c0       0x18 .build/obj_massdrop_alt_default/common/arm_atsam/eeprom.o
                0x00000000000081c0                eeprom_write_dword
 .text.eeprom_write_block
                0x00000000000081d8       0x1c .build/obj_massdrop_alt_default/common/arm_atsam/eeprom.o
                0x00000000000081d8                eeprom_write_block
 .text.eeprom_update_byte
                0x00000000000081f4        0xc .build/obj_massdrop_alt_default/common/arm_atsam/eeprom.o
                0x00000000000081f4                eeprom_update_byte
 .text.eeprom_update_word
                0x0000000000008200        0x4 .build/obj_massdrop_alt_default/common/arm_atsam/eeprom.o
                0x0000000000008200                eeprom_update_word
 .text.eeprom_update_dword
                0x0000000000008204        0x4 .build/obj_massdrop_alt_default/common/arm_atsam/eeprom.o
                0x0000000000008204                eeprom_update_dword
 .text.eeprom_update_block
                0x0000000000008208        0x4 .build/obj_massdrop_alt_default/common/arm_atsam/eeprom.o
                0x0000000000008208                eeprom_update_block
 .text.magic    0x000000000000820c       0x30 .build/obj_massdrop_alt_default/common/magic.o
                0x000000000000820c                magic
 .text.ADC0_clock_init
                0x000000000000823c       0x40 .build/obj_massdrop_alt_default/protocol/arm_atsam/adc.o
                0x000000000000823c                ADC0_clock_init
 .text.ADC0_init
                0x000000000000827c      0x15c .build/obj_massdrop_alt_default/protocol/arm_atsam/adc.o
                0x000000000000827c                ADC0_init
 .text.adc_get  0x00000000000083d8       0x34 .build/obj_massdrop_alt_default/protocol/arm_atsam/adc.o
                0x00000000000083d8                adc_get
 .text.CLK_oscctrl_init
                0x000000000000840c      0x164 .build/obj_massdrop_alt_default/protocol/arm_atsam/clks.o
                0x000000000000840c                CLK_oscctrl_init
 .text.CLK_set_gclk_freq
                0x0000000000008570       0xc0 .build/obj_massdrop_alt_default/protocol/arm_atsam/clks.o
                0x0000000000008570                CLK_set_gclk_freq
 .text.CLK_init_osc
                0x0000000000008630       0x90 .build/obj_massdrop_alt_default/protocol/arm_atsam/clks.o
                0x0000000000008630                CLK_init_osc
 .text.CLK_reset_time
                0x00000000000086c0       0x88 .build/obj_massdrop_alt_default/protocol/arm_atsam/clks.o
                0x00000000000086c0                CLK_reset_time
 .text.TC4_Handler
                0x0000000000008748       0x30 .build/obj_massdrop_alt_default/protocol/arm_atsam/clks.o
                0x0000000000008748                TC4_Handler
 .text.CLK_enable_timebase
                0x0000000000008778      0x1f4 .build/obj_massdrop_alt_default/protocol/arm_atsam/clks.o
                0x0000000000008778                CLK_enable_timebase
 *fill*         0x000000000000896c        0x4 
 .text.CLK_delay_us
                0x0000000000008970       0x1c .build/obj_massdrop_alt_default/protocol/arm_atsam/clks.o
                0x0000000000008970                CLK_delay_us
 .text.CLK_delay_ms
                0x000000000000898c       0x1e .build/obj_massdrop_alt_default/protocol/arm_atsam/clks.o
                0x000000000000898c                CLK_delay_ms
 *fill*         0x00000000000089aa        0x2 
 .text.clk_enable_sercom_apbmask
                0x00000000000089ac       0x3c .build/obj_massdrop_alt_default/protocol/arm_atsam/clks.o
                0x00000000000089ac                clk_enable_sercom_apbmask
 .text.CLK_set_spi_freq
                0x00000000000089e8       0x8c .build/obj_massdrop_alt_default/protocol/arm_atsam/clks.o
                0x00000000000089e8                CLK_set_spi_freq
 .text.CLK_set_i2c0_freq
                0x0000000000008a74       0x94 .build/obj_massdrop_alt_default/protocol/arm_atsam/clks.o
                0x0000000000008a74                CLK_set_i2c0_freq
 .text.CLK_set_i2c1_freq
                0x0000000000008b08       0x94 .build/obj_massdrop_alt_default/protocol/arm_atsam/clks.o
                0x0000000000008b08                CLK_set_i2c1_freq
 .text.CLK_init
                0x0000000000008b9c       0x28 .build/obj_massdrop_alt_default/protocol/arm_atsam/clks.o
                0x0000000000008b9c                CLK_init
 .text.dled_print
                0x0000000000008bc4      0x160 .build/obj_massdrop_alt_default/protocol/arm_atsam/d51_util.o
                0x0000000000008bc4                dled_print
 .text.EIC_7_Handler
                0x0000000000008d24       0x14 .build/obj_massdrop_alt_default/protocol/arm_atsam/d51_util.o
                0x0000000000008d24                EIC_7_Handler
 .text.debug_code_init
                0x0000000000008d38       0x9c .build/obj_massdrop_alt_default/protocol/arm_atsam/d51_util.o
                0x0000000000008d38                debug_code_init
 .text.debug_code_disable
                0x0000000000008dd4       0x80 .build/obj_massdrop_alt_default/protocol/arm_atsam/d51_util.o
                0x0000000000008dd4                debug_code_disable
 .text.i2c0_init
                0x0000000000008e54       0xb8 .build/obj_massdrop_alt_default/protocol/arm_atsam/i2c_master.o
                0x0000000000008e54                i2c0_init
 .text.i2c0_start
                0x0000000000008f0c       0x28 .build/obj_massdrop_alt_default/protocol/arm_atsam/i2c_master.o
                0x0000000000008f0c                i2c0_start
 .text.i2c0_stop
                0x0000000000008f34       0x48 .build/obj_massdrop_alt_default/protocol/arm_atsam/i2c_master.o
                0x0000000000008f34                i2c0_stop
 .text.i2c0_transmit
                0x0000000000008f7c       0x40 .build/obj_massdrop_alt_default/protocol/arm_atsam/i2c_master.o
                0x0000000000008f7c                i2c0_transmit
 .text.i2c1_init
                0x0000000000008fbc       0xd4 .build/obj_massdrop_alt_default/protocol/arm_atsam/i2c_master.o
                0x0000000000008fbc                i2c1_init
 .text.i2c1_start
                0x0000000000009090       0x28 .build/obj_massdrop_alt_default/protocol/arm_atsam/i2c_master.o
                0x0000000000009090                i2c1_start
 .text.i2c1_stop
                0x00000000000090b8       0x48 .build/obj_massdrop_alt_default/protocol/arm_atsam/i2c_master.o
                0x00000000000090b8                i2c1_stop
 .text.i2c1_transmit
                0x0000000000009100       0x40 .build/obj_massdrop_alt_default/protocol/arm_atsam/i2c_master.o
                0x0000000000009100                i2c1_transmit
 .text.i2c_led_send_CRWL
                0x0000000000009140       0x2c .build/obj_massdrop_alt_default/protocol/arm_atsam/i2c_master.o
                0x0000000000009140                i2c_led_send_CRWL
 .text.i2c_led_select_page
                0x000000000000916c       0x28 .build/obj_massdrop_alt_default/protocol/arm_atsam/i2c_master.o
                0x000000000000916c                i2c_led_select_page
 .text.i2c_led_send_mode_op_gcr
                0x0000000000009194       0x34 .build/obj_massdrop_alt_default/protocol/arm_atsam/i2c_master.o
                0x0000000000009194                i2c_led_send_mode_op_gcr
 .text.i2c_led_send_pur_pdr
                0x00000000000091c8       0x2c .build/obj_massdrop_alt_default/protocol/arm_atsam/i2c_master.o
                0x00000000000091c8                i2c_led_send_pur_pdr
 .text.I2C3733_Init_Drivers
                0x00000000000091f4       0x90 .build/obj_massdrop_alt_default/protocol/arm_atsam/i2c_master.o
                0x00000000000091f4                I2C3733_Init_Drivers
 .text.I2C_DMAC_LED_Init
                0x0000000000009284       0xd0 .build/obj_massdrop_alt_default/protocol/arm_atsam/i2c_master.o
                0x0000000000009284                I2C_DMAC_LED_Init
 .text.I2C3733_Control_Set
                0x0000000000009354       0x2c .build/obj_massdrop_alt_default/protocol/arm_atsam/i2c_master.o
                0x0000000000009354                I2C3733_Control_Set
 .text.I2C3733_Init_Control
                0x0000000000009380       0x3c .build/obj_massdrop_alt_default/protocol/arm_atsam/i2c_master.o
                0x0000000000009380                I2C3733_Init_Control
 .text.i2c_led_desc_defaults
                0x00000000000093bc       0x48 .build/obj_massdrop_alt_default/protocol/arm_atsam/i2c_master.o
                0x00000000000093bc                i2c_led_desc_defaults
 .text.i2c_led_prepare_send_dma
                0x0000000000009404       0x24 .build/obj_massdrop_alt_default/protocol/arm_atsam/i2c_master.o
                0x0000000000009404                i2c_led_prepare_send_dma
 .text.i2c_led_begin_dma
                0x0000000000009428       0x38 .build/obj_massdrop_alt_default/protocol/arm_atsam/i2c_master.o
                0x0000000000009428                i2c_led_begin_dma
 .text.i2c_led_send_CRWL_dma
                0x0000000000009460       0x24 .build/obj_massdrop_alt_default/protocol/arm_atsam/i2c_master.o
                0x0000000000009460                i2c_led_send_CRWL_dma
 .text.i2c_led_select_page_dma
                0x0000000000009484       0x20 .build/obj_massdrop_alt_default/protocol/arm_atsam/i2c_master.o
                0x0000000000009484                i2c_led_select_page_dma
 .text.i2c_led_send_GCR_dma
                0x00000000000094a4       0x28 .build/obj_massdrop_alt_default/protocol/arm_atsam/i2c_master.o
                0x00000000000094a4                i2c_led_send_GCR_dma
 .text.i2c_led_send_pwm_dma
                0x00000000000094cc       0x38 .build/obj_massdrop_alt_default/protocol/arm_atsam/i2c_master.o
                0x00000000000094cc                i2c_led_send_pwm_dma
 .text.i2c_led_send_onoff_dma
                0x0000000000009504       0x44 .build/obj_massdrop_alt_default/protocol/arm_atsam/i2c_master.o
                0x0000000000009504                i2c_led_send_onoff_dma
 .text.i2c_led_q_init
                0x0000000000009548       0x2c .build/obj_massdrop_alt_default/protocol/arm_atsam/i2c_master.o
                0x0000000000009548                i2c_led_q_init
 .text.i2c_led_q_isempty
                0x0000000000009574       0x18 .build/obj_massdrop_alt_default/protocol/arm_atsam/i2c_master.o
                0x0000000000009574                i2c_led_q_isempty
 .text.i2c_led_q_size
                0x000000000000958c       0x20 .build/obj_massdrop_alt_default/protocol/arm_atsam/i2c_master.o
                0x000000000000958c                i2c_led_q_size
 .text.i2c_led_q_available
                0x00000000000095ac        0xe .build/obj_massdrop_alt_default/protocol/arm_atsam/i2c_master.o
                0x00000000000095ac                i2c_led_q_available
 *fill*         0x00000000000095ba        0x2 
 .text.i2c_led_q_add
                0x00000000000095bc       0x24 .build/obj_massdrop_alt_default/protocol/arm_atsam/i2c_master.o
                0x00000000000095bc                i2c_led_q_add
 .text.i2c_led_q_s_advance
                0x00000000000095e0       0x1c .build/obj_massdrop_alt_default/protocol/arm_atsam/i2c_master.o
                0x00000000000095e0                i2c_led_q_s_advance
 .text.i2c_led_q_request_room
                0x00000000000095fc       0x48 .build/obj_massdrop_alt_default/protocol/arm_atsam/i2c_master.o
                0x00000000000095fc                i2c_led_q_request_room
 .text.i2c_led_q_run
                0x0000000000009644       0xbc .build/obj_massdrop_alt_default/protocol/arm_atsam/i2c_master.o
                0x0000000000009644                i2c_led_q_run
 .text.led_set_one
                0x0000000000009700       0x1c .build/obj_massdrop_alt_default/protocol/arm_atsam/led_matrix.o
                0x0000000000009700                led_set_one
 .text.flush    0x000000000000971c       0xe0 .build/obj_massdrop_alt_default/protocol/arm_atsam/led_matrix.o
                0x000000000000971c                flush
 .text.led_set_all
                0x00000000000097fc       0x1c .build/obj_massdrop_alt_default/protocol/arm_atsam/led_matrix.o
                0x00000000000097fc                led_set_all
 .text.SERCOM1_0_Handler
                0x0000000000009818       0x14 .build/obj_massdrop_alt_default/protocol/arm_atsam/led_matrix.o
                0x0000000000009818                SERCOM1_0_Handler
 .text.DMAC_0_Handler
                0x000000000000982c       0x3c .build/obj_massdrop_alt_default/protocol/arm_atsam/led_matrix.o
                0x000000000000982c                DMAC_0_Handler
 .text.gcr_compute
                0x0000000000009868       0xe4 .build/obj_massdrop_alt_default/protocol/arm_atsam/led_matrix.o
                0x0000000000009868                gcr_compute
 .text.issi3733_prepare_arrays
                0x000000000000994c       0xd0 .build/obj_massdrop_alt_default/protocol/arm_atsam/led_matrix.o
                0x000000000000994c                issi3733_prepare_arrays
 .text.led_matrix_prepare
                0x0000000000009a1c       0x24 .build/obj_massdrop_alt_default/protocol/arm_atsam/led_matrix.o
                0x0000000000009a1c                led_matrix_prepare
 .text.init     0x0000000000009a40       0x28 .build/obj_massdrop_alt_default/protocol/arm_atsam/led_matrix.o
                0x0000000000009a40                init
 .text.led_matrix_indicators
                0x0000000000009a68       0x58 .build/obj_massdrop_alt_default/protocol/arm_atsam/led_matrix.o
                0x0000000000009a68                led_matrix_indicators
 .text.keyboard_leds
                0x0000000000009ac0       0x20 .build/obj_massdrop_alt_default/protocol/arm_atsam/main_arm_atsam.o
                0x0000000000009ac0                keyboard_leds
 .text.send_mouse
                0x0000000000009ae0        0x2 .build/obj_massdrop_alt_default/protocol/arm_atsam/main_arm_atsam.o
                0x0000000000009ae0                send_mouse
 *fill*         0x0000000000009ae2        0x2 
 .text.send_system
                0x0000000000009ae4       0x38 .build/obj_massdrop_alt_default/protocol/arm_atsam/main_arm_atsam.o
                0x0000000000009ae4                send_system
 .text.send_consumer
                0x0000000000009b1c       0x34 .build/obj_massdrop_alt_default/protocol/arm_atsam/main_arm_atsam.o
                0x0000000000009b1c                send_consumer
 .text.main_subtask_usb_state
                0x0000000000009b50       0x94 .build/obj_massdrop_alt_default/protocol/arm_atsam/main_arm_atsam.o
                0x0000000000009b50                main_subtask_usb_state
 *fill*         0x0000000000009be4        0x4 
 .text.main_subtask_power_check
                0x0000000000009be8       0x8c .build/obj_massdrop_alt_default/protocol/arm_atsam/main_arm_atsam.o
                0x0000000000009be8                main_subtask_power_check
 .text.main_subtask_usb_extra_device
                0x0000000000009c74       0x34 .build/obj_massdrop_alt_default/protocol/arm_atsam/main_arm_atsam.o
                0x0000000000009c74                main_subtask_usb_extra_device
 .text.main_subtasks
                0x0000000000009ca8       0x12 .build/obj_massdrop_alt_default/protocol/arm_atsam/main_arm_atsam.o
                0x0000000000009ca8                main_subtasks
 *fill*         0x0000000000009cba        0x2 
 .text.send_keyboard
                0x0000000000009cbc       0x94 .build/obj_massdrop_alt_default/protocol/arm_atsam/main_arm_atsam.o
                0x0000000000009cbc                send_keyboard
 .text.startup.main
                0x0000000000009d50      0x11c .build/obj_massdrop_alt_default/protocol/arm_atsam/main_arm_atsam.o
                0x0000000000009d50                main
 .text.SR_EXP_WriteData
                0x0000000000009e6c       0x64 .build/obj_massdrop_alt_default/protocol/arm_atsam/spi.o
                0x0000000000009e6c                SR_EXP_WriteData
 .text.SR_EXP_Init
                0x0000000000009ed0       0xd0 .build/obj_massdrop_alt_default/protocol/arm_atsam/spi.o
                0x0000000000009ed0                SR_EXP_Init
 .text.Dummy_Handler
                0x0000000000009fa0        0x2 .build/obj_massdrop_alt_default/protocol/arm_atsam/startup.o
                0x0000000000009fa0                ICM_Handler
                0x0000000000009fa0                SERCOM0_2_Handler
                0x0000000000009fa0                DebugMon_Handler
                0x0000000000009fa0                EIC_13_Handler
                0x0000000000009fa0                EVSYS_0_Handler
                0x0000000000009fa0                TCC1_3_Handler
                0x0000000000009fa0                DAC_3_Handler
                0x0000000000009fa0                TRNG_Handler
                0x0000000000009fa0                HardFault_Handler
                0x0000000000009fa0                TC2_Handler
                0x0000000000009fa0                PDEC_2_Handler
                0x0000000000009fa0                EIC_4_Handler
                0x0000000000009fa0                AC_Handler
                0x0000000000009fa0                SERCOM3_1_Handler
                0x0000000000009fa0                SysTick_Handler
                0x0000000000009fa0                TCC2_3_Handler
                0x0000000000009fa0                SERCOM3_2_Handler
                0x0000000000009fa0                PendSV_Handler
                0x0000000000009fa0                NMI_Handler
                0x0000000000009fa0                ADC1_1_Handler
                0x0000000000009fa0                EVSYS_3_Handler
                0x0000000000009fa0                PDEC_0_Handler
                0x0000000000009fa0                QSPI_Handler
                0x0000000000009fa0                TCC0_0_Handler
                0x0000000000009fa0                EIC_3_Handler
                0x0000000000009fa0                TAL_0_Handler
                0x0000000000009fa0                DAC_2_Handler
                0x0000000000009fa0                SERCOM0_0_Handler
                0x0000000000009fa0                RTC_Handler
                0x0000000000009fa0                UsageFault_Handler
                0x0000000000009fa0                SERCOM4_0_Handler
                0x0000000000009fa0                EIC_10_Handler
                0x0000000000009fa0                SERCOM0_3_Handler
                0x0000000000009fa0                EIC_11_Handler
                0x0000000000009fa0                EIC_9_Handler
                0x0000000000009fa0                OSC32KCTRL_Handler
                0x0000000000009fa0                TCC2_1_Handler
                0x0000000000009fa0                SUPC_1_Handler
                0x0000000000009fa0                TCC0_5_Handler
                0x0000000000009fa0                TCC0_6_Handler
                0x0000000000009fa0                EVSYS_1_Handler
                0x0000000000009fa0                TCC1_4_Handler
                0x0000000000009fa0                WDT_Handler
                0x0000000000009fa0                EIC_8_Handler
                0x0000000000009fa0                EIC_15_Handler
                0x0000000000009fa0                SERCOM5_0_Handler
                0x0000000000009fa0                TC1_Handler
                0x0000000000009fa0                OSCCTRL_4_Handler
                0x0000000000009fa0                SERCOM4_3_Handler
                0x0000000000009fa0                EIC_12_Handler
                0x0000000000009fa0                DMAC_4_Handler
                0x0000000000009fa0                TCC4_2_Handler
                0x0000000000009fa0                PAC_Handler
                0x0000000000009fa0                TCC1_0_Handler
                0x0000000000009fa0                OSCCTRL_0_Handler
                0x0000000000009fa0                EIC_0_Handler
                0x0000000000009fa0                OSCCTRL_3_Handler
                0x0000000000009fa0                SERCOM4_1_Handler
                0x0000000000009fa0                TC3_Handler
                0x0000000000009fa0                Dummy_Handler
                0x0000000000009fa0                TCC3_0_Handler
                0x0000000000009fa0                TCC2_2_Handler
                0x0000000000009fa0                SERCOM5_1_Handler
                0x0000000000009fa0                TCC1_1_Handler
                0x0000000000009fa0                DMAC_2_Handler
                0x0000000000009fa0                ADC0_0_Handler
                0x0000000000009fa0                SERCOM0_1_Handler
                0x0000000000009fa0                OSCCTRL_2_Handler
                0x0000000000009fa0                ADC1_0_Handler
                0x0000000000009fa0                TCC1_2_Handler
                0x0000000000009fa0                PM_Handler
                0x0000000000009fa0                SERCOM2_3_Handler
                0x0000000000009fa0                DAC_4_Handler
                0x0000000000009fa0                TCC3_2_Handler
                0x0000000000009fa0                TCC0_2_Handler
                0x0000000000009fa0                DMAC_1_Handler
                0x0000000000009fa0                TCC4_0_Handler
                0x0000000000009fa0                TCC2_0_Handler
                0x0000000000009fa0                PDEC_1_Handler
                0x0000000000009fa0                MemManage_Handler
                0x0000000000009fa0                TCC4_1_Handler
                0x0000000000009fa0                SERCOM5_3_Handler
                0x0000000000009fa0                SVC_Handler
                0x0000000000009fa0                SDHC0_Handler
                0x0000000000009fa0                SERCOM1_1_Handler
                0x0000000000009fa0                I2S_Handler
                0x0000000000009fa0                EIC_2_Handler
                0x0000000000009fa0                PCC_Handler
                0x0000000000009fa0                DAC_0_Handler
                0x0000000000009fa0                TCC0_1_Handler
                0x0000000000009fa0                SERCOM1_3_Handler
                0x0000000000009fa0                EIC_6_Handler
                0x0000000000009fa0                OSCCTRL_1_Handler
                0x0000000000009fa0                PUKCC_Handler
                0x0000000000009fa0                SERCOM2_1_Handler
                0x0000000000009fa0                SERCOM1_2_Handler
                0x0000000000009fa0                SERCOM3_0_Handler
                0x0000000000009fa0                EIC_1_Handler
                0x0000000000009fa0                SERCOM4_2_Handler
                0x0000000000009fa0                EVSYS_4_Handler
                0x0000000000009fa0                NVMCTRL_1_Handler
                0x0000000000009fa0                SERCOM5_2_Handler
                0x0000000000009fa0                SERCOM3_3_Handler
                0x0000000000009fa0                ADC0_1_Handler
                0x0000000000009fa0                SERCOM2_2_Handler
                0x0000000000009fa0                TCC3_1_Handler
                0x0000000000009fa0                EIC_14_Handler
                0x0000000000009fa0                DAC_1_Handler
                0x0000000000009fa0                NVMCTRL_0_Handler
                0x0000000000009fa0                TAL_1_Handler
                0x0000000000009fa0                MCLK_Handler
                0x0000000000009fa0                EVSYS_2_Handler
                0x0000000000009fa0                SUPC_0_Handler
                0x0000000000009fa0                BusFault_Handler
                0x0000000000009fa0                FREQM_Handler
                0x0000000000009fa0                TC0_Handler
                0x0000000000009fa0                TCC0_3_Handler
                0x0000000000009fa0                DMAC_3_Handler
                0x0000000000009fa0                TCC0_4_Handler
                0x0000000000009fa0                RAMECC_Handler
                0x0000000000009fa0                TC5_Handler
                0x0000000000009fa0                SERCOM2_0_Handler
                0x0000000000009fa0                AES_Handler
                0x0000000000009fa0                EIC_5_Handler
 *fill*         0x0000000000009fa2        0x2 
 .text.Reset_Handler
                0x0000000000009fa4       0x70 .build/obj_massdrop_alt_default/protocol/arm_atsam/startup.o
                0x0000000000009fa4                Reset_Handler
 .text.main_suspend_action
                0x000000000000a014        0x4 .build/obj_massdrop_alt_default/protocol/arm_atsam/usb/main_usb.o
                0x000000000000a014                main_suspend_action
 .text.main_resume_action
                0x000000000000a018        0x4 .build/obj_massdrop_alt_default/protocol/arm_atsam/usb/main_usb.o
                0x000000000000a018                main_resume_action
 .text.main_sof_action
                0x000000000000a01c        0xe .build/obj_massdrop_alt_default/protocol/arm_atsam/usb/main_usb.o
                0x000000000000a01c                main_sof_action
 .text.main_remotewakeup_enable
                0x000000000000a02a        0x4 .build/obj_massdrop_alt_default/protocol/arm_atsam/usb/main_usb.o
                0x000000000000a02a                main_remotewakeup_enable
 .text.main_remotewakeup_disable
                0x000000000000a02e        0x4 .build/obj_massdrop_alt_default/protocol/arm_atsam/usb/main_usb.o
                0x000000000000a02e                main_remotewakeup_disable
 *fill*         0x000000000000a032        0x2 
 .text.main_kbd_enable
                0x000000000000a034        0xc .build/obj_massdrop_alt_default/protocol/arm_atsam/usb/main_usb.o
                0x000000000000a034                main_kbd_enable
 .text.main_kbd_disable
                0x000000000000a040        0xc .build/obj_massdrop_alt_default/protocol/arm_atsam/usb/main_usb.o
                0x000000000000a040                main_kbd_disable
 .text.main_nkro_enable
                0x000000000000a04c        0xc .build/obj_massdrop_alt_default/protocol/arm_atsam/usb/main_usb.o
                0x000000000000a04c                main_nkro_enable
 .text.main_nkro_disable
                0x000000000000a058        0xc .build/obj_massdrop_alt_default/protocol/arm_atsam/usb/main_usb.o
                0x000000000000a058                main_nkro_disable
 .text.main_exk_enable
                0x000000000000a064        0xc .build/obj_massdrop_alt_default/protocol/arm_atsam/usb/main_usb.o
                0x000000000000a064                main_exk_enable
 .text.main_exk_disable
                0x000000000000a070        0xc .build/obj_massdrop_alt_default/protocol/arm_atsam/usb/main_usb.o
                0x000000000000a070                main_exk_disable
 .text.udc_update_iface_desc
                0x000000000000a07c       0x4c .build/obj_massdrop_alt_default/protocol/arm_atsam/usb/udc.o
 .text.udc_valid_address
                0x000000000000a0c8       0x10 .build/obj_massdrop_alt_default/protocol/arm_atsam/usb/udc.o
 .text.udc_next_desc_in_iface.constprop.0
                0x000000000000a0d8       0x28 .build/obj_massdrop_alt_default/protocol/arm_atsam/usb/udc.o
 .text.udc_iface_enable
                0x000000000000a100       0x40 .build/obj_massdrop_alt_default/protocol/arm_atsam/usb/udc.o
 .text.udc_iface_disable
                0x000000000000a140       0x4c .build/obj_massdrop_alt_default/protocol/arm_atsam/usb/udc.o
 .text.udc_get_interface_desc
                0x000000000000a18c        0xc .build/obj_massdrop_alt_default/protocol/arm_atsam/usb/udc.o
                0x000000000000a18c                udc_get_interface_desc
 .text.udc_start
                0x000000000000a198        0x4 .build/obj_massdrop_alt_default/protocol/arm_atsam/usb/udc.o
                0x000000000000a198                udc_start
 .text.udc_reset
                0x000000000000a19c       0x3c .build/obj_massdrop_alt_default/protocol/arm_atsam/usb/udc.o
                0x000000000000a19c                udc_reset
 .text.udc_sof_notify
                0x000000000000a1d8       0x30 .build/obj_massdrop_alt_default/protocol/arm_atsam/usb/udc.o
                0x000000000000a1d8                udc_sof_notify
 .text.udc_process_setup
                0x000000000000a208      0x40c .build/obj_massdrop_alt_default/protocol/arm_atsam/usb/udc.o
                0x000000000000a208                udc_process_setup
 .text.CDC_print
                0x000000000000a614        0x4 .build/obj_massdrop_alt_default/protocol/arm_atsam/usb/udi_cdc.o
                0x000000000000a614                CDC_print
 .text.CDC_init
                0x000000000000a618       0x18 .build/obj_massdrop_alt_default/protocol/arm_atsam/usb/udi_cdc.o
                0x000000000000a618                CDC_init
 .text.udi_hid_setup
                0x000000000000a630       0xa4 .build/obj_massdrop_alt_default/protocol/arm_atsam/usb/udi_hid.o
                0x000000000000a630                udi_hid_setup
 .text.udi_hid_kbd_getsetting
                0x000000000000a6d4        0x4 .build/obj_massdrop_alt_default/protocol/arm_atsam/usb/udi_hid_kbd.o
                0x000000000000a6d4                udi_hid_kbd_getsetting
 .text.udi_hid_kbd_setreport
                0x000000000000a6d8       0x34 .build/obj_massdrop_alt_default/protocol/arm_atsam/usb/udi_hid_kbd.o
 .text.udi_hid_kbd_setreport_valid
                0x000000000000a70c        0x2 .build/obj_massdrop_alt_default/protocol/arm_atsam/usb/udi_hid_kbd.o
 *fill*         0x000000000000a70e        0x2 
 .text.udi_hid_nkro_setreport
                0x000000000000a710       0x34 .build/obj_massdrop_alt_default/protocol/arm_atsam/usb/udi_hid_kbd.o
 .text.udi_hid_exk_setreport
                0x000000000000a744       0x34 .build/obj_massdrop_alt_default/protocol/arm_atsam/usb/udi_hid_kbd.o
 .text.udi_hid_kbd_enable
                0x000000000000a778       0x2c .build/obj_massdrop_alt_default/protocol/arm_atsam/usb/udi_hid_kbd.o
                0x000000000000a778                udi_hid_kbd_enable
 .text.udi_hid_kbd_disable
                0x000000000000a7a4        0x4 .build/obj_massdrop_alt_default/protocol/arm_atsam/usb/udi_hid_kbd.o
                0x000000000000a7a4                udi_hid_kbd_disable
 .text.udi_hid_kbd_setup
                0x000000000000a7a8       0x18 .build/obj_massdrop_alt_default/protocol/arm_atsam/usb/udi_hid_kbd.o
                0x000000000000a7a8                udi_hid_kbd_setup
 .text.udi_hid_nkro_setup
                0x000000000000a7c0       0x1c .build/obj_massdrop_alt_default/protocol/arm_atsam/usb/udi_hid_kbd.o
                0x000000000000a7c0                udi_hid_nkro_setup
 .text.udi_hid_exk_setup
                0x000000000000a7dc       0x1c .build/obj_massdrop_alt_default/protocol/arm_atsam/usb/udi_hid_kbd.o
                0x000000000000a7dc                udi_hid_exk_setup
 .text.udi_hid_nkro_enable
                0x000000000000a7f8       0x34 .build/obj_massdrop_alt_default/protocol/arm_atsam/usb/udi_hid_kbd.o
                0x000000000000a7f8                udi_hid_nkro_enable
 .text.udi_hid_nkro_disable
                0x000000000000a82c        0x4 .build/obj_massdrop_alt_default/protocol/arm_atsam/usb/udi_hid_kbd.o
                0x000000000000a82c                udi_hid_nkro_disable
 .text.udi_hid_exk_enable
                0x000000000000a830       0x24 .build/obj_massdrop_alt_default/protocol/arm_atsam/usb/udi_hid_kbd.o
                0x000000000000a830                udi_hid_exk_enable
 .text.udi_hid_exk_disable
                0x000000000000a854        0x4 .build/obj_massdrop_alt_default/protocol/arm_atsam/usb/udi_hid_kbd.o
                0x000000000000a854                udi_hid_exk_disable
 .text.udi_hid_exk_setreport_valid
                0x000000000000a858        0x2 .build/obj_massdrop_alt_default/protocol/arm_atsam/usb/udi_hid_kbd.o
 .text.udi_hid_nkro_setreport_valid
                0x000000000000a85a        0x2 .build/obj_massdrop_alt_default/protocol/arm_atsam/usb/udi_hid_kbd.o
 .text.udi_hid_exk_getsetting
                0x000000000000a85c        0x4 .build/obj_massdrop_alt_default/protocol/arm_atsam/usb/udi_hid_kbd.o
                0x000000000000a85c                udi_hid_exk_getsetting
 .text.udi_hid_nkro_getsetting
                0x000000000000a860        0x4 .build/obj_massdrop_alt_default/protocol/arm_atsam/usb/udi_hid_kbd.o
                0x000000000000a860                udi_hid_nkro_getsetting
 .text.udi_hid_kbd_send_report
                0x000000000000a864       0x5c .build/obj_massdrop_alt_default/protocol/arm_atsam/usb/udi_hid_kbd.o
                0x000000000000a864                udi_hid_kbd_send_report
 .text.udi_hid_kbd_report_sent
                0x000000000000a8c0       0x1c .build/obj_massdrop_alt_default/protocol/arm_atsam/usb/udi_hid_kbd.o
 .text.udi_hid_nkro_send_report
                0x000000000000a8dc       0x64 .build/obj_massdrop_alt_default/protocol/arm_atsam/usb/udi_hid_kbd.o
                0x000000000000a8dc                udi_hid_nkro_send_report
 .text.udi_hid_nkro_report_sent
                0x000000000000a940       0x1c .build/obj_massdrop_alt_default/protocol/arm_atsam/usb/udi_hid_kbd.o
 .text.udi_hid_exk_send_report
                0x000000000000a95c       0x54 .build/obj_massdrop_alt_default/protocol/arm_atsam/usb/udi_hid_kbd.o
                0x000000000000a95c                udi_hid_exk_send_report
 .text.udi_hid_exk_report_sent
                0x000000000000a9b0       0x1c .build/obj_massdrop_alt_default/protocol/arm_atsam/usb/udi_hid_kbd.o
 .text.ui_powerdown
                0x000000000000a9cc        0x2 .build/obj_massdrop_alt_default/protocol/arm_atsam/usb/ui.o
                0x000000000000a9cc                ui_powerdown
 .text.ui_wakeup_enable
                0x000000000000a9ce        0x2 .build/obj_massdrop_alt_default/protocol/arm_atsam/usb/ui.o
                0x000000000000a9ce                ui_wakeup_enable
 .text.ui_wakeup_disable
                0x000000000000a9d0        0x2 .build/obj_massdrop_alt_default/protocol/arm_atsam/usb/ui.o
                0x000000000000a9d0                ui_wakeup_disable
 .text.ui_wakeup
                0x000000000000a9d2        0x2 .build/obj_massdrop_alt_default/protocol/arm_atsam/usb/ui.o
                0x000000000000a9d2                ui_wakeup
 .text.ui_process
                0x000000000000a9d4        0x2 .build/obj_massdrop_alt_default/protocol/arm_atsam/usb/ui.o
                0x000000000000a9d4                ui_process
 *fill*         0x000000000000a9d6        0x2 
 .text.USB_write2422_block
                0x000000000000a9d8       0x7c .build/obj_massdrop_alt_default/protocol/arm_atsam/usb/usb2422.o
                0x000000000000a9d8                USB_write2422_block
 .text.USB2422_init
                0x000000000000aa54      0x228 .build/obj_massdrop_alt_default/protocol/arm_atsam/usb/usb2422.o
                0x000000000000aa54                USB2422_init
 .text.USB_reset
                0x000000000000ac7c       0x38 .build/obj_massdrop_alt_default/protocol/arm_atsam/usb/usb2422.o
                0x000000000000ac7c                USB_reset
 .text.USB_configure
                0x000000000000acb4       0xf8 .build/obj_massdrop_alt_default/protocol/arm_atsam/usb/usb2422.o
                0x000000000000acb4                USB_configure
 .text.USB_active
                0x000000000000adac       0x10 .build/obj_massdrop_alt_default/protocol/arm_atsam/usb/usb2422.o
                0x000000000000adac                USB_active
 .text.USB_set_host_by_voltage
                0x000000000000adbc      0x110 .build/obj_massdrop_alt_default/protocol/arm_atsam/usb/usb2422.o
                0x000000000000adbc                USB_set_host_by_voltage
 .text.USB2422_Port_Detect_Init
                0x000000000000aecc       0x98 .build/obj_massdrop_alt_default/protocol/arm_atsam/usb/usb2422.o
                0x000000000000aecc                USB2422_Port_Detect_Init
 .text.USB_ExtraSetState
                0x000000000000af64       0x80 .build/obj_massdrop_alt_default/protocol/arm_atsam/usb/usb2422.o
                0x000000000000af64                USB_ExtraSetState
 *fill*         0x000000000000afe4        0x4 
 .text.USB_HandleExtraDevice
                0x000000000000afe8       0xb0 .build/obj_massdrop_alt_default/protocol/arm_atsam/usb/usb2422.o
                0x000000000000afe8                USB_HandleExtraDevice
 .text._usb_device_interrupt_handler
                0x000000000000b098      0x200 .build/obj_massdrop_alt_default/protocol/arm_atsam/usb/usb.o
 .text.usb_device_register_callback
                0x000000000000b298       0x20 .build/obj_massdrop_alt_default/protocol/arm_atsam/usb/usb.o
                0x000000000000b298                usb_device_register_callback
 .text.usb_device_enable_callback
                0x000000000000b2b8       0x20 .build/obj_massdrop_alt_default/protocol/arm_atsam/usb/usb.o
                0x000000000000b2b8                usb_device_enable_callback
 .text.usb_device_disable_callback
                0x000000000000b2d8       0x20 .build/obj_massdrop_alt_default/protocol/arm_atsam/usb/usb.o
                0x000000000000b2d8                usb_device_disable_callback
 .text.usb_device_endpoint_register_callback
                0x000000000000b2f8       0x28 .build/obj_massdrop_alt_default/protocol/arm_atsam/usb/usb.o
                0x000000000000b2f8                usb_device_endpoint_register_callback
 .text.usb_device_endpoint_unregister_callback
                0x000000000000b320       0x2c .build/obj_massdrop_alt_default/protocol/arm_atsam/usb/usb.o
                0x000000000000b320                usb_device_endpoint_unregister_callback
 .text.usb_device_endpoint_enable_callback
                0x000000000000b34c       0x88 .build/obj_massdrop_alt_default/protocol/arm_atsam/usb/usb.o
                0x000000000000b34c                usb_device_endpoint_enable_callback
 .text.usb_device_endpoint_disable_callback
                0x000000000000b3d4       0x88 .build/obj_massdrop_alt_default/protocol/arm_atsam/usb/usb.o
                0x000000000000b3d4                usb_device_endpoint_disable_callback
 .text.usb_device_endpoint_get_config_defaults
                0x000000000000b45c        0xe .build/obj_massdrop_alt_default/protocol/arm_atsam/usb/usb.o
                0x000000000000b45c                usb_device_endpoint_get_config_defaults
 *fill*         0x000000000000b46a        0x2 
 .text.usb_device_endpoint_set_config
                0x000000000000b46c      0x180 .build/obj_massdrop_alt_default/protocol/arm_atsam/usb/usb.o
                0x000000000000b46c                usb_device_endpoint_set_config
 .text.usb_device_endpoint_abort_job
                0x000000000000b5ec       0x2c .build/obj_massdrop_alt_default/protocol/arm_atsam/usb/usb.o
                0x000000000000b5ec                usb_device_endpoint_abort_job
 .text.usb_device_endpoint_is_halted
                0x000000000000b618       0x1e .build/obj_massdrop_alt_default/protocol/arm_atsam/usb/usb.o
                0x000000000000b618                usb_device_endpoint_is_halted
 .text.usb_device_endpoint_set_halt
                0x000000000000b636       0x1a .build/obj_massdrop_alt_default/protocol/arm_atsam/usb/usb.o
                0x000000000000b636                usb_device_endpoint_set_halt
 .text.usb_device_endpoint_clear_halt
                0x000000000000b650       0x6a .build/obj_massdrop_alt_default/protocol/arm_atsam/usb/usb.o
                0x000000000000b650                usb_device_endpoint_clear_halt
 *fill*         0x000000000000b6ba        0x2 
 .text.usb_device_endpoint_write_buffer_job
                0x000000000000b6bc       0x40 .build/obj_massdrop_alt_default/protocol/arm_atsam/usb/usb.o
                0x000000000000b6bc                usb_device_endpoint_write_buffer_job
 .text.usb_device_endpoint_read_buffer_job
                0x000000000000b6fc       0x3c .build/obj_massdrop_alt_default/protocol/arm_atsam/usb/usb.o
                0x000000000000b6fc                usb_device_endpoint_read_buffer_job
 .text.usb_device_endpoint_setup_buffer_job
                0x000000000000b738       0x28 .build/obj_massdrop_alt_default/protocol/arm_atsam/usb/usb.o
                0x000000000000b738                usb_device_endpoint_setup_buffer_job
 .text.usb_enable
                0x000000000000b760       0x14 .build/obj_massdrop_alt_default/protocol/arm_atsam/usb/usb.o
                0x000000000000b760                usb_enable
 .text.USB_0_Handler
                0x000000000000b774       0x18 .build/obj_massdrop_alt_default/protocol/arm_atsam/usb/usb.o
                0x000000000000b774                USB_0_Handler
 .text.USB_1_Handler
                0x000000000000b78c        0x4 .build/obj_massdrop_alt_default/protocol/arm_atsam/usb/usb.o
                0x000000000000b78c                USB_1_Handler
 .text.USB_2_Handler
                0x000000000000b790        0x4 .build/obj_massdrop_alt_default/protocol/arm_atsam/usb/usb.o
                0x000000000000b790                USB_2_Handler
 .text.USB_3_Handler
                0x000000000000b794        0x4 .build/obj_massdrop_alt_default/protocol/arm_atsam/usb/usb.o
                0x000000000000b794                USB_3_Handler
 .text.usb_get_config_defaults
                0x000000000000b798        0xe .build/obj_massdrop_alt_default/protocol/arm_atsam/usb/usb.o
                0x000000000000b798                usb_get_config_defaults
 *fill*         0x000000000000b7a6        0x2 
 .text.usb_init
                0x000000000000b7a8      0x1fc .build/obj_massdrop_alt_default/protocol/arm_atsam/usb/usb.o
                0x000000000000b7a8                usb_init
 .text.udd_ep_get_job
                0x000000000000b9a4       0x24 .build/obj_massdrop_alt_default/protocol/arm_atsam/usb/usb_device_udd.o
 .text.udd_ep_transfer_process
                0x000000000000b9c8      0x140 .build/obj_massdrop_alt_default/protocol/arm_atsam/usb/usb_device_udd.o
 .text.udd_ctrl_stall_data
                0x000000000000bb08       0x28 .build/obj_massdrop_alt_default/protocol/arm_atsam/usb/usb_device_udd.o
 .text._usb_on_wakeup
                0x000000000000bb30       0x20 .build/obj_massdrop_alt_default/protocol/arm_atsam/usb/usb_device_udd.o
 .text._usb_on_bus_reset
                0x000000000000bb50       0x8c .build/obj_massdrop_alt_default/protocol/arm_atsam/usb/usb_device_udd.o
 .text.udd_ctrl_send_zlp_in
                0x000000000000bbdc       0x38 .build/obj_massdrop_alt_default/protocol/arm_atsam/usb/usb_device_udd.o
 .text._usb_ep0_on_tansfer_fail
                0x000000000000bc14       0x38 .build/obj_massdrop_alt_default/protocol/arm_atsam/usb/usb_device_udd.o
 .text.udd_ctrl_in_sent
                0x000000000000bc4c       0x8c .build/obj_massdrop_alt_default/protocol/arm_atsam/usb/usb_device_udd.o
 .text._usb_ep0_on_setup
                0x000000000000bcd8       0xc0 .build/obj_massdrop_alt_default/protocol/arm_atsam/usb/usb_device_udd.o
 .text._usb_on_sof_notify
                0x000000000000bd98        0xe .build/obj_massdrop_alt_default/protocol/arm_atsam/usb/usb_device_udd.o
 *fill*         0x000000000000bda6        0x2 
 .text._usb_on_suspend
                0x000000000000bda8       0x20 .build/obj_massdrop_alt_default/protocol/arm_atsam/usb/usb_device_udd.o
 .text.udd_ep_abort
                0x000000000000bdc8       0x34 .build/obj_massdrop_alt_default/protocol/arm_atsam/usb/usb_device_udd.o
                0x000000000000bdc8                udd_ep_abort
 .text.udd_get_frame_number
                0x000000000000bdfc       0x10 .build/obj_massdrop_alt_default/protocol/arm_atsam/usb/usb_device_udd.o
                0x000000000000bdfc                udd_get_frame_number
 .text.udd_ep_free
                0x000000000000be0c       0x44 .build/obj_massdrop_alt_default/protocol/arm_atsam/usb/usb_device_udd.o
                0x000000000000be0c                udd_ep_free
 .text.udd_ep_alloc
                0x000000000000be50       0xc0 .build/obj_massdrop_alt_default/protocol/arm_atsam/usb/usb_device_udd.o
                0x000000000000be50                udd_ep_alloc
 .text.udd_ep_is_halted
                0x000000000000bf10        0xc .build/obj_massdrop_alt_default/protocol/arm_atsam/usb/usb_device_udd.o
                0x000000000000bf10                udd_ep_is_halted
 .text.udd_ep_set_halt
                0x000000000000bf1c       0x28 .build/obj_massdrop_alt_default/protocol/arm_atsam/usb/usb_device_udd.o
                0x000000000000bf1c                udd_ep_set_halt
 .text._usb_ep0_on_tansfer_ok
                0x000000000000bf44       0xcc .build/obj_massdrop_alt_default/protocol/arm_atsam/usb/usb_device_udd.o
 .text.udd_ep_clear_halt
                0x000000000000c010       0x34 .build/obj_massdrop_alt_default/protocol/arm_atsam/usb/usb_device_udd.o
                0x000000000000c010                udd_ep_clear_halt
 .text.udd_ep_run
                0x000000000000c044      0x144 .build/obj_massdrop_alt_default/protocol/arm_atsam/usb/usb_device_udd.o
                0x000000000000c044                udd_ep_run
 .text.udd_set_address
                0x000000000000c188       0x10 .build/obj_massdrop_alt_default/protocol/arm_atsam/usb/usb_device_udd.o
                0x000000000000c188                udd_set_address
 .text.udd_getaddress
                0x000000000000c198       0x10 .build/obj_massdrop_alt_default/protocol/arm_atsam/usb/usb_device_udd.o
                0x000000000000c198                udd_getaddress
 .text.udd_send_remotewakeup
                0x000000000000c1a8       0x20 .build/obj_massdrop_alt_default/protocol/arm_atsam/usb/usb_device_udd.o
                0x000000000000c1a8                udd_send_remotewakeup
 .text.udd_set_setup_payload
                0x000000000000c1c8        0xc .build/obj_massdrop_alt_default/protocol/arm_atsam/usb/usb_device_udd.o
                0x000000000000c1c8                udd_set_setup_payload
 .text.udd_attach
                0x000000000000c1d4       0x74 .build/obj_massdrop_alt_default/protocol/arm_atsam/usb/usb_device_udd.o
                0x000000000000c1d4                udd_attach
 .text.udd_enable
                0x000000000000c248       0x40 .build/obj_massdrop_alt_default/protocol/arm_atsam/usb/usb_device_udd.o
                0x000000000000c248                udd_enable
 .text          0x000000000000c288      0x378 /usr/local/Cellar/gcc-arm-none-eabi/20180627/bin/../lib/gcc/arm-none-eabi/7.3.1/thumb/v7e-m/fpv4-sp/hard/libgcc.a(_arm_addsubdf3.o)
                0x000000000000c288                __aeabi_drsub
                0x000000000000c290                __subdf3
                0x000000000000c290                __aeabi_dsub
                0x000000000000c294                __aeabi_dadd
                0x000000000000c294                __adddf3
                0x000000000000c50c                __aeabi_ui2d
                0x000000000000c50c                __floatunsidf
                0x000000000000c52c                __floatsidf
                0x000000000000c52c                __aeabi_i2d
                0x000000000000c550                __extendsfdf2
                0x000000000000c550                __aeabi_f2d
                0x000000000000c594                __aeabi_ul2d
                0x000000000000c594                __floatundidf
                0x000000000000c5a4                __aeabi_l2d
                0x000000000000c5a4                __floatdidf
 .text          0x000000000000c600      0x424 /usr/local/Cellar/gcc-arm-none-eabi/20180627/bin/../lib/gcc/arm-none-eabi/7.3.1/thumb/v7e-m/fpv4-sp/hard/libgcc.a(_arm_muldivdf3.o)
                0x000000000000c600                __aeabi_dmul
                0x000000000000c600                __muldf3
                0x000000000000c854                __aeabi_ddiv
                0x000000000000c854                __divdf3
 .text          0x000000000000ca24       0x40 /usr/local/Cellar/gcc-arm-none-eabi/20180627/bin/../lib/gcc/arm-none-eabi/7.3.1/thumb/v7e-m/fpv4-sp/hard/libgcc.a(_arm_fixunsdfsi.o)
                0x000000000000ca24                __fixunsdfsi
                0x000000000000ca24                __aeabi_d2uiz
 .text          0x000000000000ca64       0x30 /usr/local/Cellar/gcc-arm-none-eabi/20180627/bin/../lib/gcc/arm-none-eabi/7.3.1/thumb/v7e-m/fpv4-sp/hard/libgcc.a(_aeabi_uldivmod.o)
                0x000000000000ca64                __aeabi_uldivmod
 .text          0x000000000000ca94      0x2cc /usr/local/Cellar/gcc-arm-none-eabi/20180627/bin/../lib/gcc/arm-none-eabi/7.3.1/thumb/v7e-m/fpv4-sp/hard/libgcc.a(_udivmoddi4.o)
                0x000000000000ca94                __udivmoddi4
 .text          0x000000000000cd60        0x4 /usr/local/Cellar/gcc-arm-none-eabi/20180627/bin/../lib/gcc/arm-none-eabi/7.3.1/thumb/v7e-m/fpv4-sp/hard/libgcc.a(_dvmd_tls.o)
                0x000000000000cd60                __aeabi_ldiv0
                0x000000000000cd60                __aeabi_idiv0
 .text.__libc_init_array
                0x000000000000cd64       0x48 /usr/local/Cellar/gcc-arm-none-eabi/20180627/bin/../lib/gcc/arm-none-eabi/7.3.1/../../../../arm-none-eabi/lib/thumb/v7e-m/fpv4-sp/hard/libg.a(lib_a-init.o)
                0x000000000000cd64                __libc_init_array
 .text          0x000000000000cdac      0x134 /usr/local/Cellar/gcc-arm-none-eabi/20180627/bin/../lib/gcc/arm-none-eabi/7.3.1/../../../../arm-none-eabi/lib/thumb/v7e-m/fpv4-sp/hard/libg.a(lib_a-memcpy.o)
                0x000000000000cdac                memcpy
 .text.memset   0x000000000000cee0       0x94 /usr/local/Cellar/gcc-arm-none-eabi/20180627/bin/../lib/gcc/arm-none-eabi/7.3.1/../../../../arm-none-eabi/lib/thumb/v7e-m/fpv4-sp/hard/libg.a(lib_a-memset.o)
                0x000000000000cee0                memset
 .text.rand     0x000000000000cf74       0x3c /usr/local/Cellar/gcc-arm-none-eabi/20180627/bin/../lib/gcc/arm-none-eabi/7.3.1/../../../../arm-none-eabi/lib/thumb/v7e-m/fpv4-sp/hard/libg.a(lib_a-rand.o)
                0x000000000000cf74                rand
 .text.startup.register_fini
                0x000000000000cfb0       0x14 /usr/local/Cellar/gcc-arm-none-eabi/20180627/bin/../lib/gcc/arm-none-eabi/7.3.1/../../../../arm-none-eabi/lib/thumb/v7e-m/fpv4-sp/hard/libg.a(lib_a-__call_atexit.o)
 .text.atexit   0x000000000000cfc4        0xc /usr/local/Cellar/gcc-arm-none-eabi/20180627/bin/../lib/gcc/arm-none-eabi/7.3.1/../../../../arm-none-eabi/lib/thumb/v7e-m/fpv4-sp/hard/libg.a(lib_a-atexit.o)
                0x000000000000cfc4                atexit
 .text.__libc_fini_array
                0x000000000000cfd0       0x34 /usr/local/Cellar/gcc-arm-none-eabi/20180627/bin/../lib/gcc/arm-none-eabi/7.3.1/../../../../arm-none-eabi/lib/thumb/v7e-m/fpv4-sp/hard/libg.a(lib_a-fini.o)
                0x000000000000cfd0                __libc_fini_array
 .text.__retarget_lock_acquire_recursive
                0x000000000000d004        0x4 /usr/local/Cellar/gcc-arm-none-eabi/20180627/bin/../lib/gcc/arm-none-eabi/7.3.1/../../../../arm-none-eabi/lib/thumb/v7e-m/fpv4-sp/hard/libg.a(lib_a-lock.o)
                0x000000000000d004                __retarget_lock_acquire_recursive
 .text.__retarget_lock_release_recursive
                0x000000000000d008        0x4 /usr/local/Cellar/gcc-arm-none-eabi/20180627/bin/../lib/gcc/arm-none-eabi/7.3.1/../../../../arm-none-eabi/lib/thumb/v7e-m/fpv4-sp/hard/libg.a(lib_a-lock.o)
                0x000000000000d008                __retarget_lock_release_recursive
 .text.__register_exitproc
                0x000000000000d00c       0xc0 /usr/local/Cellar/gcc-arm-none-eabi/20180627/bin/../lib/gcc/arm-none-eabi/7.3.1/../../../../arm-none-eabi/lib/thumb/v7e-m/fpv4-sp/hard/libg.a(lib_a-__atexit.o)
                0x000000000000d00c                __register_exitproc
 *(.glue_7t)
 .glue_7t       0x000000000000d0cc        0x0 linker stubs
 *(.glue_7)
 .glue_7        0x000000000000d0cc        0x0 linker stubs
 *(.rodata .rodata* .gnu.linkonce.r.*)
 .rodata        0x000000000000d0cc      0x12c .build/obj_massdrop_alt_default/keyboards/massdrop/alt/keymaps/default/keymap.o
                0x000000000000d0cc                keymaps
 .rodata        0x000000000000d1f8        0x0 .build/obj_massdrop_alt_default/quantum/keymap_common.o
                0x000000000000d1f8                fn_actions
 .rodata        0x000000000000d1f8        0xd .build/obj_massdrop_alt_default/quantum/rgb_matrix.o
                0x000000000000d203                k_rgb_matrix_center
 .rodata        0x000000000000d205      0x100 .build/obj_massdrop_alt_default/quantum/led_tables.o
                0x000000000000d205                CIE1931_CURVE
 *fill*         0x000000000000d305        0x3 
 .rodata        0x000000000000d308       0x1e .build/obj_massdrop_alt_default/protocol/arm_atsam/clks.o
                0x000000000000d308                sercom_apbbase
                0x000000000000d320                sercom_pchan
 .rodata        0x000000000000d326        0x2 .build/obj_massdrop_alt_default/protocol/arm_atsam/i2c_master.o
 .rodata        0x000000000000d328       0x10 .build/obj_massdrop_alt_default/protocol/arm_atsam/led_matrix.o
                0x000000000000d328                rgb_matrix_driver
 .rodata.str1.1
                0x000000000000d338       0x52 .build/obj_massdrop_alt_default/protocol/arm_atsam/led_matrix.o
 .rodata.str1.1
                0x000000000000d38a        0xc .build/obj_massdrop_alt_default/protocol/arm_atsam/usb/udc.o
 .rodata        0x000000000000d396       0x48 .build/obj_massdrop_alt_default/protocol/arm_atsam/usb/usb2422.o
                0x000000000000d396                SERNAME
                0x000000000000d3ac                MFRNAME
                0x000000000000d3c6                PRDNAME
 .rodata.str1.1
                0x000000000000d3de       0x69 .build/obj_massdrop_alt_default/protocol/arm_atsam/usb/usb2422.o
 *fill*         0x000000000000d447        0x1 
 .rodata        0x000000000000d448       0x12 .build/obj_massdrop_alt_default/protocol/arm_atsam/usb/usb.o
 *fill*         0x000000000000d45a        0x2 
 .rodata._global_impure_ptr
                0x000000000000d45c        0x4 /usr/local/Cellar/gcc-arm-none-eabi/20180627/bin/../lib/gcc/arm-none-eabi/7.3.1/../../../../arm-none-eabi/lib/thumb/v7e-m/fpv4-sp/hard/libg.a(lib_a-impure.o)
                0x000000000000d45c                _global_impure_ptr
 *(.ARM.extab* .gnu.linkonce.armextab.*)
                0x000000000000d460                . = ALIGN (0x4)
 *(.init)
 .init          0x000000000000d460        0x4 /usr/local/Cellar/gcc-arm-none-eabi/20180627/bin/../lib/gcc/arm-none-eabi/7.3.1/thumb/v7e-m/fpv4-sp/hard/crti.o
                0x000000000000d460                _init
 .init          0x000000000000d464        0x8 /usr/local/Cellar/gcc-arm-none-eabi/20180627/bin/../lib/gcc/arm-none-eabi/7.3.1/thumb/v7e-m/fpv4-sp/hard/crtn.o
                0x000000000000d46c                . = ALIGN (0x4)
                0x000000000000d46c                __preinit_array_start = .
 *(.preinit_array)
                0x000000000000d46c                __preinit_array_end = .
                0x000000000000d46c                . = ALIGN (0x4)
                0x000000000000d46c                __init_array_start = .
 *(SORT_BY_NAME(.init_array.*))
 .init_array.00000
                0x000000000000d46c        0x4 /usr/local/Cellar/gcc-arm-none-eabi/20180627/bin/../lib/gcc/arm-none-eabi/7.3.1/../../../../arm-none-eabi/lib/thumb/v7e-m/fpv4-sp/hard/libg.a(lib_a-__call_atexit.o)
 *(.init_array)
 .init_array    0x000000000000d470        0x4 /usr/local/Cellar/gcc-arm-none-eabi/20180627/bin/../lib/gcc/arm-none-eabi/7.3.1/thumb/v7e-m/fpv4-sp/hard/crtbegin.o
                0x000000000000d474                __init_array_end = .
                0x000000000000d474                . = ALIGN (0x4)
 *crtbegin.o(.ctors)
 *(EXCLUDE_FILE(*crtend.o) .ctors)
 *(SORT_BY_NAME(.ctors.*))
 *crtend.o(.ctors)
                0x000000000000d474                . = ALIGN (0x4)
 *(.fini)
 .fini          0x000000000000d474        0x4 /usr/local/Cellar/gcc-arm-none-eabi/20180627/bin/../lib/gcc/arm-none-eabi/7.3.1/thumb/v7e-m/fpv4-sp/hard/crti.o
                0x000000000000d474                _fini
 .fini          0x000000000000d478        0x8 /usr/local/Cellar/gcc-arm-none-eabi/20180627/bin/../lib/gcc/arm-none-eabi/7.3.1/thumb/v7e-m/fpv4-sp/hard/crtn.o
                0x000000000000d480                . = ALIGN (0x4)
                0x000000000000d480                __fini_array_start = .
 *(.fini_array)
 .fini_array    0x000000000000d480        0x4 /usr/local/Cellar/gcc-arm-none-eabi/20180627/bin/../lib/gcc/arm-none-eabi/7.3.1/thumb/v7e-m/fpv4-sp/hard/crtbegin.o
 *(SORT_BY_NAME(.fini_array.*))
                0x000000000000d484                __fini_array_end = .
 *crtbegin.o(.dtors)
 *(EXCLUDE_FILE(*crtend.o) .dtors)
 *(SORT_BY_NAME(.dtors.*))
 *crtend.o(.dtors)
                0x000000000000d484                . = ALIGN (0x4)
                0x000000000000d484                _efixed = .
                [!provide]                        PROVIDE (__exidx_start = .)

.vfp11_veneer   0x000000000000d484        0x0
 .vfp11_veneer  0x000000000000d484        0x0 linker stubs

.v4_bx          0x000000000000d484        0x0
 .v4_bx         0x000000000000d484        0x0 linker stubs

.iplt           0x000000000000d484        0x0
 .iplt          0x000000000000d484        0x0 /usr/local/Cellar/gcc-arm-none-eabi/20180627/bin/../lib/gcc/arm-none-eabi/7.3.1/thumb/v7e-m/fpv4-sp/hard/crtbegin.o

.igot.plt       0x000000000000d484        0x0
 .igot.plt      0x000000000000d484        0x0 /usr/local/Cellar/gcc-arm-none-eabi/20180627/bin/../lib/gcc/arm-none-eabi/7.3.1/thumb/v7e-m/fpv4-sp/hard/crtbegin.o

.ARM.exidx      0x000000000000d484        0x8
 *(.ARM.exidx* .gnu.linkonce.armexidx.*)
 .ARM.exidx     0x000000000000d484        0x8 /usr/local/Cellar/gcc-arm-none-eabi/20180627/bin/../lib/gcc/arm-none-eabi/7.3.1/thumb/v7e-m/fpv4-sp/hard/libgcc.a(_udivmoddi4.o)
                [!provide]                        PROVIDE (__exidx_end = .)

.eh_frame       0x000000000000d48c        0x0
 .eh_frame      0x000000000000d48c        0x0 /usr/local/Cellar/gcc-arm-none-eabi/20180627/bin/../lib/gcc/arm-none-eabi/7.3.1/thumb/v7e-m/fpv4-sp/hard/crtbegin.o

.rel.dyn        0x000000000000d48c        0x0
 .rel.iplt      0x000000000000d48c        0x0 /usr/local/Cellar/gcc-arm-none-eabi/20180627/bin/../lib/gcc/arm-none-eabi/7.3.1/thumb/v7e-m/fpv4-sp/hard/crtbegin.o
                0x000000000000d48c                . = ALIGN (0x4)
                0x000000000000d48c                _etext = .

.relocate       0x0000000020000000     0x19cc load address 0x000000000000d48c
                0x0000000020000000                . = ALIGN (0x4)
                0x0000000020000000                _srelocate = .
 *(.ramfunc .ramfunc.*)
 *(.data .data.*)
 .data          0x0000000020000000       0x23 .build/obj_massdrop_alt_default/matrix.o
                0x0000000020000000                row_pins
                0x0000000020000005                col_pins
                0x0000000020000014                col_ports
 .data          0x0000000020000023      0x186 .build/obj_massdrop_alt_default/config_led.o
                0x0000000020000023                g_led_config
 .data          0x00000000200001a9        0x6 .build/obj_massdrop_alt_default/quantum/rgb_matrix.o
 *fill*         0x00000000200001af        0x1 
 .data          0x00000000200001b0        0x4 .build/obj_massdrop_alt_default/common/action_util.o
                0x00000000200001b0                keyboard_report
 .data          0x00000000200001b4     0x120c .build/obj_massdrop_alt_default/protocol/arm_atsam/led_matrix.o
                0x00000000200001b4                led_map
 .data          0x00000000200013c0       0x18 .build/obj_massdrop_alt_default/protocol/arm_atsam/main_arm_atsam.o
                0x00000000200013c0                g_usb_state
                0x00000000200013c4                arm_atsam_driver
 .data          0x00000000200013d8        0x1 .build/obj_massdrop_alt_default/protocol/arm_atsam/usb/main_usb.o
                0x00000000200013d8                keyboard_protocol
 *fill*         0x00000000200013d9        0x3 
 .data          0x00000000200013dc       0x4a .build/obj_massdrop_alt_default/protocol/arm_atsam/usb/udc.o
 *fill*         0x0000000020001426        0x2 
 .data          0x0000000020001428       0xec .build/obj_massdrop_alt_default/protocol/arm_atsam/usb/udi_hid_kbd.o
                0x0000000020001428                udi_hid_kbd_report_desc
                0x0000000020001464                udi_hid_nkro_report_desc
                0x00000000200014a0                udi_hid_exk_report_desc
                0x00000000200014d8                udi_api_hid_exk
                0x00000000200014ec                udi_api_hid_nkro
                0x0000000020001500                udi_api_hid_kbd
 .data          0x0000000020001514       0x86 .build/obj_massdrop_alt_default/protocol/arm_atsam/usb/udi_hid_kbd_desc.o
                0x0000000020001514                udc_config
                0x0000000020001520                udc_config_fshs
                0x0000000020001528                udi_apis
                0x0000000020001534                udc_desc
                0x0000000020001588                udc_device_desc
 *fill*         0x000000002000159a        0x2 
 .data._impure_ptr
                0x000000002000159c        0x4 /usr/local/Cellar/gcc-arm-none-eabi/20180627/bin/../lib/gcc/arm-none-eabi/7.3.1/../../../../arm-none-eabi/lib/thumb/v7e-m/fpv4-sp/hard/libg.a(lib_a-impure.o)
                0x000000002000159c                _impure_ptr
 .data.impure_data
                0x00000000200015a0      0x428 /usr/local/Cellar/gcc-arm-none-eabi/20180627/bin/../lib/gcc/arm-none-eabi/7.3.1/../../../../arm-none-eabi/lib/thumb/v7e-m/fpv4-sp/hard/libg.a(lib_a-impure.o)
 .data.__atexit_recursive_mutex
                0x00000000200019c8        0x4 /usr/local/Cellar/gcc-arm-none-eabi/20180627/bin/../lib/gcc/arm-none-eabi/7.3.1/../../../../arm-none-eabi/lib/thumb/v7e-m/fpv4-sp/hard/libg.a(lib_a-__call_atexit.o)
                0x00000000200019c8                __atexit_recursive_mutex
                0x00000000200019cc                . = ALIGN (0x4)
                0x00000000200019cc                _erelocate = .

.bkupram        0x0000000047000000        0x0
                0x0000000047000000                . = ALIGN (0x8)
                0x0000000047000000                _sbkupram = .
 *(.bkupram .bkupram.*)
                0x0000000047000000                . = ALIGN (0x8)
                0x0000000047000000                _ebkupram = .

.qspi           0x0000000004000000        0x0
                0x0000000004000000                . = ALIGN (0x8)
                0x0000000004000000                _sqspi = .
 *(.qspi .qspi.*)
                0x0000000004000000                . = ALIGN (0x8)
                0x0000000004000000                _eqspi = .

.bss            0x00000000200019d0      0xe90 load address 0x000000000000ee60
                0x00000000200019d0                . = ALIGN (0x4)
                0x00000000200019d0                _sbss = .
                0x00000000200019d0                _szero = .
 *(.bss .bss.*)
 .bss           0x00000000200019d0       0x1c /usr/local/Cellar/gcc-arm-none-eabi/20180627/bin/../lib/gcc/arm-none-eabi/7.3.1/thumb/v7e-m/fpv4-sp/hard/crtbegin.o
 *fill*         0x00000000200019ec        0x4 
 .bss           0x00000000200019f0       0x10 .build/obj_massdrop_alt_default/matrix.o
                0x00000000200019f0                row_ports
                0x00000000200019f8                mdebouncing
 .bss           0x0000000020001a00        0x4 .build/obj_massdrop_alt_default/keyboards/massdrop/alt/keymaps/default/keymap.o
 .bss           0x0000000020001a04        0x1 .build/obj_massdrop_alt_default/quantum/quantum.o
 *fill*         0x0000000020001a05        0x3 
 .bss           0x0000000020001a08       0x31 .build/obj_massdrop_alt_default/quantum/rgb_matrix.o
                0x0000000020001a38                g_suspend_state
 *fill*         0x0000000020001a39        0x1 
 .bss           0x0000000020001a3a        0x4 .build/obj_massdrop_alt_default/quantum/process_keycode/process_space_cadet.o
 *fill*         0x0000000020001a3e        0x2 
 .bss           0x0000000020001a40        0x8 .build/obj_massdrop_alt_default/common/host.o
 .bss           0x0000000020001a48        0xb .build/obj_massdrop_alt_default/common/keyboard.o
 .bss           0x0000000020001a53        0x1 .build/obj_massdrop_alt_default/common/action.o
                0x0000000020001a53                disable_action_cache
 .bss           0x0000000020001a54       0x4c .build/obj_massdrop_alt_default/common/action_tapping.o
 .bss           0x0000000020001aa0       0x3a .build/obj_massdrop_alt_default/common/action_layer.o
                0x0000000020001aa0                default_layer_state
                0x0000000020001aa4                layer_state
                0x0000000020001aa8                source_layers_cache
 .bss           0x0000000020001ada       0x26 .build/obj_massdrop_alt_default/common/action_util.o
 .bss           0x0000000020001b00        0x1 .build/obj_massdrop_alt_default/common/debug.o
                0x0000000020001b00                debug_config
 .bss           0x0000000020001b01       0x20 .build/obj_massdrop_alt_default/common/arm_atsam/eeprom.o
 *fill*         0x0000000020001b21        0x3 
 .bss           0x0000000020001b24        0x4 .build/obj_massdrop_alt_default/protocol/arm_atsam/d51_util.o
 .bss           0x0000000020001b28      0x166 .build/obj_massdrop_alt_default/protocol/arm_atsam/i2c_master.o
 .bss           0x0000000020001c8e        0x2 .build/obj_massdrop_alt_default/protocol/arm_atsam/led_matrix.o
 .bss           0x0000000020001c90       0x18 .build/obj_massdrop_alt_default/protocol/arm_atsam/main_arm_atsam.o
 .bss           0x0000000020001ca8        0x3 .build/obj_massdrop_alt_default/protocol/arm_atsam/usb/main_usb.o
                0x0000000020001ca8                main_b_kbd_enable
                0x0000000020001ca9                main_b_nkro_enable
                0x0000000020001caa                main_b_exk_enable
 *fill*         0x0000000020001cab        0x1 
 .bss           0x0000000020001cac       0x28 .build/obj_massdrop_alt_default/protocol/arm_atsam/usb/udc.o
                0x0000000020001cba                bootloader_serial_number
                0x0000000020001ccf                usb_device_serial_name_size
 .bss           0x0000000020001cd4       0x43 .build/obj_massdrop_alt_default/protocol/arm_atsam/usb/udi_hid_kbd.o
 *fill*         0x0000000020001d17        0x1 
 .bss           0x0000000020001d18       0x10 .build/obj_massdrop_alt_default/protocol/arm_atsam/usb/usb.o
 .bss           0x0000000020001d28       0xa7 .build/obj_massdrop_alt_default/protocol/arm_atsam/usb/usb_device_udd.o
 *(COMMON)
 *fill*         0x0000000020001dcf        0x1 
 COMMON         0x0000000020001dd0       0x50 .build/obj_massdrop_alt_default/matrix.o
                0x0000000020001dd0                dmac_desc_wb
                0x0000000020001de0                row_masks
                0x0000000020001de8                mdebounced
                0x0000000020001df2                mlatest
                0x0000000020001dfc                mlast
                0x0000000020001e10                dmac_desc
 COMMON         0x0000000020001e20        0x2 .build/obj_massdrop_alt_default/keyboards/massdrop/alt/keymaps/default/keymap.o
                0x0000000020001e20                keymap_config
 *fill*         0x0000000020001e22        0x2 
 COMMON         0x0000000020001e24       0x39 .build/obj_massdrop_alt_default/quantum/rgb_matrix.o
                0x0000000020001e24                rgb_matrix_config
                0x0000000020001e2c                g_last_hit_tracker
                0x0000000020001e55                g_rgb_counters
 *fill*         0x0000000020001e5d        0x1 
 COMMON         0x0000000020001e5e        0xc .build/obj_massdrop_alt_default/protocol/arm_atsam/adc.o
                0x0000000020001e5e                v_con_1_boot
                0x0000000020001e60                v_con_1
                0x0000000020001e62                v_con_2
                0x0000000020001e64                v_con_2_boot
                0x0000000020001e66                v_5v
                0x0000000020001e68                v_5v_avg
 *fill*         0x0000000020001e6a        0x6 
 COMMON         0x0000000020001e70       0x78 .build/obj_massdrop_alt_default/protocol/arm_atsam/clks.o
                0x0000000020001e70                usec_delay_mult
                0x0000000020001e74                system_clks
                0x0000000020001ee0                ms_clk
 COMMON         0x0000000020001ee8        0x4 .build/obj_massdrop_alt_default/protocol/arm_atsam/d51_util.o
                0x0000000020001ee8                debug_code
 COMMON         0x0000000020001eec        0x1 .build/obj_massdrop_alt_default/protocol/arm_atsam/i2c_master.o
                0x0000000020001eec                i2c_led_q_running
 COMMON         0x0000000020001eed      0x500 .build/obj_massdrop_alt_default/protocol/arm_atsam/led_matrix.o
                0x0000000020001eed                issidrv
                0x00000000200022af                led_buffer
                0x00000000200023ea                gcr_desired
                0x00000000200023eb                gcr_actual
                0x00000000200023ec                gcr_actual_last
 *fill*         0x00000000200023ed        0x1 
 COMMON         0x00000000200023ee        0x2 .build/obj_massdrop_alt_default/protocol/arm_atsam/spi.o
                0x00000000200023ee                sr_exp_data
 COMMON         0x00000000200023f0        0xd .build/obj_massdrop_alt_default/protocol/arm_atsam/usb/udi_cdc.o
                0x00000000200023f0                inbuf
                0x00000000200023fc                printbuf
 *fill*         0x00000000200023fd        0x3 
 COMMON         0x0000000020002400       0x3d .build/obj_massdrop_alt_default/protocol/arm_atsam/usb/udi_hid_kbd.o
                0x0000000020002400                udi_hid_nkro_b_report_valid
                0x0000000020002404                udi_hid_kbd_report
                0x000000002000240c                udi_hid_kbd_b_report_valid
                0x000000002000240d                udi_hid_kbd_b_report_trans_ongoing
                0x000000002000240e                udi_hid_exk_b_report_valid
                0x000000002000240f                udi_hid_nkro_b_report_trans_ongoing
                0x0000000020002410                udi_hid_exk_report_set
                0x0000000020002414                udi_hid_nkro_report
                0x0000000020002434                udi_hid_exk_report
                0x0000000020002438                udi_hid_nkro_report_set
                0x000000002000243c                udi_hid_kbd_report_set
 *fill*         0x000000002000243d        0x1 
 COMMON         0x000000002000243e      0x12a .build/obj_massdrop_alt_default/protocol/arm_atsam/usb/usb2422.o
                0x000000002000243e                usb_gcr_auto
                0x000000002000243f                i2c0_buf
                0x0000000020002461                usb_extra_state
                0x0000000020002462                usb_extra_manual
                0x0000000020002464                adc_extra
                0x0000000020002466                usb_host_port
                0x0000000020002468                USB2422_shadow
 COMMON         0x0000000020002568      0x100 .build/obj_massdrop_alt_default/protocol/arm_atsam/usb/usb.o
                0x0000000020002568                usb_descriptor_table
 COMMON         0x0000000020002668      0x1d4 .build/obj_massdrop_alt_default/protocol/arm_atsam/usb/usb_device_udd.o
                0x0000000020002668                udd_ep_out_cache_buffer
                0x0000000020002768                usb_device
                0x000000002000281c                udd_g_ctrlreq
                0x0000000020002834                udd_ctrl_buffer
 COMMON         0x000000002000283c       0x21 /usr/local/Cellar/gcc-arm-none-eabi/20180627/bin/../lib/gcc/arm-none-eabi/7.3.1/../../../../arm-none-eabi/lib/thumb/v7e-m/fpv4-sp/hard/libg.a(lib_a-lock.o)
                0x000000002000283c                __lock___atexit_recursive_mutex
                0x0000000020002840                __lock___arc4random_mutex
                0x0000000020002844                __lock___env_recursive_mutex
                0x0000000020002848                __lock___sinit_recursive_mutex
                0x000000002000284c                __lock___malloc_recursive_mutex
                0x0000000020002850                __lock___at_quick_exit_mutex
                0x0000000020002854                __lock___dd_hash_mutex
                0x0000000020002858                __lock___tz_mutex
                0x000000002000285c                __lock___sfp_recursive_mutex
                0x0000000020002860                . = ALIGN (0x4)
 *fill*         0x000000002000285d        0x3 
                0x0000000020002860                _ebss = .
                0x0000000020002860                _ezero = .

.heap           0x0000000020002860      0x800 load address 0x000000000000fcf0
                0x0000000020002860                . = ALIGN (0x4)
                0x0000000020002860                _end = .
                0x0000000020002860                end = .
                0x0000000020002860                _heap_start = .
                0x0000000020003060                . = (. + HEAP_SIZE)
 *fill*         0x0000000020002860      0x800 
                0x0000000020003060                _heap_end = .

.stack          0x0000000020003060     0x8000 load address 0x00000000000104f0
                0x0000000020003060                . = ALIGN (0x8)
                0x0000000020003060                _sstack = .
                0x000000002000b060                . = (. + STACK_SIZE)
 *fill*         0x0000000020003060     0x8000 
                0x000000002000b060                . = ALIGN (0x8)
                0x000000002000b060                _estack = .
                0x000000002000b060                . = ALIGN (0x4)
                0x000000002000b060                _end = .
OUTPUT(.build/massdrop_alt_default.elf elf32-littlearm)

.ARM.attributes
                0x0000000000000000       0x30
 .ARM.attributes
                0x0000000000000000       0x22 /usr/local/Cellar/gcc-arm-none-eabi/20180627/bin/../lib/gcc/arm-none-eabi/7.3.1/thumb/v7e-m/fpv4-sp/hard/crti.o
 .ARM.attributes
                0x0000000000000022       0x34 /usr/local/Cellar/gcc-arm-none-eabi/20180627/bin/../lib/gcc/arm-none-eabi/7.3.1/thumb/v7e-m/fpv4-sp/hard/crtbegin.o
 .ARM.attributes
                0x0000000000000056       0x39 .build/obj_massdrop_alt_default/matrix.o
 .ARM.attributes
                0x000000000000008f       0x39 .build/obj_massdrop_alt_default/config_led.o
 .ARM.attributes
                0x00000000000000c8       0x39 .build/obj_massdrop_alt_default/keyboards/massdrop/alt/keymaps/default/keymap.o
 .ARM.attributes
                0x0000000000000101       0x39 .build/obj_massdrop_alt_default/quantum/quantum.o
 .ARM.attributes
                0x000000000000013a       0x39 .build/obj_massdrop_alt_default/quantum/keymap_common.o
 .ARM.attributes
                0x0000000000000173       0x39 .build/obj_massdrop_alt_default/quantum/keycode_config.o
 .ARM.attributes
                0x00000000000001ac       0x39 .build/obj_massdrop_alt_default/quantum/color.o
 .ARM.attributes
                0x00000000000001e5       0x39 .build/obj_massdrop_alt_default/quantum/rgb_matrix.o
 .ARM.attributes
                0x000000000000021e       0x39 .build/obj_massdrop_alt_default/quantum/led_tables.o
 .ARM.attributes
                0x0000000000000257       0x39 .build/obj_massdrop_alt_default/quantum/process_keycode/process_space_cadet.o
 .ARM.attributes
                0x0000000000000290       0x39 .build/obj_massdrop_alt_default/common/host.o
 .ARM.attributes
                0x00000000000002c9       0x39 .build/obj_massdrop_alt_default/common/keyboard.o
 .ARM.attributes
                0x0000000000000302       0x39 .build/obj_massdrop_alt_default/common/action.o
 .ARM.attributes
                0x000000000000033b       0x39 .build/obj_massdrop_alt_default/common/action_tapping.o
 .ARM.attributes
                0x0000000000000374       0x39 .build/obj_massdrop_alt_default/common/action_macro.o
 .ARM.attributes
                0x00000000000003ad       0x39 .build/obj_massdrop_alt_default/common/action_layer.o
 .ARM.attributes
                0x00000000000003e6       0x39 .build/obj_massdrop_alt_default/common/action_util.o
 .ARM.attributes
                0x000000000000041f       0x39 .build/obj_massdrop_alt_default/common/debug.o
 .ARM.attributes
                0x0000000000000458       0x39 .build/obj_massdrop_alt_default/common/eeconfig.o
 .ARM.attributes
                0x0000000000000491       0x39 .build/obj_massdrop_alt_default/common/report.o
 .ARM.attributes
                0x00000000000004ca       0x39 .build/obj_massdrop_alt_default/common/arm_atsam/suspend.o
 .ARM.attributes
                0x0000000000000503       0x39 .build/obj_massdrop_alt_default/common/arm_atsam/timer.o
 .ARM.attributes
                0x000000000000053c       0x39 .build/obj_massdrop_alt_default/common/arm_atsam/bootloader.o
 .ARM.attributes
                0x0000000000000575       0x39 .build/obj_massdrop_alt_default/common/arm_atsam/eeprom.o
 .ARM.attributes
                0x00000000000005ae       0x39 .build/obj_massdrop_alt_default/common/magic.o
 .ARM.attributes
                0x00000000000005e7       0x39 .build/obj_massdrop_alt_default/protocol/arm_atsam/adc.o
 .ARM.attributes
                0x0000000000000620       0x39 .build/obj_massdrop_alt_default/protocol/arm_atsam/clks.o
 .ARM.attributes
                0x0000000000000659       0x39 .build/obj_massdrop_alt_default/protocol/arm_atsam/d51_util.o
 .ARM.attributes
                0x0000000000000692       0x39 .build/obj_massdrop_alt_default/protocol/arm_atsam/i2c_master.o
 .ARM.attributes
                0x00000000000006cb       0x39 .build/obj_massdrop_alt_default/protocol/arm_atsam/led_matrix.o
 .ARM.attributes
                0x0000000000000704       0x39 .build/obj_massdrop_alt_default/protocol/arm_atsam/main_arm_atsam.o
 .ARM.attributes
                0x000000000000073d       0x39 .build/obj_massdrop_alt_default/protocol/arm_atsam/spi.o
 .ARM.attributes
                0x0000000000000776       0x39 .build/obj_massdrop_alt_default/protocol/arm_atsam/startup.o
 .ARM.attributes
                0x00000000000007af       0x39 .build/obj_massdrop_alt_default/protocol/arm_atsam/usb/main_usb.o
 .ARM.attributes
                0x00000000000007e8       0x39 .build/obj_massdrop_alt_default/protocol/arm_atsam/usb/udc.o
 .ARM.attributes
                0x0000000000000821       0x39 .build/obj_massdrop_alt_default/protocol/arm_atsam/usb/udi_cdc.o
 .ARM.attributes
                0x000000000000085a       0x39 .build/obj_massdrop_alt_default/protocol/arm_atsam/usb/udi_hid.o
 .ARM.attributes
                0x0000000000000893       0x39 .build/obj_massdrop_alt_default/protocol/arm_atsam/usb/udi_hid_kbd.o
 .ARM.attributes
                0x00000000000008cc       0x39 .build/obj_massdrop_alt_default/protocol/arm_atsam/usb/udi_hid_kbd_desc.o
 .ARM.attributes
                0x0000000000000905       0x39 .build/obj_massdrop_alt_default/protocol/arm_atsam/usb/ui.o
 .ARM.attributes
                0x000000000000093e       0x39 .build/obj_massdrop_alt_default/protocol/arm_atsam/usb/usb2422.o
 .ARM.attributes
                0x0000000000000977       0x39 .build/obj_massdrop_alt_default/protocol/arm_atsam/usb/usb.o
 .ARM.attributes
                0x00000000000009b0       0x39 .build/obj_massdrop_alt_default/protocol/arm_atsam/usb/usb_device_udd.o
 .ARM.attributes
                0x00000000000009e9       0x22 /usr/local/Cellar/gcc-arm-none-eabi/20180627/bin/../lib/gcc/arm-none-eabi/7.3.1/thumb/v7e-m/fpv4-sp/hard/libgcc.a(_arm_addsubdf3.o)
 .ARM.attributes
                0x0000000000000a0b       0x22 /usr/local/Cellar/gcc-arm-none-eabi/20180627/bin/../lib/gcc/arm-none-eabi/7.3.1/thumb/v7e-m/fpv4-sp/hard/libgcc.a(_arm_muldivdf3.o)
 .ARM.attributes
                0x0000000000000a2d       0x22 /usr/local/Cellar/gcc-arm-none-eabi/20180627/bin/../lib/gcc/arm-none-eabi/7.3.1/thumb/v7e-m/fpv4-sp/hard/libgcc.a(_arm_fixunsdfsi.o)
 .ARM.attributes
                0x0000000000000a4f       0x22 /usr/local/Cellar/gcc-arm-none-eabi/20180627/bin/../lib/gcc/arm-none-eabi/7.3.1/thumb/v7e-m/fpv4-sp/hard/libgcc.a(_aeabi_uldivmod.o)
 .ARM.attributes
                0x0000000000000a71       0x34 /usr/local/Cellar/gcc-arm-none-eabi/20180627/bin/../lib/gcc/arm-none-eabi/7.3.1/thumb/v7e-m/fpv4-sp/hard/libgcc.a(_udivmoddi4.o)
 .ARM.attributes
                0x0000000000000aa5       0x22 /usr/local/Cellar/gcc-arm-none-eabi/20180627/bin/../lib/gcc/arm-none-eabi/7.3.1/thumb/v7e-m/fpv4-sp/hard/libgcc.a(_dvmd_tls.o)
 .ARM.attributes
                0x0000000000000ac7       0x34 /usr/local/Cellar/gcc-arm-none-eabi/20180627/bin/../lib/gcc/arm-none-eabi/7.3.1/../../../../arm-none-eabi/lib/thumb/v7e-m/fpv4-sp/hard/libg.a(lib_a-impure.o)
 .ARM.attributes
                0x0000000000000afb       0x34 /usr/local/Cellar/gcc-arm-none-eabi/20180627/bin/../lib/gcc/arm-none-eabi/7.3.1/../../../../arm-none-eabi/lib/thumb/v7e-m/fpv4-sp/hard/libg.a(lib_a-init.o)
 .ARM.attributes
                0x0000000000000b2f       0x20 /usr/local/Cellar/gcc-arm-none-eabi/20180627/bin/../lib/gcc/arm-none-eabi/7.3.1/../../../../arm-none-eabi/lib/thumb/v7e-m/fpv4-sp/hard/libg.a(lib_a-memcpy.o)
 .ARM.attributes
                0x0000000000000b4f       0x34 /usr/local/Cellar/gcc-arm-none-eabi/20180627/bin/../lib/gcc/arm-none-eabi/7.3.1/../../../../arm-none-eabi/lib/thumb/v7e-m/fpv4-sp/hard/libg.a(lib_a-memset.o)
 .ARM.attributes
                0x0000000000000b83       0x34 /usr/local/Cellar/gcc-arm-none-eabi/20180627/bin/../lib/gcc/arm-none-eabi/7.3.1/../../../../arm-none-eabi/lib/thumb/v7e-m/fpv4-sp/hard/libg.a(lib_a-rand.o)
 .ARM.attributes
                0x0000000000000bb7       0x34 /usr/local/Cellar/gcc-arm-none-eabi/20180627/bin/../lib/gcc/arm-none-eabi/7.3.1/../../../../arm-none-eabi/lib/thumb/v7e-m/fpv4-sp/hard/libg.a(lib_a-__call_atexit.o)
 .ARM.attributes
                0x0000000000000beb       0x34 /usr/local/Cellar/gcc-arm-none-eabi/20180627/bin/../lib/gcc/arm-none-eabi/7.3.1/../../../../arm-none-eabi/lib/thumb/v7e-m/fpv4-sp/hard/libg.a(lib_a-atexit.o)
 .ARM.attributes
                0x0000000000000c1f       0x34 /usr/local/Cellar/gcc-arm-none-eabi/20180627/bin/../lib/gcc/arm-none-eabi/7.3.1/../../../../arm-none-eabi/lib/thumb/v7e-m/fpv4-sp/hard/libg.a(lib_a-fini.o)
 .ARM.attributes
                0x0000000000000c53       0x34 /usr/local/Cellar/gcc-arm-none-eabi/20180627/bin/../lib/gcc/arm-none-eabi/7.3.1/../../../../arm-none-eabi/lib/thumb/v7e-m/fpv4-sp/hard/libg.a(lib_a-lock.o)
 .ARM.attributes
                0x0000000000000c87       0x34 /usr/local/Cellar/gcc-arm-none-eabi/20180627/bin/../lib/gcc/arm-none-eabi/7.3.1/../../../../arm-none-eabi/lib/thumb/v7e-m/fpv4-sp/hard/libg.a(lib_a-__atexit.o)
 .ARM.attributes
                0x0000000000000cbb       0x22 /usr/local/Cellar/gcc-arm-none-eabi/20180627/bin/../lib/gcc/arm-none-eabi/7.3.1/thumb/v7e-m/fpv4-sp/hard/crtn.o

.comment        0x0000000000000000       0x7f
 .comment       0x0000000000000000       0x7f .build/obj_massdrop_alt_default/matrix.o
                                         0x80 (size before relaxing)
 .comment       0x000000000000007f       0x80 .build/obj_massdrop_alt_default/config_led.o
 .comment       0x000000000000007f       0x80 .build/obj_massdrop_alt_default/keyboards/massdrop/alt/keymaps/default/keymap.o
 .comment       0x000000000000007f       0x80 .build/obj_massdrop_alt_default/quantum/quantum.o
 .comment       0x000000000000007f       0x80 .build/obj_massdrop_alt_default/quantum/keymap_common.o
 .comment       0x000000000000007f       0x80 .build/obj_massdrop_alt_default/quantum/keycode_config.o
 .comment       0x000000000000007f       0x80 .build/obj_massdrop_alt_default/quantum/color.o
 .comment       0x000000000000007f       0x80 .build/obj_massdrop_alt_default/quantum/rgb_matrix.o
 .comment       0x000000000000007f       0x80 .build/obj_massdrop_alt_default/quantum/led_tables.o
 .comment       0x000000000000007f       0x80 .build/obj_massdrop_alt_default/quantum/process_keycode/process_space_cadet.o
 .comment       0x000000000000007f       0x80 .build/obj_massdrop_alt_default/common/host.o
 .comment       0x000000000000007f       0x80 .build/obj_massdrop_alt_default/common/keyboard.o
 .comment       0x000000000000007f       0x80 .build/obj_massdrop_alt_default/common/action.o
 .comment       0x000000000000007f       0x80 .build/obj_massdrop_alt_default/common/action_tapping.o
 .comment       0x000000000000007f       0x80 .build/obj_massdrop_alt_default/common/action_macro.o
 .comment       0x000000000000007f       0x80 .build/obj_massdrop_alt_default/common/action_layer.o
 .comment       0x000000000000007f       0x80 .build/obj_massdrop_alt_default/common/action_util.o
 .comment       0x000000000000007f       0x80 .build/obj_massdrop_alt_default/common/debug.o
 .comment       0x000000000000007f       0x80 .build/obj_massdrop_alt_default/common/eeconfig.o
 .comment       0x000000000000007f       0x80 .build/obj_massdrop_alt_default/common/report.o
 .comment       0x000000000000007f       0x80 .build/obj_massdrop_alt_default/common/arm_atsam/suspend.o
 .comment       0x000000000000007f       0x80 .build/obj_massdrop_alt_default/common/arm_atsam/timer.o
 .comment       0x000000000000007f       0x80 .build/obj_massdrop_alt_default/common/arm_atsam/bootloader.o
 .comment       0x000000000000007f       0x80 .build/obj_massdrop_alt_default/common/arm_atsam/eeprom.o
 .comment       0x000000000000007f       0x80 .build/obj_massdrop_alt_default/common/magic.o
 .comment       0x000000000000007f       0x80 .build/obj_massdrop_alt_default/protocol/arm_atsam/adc.o
 .comment       0x000000000000007f       0x80 .build/obj_massdrop_alt_default/protocol/arm_atsam/clks.o
 .comment       0x000000000000007f       0x80 .build/obj_massdrop_alt_default/protocol/arm_atsam/d51_util.o
 .comment       0x000000000000007f       0x80 .build/obj_massdrop_alt_default/protocol/arm_atsam/i2c_master.o
 .comment       0x000000000000007f       0x80 .build/obj_massdrop_alt_default/protocol/arm_atsam/led_matrix.o
 .comment       0x000000000000007f       0x80 .build/obj_massdrop_alt_default/protocol/arm_atsam/main_arm_atsam.o
 .comment       0x000000000000007f       0x80 .build/obj_massdrop_alt_default/protocol/arm_atsam/spi.o
 .comment       0x000000000000007f       0x80 .build/obj_massdrop_alt_default/protocol/arm_atsam/startup.o
 .comment       0x000000000000007f       0x80 .build/obj_massdrop_alt_default/protocol/arm_atsam/usb/main_usb.o
 .comment       0x000000000000007f       0x80 .build/obj_massdrop_alt_default/protocol/arm_atsam/usb/udc.o
 .comment       0x000000000000007f       0x80 .build/obj_massdrop_alt_default/protocol/arm_atsam/usb/udi_cdc.o
 .comment       0x000000000000007f       0x80 .build/obj_massdrop_alt_default/protocol/arm_atsam/usb/udi_hid.o
 .comment       0x000000000000007f       0x80 .build/obj_massdrop_alt_default/protocol/arm_atsam/usb/udi_hid_kbd.o
 .comment       0x000000000000007f       0x80 .build/obj_massdrop_alt_default/protocol/arm_atsam/usb/udi_hid_kbd_desc.o
 .comment       0x000000000000007f       0x80 .build/obj_massdrop_alt_default/protocol/arm_atsam/usb/ui.o
 .comment       0x000000000000007f       0x80 .build/obj_massdrop_alt_default/protocol/arm_atsam/usb/usb2422.o
 .comment       0x000000000000007f       0x80 .build/obj_massdrop_alt_default/protocol/arm_atsam/usb/usb.o
 .comment       0x000000000000007f       0x80 .build/obj_massdrop_alt_default/protocol/arm_atsam/usb/usb_device_udd.o

.debug_info     0x0000000000000000    0x560ae
 .debug_info    0x0000000000000000     0x1d15 .build/obj_massdrop_alt_default/matrix.o
 .debug_info    0x0000000000001d15     0x13e2 .build/obj_massdrop_alt_default/config_led.o
 .debug_info    0x00000000000030f7     0x2568 .build/obj_massdrop_alt_default/keyboards/massdrop/alt/keymaps/default/keymap.o
 .debug_info    0x000000000000565f     0x2daa .build/obj_massdrop_alt_default/quantum/quantum.o
 .debug_info    0x0000000000008409     0x25b7 .build/obj_massdrop_alt_default/quantum/keymap_common.o
 .debug_info    0x000000000000a9c0      0x61d .build/obj_massdrop_alt_default/quantum/keycode_config.o
 .debug_info    0x000000000000afdd      0x1c1 .build/obj_massdrop_alt_default/quantum/color.o
 .debug_info    0x000000000000b19e     0x46f4 .build/obj_massdrop_alt_default/quantum/rgb_matrix.o
 .debug_info    0x000000000000f892       0xa6 .build/obj_massdrop_alt_default/quantum/led_tables.o
 .debug_info    0x000000000000f938     0x1f0b .build/obj_massdrop_alt_default/quantum/process_keycode/process_space_cadet.o
 .debug_info    0x0000000000011843      0x516 .build/obj_massdrop_alt_default/common/host.o
 .debug_info    0x0000000000011d59      0x605 .build/obj_massdrop_alt_default/common/keyboard.o
 .debug_info    0x000000000001235e     0x195d .build/obj_massdrop_alt_default/common/action.o
 .debug_info    0x0000000000013cbb      0xecf .build/obj_massdrop_alt_default/common/action_tapping.o
 .debug_info    0x0000000000014b8a      0x843 .build/obj_massdrop_alt_default/common/action_macro.o
 .debug_info    0x00000000000153cd      0xaf3 .build/obj_massdrop_alt_default/common/action_layer.o
 .debug_info    0x0000000000015ec0      0x9a2 .build/obj_massdrop_alt_default/common/action_util.o
 .debug_info    0x0000000000016862      0x111 .build/obj_massdrop_alt_default/common/debug.o
 .debug_info    0x0000000000016973      0x6cc .build/obj_massdrop_alt_default/common/eeconfig.o
 .debug_info    0x000000000001703f      0xdba .build/obj_massdrop_alt_default/common/report.o
 .debug_info    0x0000000000017df9     0x147e .build/obj_massdrop_alt_default/common/arm_atsam/suspend.o
 .debug_info    0x0000000000019277      0x33e .build/obj_massdrop_alt_default/common/arm_atsam/timer.o
 .debug_info    0x00000000000195b5      0x462 .build/obj_massdrop_alt_default/common/arm_atsam/bootloader.o
 .debug_info    0x0000000000019a17      0x5bc .build/obj_massdrop_alt_default/common/arm_atsam/eeprom.o
 .debug_info    0x0000000000019fd3      0x339 .build/obj_massdrop_alt_default/common/magic.o
 .debug_info    0x000000000001a30c     0x3c57 .build/obj_massdrop_alt_default/protocol/arm_atsam/adc.o
 .debug_info    0x000000000001df63     0x7783 .build/obj_massdrop_alt_default/protocol/arm_atsam/clks.o
 .debug_info    0x00000000000256e6     0x1f0e .build/obj_massdrop_alt_default/protocol/arm_atsam/d51_util.o
 .debug_info    0x00000000000275f4     0x673d .build/obj_massdrop_alt_default/protocol/arm_atsam/i2c_master.o
 .debug_info    0x000000000002dd31     0x5721 .build/obj_massdrop_alt_default/protocol/arm_atsam/led_matrix.o
 .debug_info    0x0000000000033452     0x4880 .build/obj_massdrop_alt_default/protocol/arm_atsam/main_arm_atsam.o
 .debug_info    0x0000000000037cd2     0x4326 .build/obj_massdrop_alt_default/protocol/arm_atsam/spi.o
 .debug_info    0x000000000003bff8      0xbde .build/obj_massdrop_alt_default/protocol/arm_atsam/startup.o
 .debug_info    0x000000000003cbd6      0xf4a .build/obj_massdrop_alt_default/protocol/arm_atsam/usb/main_usb.o
 .debug_info    0x000000000003db20     0x1a22 .build/obj_massdrop_alt_default/protocol/arm_atsam/usb/udc.o
 .debug_info    0x000000000003f542      0xfc1 .build/obj_massdrop_alt_default/protocol/arm_atsam/usb/udi_cdc.o
 .debug_info    0x0000000000040503      0xf47 .build/obj_massdrop_alt_default/protocol/arm_atsam/usb/udi_hid.o
 .debug_info    0x000000000004144a     0x14ed .build/obj_massdrop_alt_default/protocol/arm_atsam/usb/udi_hid_kbd.o
 .debug_info    0x0000000000042937     0x10a3 .build/obj_massdrop_alt_default/protocol/arm_atsam/usb/udi_hid_kbd_desc.o
 .debug_info    0x00000000000439da      0x159 .build/obj_massdrop_alt_default/protocol/arm_atsam/usb/ui.o
 .debug_info    0x0000000000043b33     0x8717 .build/obj_massdrop_alt_default/protocol/arm_atsam/usb/usb2422.o
 .debug_info    0x000000000004c24a     0x58e0 .build/obj_massdrop_alt_default/protocol/arm_atsam/usb/usb.o
 .debug_info    0x0000000000051b2a     0x4584 .build/obj_massdrop_alt_default/protocol/arm_atsam/usb/usb_device_udd.o

.debug_abbrev   0x0000000000000000     0x76f9
 .debug_abbrev  0x0000000000000000      0x37a .build/obj_massdrop_alt_default/matrix.o
 .debug_abbrev  0x000000000000037a      0x288 .build/obj_massdrop_alt_default/config_led.o
 .debug_abbrev  0x0000000000000602      0x326 .build/obj_massdrop_alt_default/keyboards/massdrop/alt/keymaps/default/keymap.o
 .debug_abbrev  0x0000000000000928      0x488 .build/obj_massdrop_alt_default/quantum/quantum.o
 .debug_abbrev  0x0000000000000db0      0x2f9 .build/obj_massdrop_alt_default/quantum/keymap_common.o
 .debug_abbrev  0x00000000000010a9       0xfb .build/obj_massdrop_alt_default/quantum/keycode_config.o
 .debug_abbrev  0x00000000000011a4       0xe9 .build/obj_massdrop_alt_default/quantum/color.o
 .debug_abbrev  0x000000000000128d      0x659 .build/obj_massdrop_alt_default/quantum/rgb_matrix.o
 .debug_abbrev  0x00000000000018e6       0x64 .build/obj_massdrop_alt_default/quantum/led_tables.o
 .debug_abbrev  0x000000000000194a      0x29a .build/obj_massdrop_alt_default/quantum/process_keycode/process_space_cadet.o
 .debug_abbrev  0x0000000000001be4      0x1cc .build/obj_massdrop_alt_default/common/host.o
 .debug_abbrev  0x0000000000001db0      0x215 .build/obj_massdrop_alt_default/common/keyboard.o
 .debug_abbrev  0x0000000000001fc5      0x31a .build/obj_massdrop_alt_default/common/action.o
 .debug_abbrev  0x00000000000022df      0x2f4 .build/obj_massdrop_alt_default/common/action_tapping.o
 .debug_abbrev  0x00000000000025d3      0x17b .build/obj_massdrop_alt_default/common/action_macro.o
 .debug_abbrev  0x000000000000274e      0x291 .build/obj_massdrop_alt_default/common/action_layer.o
 .debug_abbrev  0x00000000000029df      0x2b1 .build/obj_massdrop_alt_default/common/action_util.o
 .debug_abbrev  0x0000000000002c90       0x94 .build/obj_massdrop_alt_default/common/debug.o
 .debug_abbrev  0x0000000000002d24       0xe9 .build/obj_massdrop_alt_default/common/eeconfig.o
 .debug_abbrev  0x0000000000002e0d      0x2a2 .build/obj_massdrop_alt_default/common/report.o
 .debug_abbrev  0x00000000000030af      0x2f7 .build/obj_massdrop_alt_default/common/arm_atsam/suspend.o
 .debug_abbrev  0x00000000000033a6      0x182 .build/obj_massdrop_alt_default/common/arm_atsam/timer.o
 .debug_abbrev  0x0000000000003528      0x147 .build/obj_massdrop_alt_default/common/arm_atsam/bootloader.o
 .debug_abbrev  0x000000000000366f      0x204 .build/obj_massdrop_alt_default/common/arm_atsam/eeprom.o
 .debug_abbrev  0x0000000000003873      0x109 .build/obj_massdrop_alt_default/common/magic.o
 .debug_abbrev  0x000000000000397c      0x2fb .build/obj_massdrop_alt_default/protocol/arm_atsam/adc.o
 .debug_abbrev  0x0000000000003c77      0x462 .build/obj_massdrop_alt_default/protocol/arm_atsam/clks.o
 .debug_abbrev  0x00000000000040d9      0x27a .build/obj_massdrop_alt_default/protocol/arm_atsam/d51_util.o
 .debug_abbrev  0x0000000000004353      0x4c6 .build/obj_massdrop_alt_default/protocol/arm_atsam/i2c_master.o
 .debug_abbrev  0x0000000000004819      0x496 .build/obj_massdrop_alt_default/protocol/arm_atsam/led_matrix.o
 .debug_abbrev  0x0000000000004caf      0x4ba .build/obj_massdrop_alt_default/protocol/arm_atsam/main_arm_atsam.o
 .debug_abbrev  0x0000000000005169      0x312 .build/obj_massdrop_alt_default/protocol/arm_atsam/spi.o
 .debug_abbrev  0x000000000000547b      0x187 .build/obj_massdrop_alt_default/protocol/arm_atsam/startup.o
 .debug_abbrev  0x0000000000005602      0x240 .build/obj_massdrop_alt_default/protocol/arm_atsam/usb/main_usb.o
 .debug_abbrev  0x0000000000005842      0x4cf .build/obj_massdrop_alt_default/protocol/arm_atsam/usb/udc.o
 .debug_abbrev  0x0000000000005d11      0x239 .build/obj_massdrop_alt_default/protocol/arm_atsam/usb/udi_cdc.o
 .debug_abbrev  0x0000000000005f4a      0x261 .build/obj_massdrop_alt_default/protocol/arm_atsam/usb/udi_hid.o
 .debug_abbrev  0x00000000000061ab      0x41b .build/obj_massdrop_alt_default/protocol/arm_atsam/usb/udi_hid_kbd.o
 .debug_abbrev  0x00000000000065c6      0x205 .build/obj_massdrop_alt_default/protocol/arm_atsam/usb/udi_hid_kbd_desc.o
 .debug_abbrev  0x00000000000067cb       0xb9 .build/obj_massdrop_alt_default/protocol/arm_atsam/usb/ui.o
 .debug_abbrev  0x0000000000006884      0x435 .build/obj_massdrop_alt_default/protocol/arm_atsam/usb/usb2422.o
 .debug_abbrev  0x0000000000006cb9      0x49d .build/obj_massdrop_alt_default/protocol/arm_atsam/usb/usb.o
 .debug_abbrev  0x0000000000007156      0x5a3 .build/obj_massdrop_alt_default/protocol/arm_atsam/usb/usb_device_udd.o

.debug_loc      0x0000000000000000     0x93e6
 .debug_loc     0x0000000000000000      0x152 .build/obj_massdrop_alt_default/matrix.o
 .debug_loc     0x0000000000000152      0x1a0 .build/obj_massdrop_alt_default/keyboards/massdrop/alt/keymaps/default/keymap.o
 .debug_loc     0x00000000000002f2      0x798 .build/obj_massdrop_alt_default/quantum/quantum.o
 .debug_loc     0x0000000000000a8a      0x54a .build/obj_massdrop_alt_default/quantum/keymap_common.o
 .debug_loc     0x0000000000000fd4      0x186 .build/obj_massdrop_alt_default/quantum/keycode_config.o
 .debug_loc     0x000000000000115a      0x2e0 .build/obj_massdrop_alt_default/quantum/color.o
 .debug_loc     0x000000000000143a     0x2dcc .build/obj_massdrop_alt_default/quantum/rgb_matrix.o
 .debug_loc     0x0000000000004206      0x148 .build/obj_massdrop_alt_default/quantum/process_keycode/process_space_cadet.o
 .debug_loc     0x000000000000434e       0xb0 .build/obj_massdrop_alt_default/common/host.o
 .debug_loc     0x00000000000043fe       0xe8 .build/obj_massdrop_alt_default/common/keyboard.o
 .debug_loc     0x00000000000044e6      0x71b .build/obj_massdrop_alt_default/common/action.o
 .debug_loc     0x0000000000004c01      0x5ab .build/obj_massdrop_alt_default/common/action_tapping.o
 .debug_loc     0x00000000000051ac      0x156 .build/obj_massdrop_alt_default/common/action_macro.o
 .debug_loc     0x0000000000005302      0x433 .build/obj_massdrop_alt_default/common/action_layer.o
 .debug_loc     0x0000000000005735      0x232 .build/obj_massdrop_alt_default/common/action_util.o
 .debug_loc     0x0000000000005967      0x129 .build/obj_massdrop_alt_default/common/eeconfig.o
 .debug_loc     0x0000000000005a90      0x3a8 .build/obj_massdrop_alt_default/common/report.o
 .debug_loc     0x0000000000005e38       0x37 .build/obj_massdrop_alt_default/common/arm_atsam/suspend.o
 .debug_loc     0x0000000000005e6f       0x77 .build/obj_massdrop_alt_default/common/arm_atsam/timer.o
 .debug_loc     0x0000000000005ee6      0x412 .build/obj_massdrop_alt_default/common/arm_atsam/eeprom.o
 .debug_loc     0x00000000000062f8       0x1f .build/obj_massdrop_alt_default/common/magic.o
 .debug_loc     0x0000000000006317       0x21 .build/obj_massdrop_alt_default/protocol/arm_atsam/adc.o
 .debug_loc     0x0000000000006338      0x1c0 .build/obj_massdrop_alt_default/protocol/arm_atsam/clks.o
 .debug_loc     0x00000000000064f8      0x20f .build/obj_massdrop_alt_default/protocol/arm_atsam/d51_util.o
 .debug_loc     0x0000000000006707      0x66d .build/obj_massdrop_alt_default/protocol/arm_atsam/i2c_master.o
 .debug_loc     0x0000000000006d74      0x18b .build/obj_massdrop_alt_default/protocol/arm_atsam/led_matrix.o
 .debug_loc     0x0000000000006eff       0xf6 .build/obj_massdrop_alt_default/protocol/arm_atsam/main_arm_atsam.o
 .debug_loc     0x0000000000006ff5       0x43 .build/obj_massdrop_alt_default/protocol/arm_atsam/startup.o
 .debug_loc     0x0000000000007038      0x39b .build/obj_massdrop_alt_default/protocol/arm_atsam/usb/udc.o
 .debug_loc     0x00000000000073d3       0x21 .build/obj_massdrop_alt_default/protocol/arm_atsam/usb/udi_cdc.o
 .debug_loc     0x00000000000073f4      0x1d0 .build/obj_massdrop_alt_default/protocol/arm_atsam/usb/udi_hid.o
 .debug_loc     0x00000000000075c4      0x16b .build/obj_massdrop_alt_default/protocol/arm_atsam/usb/udi_hid_kbd.o
 .debug_loc     0x000000000000772f      0x21c .build/obj_massdrop_alt_default/protocol/arm_atsam/usb/usb2422.o
 .debug_loc     0x000000000000794b      0xc13 .build/obj_massdrop_alt_default/protocol/arm_atsam/usb/usb.o
 .debug_loc     0x000000000000855e      0xe88 .build/obj_massdrop_alt_default/protocol/arm_atsam/usb/usb_device_udd.o

.debug_aranges  0x0000000000000000     0x1458
 .debug_aranges
                0x0000000000000000       0x50 .build/obj_massdrop_alt_default/matrix.o
 .debug_aranges
                0x0000000000000050       0x20 .build/obj_massdrop_alt_default/config_led.o
 .debug_aranges
                0x0000000000000070       0x28 .build/obj_massdrop_alt_default/keyboards/massdrop/alt/keymaps/default/keymap.o
 .debug_aranges
                0x0000000000000098      0x120 .build/obj_massdrop_alt_default/quantum/quantum.o
 .debug_aranges
                0x00000000000001b8       0x40 .build/obj_massdrop_alt_default/quantum/keymap_common.o
 .debug_aranges
                0x00000000000001f8       0x28 .build/obj_massdrop_alt_default/quantum/keycode_config.o
 .debug_aranges
                0x0000000000000220       0x20 .build/obj_massdrop_alt_default/quantum/color.o
 .debug_aranges
                0x0000000000000240      0x378 .build/obj_massdrop_alt_default/quantum/rgb_matrix.o
 .debug_aranges
                0x00000000000005b8       0x18 .build/obj_massdrop_alt_default/quantum/led_tables.o
 .debug_aranges
                0x00000000000005d0       0x28 .build/obj_massdrop_alt_default/quantum/process_keycode/process_space_cadet.o
 .debug_aranges
                0x00000000000005f8       0x60 .build/obj_massdrop_alt_default/common/host.o
 .debug_aranges
                0x0000000000000658       0x60 .build/obj_massdrop_alt_default/common/keyboard.o
 .debug_aranges
                0x00000000000006b8       0xb0 .build/obj_massdrop_alt_default/common/action.o
 .debug_aranges
                0x0000000000000768       0x48 .build/obj_massdrop_alt_default/common/action_tapping.o
 .debug_aranges
                0x00000000000007b0       0x20 .build/obj_massdrop_alt_default/common/action_macro.o
 .debug_aranges
                0x00000000000007d0       0xe0 .build/obj_massdrop_alt_default/common/action_layer.o
 .debug_aranges
                0x00000000000008b0      0x140 .build/obj_massdrop_alt_default/common/action_util.o
 .debug_aranges
                0x00000000000009f0       0x18 .build/obj_massdrop_alt_default/common/debug.o
 .debug_aranges
                0x0000000000000a08       0xd8 .build/obj_massdrop_alt_default/common/eeconfig.o
 .debug_aranges
                0x0000000000000ae0       0x60 .build/obj_massdrop_alt_default/common/report.o
 .debug_aranges
                0x0000000000000b40       0x50 .build/obj_massdrop_alt_default/common/arm_atsam/suspend.o
 .debug_aranges
                0x0000000000000b90       0x58 .build/obj_massdrop_alt_default/common/arm_atsam/timer.o
 .debug_aranges
                0x0000000000000be8       0x20 .build/obj_massdrop_alt_default/common/arm_atsam/bootloader.o
 .debug_aranges
                0x0000000000000c08       0x60 .build/obj_massdrop_alt_default/common/arm_atsam/eeprom.o
 .debug_aranges
                0x0000000000000c68       0x20 .build/obj_massdrop_alt_default/common/magic.o
 .debug_aranges
                0x0000000000000c88       0x30 .build/obj_massdrop_alt_default/protocol/arm_atsam/adc.o
 .debug_aranges
                0x0000000000000cb8       0x80 .build/obj_massdrop_alt_default/protocol/arm_atsam/clks.o
 .debug_aranges
                0x0000000000000d38       0x40 .build/obj_massdrop_alt_default/protocol/arm_atsam/d51_util.o
 .debug_aranges
                0x0000000000000d78      0x130 .build/obj_massdrop_alt_default/protocol/arm_atsam/i2c_master.o
 .debug_aranges
                0x0000000000000ea8       0x68 .build/obj_massdrop_alt_default/protocol/arm_atsam/led_matrix.o
 .debug_aranges
                0x0000000000000f10       0x68 .build/obj_massdrop_alt_default/protocol/arm_atsam/main_arm_atsam.o
 .debug_aranges
                0x0000000000000f78       0x28 .build/obj_massdrop_alt_default/protocol/arm_atsam/spi.o
 .debug_aranges
                0x0000000000000fa0       0x28 .build/obj_massdrop_alt_default/protocol/arm_atsam/startup.o
 .debug_aranges
                0x0000000000000fc8       0x70 .build/obj_massdrop_alt_default/protocol/arm_atsam/usb/main_usb.o
 .debug_aranges
                0x0000000000001038       0x70 .build/obj_massdrop_alt_default/protocol/arm_atsam/usb/udc.o
 .debug_aranges
                0x00000000000010a8       0x40 .build/obj_massdrop_alt_default/protocol/arm_atsam/usb/udi_cdc.o
 .debug_aranges
                0x00000000000010e8       0x20 .build/obj_massdrop_alt_default/protocol/arm_atsam/usb/udi_hid.o
 .debug_aranges
                0x0000000000001108       0xb8 .build/obj_massdrop_alt_default/protocol/arm_atsam/usb/udi_hid_kbd.o
 .debug_aranges
                0x00000000000011c0       0x18 .build/obj_massdrop_alt_default/protocol/arm_atsam/usb/udi_hid_kbd_desc.o
 .debug_aranges
                0x00000000000011d8       0x30 .build/obj_massdrop_alt_default/protocol/arm_atsam/usb/ui.o
 .debug_aranges
                0x0000000000001208       0x60 .build/obj_massdrop_alt_default/protocol/arm_atsam/usb/usb2422.o
 .debug_aranges
                0x0000000000001268       0xe0 .build/obj_massdrop_alt_default/protocol/arm_atsam/usb/usb.o
 .debug_aranges
                0x0000000000001348      0x110 .build/obj_massdrop_alt_default/protocol/arm_atsam/usb/usb_device_udd.o

.debug_ranges   0x0000000000000000     0x1a58
 .debug_ranges  0x0000000000000000       0x40 .build/obj_massdrop_alt_default/matrix.o
 .debug_ranges  0x0000000000000040       0x10 .build/obj_massdrop_alt_default/config_led.o
 .debug_ranges  0x0000000000000050       0x18 .build/obj_massdrop_alt_default/keyboards/massdrop/alt/keymaps/default/keymap.o
 .debug_ranges  0x0000000000000068      0x158 .build/obj_massdrop_alt_default/quantum/quantum.o
 .debug_ranges  0x00000000000001c0       0x30 .build/obj_massdrop_alt_default/quantum/keymap_common.o
 .debug_ranges  0x00000000000001f0       0x18 .build/obj_massdrop_alt_default/quantum/keycode_config.o
 .debug_ranges  0x0000000000000208       0x10 .build/obj_massdrop_alt_default/quantum/color.o
 .debug_ranges  0x0000000000000218      0x898 .build/obj_massdrop_alt_default/quantum/rgb_matrix.o
 .debug_ranges  0x0000000000000ab0       0x18 .build/obj_massdrop_alt_default/quantum/process_keycode/process_space_cadet.o
 .debug_ranges  0x0000000000000ac8       0x50 .build/obj_massdrop_alt_default/common/host.o
 .debug_ranges  0x0000000000000b18       0x90 .build/obj_massdrop_alt_default/common/keyboard.o
 .debug_ranges  0x0000000000000ba8      0x108 .build/obj_massdrop_alt_default/common/action.o
 .debug_ranges  0x0000000000000cb0       0xd8 .build/obj_massdrop_alt_default/common/action_tapping.o
 .debug_ranges  0x0000000000000d88       0x28 .build/obj_massdrop_alt_default/common/action_macro.o
 .debug_ranges  0x0000000000000db0       0xe8 .build/obj_massdrop_alt_default/common/action_layer.o
 .debug_ranges  0x0000000000000e98      0x130 .build/obj_massdrop_alt_default/common/action_util.o
 .debug_ranges  0x0000000000000fc8       0xc8 .build/obj_massdrop_alt_default/common/eeconfig.o
 .debug_ranges  0x0000000000001090       0x68 .build/obj_massdrop_alt_default/common/report.o
 .debug_ranges  0x00000000000010f8       0x58 .build/obj_massdrop_alt_default/common/arm_atsam/suspend.o
 .debug_ranges  0x0000000000001150       0x48 .build/obj_massdrop_alt_default/common/arm_atsam/timer.o
 .debug_ranges  0x0000000000001198       0x10 .build/obj_massdrop_alt_default/common/arm_atsam/bootloader.o
 .debug_ranges  0x00000000000011a8       0x90 .build/obj_massdrop_alt_default/common/arm_atsam/eeprom.o
 .debug_ranges  0x0000000000001238       0x10 .build/obj_massdrop_alt_default/common/magic.o
 .debug_ranges  0x0000000000001248       0x20 .build/obj_massdrop_alt_default/protocol/arm_atsam/adc.o
 .debug_ranges  0x0000000000001268       0x70 .build/obj_massdrop_alt_default/protocol/arm_atsam/clks.o
 .debug_ranges  0x00000000000012d8       0x30 .build/obj_massdrop_alt_default/protocol/arm_atsam/d51_util.o
 .debug_ranges  0x0000000000001308      0x120 .build/obj_massdrop_alt_default/protocol/arm_atsam/i2c_master.o
 .debug_ranges  0x0000000000001428       0x70 .build/obj_massdrop_alt_default/protocol/arm_atsam/led_matrix.o
 .debug_ranges  0x0000000000001498       0x70 .build/obj_massdrop_alt_default/protocol/arm_atsam/main_arm_atsam.o
 .debug_ranges  0x0000000000001508       0x18 .build/obj_massdrop_alt_default/protocol/arm_atsam/spi.o
 .debug_ranges  0x0000000000001520       0x18 .build/obj_massdrop_alt_default/protocol/arm_atsam/startup.o
 .debug_ranges  0x0000000000001538       0x60 .build/obj_massdrop_alt_default/protocol/arm_atsam/usb/main_usb.o
 .debug_ranges  0x0000000000001598      0x108 .build/obj_massdrop_alt_default/protocol/arm_atsam/usb/udc.o
 .debug_ranges  0x00000000000016a0       0x30 .build/obj_massdrop_alt_default/protocol/arm_atsam/usb/udi_cdc.o
 .debug_ranges  0x00000000000016d0       0x30 .build/obj_massdrop_alt_default/protocol/arm_atsam/usb/udi_hid.o
 .debug_ranges  0x0000000000001700       0xa8 .build/obj_massdrop_alt_default/protocol/arm_atsam/usb/udi_hid_kbd.o
 .debug_ranges  0x00000000000017a8       0x20 .build/obj_massdrop_alt_default/protocol/arm_atsam/usb/ui.o
 .debug_ranges  0x00000000000017c8       0x50 .build/obj_massdrop_alt_default/protocol/arm_atsam/usb/usb2422.o
 .debug_ranges  0x0000000000001818       0xe8 .build/obj_massdrop_alt_default/protocol/arm_atsam/usb/usb.o
 .debug_ranges  0x0000000000001900      0x158 .build/obj_massdrop_alt_default/protocol/arm_atsam/usb/usb_device_udd.o

.debug_line     0x0000000000000000     0xb97a
 .debug_line    0x0000000000000000      0x50d .build/obj_massdrop_alt_default/matrix.o
 .debug_line    0x000000000000050d      0x3f4 .build/obj_massdrop_alt_default/config_led.o
 .debug_line    0x0000000000000901      0x4aa .build/obj_massdrop_alt_default/keyboards/massdrop/alt/keymaps/default/keymap.o
 .debug_line    0x0000000000000dab      0x795 .build/obj_massdrop_alt_default/quantum/quantum.o
 .debug_line    0x0000000000001540      0x431 .build/obj_massdrop_alt_default/quantum/keymap_common.o
 .debug_line    0x0000000000001971      0x1ab .build/obj_massdrop_alt_default/quantum/keycode_config.o
 .debug_line    0x0000000000001b1c      0x13c .build/obj_massdrop_alt_default/quantum/color.o
 .debug_line    0x0000000000001c58     0x14fa .build/obj_massdrop_alt_default/quantum/rgb_matrix.o
 .debug_line    0x0000000000003152       0xf8 .build/obj_massdrop_alt_default/quantum/led_tables.o
 .debug_line    0x000000000000324a      0x36d .build/obj_massdrop_alt_default/quantum/process_keycode/process_space_cadet.o
 .debug_line    0x00000000000035b7      0x1df .build/obj_massdrop_alt_default/common/host.o
 .debug_line    0x0000000000003796      0x273 .build/obj_massdrop_alt_default/common/keyboard.o
 .debug_line    0x0000000000003a09      0x5a3 .build/obj_massdrop_alt_default/common/action.o
 .debug_line    0x0000000000003fac      0x387 .build/obj_massdrop_alt_default/common/action_tapping.o
 .debug_line    0x0000000000004333      0x1be .build/obj_massdrop_alt_default/common/action_macro.o
 .debug_line    0x00000000000044f1      0x336 .build/obj_massdrop_alt_default/common/action_layer.o
 .debug_line    0x0000000000004827      0x45a .build/obj_massdrop_alt_default/common/action_util.o
 .debug_line    0x0000000000004c81       0xf6 .build/obj_massdrop_alt_default/common/debug.o
 .debug_line    0x0000000000004d77      0x2a8 .build/obj_massdrop_alt_default/common/eeconfig.o
 .debug_line    0x000000000000501f      0x2cb .build/obj_massdrop_alt_default/common/report.o
 .debug_line    0x00000000000052ea      0x44e .build/obj_massdrop_alt_default/common/arm_atsam/suspend.o
 .debug_line    0x0000000000005738      0x24c .build/obj_massdrop_alt_default/common/arm_atsam/timer.o
 .debug_line    0x0000000000005984      0x234 .build/obj_massdrop_alt_default/common/arm_atsam/bootloader.o
 .debug_line    0x0000000000005bb8      0x1d8 .build/obj_massdrop_alt_default/common/arm_atsam/eeprom.o
 .debug_line    0x0000000000005d90      0x16a .build/obj_massdrop_alt_default/common/magic.o
 .debug_line    0x0000000000005efa      0x52d .build/obj_massdrop_alt_default/protocol/arm_atsam/adc.o
 .debug_line    0x0000000000006427      0x736 .build/obj_massdrop_alt_default/protocol/arm_atsam/clks.o
 .debug_line    0x0000000000006b5d      0x390 .build/obj_massdrop_alt_default/protocol/arm_atsam/d51_util.o
 .debug_line    0x0000000000006eed      0x8e9 .build/obj_massdrop_alt_default/protocol/arm_atsam/i2c_master.o
 .debug_line    0x00000000000077d6      0x6e6 .build/obj_massdrop_alt_default/protocol/arm_atsam/led_matrix.o
 .debug_line    0x0000000000007ebc      0x6f0 .build/obj_massdrop_alt_default/protocol/arm_atsam/main_arm_atsam.o
 .debug_line    0x00000000000085ac      0x4f2 .build/obj_massdrop_alt_default/protocol/arm_atsam/spi.o
 .debug_line    0x0000000000008a9e      0x1f8 .build/obj_massdrop_alt_default/protocol/arm_atsam/startup.o
 .debug_line    0x0000000000008c96      0x381 .build/obj_massdrop_alt_default/protocol/arm_atsam/usb/main_usb.o
 .debug_line    0x0000000000009017      0x48b .build/obj_massdrop_alt_default/protocol/arm_atsam/usb/udc.o
 .debug_line    0x00000000000094a2      0x352 .build/obj_massdrop_alt_default/protocol/arm_atsam/usb/udi_cdc.o
 .debug_line    0x00000000000097f4      0x2a4 .build/obj_massdrop_alt_default/protocol/arm_atsam/usb/udi_hid.o
 .debug_line    0x0000000000009a98      0x4e9 .build/obj_massdrop_alt_default/protocol/arm_atsam/usb/udi_hid_kbd.o
 .debug_line    0x0000000000009f81      0x261 .build/obj_massdrop_alt_default/protocol/arm_atsam/usb/udi_hid_kbd_desc.o
 .debug_line    0x000000000000a1e2      0x1b2 .build/obj_massdrop_alt_default/protocol/arm_atsam/usb/ui.o
 .debug_line    0x000000000000a394      0x6ff .build/obj_massdrop_alt_default/protocol/arm_atsam/usb/usb2422.o
 .debug_line    0x000000000000aa93      0x6b6 .build/obj_massdrop_alt_default/protocol/arm_atsam/usb/usb.o
 .debug_line    0x000000000000b149      0x831 .build/obj_massdrop_alt_default/protocol/arm_atsam/usb/usb_device_udd.o

.debug_str      0x0000000000000000     0xc9a7
 .debug_str     0x0000000000000000      0xd45 .build/obj_massdrop_alt_default/matrix.o
                                        0xed9 (size before relaxing)
 .debug_str     0x0000000000000d45       0x53 .build/obj_massdrop_alt_default/config_led.o
                                        0xbdb (size before relaxing)
 .debug_str     0x0000000000000d98     0x17d0 .build/obj_massdrop_alt_default/keyboards/massdrop/alt/keymaps/default/keymap.o
                                       0x23a4 (size before relaxing)
 .debug_str     0x0000000000002568      0x61a .build/obj_massdrop_alt_default/quantum/quantum.o
                                       0x24b8 (size before relaxing)
 .debug_str     0x0000000000002b82      0x419 .build/obj_massdrop_alt_default/quantum/keymap_common.o
                                       0x24ca (size before relaxing)
 .debug_str     0x0000000000002f9b       0x6a .build/obj_massdrop_alt_default/quantum/keycode_config.o
                                        0x8e1 (size before relaxing)
 .debug_str     0x0000000000003005       0x3f .build/obj_massdrop_alt_default/quantum/color.o
                                        0x21a (size before relaxing)
 .debug_str     0x0000000000003044      0xb7b .build/obj_massdrop_alt_default/quantum/rgb_matrix.o
                                       0x1a28 (size before relaxing)
 .debug_str     0x0000000000003bbf       0x15 .build/obj_massdrop_alt_default/quantum/led_tables.o
                                        0x1ea (size before relaxing)
 .debug_str     0x0000000000003bd4       0x7b .build/obj_massdrop_alt_default/quantum/process_keycode/process_space_cadet.o
                                       0x1e44 (size before relaxing)
 .debug_str     0x0000000000003c4f      0x113 .build/obj_massdrop_alt_default/common/host.o
                                        0x497 (size before relaxing)
 .debug_str     0x0000000000003d62      0x162 .build/obj_massdrop_alt_default/common/keyboard.o
                                        0x571 (size before relaxing)
 .debug_str     0x0000000000003ec4      0x3ca .build/obj_massdrop_alt_default/common/action.o
                                       0x14d5 (size before relaxing)
 .debug_str     0x000000000000428e       0xf7 .build/obj_massdrop_alt_default/common/action_tapping.o
                                        0xc63 (size before relaxing)
 .debug_str     0x0000000000004385       0x6b .build/obj_massdrop_alt_default/common/action_macro.o
                                        0x9ac (size before relaxing)
 .debug_str     0x00000000000043f0       0xd3 .build/obj_massdrop_alt_default/common/action_layer.o
                                        0x640 (size before relaxing)
 .debug_str     0x00000000000044c3      0x21a .build/obj_massdrop_alt_default/common/action_util.o
                                        0x7c9 (size before relaxing)
 .debug_str     0x00000000000046dd       0x18 .build/obj_massdrop_alt_default/common/debug.o
                                        0x227 (size before relaxing)
 .debug_str     0x00000000000046f5      0x202 .build/obj_massdrop_alt_default/common/eeconfig.o
                                        0x488 (size before relaxing)
 .debug_str     0x00000000000048f7       0x70 .build/obj_massdrop_alt_default/common/report.o
                                        0x7f3 (size before relaxing)
 .debug_str     0x0000000000004967      0x105 .build/obj_massdrop_alt_default/common/arm_atsam/suspend.o
                                        0xc50 (size before relaxing)
 .debug_str     0x0000000000004a6c       0x39 .build/obj_massdrop_alt_default/common/arm_atsam/timer.o
                                        0x341 (size before relaxing)
 .debug_str     0x0000000000004aa5       0xe8 .build/obj_massdrop_alt_default/common/arm_atsam/bootloader.o
                                        0x350 (size before relaxing)
 .debug_str     0x0000000000004b8d       0x7e .build/obj_massdrop_alt_default/common/arm_atsam/eeprom.o
                                        0x324 (size before relaxing)
 .debug_str     0x0000000000004c0b       0x18 .build/obj_massdrop_alt_default/common/magic.o
                                        0x40a (size before relaxing)
 .debug_str     0x0000000000004c23     0x19e6 .build/obj_massdrop_alt_default/protocol/arm_atsam/adc.o
                                       0x2836 (size before relaxing)
 .debug_str     0x0000000000006609     0x198f .build/obj_massdrop_alt_default/protocol/arm_atsam/clks.o
                                       0x3d61 (size before relaxing)
 .debug_str     0x0000000000007f98      0x26f .build/obj_massdrop_alt_default/protocol/arm_atsam/d51_util.o
                                       0x1ed5 (size before relaxing)
 .debug_str     0x0000000000008207      0x9c9 .build/obj_massdrop_alt_default/protocol/arm_atsam/i2c_master.o
                                       0x3b0c (size before relaxing)
 .debug_str     0x0000000000008bd0      0x13a .build/obj_massdrop_alt_default/protocol/arm_atsam/led_matrix.o
                                       0x30fa (size before relaxing)
 .debug_str     0x0000000000008d0a      0x804 .build/obj_massdrop_alt_default/protocol/arm_atsam/main_arm_atsam.o
                                       0x2be9 (size before relaxing)
 .debug_str     0x000000000000950e       0x22 .build/obj_massdrop_alt_default/protocol/arm_atsam/spi.o
                                       0x28b6 (size before relaxing)
 .debug_str     0x0000000000009530      0xb87 .build/obj_massdrop_alt_default/protocol/arm_atsam/startup.o
                                        0xdda (size before relaxing)
 .debug_str     0x000000000000a0b7      0x154 .build/obj_massdrop_alt_default/protocol/arm_atsam/usb/main_usb.o
                                        0xb96 (size before relaxing)
 .debug_str     0x000000000000a20b      0x93c .build/obj_massdrop_alt_default/protocol/arm_atsam/usb/udc.o
                                       0x1393 (size before relaxing)
 .debug_str     0x000000000000ab47       0x50 .build/obj_massdrop_alt_default/protocol/arm_atsam/usb/udi_cdc.o
                                        0xb53 (size before relaxing)
 .debug_str     0x000000000000ab97      0x1b1 .build/obj_massdrop_alt_default/protocol/arm_atsam/usb/udi_hid.o
                                        0xccc (size before relaxing)
 .debug_str     0x000000000000ad48      0x447 .build/obj_massdrop_alt_default/protocol/arm_atsam/usb/udi_hid_kbd.o
                                        0xf63 (size before relaxing)
 .debug_str     0x000000000000b18f      0x111 .build/obj_massdrop_alt_default/protocol/arm_atsam/usb/udi_hid_kbd_desc.o
                                        0xd22 (size before relaxing)
 .debug_str     0x000000000000b2a0       0x44 .build/obj_massdrop_alt_default/protocol/arm_atsam/usb/ui.o
                                        0x2ad (size before relaxing)
 .debug_str     0x000000000000b2e4      0x538 .build/obj_massdrop_alt_default/protocol/arm_atsam/usb/usb2422.o
                                       0x3cdc (size before relaxing)
 .debug_str     0x000000000000b81c      0xc9f .build/obj_massdrop_alt_default/protocol/arm_atsam/usb/usb.o
                                       0x2b5b (size before relaxing)
 .debug_str     0x000000000000c4bb      0x4ec .build/obj_massdrop_alt_default/protocol/arm_atsam/usb/usb_device_udd.o
                                       0x2355 (size before relaxing)

.debug_frame    0x0000000000000000     0x3cd4
 .debug_frame   0x0000000000000000       0xf0 .build/obj_massdrop_alt_default/matrix.o
 .debug_frame   0x00000000000000f0       0x20 .build/obj_massdrop_alt_default/config_led.o
 .debug_frame   0x0000000000000110       0x50 .build/obj_massdrop_alt_default/keyboards/massdrop/alt/keymaps/default/keymap.o
 .debug_frame   0x0000000000000160      0x458 .build/obj_massdrop_alt_default/quantum/quantum.o
 .debug_frame   0x00000000000005b8       0x7c .build/obj_massdrop_alt_default/quantum/keymap_common.o
 .debug_frame   0x0000000000000634       0x30 .build/obj_massdrop_alt_default/quantum/keycode_config.o
 .debug_frame   0x0000000000000664       0x38 .build/obj_massdrop_alt_default/quantum/color.o
 .debug_frame   0x000000000000069c      0xac4 .build/obj_massdrop_alt_default/quantum/rgb_matrix.o
 .debug_frame   0x0000000000001160       0x8c .build/obj_massdrop_alt_default/quantum/process_keycode/process_space_cadet.o
 .debug_frame   0x00000000000011ec       0xa0 .build/obj_massdrop_alt_default/common/host.o
 .debug_frame   0x000000000000128c      0x128 .build/obj_massdrop_alt_default/common/keyboard.o
 .debug_frame   0x00000000000013b4      0x288 .build/obj_massdrop_alt_default/common/action.o
 .debug_frame   0x000000000000163c       0xf4 .build/obj_massdrop_alt_default/common/action_tapping.o
 .debug_frame   0x0000000000001730       0x38 .build/obj_massdrop_alt_default/common/action_macro.o
 .debug_frame   0x0000000000001768      0x264 .build/obj_massdrop_alt_default/common/action_layer.o
 .debug_frame   0x00000000000019cc      0x310 .build/obj_massdrop_alt_default/common/action_util.o
 .debug_frame   0x0000000000001cdc      0x1dc .build/obj_massdrop_alt_default/common/eeconfig.o
 .debug_frame   0x0000000000001eb8       0xec .build/obj_massdrop_alt_default/common/report.o
 .debug_frame   0x0000000000001fa4       0xec .build/obj_massdrop_alt_default/common/arm_atsam/suspend.o
 .debug_frame   0x0000000000002090       0xa8 .build/obj_massdrop_alt_default/common/arm_atsam/timer.o
 .debug_frame   0x0000000000002138       0x20 .build/obj_massdrop_alt_default/common/arm_atsam/bootloader.o
 .debug_frame   0x0000000000002158       0xf4 .build/obj_massdrop_alt_default/common/arm_atsam/eeprom.o
 .debug_frame   0x000000000000224c       0x30 .build/obj_massdrop_alt_default/common/magic.o
 .debug_frame   0x000000000000227c       0x4c .build/obj_massdrop_alt_default/protocol/arm_atsam/adc.o
 .debug_frame   0x00000000000022c8      0x184 .build/obj_massdrop_alt_default/protocol/arm_atsam/clks.o
 .debug_frame   0x000000000000244c       0x94 .build/obj_massdrop_alt_default/protocol/arm_atsam/d51_util.o
 .debug_frame   0x00000000000024e0      0x3b8 .build/obj_massdrop_alt_default/protocol/arm_atsam/i2c_master.o
 .debug_frame   0x0000000000002898      0x164 .build/obj_massdrop_alt_default/protocol/arm_atsam/led_matrix.o
 .debug_frame   0x00000000000029fc      0x144 .build/obj_massdrop_alt_default/protocol/arm_atsam/main_arm_atsam.o
 .debug_frame   0x0000000000002b40       0x4c .build/obj_massdrop_alt_default/protocol/arm_atsam/spi.o
 .debug_frame   0x0000000000002b8c       0x3c .build/obj_massdrop_alt_default/protocol/arm_atsam/startup.o
 .debug_frame   0x0000000000002bc8       0xd0 .build/obj_massdrop_alt_default/protocol/arm_atsam/usb/main_usb.o
 .debug_frame   0x0000000000002c98      0x144 .build/obj_massdrop_alt_default/protocol/arm_atsam/usb/udc.o
 .debug_frame   0x0000000000002ddc       0x7c .build/obj_massdrop_alt_default/protocol/arm_atsam/usb/udi_cdc.o
 .debug_frame   0x0000000000002e58       0x48 .build/obj_massdrop_alt_default/protocol/arm_atsam/usb/udi_hid.o
 .debug_frame   0x0000000000002ea0      0x1e0 .build/obj_massdrop_alt_default/protocol/arm_atsam/usb/udi_hid_kbd.o
 .debug_frame   0x0000000000003080       0x80 .build/obj_massdrop_alt_default/protocol/arm_atsam/usb/ui.o
 .debug_frame   0x0000000000003100      0x160 .build/obj_massdrop_alt_default/protocol/arm_atsam/usb/usb2422.o
 .debug_frame   0x0000000000003260      0x270 .build/obj_massdrop_alt_default/protocol/arm_atsam/usb/usb.o
 .debug_frame   0x00000000000034d0      0x450 .build/obj_massdrop_alt_default/protocol/arm_atsam/usb/usb_device_udd.o
 .debug_frame   0x0000000000003920       0xac /usr/local/Cellar/gcc-arm-none-eabi/20180627/bin/../lib/gcc/arm-none-eabi/7.3.1/thumb/v7e-m/fpv4-sp/hard/libgcc.a(_arm_addsubdf3.o)
 .debug_frame   0x00000000000039cc       0x50 /usr/local/Cellar/gcc-arm-none-eabi/20180627/bin/../lib/gcc/arm-none-eabi/7.3.1/thumb/v7e-m/fpv4-sp/hard/libgcc.a(_arm_muldivdf3.o)
 .debug_frame   0x0000000000003a1c       0x24 /usr/local/Cellar/gcc-arm-none-eabi/20180627/bin/../lib/gcc/arm-none-eabi/7.3.1/thumb/v7e-m/fpv4-sp/hard/libgcc.a(_arm_fixunsdfsi.o)
 .debug_frame   0x0000000000003a40       0x2c /usr/local/Cellar/gcc-arm-none-eabi/20180627/bin/../lib/gcc/arm-none-eabi/7.3.1/thumb/v7e-m/fpv4-sp/hard/libgcc.a(_aeabi_uldivmod.o)
 .debug_frame   0x0000000000003a6c       0x34 /usr/local/Cellar/gcc-arm-none-eabi/20180627/bin/../lib/gcc/arm-none-eabi/7.3.1/thumb/v7e-m/fpv4-sp/hard/libgcc.a(_udivmoddi4.o)
 .debug_frame   0x0000000000003aa0       0x2c /usr/local/Cellar/gcc-arm-none-eabi/20180627/bin/../lib/gcc/arm-none-eabi/7.3.1/../../../../arm-none-eabi/lib/thumb/v7e-m/fpv4-sp/hard/libg.a(lib_a-init.o)
 .debug_frame   0x0000000000003acc       0x38 /usr/local/Cellar/gcc-arm-none-eabi/20180627/bin/../lib/gcc/arm-none-eabi/7.3.1/../../../../arm-none-eabi/lib/thumb/v7e-m/fpv4-sp/hard/libg.a(lib_a-memset.o)
 .debug_frame   0x0000000000003b04       0x3c /usr/local/Cellar/gcc-arm-none-eabi/20180627/bin/../lib/gcc/arm-none-eabi/7.3.1/../../../../arm-none-eabi/lib/thumb/v7e-m/fpv4-sp/hard/libg.a(lib_a-rand.o)
 .debug_frame   0x0000000000003b40       0x5c /usr/local/Cellar/gcc-arm-none-eabi/20180627/bin/../lib/gcc/arm-none-eabi/7.3.1/../../../../arm-none-eabi/lib/thumb/v7e-m/fpv4-sp/hard/libg.a(lib_a-__call_atexit.o)
 .debug_frame   0x0000000000003b9c       0x20 /usr/local/Cellar/gcc-arm-none-eabi/20180627/bin/../lib/gcc/arm-none-eabi/7.3.1/../../../../arm-none-eabi/lib/thumb/v7e-m/fpv4-sp/hard/libg.a(lib_a-atexit.o)
 .debug_frame   0x0000000000003bbc       0x34 /usr/local/Cellar/gcc-arm-none-eabi/20180627/bin/../lib/gcc/arm-none-eabi/7.3.1/../../../../arm-none-eabi/lib/thumb/v7e-m/fpv4-sp/hard/libg.a(lib_a-fini.o)
 .debug_frame   0x0000000000003bf0       0xb0 /usr/local/Cellar/gcc-arm-none-eabi/20180627/bin/../lib/gcc/arm-none-eabi/7.3.1/../../../../arm-none-eabi/lib/thumb/v7e-m/fpv4-sp/hard/libg.a(lib_a-lock.o)
 .debug_frame   0x0000000000003ca0       0x34 /usr/local/Cellar/gcc-arm-none-eabi/20180627/bin/../lib/gcc/arm-none-eabi/7.3.1/../../../../arm-none-eabi/lib/thumb/v7e-m/fpv4-sp/hard/libg.a(lib_a-__atexit.o)

Cross Reference Table

Symbol                                            File
AC_Handler                                        .build/obj_massdrop_alt_default/protocol/arm_atsam/startup.o
ADC0_0_Handler                                    .build/obj_massdrop_alt_default/protocol/arm_atsam/startup.o
ADC0_1_Handler                                    .build/obj_massdrop_alt_default/protocol/arm_atsam/startup.o
ADC0_clock_init                                   .build/obj_massdrop_alt_default/protocol/arm_atsam/adc.o
                                                  .build/obj_massdrop_alt_default/protocol/arm_atsam/clks.o
ADC0_init                                         .build/obj_massdrop_alt_default/protocol/arm_atsam/adc.o
                                                  .build/obj_massdrop_alt_default/protocol/arm_atsam/main_arm_atsam.o
ADC1_0_Handler                                    .build/obj_massdrop_alt_default/protocol/arm_atsam/startup.o
ADC1_1_Handler                                    .build/obj_massdrop_alt_default/protocol/arm_atsam/startup.o
AES_Handler                                       .build/obj_massdrop_alt_default/protocol/arm_atsam/startup.o
ALPHAS_MODS                                       .build/obj_massdrop_alt_default/quantum/rgb_matrix.o
BAND_PINWHEEL_SAT                                 .build/obj_massdrop_alt_default/quantum/rgb_matrix.o
BAND_PINWHEEL_VAL                                 .build/obj_massdrop_alt_default/quantum/rgb_matrix.o
BAND_SAT                                          .build/obj_massdrop_alt_default/quantum/rgb_matrix.o
BAND_SPIRAL_SAT                                   .build/obj_massdrop_alt_default/quantum/rgb_matrix.o
BAND_SPIRAL_VAL                                   .build/obj_massdrop_alt_default/quantum/rgb_matrix.o
BAND_VAL                                          .build/obj_massdrop_alt_default/quantum/rgb_matrix.o
BREATHING                                         .build/obj_massdrop_alt_default/quantum/rgb_matrix.o
BusFault_Handler                                  .build/obj_massdrop_alt_default/protocol/arm_atsam/startup.o
CDC_init                                          .build/obj_massdrop_alt_default/protocol/arm_atsam/usb/udi_cdc.o
                                                  .build/obj_massdrop_alt_default/protocol/arm_atsam/main_arm_atsam.o
CDC_input                                         .build/obj_massdrop_alt_default/protocol/arm_atsam/usb/udi_cdc.o
CDC_print                                         .build/obj_massdrop_alt_default/protocol/arm_atsam/usb/udi_cdc.o
                                                  .build/obj_massdrop_alt_default/protocol/arm_atsam/usb/usb2422.o
                                                  .build/obj_massdrop_alt_default/protocol/arm_atsam/led_matrix.o
CDC_printf                                        .build/obj_massdrop_alt_default/protocol/arm_atsam/usb/udi_cdc.o
CDC_send                                          .build/obj_massdrop_alt_default/protocol/arm_atsam/usb/udi_cdc.o
CIE1931_CURVE                                     .build/obj_massdrop_alt_default/quantum/led_tables.o
                                                  .build/obj_massdrop_alt_default/quantum/color.o
CLK_delay_ms                                      .build/obj_massdrop_alt_default/protocol/arm_atsam/clks.o
                                                  .build/obj_massdrop_alt_default/protocol/arm_atsam/usb/usb2422.o
                                                  .build/obj_massdrop_alt_default/protocol/arm_atsam/main_arm_atsam.o
                                                  .build/obj_massdrop_alt_default/protocol/arm_atsam/i2c_master.o
                                                  .build/obj_massdrop_alt_default/common/action_macro.o
                                                  .build/obj_massdrop_alt_default/common/action.o
                                                  .build/obj_massdrop_alt_default/quantum/quantum.o
CLK_delay_us                                      .build/obj_massdrop_alt_default/protocol/arm_atsam/clks.o
                                                  .build/obj_massdrop_alt_default/protocol/arm_atsam/usb/usb2422.o
                                                  .build/obj_massdrop_alt_default/matrix.o
CLK_enable_timebase                               .build/obj_massdrop_alt_default/protocol/arm_atsam/clks.o
CLK_init                                          .build/obj_massdrop_alt_default/protocol/arm_atsam/clks.o
                                                  .build/obj_massdrop_alt_default/protocol/arm_atsam/main_arm_atsam.o
CLK_init_osc                                      .build/obj_massdrop_alt_default/protocol/arm_atsam/clks.o
CLK_oscctrl_init                                  .build/obj_massdrop_alt_default/protocol/arm_atsam/clks.o
CLK_reset_time                                    .build/obj_massdrop_alt_default/protocol/arm_atsam/clks.o
CLK_set_gclk_freq                                 .build/obj_massdrop_alt_default/protocol/arm_atsam/clks.o
CLK_set_i2c0_freq                                 .build/obj_massdrop_alt_default/protocol/arm_atsam/clks.o
                                                  .build/obj_massdrop_alt_default/protocol/arm_atsam/i2c_master.o
CLK_set_i2c1_freq                                 .build/obj_massdrop_alt_default/protocol/arm_atsam/clks.o
                                                  .build/obj_massdrop_alt_default/protocol/arm_atsam/i2c_master.o
CLK_set_spi_freq                                  .build/obj_massdrop_alt_default/protocol/arm_atsam/clks.o
                                                  .build/obj_massdrop_alt_default/protocol/arm_atsam/spi.o
CYCLE_ALL                                         .build/obj_massdrop_alt_default/quantum/rgb_matrix.o
CYCLE_LEFT_RIGHT                                  .build/obj_massdrop_alt_default/quantum/rgb_matrix.o
CYCLE_OUT_IN                                      .build/obj_massdrop_alt_default/quantum/rgb_matrix.o
CYCLE_OUT_IN_DUAL                                 .build/obj_massdrop_alt_default/quantum/rgb_matrix.o
CYCLE_PINWHEEL                                    .build/obj_massdrop_alt_default/quantum/rgb_matrix.o
CYCLE_SPIRAL                                      .build/obj_massdrop_alt_default/quantum/rgb_matrix.o
CYCLE_UP_DOWN                                     .build/obj_massdrop_alt_default/quantum/rgb_matrix.o
DAC_0_Handler                                     .build/obj_massdrop_alt_default/protocol/arm_atsam/startup.o
DAC_1_Handler                                     .build/obj_massdrop_alt_default/protocol/arm_atsam/startup.o
DAC_2_Handler                                     .build/obj_massdrop_alt_default/protocol/arm_atsam/startup.o
DAC_3_Handler                                     .build/obj_massdrop_alt_default/protocol/arm_atsam/startup.o
DAC_4_Handler                                     .build/obj_massdrop_alt_default/protocol/arm_atsam/startup.o
DMAC_0_Handler                                    .build/obj_massdrop_alt_default/protocol/arm_atsam/led_matrix.o
DMAC_1_Handler                                    .build/obj_massdrop_alt_default/protocol/arm_atsam/startup.o
DMAC_2_Handler                                    .build/obj_massdrop_alt_default/protocol/arm_atsam/startup.o
DMAC_3_Handler                                    .build/obj_massdrop_alt_default/protocol/arm_atsam/startup.o
DMAC_4_Handler                                    .build/obj_massdrop_alt_default/protocol/arm_atsam/startup.o
DUAL_BEACON                                       .build/obj_massdrop_alt_default/quantum/rgb_matrix.o
DebugMon_Handler                                  .build/obj_massdrop_alt_default/protocol/arm_atsam/startup.o
Dummy_Handler                                     .build/obj_massdrop_alt_default/protocol/arm_atsam/startup.o
EIC_0_Handler                                     .build/obj_massdrop_alt_default/protocol/arm_atsam/startup.o
EIC_10_Handler                                    .build/obj_massdrop_alt_default/protocol/arm_atsam/startup.o
EIC_11_Handler                                    .build/obj_massdrop_alt_default/protocol/arm_atsam/startup.o
EIC_12_Handler                                    .build/obj_massdrop_alt_default/protocol/arm_atsam/startup.o
EIC_13_Handler                                    .build/obj_massdrop_alt_default/protocol/arm_atsam/startup.o
EIC_14_Handler                                    .build/obj_massdrop_alt_default/protocol/arm_atsam/startup.o
EIC_15_Handler                                    .build/obj_massdrop_alt_default/protocol/arm_atsam/startup.o
EIC_1_Handler                                     .build/obj_massdrop_alt_default/protocol/arm_atsam/startup.o
EIC_2_Handler                                     .build/obj_massdrop_alt_default/protocol/arm_atsam/startup.o
EIC_3_Handler                                     .build/obj_massdrop_alt_default/protocol/arm_atsam/startup.o
EIC_4_Handler                                     .build/obj_massdrop_alt_default/protocol/arm_atsam/startup.o
EIC_5_Handler                                     .build/obj_massdrop_alt_default/protocol/arm_atsam/startup.o
EIC_6_Handler                                     .build/obj_massdrop_alt_default/protocol/arm_atsam/startup.o
EIC_7_Handler                                     .build/obj_massdrop_alt_default/protocol/arm_atsam/d51_util.o
EIC_8_Handler                                     .build/obj_massdrop_alt_default/protocol/arm_atsam/startup.o
EIC_9_Handler                                     .build/obj_massdrop_alt_default/protocol/arm_atsam/startup.o
EVSYS_0_Handler                                   .build/obj_massdrop_alt_default/protocol/arm_atsam/startup.o
EVSYS_1_Handler                                   .build/obj_massdrop_alt_default/protocol/arm_atsam/startup.o
EVSYS_2_Handler                                   .build/obj_massdrop_alt_default/protocol/arm_atsam/startup.o
EVSYS_3_Handler                                   .build/obj_massdrop_alt_default/protocol/arm_atsam/startup.o
EVSYS_4_Handler                                   .build/obj_massdrop_alt_default/protocol/arm_atsam/startup.o
FREQM_Handler                                     .build/obj_massdrop_alt_default/protocol/arm_atsam/startup.o
GRADIENT_UP_DOWN                                  .build/obj_massdrop_alt_default/quantum/rgb_matrix.o
HardFault_Handler                                 .build/obj_massdrop_alt_default/protocol/arm_atsam/startup.o
I2C3733_Control_Set                               .build/obj_massdrop_alt_default/protocol/arm_atsam/i2c_master.o
                                                  .build/obj_massdrop_alt_default/protocol/arm_atsam/led_matrix.o
                                                  .build/obj_massdrop_alt_default/common/arm_atsam/suspend.o
I2C3733_Init_Control                              .build/obj_massdrop_alt_default/protocol/arm_atsam/i2c_master.o
                                                  .build/obj_massdrop_alt_default/protocol/arm_atsam/main_arm_atsam.o
I2C3733_Init_Drivers                              .build/obj_massdrop_alt_default/protocol/arm_atsam/i2c_master.o
                                                  .build/obj_massdrop_alt_default/protocol/arm_atsam/main_arm_atsam.o
I2C_DMAC_LED_Init                                 .build/obj_massdrop_alt_default/protocol/arm_atsam/i2c_master.o
                                                  .build/obj_massdrop_alt_default/protocol/arm_atsam/main_arm_atsam.o
I2S_Handler                                       .build/obj_massdrop_alt_default/protocol/arm_atsam/startup.o
ICM_Handler                                       .build/obj_massdrop_alt_default/protocol/arm_atsam/startup.o
JELLYBEAN_RAINDROPS                               .build/obj_massdrop_alt_default/quantum/rgb_matrix.o
MCLK_Handler                                      .build/obj_massdrop_alt_default/protocol/arm_atsam/startup.o
MFRNAME                                           .build/obj_massdrop_alt_default/protocol/arm_atsam/usb/usb2422.o
MULTISPLASH                                       .build/obj_massdrop_alt_default/quantum/rgb_matrix.o
MemManage_Handler                                 .build/obj_massdrop_alt_default/protocol/arm_atsam/startup.o
NMI_Handler                                       .build/obj_massdrop_alt_default/protocol/arm_atsam/startup.o
NVMCTRL_0_Handler                                 .build/obj_massdrop_alt_default/protocol/arm_atsam/startup.o
NVMCTRL_1_Handler                                 .build/obj_massdrop_alt_default/protocol/arm_atsam/startup.o
OSC32KCTRL_Handler                                .build/obj_massdrop_alt_default/protocol/arm_atsam/startup.o
OSCCTRL_0_Handler                                 .build/obj_massdrop_alt_default/protocol/arm_atsam/startup.o
OSCCTRL_1_Handler                                 .build/obj_massdrop_alt_default/protocol/arm_atsam/startup.o
OSCCTRL_2_Handler                                 .build/obj_massdrop_alt_default/protocol/arm_atsam/startup.o
OSCCTRL_3_Handler                                 .build/obj_massdrop_alt_default/protocol/arm_atsam/startup.o
OSCCTRL_4_Handler                                 .build/obj_massdrop_alt_default/protocol/arm_atsam/startup.o
PAC_Handler                                       .build/obj_massdrop_alt_default/protocol/arm_atsam/startup.o
PCC_Handler                                       .build/obj_massdrop_alt_default/protocol/arm_atsam/startup.o
PDEC_0_Handler                                    .build/obj_massdrop_alt_default/protocol/arm_atsam/startup.o
PDEC_1_Handler                                    .build/obj_massdrop_alt_default/protocol/arm_atsam/startup.o
PDEC_2_Handler                                    .build/obj_massdrop_alt_default/protocol/arm_atsam/startup.o
PINWHEELS                                         .build/obj_massdrop_alt_default/quantum/rgb_matrix.o
PM_Handler                                        .build/obj_massdrop_alt_default/protocol/arm_atsam/startup.o
PRDNAME                                           .build/obj_massdrop_alt_default/protocol/arm_atsam/usb/usb2422.o
PUKCC_Handler                                     .build/obj_massdrop_alt_default/protocol/arm_atsam/startup.o
PendSV_Handler                                    .build/obj_massdrop_alt_default/protocol/arm_atsam/startup.o
QSPI_Handler                                      .build/obj_massdrop_alt_default/protocol/arm_atsam/startup.o
RAINBOW_BEACON                                    .build/obj_massdrop_alt_default/quantum/rgb_matrix.o
RAINBOW_MOVING_CHEVRON                            .build/obj_massdrop_alt_default/quantum/rgb_matrix.o
RAINDROPS                                         .build/obj_massdrop_alt_default/quantum/rgb_matrix.o
RAMECC_Handler                                    .build/obj_massdrop_alt_default/protocol/arm_atsam/startup.o
RTC_Handler                                       .build/obj_massdrop_alt_default/protocol/arm_atsam/startup.o
Reset_Handler                                     .build/obj_massdrop_alt_default/protocol/arm_atsam/startup.o
SDHC0_Handler                                     .build/obj_massdrop_alt_default/protocol/arm_atsam/startup.o
SERCOM0_0_Handler                                 .build/obj_massdrop_alt_default/protocol/arm_atsam/startup.o
SERCOM0_1_Handler                                 .build/obj_massdrop_alt_default/protocol/arm_atsam/startup.o
SERCOM0_2_Handler                                 .build/obj_massdrop_alt_default/protocol/arm_atsam/startup.o
SERCOM0_3_Handler                                 .build/obj_massdrop_alt_default/protocol/arm_atsam/startup.o
SERCOM1_0_Handler                                 .build/obj_massdrop_alt_default/protocol/arm_atsam/led_matrix.o
SERCOM1_1_Handler                                 .build/obj_massdrop_alt_default/protocol/arm_atsam/startup.o
SERCOM1_2_Handler                                 .build/obj_massdrop_alt_default/protocol/arm_atsam/startup.o
SERCOM1_3_Handler                                 .build/obj_massdrop_alt_default/protocol/arm_atsam/startup.o
SERCOM2_0_Handler                                 .build/obj_massdrop_alt_default/protocol/arm_atsam/startup.o
SERCOM2_1_Handler                                 .build/obj_massdrop_alt_default/protocol/arm_atsam/startup.o
SERCOM2_2_Handler                                 .build/obj_massdrop_alt_default/protocol/arm_atsam/startup.o
SERCOM2_3_Handler                                 .build/obj_massdrop_alt_default/protocol/arm_atsam/startup.o
SERCOM3_0_Handler                                 .build/obj_massdrop_alt_default/protocol/arm_atsam/startup.o
SERCOM3_1_Handler                                 .build/obj_massdrop_alt_default/protocol/arm_atsam/startup.o
SERCOM3_2_Handler                                 .build/obj_massdrop_alt_default/protocol/arm_atsam/startup.o
SERCOM3_3_Handler                                 .build/obj_massdrop_alt_default/protocol/arm_atsam/startup.o
SERCOM4_0_Handler                                 .build/obj_massdrop_alt_default/protocol/arm_atsam/startup.o
SERCOM4_1_Handler                                 .build/obj_massdrop_alt_default/protocol/arm_atsam/startup.o
SERCOM4_2_Handler                                 .build/obj_massdrop_alt_default/protocol/arm_atsam/startup.o
SERCOM4_3_Handler                                 .build/obj_massdrop_alt_default/protocol/arm_atsam/startup.o
SERCOM5_0_Handler                                 .build/obj_massdrop_alt_default/protocol/arm_atsam/startup.o
SERCOM5_1_Handler                                 .build/obj_massdrop_alt_default/protocol/arm_atsam/startup.o
SERCOM5_2_Handler                                 .build/obj_massdrop_alt_default/protocol/arm_atsam/startup.o
SERCOM5_3_Handler                                 .build/obj_massdrop_alt_default/protocol/arm_atsam/startup.o
SERNAME                                           .build/obj_massdrop_alt_default/protocol/arm_atsam/usb/usb2422.o
SOLID_COLOR                                       .build/obj_massdrop_alt_default/quantum/rgb_matrix.o
SOLID_MULTISPLASH                                 .build/obj_massdrop_alt_default/quantum/rgb_matrix.o
SOLID_REACTIVE                                    .build/obj_massdrop_alt_default/quantum/rgb_matrix.o
SOLID_REACTIVE_CROSS                              .build/obj_massdrop_alt_default/quantum/rgb_matrix.o
SOLID_REACTIVE_MULTICROSS                         .build/obj_massdrop_alt_default/quantum/rgb_matrix.o
SOLID_REACTIVE_MULTINEXUS                         .build/obj_massdrop_alt_default/quantum/rgb_matrix.o
SOLID_REACTIVE_MULTIWIDE                          .build/obj_massdrop_alt_default/quantum/rgb_matrix.o
SOLID_REACTIVE_NEXUS                              .build/obj_massdrop_alt_default/quantum/rgb_matrix.o
SOLID_REACTIVE_SIMPLE                             .build/obj_massdrop_alt_default/quantum/rgb_matrix.o
SOLID_REACTIVE_WIDE                               .build/obj_massdrop_alt_default/quantum/rgb_matrix.o
SOLID_SPLASH                                      .build/obj_massdrop_alt_default/quantum/rgb_matrix.o
SOLID_SPLASH_math                                 .build/obj_massdrop_alt_default/quantum/rgb_matrix.o
SPLASH                                            .build/obj_massdrop_alt_default/quantum/rgb_matrix.o
SPLASH_math                                       .build/obj_massdrop_alt_default/quantum/rgb_matrix.o
SR_EXP_Init                                       .build/obj_massdrop_alt_default/protocol/arm_atsam/spi.o
                                                  .build/obj_massdrop_alt_default/protocol/arm_atsam/main_arm_atsam.o
SR_EXP_WriteData                                  .build/obj_massdrop_alt_default/protocol/arm_atsam/spi.o
                                                  .build/obj_massdrop_alt_default/protocol/arm_atsam/usb/usb2422.o
                                                  .build/obj_massdrop_alt_default/protocol/arm_atsam/i2c_master.o
SUPC_0_Handler                                    .build/obj_massdrop_alt_default/protocol/arm_atsam/startup.o
SUPC_1_Handler                                    .build/obj_massdrop_alt_default/protocol/arm_atsam/startup.o
SVC_Handler                                       .build/obj_massdrop_alt_default/protocol/arm_atsam/startup.o
SysTick_Handler                                   .build/obj_massdrop_alt_default/protocol/arm_atsam/startup.o
TAL_0_Handler                                     .build/obj_massdrop_alt_default/protocol/arm_atsam/startup.o
TAL_1_Handler                                     .build/obj_massdrop_alt_default/protocol/arm_atsam/startup.o
TC0_Handler                                       .build/obj_massdrop_alt_default/protocol/arm_atsam/startup.o
TC1_Handler                                       .build/obj_massdrop_alt_default/protocol/arm_atsam/startup.o
TC2_Handler                                       .build/obj_massdrop_alt_default/protocol/arm_atsam/startup.o
TC3_Handler                                       .build/obj_massdrop_alt_default/protocol/arm_atsam/startup.o
TC4_Handler                                       .build/obj_massdrop_alt_default/protocol/arm_atsam/clks.o
TC5_Handler                                       .build/obj_massdrop_alt_default/protocol/arm_atsam/startup.o
TCC0_0_Handler                                    .build/obj_massdrop_alt_default/protocol/arm_atsam/startup.o
TCC0_1_Handler                                    .build/obj_massdrop_alt_default/protocol/arm_atsam/startup.o
TCC0_2_Handler                                    .build/obj_massdrop_alt_default/protocol/arm_atsam/startup.o
TCC0_3_Handler                                    .build/obj_massdrop_alt_default/protocol/arm_atsam/startup.o
TCC0_4_Handler                                    .build/obj_massdrop_alt_default/protocol/arm_atsam/startup.o
TCC0_5_Handler                                    .build/obj_massdrop_alt_default/protocol/arm_atsam/startup.o
TCC0_6_Handler                                    .build/obj_massdrop_alt_default/protocol/arm_atsam/startup.o
TCC1_0_Handler                                    .build/obj_massdrop_alt_default/protocol/arm_atsam/startup.o
TCC1_1_Handler                                    .build/obj_massdrop_alt_default/protocol/arm_atsam/startup.o
TCC1_2_Handler                                    .build/obj_massdrop_alt_default/protocol/arm_atsam/startup.o
TCC1_3_Handler                                    .build/obj_massdrop_alt_default/protocol/arm_atsam/startup.o
TCC1_4_Handler                                    .build/obj_massdrop_alt_default/protocol/arm_atsam/startup.o
TCC2_0_Handler                                    .build/obj_massdrop_alt_default/protocol/arm_atsam/startup.o
TCC2_1_Handler                                    .build/obj_massdrop_alt_default/protocol/arm_atsam/startup.o
TCC2_2_Handler                                    .build/obj_massdrop_alt_default/protocol/arm_atsam/startup.o
TCC2_3_Handler                                    .build/obj_massdrop_alt_default/protocol/arm_atsam/startup.o
TCC3_0_Handler                                    .build/obj_massdrop_alt_default/protocol/arm_atsam/startup.o
TCC3_1_Handler                                    .build/obj_massdrop_alt_default/protocol/arm_atsam/startup.o
TCC3_2_Handler                                    .build/obj_massdrop_alt_default/protocol/arm_atsam/startup.o
TCC4_0_Handler                                    .build/obj_massdrop_alt_default/protocol/arm_atsam/startup.o
TCC4_1_Handler                                    .build/obj_massdrop_alt_default/protocol/arm_atsam/startup.o
TCC4_2_Handler                                    .build/obj_massdrop_alt_default/protocol/arm_atsam/startup.o
TRNG_Handler                                      .build/obj_massdrop_alt_default/protocol/arm_atsam/startup.o
USB2422_Port_Detect_Init                          .build/obj_massdrop_alt_default/protocol/arm_atsam/usb/usb2422.o
                                                  .build/obj_massdrop_alt_default/protocol/arm_atsam/main_arm_atsam.o
USB2422_init                                      .build/obj_massdrop_alt_default/protocol/arm_atsam/usb/usb2422.o
                                                  .build/obj_massdrop_alt_default/protocol/arm_atsam/main_arm_atsam.o
USB2422_shadow                                    .build/obj_massdrop_alt_default/protocol/arm_atsam/usb/usb2422.o
USB_0_Handler                                     .build/obj_massdrop_alt_default/protocol/arm_atsam/usb/usb.o
                                                  .build/obj_massdrop_alt_default/protocol/arm_atsam/startup.o
USB_1_Handler                                     .build/obj_massdrop_alt_default/protocol/arm_atsam/usb/usb.o
                                                  .build/obj_massdrop_alt_default/protocol/arm_atsam/startup.o
USB_2_Handler                                     .build/obj_massdrop_alt_default/protocol/arm_atsam/usb/usb.o
                                                  .build/obj_massdrop_alt_default/protocol/arm_atsam/startup.o
USB_3_Handler                                     .build/obj_massdrop_alt_default/protocol/arm_atsam/usb/usb.o
                                                  .build/obj_massdrop_alt_default/protocol/arm_atsam/startup.o
USB_ExtraSetState                                 .build/obj_massdrop_alt_default/protocol/arm_atsam/usb/usb2422.o
                                                  .build/obj_massdrop_alt_default/protocol/arm_atsam/led_matrix.o
USB_HandleExtraDevice                             .build/obj_massdrop_alt_default/protocol/arm_atsam/usb/usb2422.o
                                                  .build/obj_massdrop_alt_default/protocol/arm_atsam/main_arm_atsam.o
USB_active                                        .build/obj_massdrop_alt_default/protocol/arm_atsam/usb/usb2422.o
USB_configure                                     .build/obj_massdrop_alt_default/protocol/arm_atsam/usb/usb2422.o
USB_reset                                         .build/obj_massdrop_alt_default/protocol/arm_atsam/usb/usb2422.o
USB_set_host_by_voltage                           .build/obj_massdrop_alt_default/protocol/arm_atsam/usb/usb2422.o
USB_write2422_block                               .build/obj_massdrop_alt_default/protocol/arm_atsam/usb/usb2422.o
UTIL_itoa                                         .build/obj_massdrop_alt_default/protocol/arm_atsam/usb/usb_util.o
UTIL_ltoa                                         .build/obj_massdrop_alt_default/protocol/arm_atsam/usb/usb_util.o
UTIL_ltoa_radix                                   .build/obj_massdrop_alt_default/protocol/arm_atsam/usb/usb_util.o
UTIL_utoa                                         .build/obj_massdrop_alt_default/protocol/arm_atsam/usb/usb_util.o
UsageFault_Handler                                .build/obj_massdrop_alt_default/protocol/arm_atsam/startup.o
WDT_Handler                                       .build/obj_massdrop_alt_default/protocol/arm_atsam/startup.o
__adddf3                                          /usr/local/Cellar/gcc-arm-none-eabi/20180627/bin/../lib/gcc/arm-none-eabi/7.3.1/thumb/v7e-m/fpv4-sp/hard/libgcc.a(_arm_addsubdf3.o)
__aeabi_d2uiz                                     /usr/local/Cellar/gcc-arm-none-eabi/20180627/bin/../lib/gcc/arm-none-eabi/7.3.1/thumb/v7e-m/fpv4-sp/hard/libgcc.a(_arm_fixunsdfsi.o)
                                                  .build/obj_massdrop_alt_default/protocol/arm_atsam/usb/usb2422.o
                                                  .build/obj_massdrop_alt_default/protocol/arm_atsam/main_arm_atsam.o
__aeabi_dadd                                      /usr/local/Cellar/gcc-arm-none-eabi/20180627/bin/../lib/gcc/arm-none-eabi/7.3.1/thumb/v7e-m/fpv4-sp/hard/libgcc.a(_arm_addsubdf3.o)
                                                  .build/obj_massdrop_alt_default/protocol/arm_atsam/usb/usb2422.o
                                                  .build/obj_massdrop_alt_default/protocol/arm_atsam/main_arm_atsam.o
__aeabi_ddiv                                      /usr/local/Cellar/gcc-arm-none-eabi/20180627/bin/../lib/gcc/arm-none-eabi/7.3.1/thumb/v7e-m/fpv4-sp/hard/libgcc.a(_arm_muldivdf3.o)
__aeabi_dmul                                      /usr/local/Cellar/gcc-arm-none-eabi/20180627/bin/../lib/gcc/arm-none-eabi/7.3.1/thumb/v7e-m/fpv4-sp/hard/libgcc.a(_arm_muldivdf3.o)
                                                  .build/obj_massdrop_alt_default/protocol/arm_atsam/usb/usb2422.o
                                                  .build/obj_massdrop_alt_default/protocol/arm_atsam/main_arm_atsam.o
__aeabi_drsub                                     /usr/local/Cellar/gcc-arm-none-eabi/20180627/bin/../lib/gcc/arm-none-eabi/7.3.1/thumb/v7e-m/fpv4-sp/hard/libgcc.a(_arm_addsubdf3.o)
__aeabi_dsub                                      /usr/local/Cellar/gcc-arm-none-eabi/20180627/bin/../lib/gcc/arm-none-eabi/7.3.1/thumb/v7e-m/fpv4-sp/hard/libgcc.a(_arm_addsubdf3.o)
__aeabi_f2d                                       /usr/local/Cellar/gcc-arm-none-eabi/20180627/bin/../lib/gcc/arm-none-eabi/7.3.1/thumb/v7e-m/fpv4-sp/hard/libgcc.a(_arm_addsubdf3.o)
__aeabi_i2d                                       /usr/local/Cellar/gcc-arm-none-eabi/20180627/bin/../lib/gcc/arm-none-eabi/7.3.1/thumb/v7e-m/fpv4-sp/hard/libgcc.a(_arm_addsubdf3.o)
                                                  .build/obj_massdrop_alt_default/protocol/arm_atsam/usb/usb2422.o
                                                  .build/obj_massdrop_alt_default/protocol/arm_atsam/main_arm_atsam.o
__aeabi_idiv0                                     /usr/local/Cellar/gcc-arm-none-eabi/20180627/bin/../lib/gcc/arm-none-eabi/7.3.1/thumb/v7e-m/fpv4-sp/hard/libgcc.a(_dvmd_tls.o)
__aeabi_l2d                                       /usr/local/Cellar/gcc-arm-none-eabi/20180627/bin/../lib/gcc/arm-none-eabi/7.3.1/thumb/v7e-m/fpv4-sp/hard/libgcc.a(_arm_addsubdf3.o)
__aeabi_ldiv0                                     /usr/local/Cellar/gcc-arm-none-eabi/20180627/bin/../lib/gcc/arm-none-eabi/7.3.1/thumb/v7e-m/fpv4-sp/hard/libgcc.a(_dvmd_tls.o)
                                                  /usr/local/Cellar/gcc-arm-none-eabi/20180627/bin/../lib/gcc/arm-none-eabi/7.3.1/thumb/v7e-m/fpv4-sp/hard/libgcc.a(_aeabi_uldivmod.o)
                                                  /usr/local/Cellar/gcc-arm-none-eabi/20180627/bin/../lib/gcc/arm-none-eabi/7.3.1/thumb/v7e-m/fpv4-sp/hard/libgcc.a(_aeabi_ldivmod.o)
__aeabi_ldivmod                                   /usr/local/Cellar/gcc-arm-none-eabi/20180627/bin/../lib/gcc/arm-none-eabi/7.3.1/thumb/v7e-m/fpv4-sp/hard/libgcc.a(_aeabi_ldivmod.o)
                                                  .build/obj_massdrop_alt_default/protocol/arm_atsam/usb/usb_util.o
__aeabi_ui2d                                      /usr/local/Cellar/gcc-arm-none-eabi/20180627/bin/../lib/gcc/arm-none-eabi/7.3.1/thumb/v7e-m/fpv4-sp/hard/libgcc.a(_arm_addsubdf3.o)
__aeabi_ul2d                                      /usr/local/Cellar/gcc-arm-none-eabi/20180627/bin/../lib/gcc/arm-none-eabi/7.3.1/thumb/v7e-m/fpv4-sp/hard/libgcc.a(_arm_addsubdf3.o)
__aeabi_uldivmod                                  /usr/local/Cellar/gcc-arm-none-eabi/20180627/bin/../lib/gcc/arm-none-eabi/7.3.1/thumb/v7e-m/fpv4-sp/hard/libgcc.a(_aeabi_uldivmod.o)
                                                  .build/obj_massdrop_alt_default/protocol/arm_atsam/usb/usb2422.o
__atexit_recursive_mutex                          /usr/local/Cellar/gcc-arm-none-eabi/20180627/bin/../lib/gcc/arm-none-eabi/7.3.1/../../../../arm-none-eabi/lib/thumb/v7e-m/fpv4-sp/hard/libg.a(lib_a-__call_atexit.o)
                                                  /usr/local/Cellar/gcc-arm-none-eabi/20180627/bin/../lib/gcc/arm-none-eabi/7.3.1/../../../../arm-none-eabi/lib/thumb/v7e-m/fpv4-sp/hard/libg.a(lib_a-__atexit.o)
__bss_end__                                       /usr/local/Cellar/gcc-arm-none-eabi/20180627/bin/../lib/gcc/arm-none-eabi/7.3.1/../../../../arm-none-eabi/lib/thumb/v7e-m/fpv4-sp/hard/rdimon-crt0.o
__bss_start__                                     /usr/local/Cellar/gcc-arm-none-eabi/20180627/bin/../lib/gcc/arm-none-eabi/7.3.1/../../../../arm-none-eabi/lib/thumb/v7e-m/fpv4-sp/hard/rdimon-crt0.o
__call_exitprocs                                  /usr/local/Cellar/gcc-arm-none-eabi/20180627/bin/../lib/gcc/arm-none-eabi/7.3.1/../../../../arm-none-eabi/lib/thumb/v7e-m/fpv4-sp/hard/libg.a(lib_a-__call_atexit.o)
                                                  /usr/local/Cellar/gcc-arm-none-eabi/20180627/bin/../lib/gcc/arm-none-eabi/7.3.1/../../../../arm-none-eabi/lib/thumb/v7e-m/fpv4-sp/hard/libg.a(lib_a-exit.o)
__deregister_frame_info                           /usr/local/Cellar/gcc-arm-none-eabi/20180627/bin/../lib/gcc/arm-none-eabi/7.3.1/thumb/v7e-m/fpv4-sp/hard/crtbegin.o
__divdf3                                          /usr/local/Cellar/gcc-arm-none-eabi/20180627/bin/../lib/gcc/arm-none-eabi/7.3.1/thumb/v7e-m/fpv4-sp/hard/libgcc.a(_arm_muldivdf3.o)
__dso_handle                                      /usr/local/Cellar/gcc-arm-none-eabi/20180627/bin/../lib/gcc/arm-none-eabi/7.3.1/thumb/v7e-m/fpv4-sp/hard/crtbegin.o
__end__                                           /usr/local/Cellar/gcc-arm-none-eabi/20180627/bin/../lib/gcc/arm-none-eabi/7.3.1/../../../../arm-none-eabi/lib/thumb/v7e-m/fpv4-sp/hard/rdimon-crt0.o
__errno                                           /usr/local/Cellar/gcc-arm-none-eabi/20180627/bin/../lib/gcc/arm-none-eabi/7.3.1/../../../../arm-none-eabi/lib/thumb/v7e-m/fpv4-sp/hard/libc.a(lib_a-errno.o)
                                                  /usr/local/Cellar/gcc-arm-none-eabi/20180627/bin/../lib/gcc/arm-none-eabi/7.3.1/../../../../arm-none-eabi/lib/thumb/v7e-m/fpv4-sp/hard/librdimon.a(rdimon-syscalls.o)
__extendsfdf2                                     /usr/local/Cellar/gcc-arm-none-eabi/20180627/bin/../lib/gcc/arm-none-eabi/7.3.1/thumb/v7e-m/fpv4-sp/hard/libgcc.a(_arm_addsubdf3.o)
__fini_array_end                                  /usr/local/Cellar/gcc-arm-none-eabi/20180627/bin/../lib/gcc/arm-none-eabi/7.3.1/../../../../arm-none-eabi/lib/thumb/v7e-m/fpv4-sp/hard/libg.a(lib_a-fini.o)
__fini_array_start                                /usr/local/Cellar/gcc-arm-none-eabi/20180627/bin/../lib/gcc/arm-none-eabi/7.3.1/../../../../arm-none-eabi/lib/thumb/v7e-m/fpv4-sp/hard/libg.a(lib_a-fini.o)
__fixunsdfsi                                      /usr/local/Cellar/gcc-arm-none-eabi/20180627/bin/../lib/gcc/arm-none-eabi/7.3.1/thumb/v7e-m/fpv4-sp/hard/libgcc.a(_arm_fixunsdfsi.o)
__floatdidf                                       /usr/local/Cellar/gcc-arm-none-eabi/20180627/bin/../lib/gcc/arm-none-eabi/7.3.1/thumb/v7e-m/fpv4-sp/hard/libgcc.a(_arm_addsubdf3.o)
__floatsidf                                       /usr/local/Cellar/gcc-arm-none-eabi/20180627/bin/../lib/gcc/arm-none-eabi/7.3.1/thumb/v7e-m/fpv4-sp/hard/libgcc.a(_arm_addsubdf3.o)
__floatundidf                                     /usr/local/Cellar/gcc-arm-none-eabi/20180627/bin/../lib/gcc/arm-none-eabi/7.3.1/thumb/v7e-m/fpv4-sp/hard/libgcc.a(_arm_addsubdf3.o)
__floatunsidf                                     /usr/local/Cellar/gcc-arm-none-eabi/20180627/bin/../lib/gcc/arm-none-eabi/7.3.1/thumb/v7e-m/fpv4-sp/hard/libgcc.a(_arm_addsubdf3.o)
__fp_lock_all                                     /usr/local/Cellar/gcc-arm-none-eabi/20180627/bin/../lib/gcc/arm-none-eabi/7.3.1/../../../../arm-none-eabi/lib/thumb/v7e-m/fpv4-sp/hard/libc.a(lib_a-findfp.o)
__fp_unlock_all                                   /usr/local/Cellar/gcc-arm-none-eabi/20180627/bin/../lib/gcc/arm-none-eabi/7.3.1/../../../../arm-none-eabi/lib/thumb/v7e-m/fpv4-sp/hard/libc.a(lib_a-findfp.o)
__heap_limit                                      /usr/local/Cellar/gcc-arm-none-eabi/20180627/bin/../lib/gcc/arm-none-eabi/7.3.1/../../../../arm-none-eabi/lib/thumb/v7e-m/fpv4-sp/hard/librdimon.a(rdimon-syscalls.o)
                                                  /usr/local/Cellar/gcc-arm-none-eabi/20180627/bin/../lib/gcc/arm-none-eabi/7.3.1/../../../../arm-none-eabi/lib/thumb/v7e-m/fpv4-sp/hard/rdimon-crt0.o
__init_array_end                                  /usr/local/Cellar/gcc-arm-none-eabi/20180627/bin/../lib/gcc/arm-none-eabi/7.3.1/../../../../arm-none-eabi/lib/thumb/v7e-m/fpv4-sp/hard/libg.a(lib_a-init.o)
__init_array_start                                /usr/local/Cellar/gcc-arm-none-eabi/20180627/bin/../lib/gcc/arm-none-eabi/7.3.1/../../../../arm-none-eabi/lib/thumb/v7e-m/fpv4-sp/hard/libg.a(lib_a-init.o)
__libc_fini                                       /usr/local/Cellar/gcc-arm-none-eabi/20180627/bin/../lib/gcc/arm-none-eabi/7.3.1/../../../../arm-none-eabi/lib/thumb/v7e-m/fpv4-sp/hard/libg.a(lib_a-__call_atexit.o)
__libc_fini_array                                 /usr/local/Cellar/gcc-arm-none-eabi/20180627/bin/../lib/gcc/arm-none-eabi/7.3.1/../../../../arm-none-eabi/lib/thumb/v7e-m/fpv4-sp/hard/libg.a(lib_a-fini.o)
                                                  /usr/local/Cellar/gcc-arm-none-eabi/20180627/bin/../lib/gcc/arm-none-eabi/7.3.1/../../../../arm-none-eabi/lib/thumb/v7e-m/fpv4-sp/hard/libg.a(lib_a-__call_atexit.o)
                                                  /usr/local/Cellar/gcc-arm-none-eabi/20180627/bin/../lib/gcc/arm-none-eabi/7.3.1/../../../../arm-none-eabi/lib/thumb/v7e-m/fpv4-sp/hard/rdimon-crt0.o
__libc_init_array                                 /usr/local/Cellar/gcc-arm-none-eabi/20180627/bin/../lib/gcc/arm-none-eabi/7.3.1/../../../../arm-none-eabi/lib/thumb/v7e-m/fpv4-sp/hard/libg.a(lib_a-init.o)
                                                  .build/obj_massdrop_alt_default/protocol/arm_atsam/startup.o
                                                  /usr/local/Cellar/gcc-arm-none-eabi/20180627/bin/../lib/gcc/arm-none-eabi/7.3.1/../../../../arm-none-eabi/lib/thumb/v7e-m/fpv4-sp/hard/rdimon-crt0.o
__lock___arc4random_mutex                         /usr/local/Cellar/gcc-arm-none-eabi/20180627/bin/../lib/gcc/arm-none-eabi/7.3.1/../../../../arm-none-eabi/lib/thumb/v7e-m/fpv4-sp/hard/libg.a(lib_a-lock.o)
__lock___at_quick_exit_mutex                      /usr/local/Cellar/gcc-arm-none-eabi/20180627/bin/../lib/gcc/arm-none-eabi/7.3.1/../../../../arm-none-eabi/lib/thumb/v7e-m/fpv4-sp/hard/libg.a(lib_a-lock.o)
__lock___atexit_recursive_mutex                   /usr/local/Cellar/gcc-arm-none-eabi/20180627/bin/../lib/gcc/arm-none-eabi/7.3.1/../../../../arm-none-eabi/lib/thumb/v7e-m/fpv4-sp/hard/libg.a(lib_a-lock.o)
                                                  /usr/local/Cellar/gcc-arm-none-eabi/20180627/bin/../lib/gcc/arm-none-eabi/7.3.1/../../../../arm-none-eabi/lib/thumb/v7e-m/fpv4-sp/hard/libg.a(lib_a-__call_atexit.o)
__lock___dd_hash_mutex                            /usr/local/Cellar/gcc-arm-none-eabi/20180627/bin/../lib/gcc/arm-none-eabi/7.3.1/../../../../arm-none-eabi/lib/thumb/v7e-m/fpv4-sp/hard/libg.a(lib_a-lock.o)
__lock___env_recursive_mutex                      /usr/local/Cellar/gcc-arm-none-eabi/20180627/bin/../lib/gcc/arm-none-eabi/7.3.1/../../../../arm-none-eabi/lib/thumb/v7e-m/fpv4-sp/hard/libg.a(lib_a-lock.o)
__lock___malloc_recursive_mutex                   /usr/local/Cellar/gcc-arm-none-eabi/20180627/bin/../lib/gcc/arm-none-eabi/7.3.1/../../../../arm-none-eabi/lib/thumb/v7e-m/fpv4-sp/hard/libg.a(lib_a-lock.o)
                                                  /usr/local/Cellar/gcc-arm-none-eabi/20180627/bin/../lib/gcc/arm-none-eabi/7.3.1/../../../../arm-none-eabi/lib/thumb/v7e-m/fpv4-sp/hard/libc.a(lib_a-mlock.o)
__lock___sfp_recursive_mutex                      /usr/local/Cellar/gcc-arm-none-eabi/20180627/bin/../lib/gcc/arm-none-eabi/7.3.1/../../../../arm-none-eabi/lib/thumb/v7e-m/fpv4-sp/hard/libg.a(lib_a-lock.o)
                                                  /usr/local/Cellar/gcc-arm-none-eabi/20180627/bin/../lib/gcc/arm-none-eabi/7.3.1/../../../../arm-none-eabi/lib/thumb/v7e-m/fpv4-sp/hard/libc.a(lib_a-findfp.o)
__lock___sinit_recursive_mutex                    /usr/local/Cellar/gcc-arm-none-eabi/20180627/bin/../lib/gcc/arm-none-eabi/7.3.1/../../../../arm-none-eabi/lib/thumb/v7e-m/fpv4-sp/hard/libg.a(lib_a-lock.o)
                                                  /usr/local/Cellar/gcc-arm-none-eabi/20180627/bin/../lib/gcc/arm-none-eabi/7.3.1/../../../../arm-none-eabi/lib/thumb/v7e-m/fpv4-sp/hard/libc.a(lib_a-findfp.o)
__lock___tz_mutex                                 /usr/local/Cellar/gcc-arm-none-eabi/20180627/bin/../lib/gcc/arm-none-eabi/7.3.1/../../../../arm-none-eabi/lib/thumb/v7e-m/fpv4-sp/hard/libg.a(lib_a-lock.o)
__malloc_av_                                      /usr/local/Cellar/gcc-arm-none-eabi/20180627/bin/../lib/gcc/arm-none-eabi/7.3.1/../../../../arm-none-eabi/lib/thumb/v7e-m/fpv4-sp/hard/libc.a(lib_a-mallocr.o)
                                                  /usr/local/Cellar/gcc-arm-none-eabi/20180627/bin/../lib/gcc/arm-none-eabi/7.3.1/../../../../arm-none-eabi/lib/thumb/v7e-m/fpv4-sp/hard/libc.a(lib_a-freer.o)
__malloc_current_mallinfo                         /usr/local/Cellar/gcc-arm-none-eabi/20180627/bin/../lib/gcc/arm-none-eabi/7.3.1/../../../../arm-none-eabi/lib/thumb/v7e-m/fpv4-sp/hard/libc.a(lib_a-mallocr.o)
                                                  /usr/local/Cellar/gcc-arm-none-eabi/20180627/bin/../lib/gcc/arm-none-eabi/7.3.1/../../../../arm-none-eabi/lib/thumb/v7e-m/fpv4-sp/hard/libc.a(lib_a-freer.o)
__malloc_lock                                     /usr/local/Cellar/gcc-arm-none-eabi/20180627/bin/../lib/gcc/arm-none-eabi/7.3.1/../../../../arm-none-eabi/lib/thumb/v7e-m/fpv4-sp/hard/libc.a(lib_a-mlock.o)
                                                  /usr/local/Cellar/gcc-arm-none-eabi/20180627/bin/../lib/gcc/arm-none-eabi/7.3.1/../../../../arm-none-eabi/lib/thumb/v7e-m/fpv4-sp/hard/libc.a(lib_a-freer.o)
                                                  /usr/local/Cellar/gcc-arm-none-eabi/20180627/bin/../lib/gcc/arm-none-eabi/7.3.1/../../../../arm-none-eabi/lib/thumb/v7e-m/fpv4-sp/hard/libc.a(lib_a-mallocr.o)
__malloc_max_sbrked_mem                           /usr/local/Cellar/gcc-arm-none-eabi/20180627/bin/../lib/gcc/arm-none-eabi/7.3.1/../../../../arm-none-eabi/lib/thumb/v7e-m/fpv4-sp/hard/libc.a(lib_a-mallocr.o)
__malloc_max_total_mem                            /usr/local/Cellar/gcc-arm-none-eabi/20180627/bin/../lib/gcc/arm-none-eabi/7.3.1/../../../../arm-none-eabi/lib/thumb/v7e-m/fpv4-sp/hard/libc.a(lib_a-mallocr.o)
__malloc_sbrk_base                                /usr/local/Cellar/gcc-arm-none-eabi/20180627/bin/../lib/gcc/arm-none-eabi/7.3.1/../../../../arm-none-eabi/lib/thumb/v7e-m/fpv4-sp/hard/libc.a(lib_a-mallocr.o)
                                                  /usr/local/Cellar/gcc-arm-none-eabi/20180627/bin/../lib/gcc/arm-none-eabi/7.3.1/../../../../arm-none-eabi/lib/thumb/v7e-m/fpv4-sp/hard/libc.a(lib_a-freer.o)
__malloc_top_pad                                  /usr/local/Cellar/gcc-arm-none-eabi/20180627/bin/../lib/gcc/arm-none-eabi/7.3.1/../../../../arm-none-eabi/lib/thumb/v7e-m/fpv4-sp/hard/libc.a(lib_a-mallocr.o)
                                                  /usr/local/Cellar/gcc-arm-none-eabi/20180627/bin/../lib/gcc/arm-none-eabi/7.3.1/../../../../arm-none-eabi/lib/thumb/v7e-m/fpv4-sp/hard/libc.a(lib_a-freer.o)
__malloc_trim_threshold                           /usr/local/Cellar/gcc-arm-none-eabi/20180627/bin/../lib/gcc/arm-none-eabi/7.3.1/../../../../arm-none-eabi/lib/thumb/v7e-m/fpv4-sp/hard/libc.a(lib_a-mallocr.o)
                                                  /usr/local/Cellar/gcc-arm-none-eabi/20180627/bin/../lib/gcc/arm-none-eabi/7.3.1/../../../../arm-none-eabi/lib/thumb/v7e-m/fpv4-sp/hard/libc.a(lib_a-freer.o)
__malloc_unlock                                   /usr/local/Cellar/gcc-arm-none-eabi/20180627/bin/../lib/gcc/arm-none-eabi/7.3.1/../../../../arm-none-eabi/lib/thumb/v7e-m/fpv4-sp/hard/libc.a(lib_a-mlock.o)
                                                  /usr/local/Cellar/gcc-arm-none-eabi/20180627/bin/../lib/gcc/arm-none-eabi/7.3.1/../../../../arm-none-eabi/lib/thumb/v7e-m/fpv4-sp/hard/libc.a(lib_a-freer.o)
                                                  /usr/local/Cellar/gcc-arm-none-eabi/20180627/bin/../lib/gcc/arm-none-eabi/7.3.1/../../../../arm-none-eabi/lib/thumb/v7e-m/fpv4-sp/hard/libc.a(lib_a-mallocr.o)
__muldf3                                          /usr/local/Cellar/gcc-arm-none-eabi/20180627/bin/../lib/gcc/arm-none-eabi/7.3.1/thumb/v7e-m/fpv4-sp/hard/libgcc.a(_arm_muldivdf3.o)
__preinit_array_end                               /usr/local/Cellar/gcc-arm-none-eabi/20180627/bin/../lib/gcc/arm-none-eabi/7.3.1/../../../../arm-none-eabi/lib/thumb/v7e-m/fpv4-sp/hard/libg.a(lib_a-init.o)
__preinit_array_start                             /usr/local/Cellar/gcc-arm-none-eabi/20180627/bin/../lib/gcc/arm-none-eabi/7.3.1/../../../../arm-none-eabi/lib/thumb/v7e-m/fpv4-sp/hard/libg.a(lib_a-init.o)
__register_exitproc                               /usr/local/Cellar/gcc-arm-none-eabi/20180627/bin/../lib/gcc/arm-none-eabi/7.3.1/../../../../arm-none-eabi/lib/thumb/v7e-m/fpv4-sp/hard/libg.a(lib_a-__atexit.o)
                                                  /usr/local/Cellar/gcc-arm-none-eabi/20180627/bin/../lib/gcc/arm-none-eabi/7.3.1/../../../../arm-none-eabi/lib/thumb/v7e-m/fpv4-sp/hard/libg.a(lib_a-atexit.o)
__register_frame_info                             /usr/local/Cellar/gcc-arm-none-eabi/20180627/bin/../lib/gcc/arm-none-eabi/7.3.1/thumb/v7e-m/fpv4-sp/hard/crtbegin.o
__retarget_lock_acquire                           /usr/local/Cellar/gcc-arm-none-eabi/20180627/bin/../lib/gcc/arm-none-eabi/7.3.1/../../../../arm-none-eabi/lib/thumb/v7e-m/fpv4-sp/hard/libg.a(lib_a-lock.o)
__retarget_lock_acquire_recursive                 /usr/local/Cellar/gcc-arm-none-eabi/20180627/bin/../lib/gcc/arm-none-eabi/7.3.1/../../../../arm-none-eabi/lib/thumb/v7e-m/fpv4-sp/hard/libg.a(lib_a-lock.o)
                                                  /usr/local/Cellar/gcc-arm-none-eabi/20180627/bin/../lib/gcc/arm-none-eabi/7.3.1/../../../../arm-none-eabi/lib/thumb/v7e-m/fpv4-sp/hard/libc.a(lib_a-fflush.o)
                                                  /usr/local/Cellar/gcc-arm-none-eabi/20180627/bin/../lib/gcc/arm-none-eabi/7.3.1/../../../../arm-none-eabi/lib/thumb/v7e-m/fpv4-sp/hard/libc.a(lib_a-fclose.o)
                                                  /usr/local/Cellar/gcc-arm-none-eabi/20180627/bin/../lib/gcc/arm-none-eabi/7.3.1/../../../../arm-none-eabi/lib/thumb/v7e-m/fpv4-sp/hard/libc.a(lib_a-mlock.o)
                                                  /usr/local/Cellar/gcc-arm-none-eabi/20180627/bin/../lib/gcc/arm-none-eabi/7.3.1/../../../../arm-none-eabi/lib/thumb/v7e-m/fpv4-sp/hard/libc.a(lib_a-findfp.o)
                                                  /usr/local/Cellar/gcc-arm-none-eabi/20180627/bin/../lib/gcc/arm-none-eabi/7.3.1/../../../../arm-none-eabi/lib/thumb/v7e-m/fpv4-sp/hard/libg.a(lib_a-__atexit.o)
                                                  /usr/local/Cellar/gcc-arm-none-eabi/20180627/bin/../lib/gcc/arm-none-eabi/7.3.1/../../../../arm-none-eabi/lib/thumb/v7e-m/fpv4-sp/hard/libg.a(lib_a-__call_atexit.o)
__retarget_lock_close                             /usr/local/Cellar/gcc-arm-none-eabi/20180627/bin/../lib/gcc/arm-none-eabi/7.3.1/../../../../arm-none-eabi/lib/thumb/v7e-m/fpv4-sp/hard/libg.a(lib_a-lock.o)
__retarget_lock_close_recursive                   /usr/local/Cellar/gcc-arm-none-eabi/20180627/bin/../lib/gcc/arm-none-eabi/7.3.1/../../../../arm-none-eabi/lib/thumb/v7e-m/fpv4-sp/hard/libg.a(lib_a-lock.o)
                                                  /usr/local/Cellar/gcc-arm-none-eabi/20180627/bin/../lib/gcc/arm-none-eabi/7.3.1/../../../../arm-none-eabi/lib/thumb/v7e-m/fpv4-sp/hard/libc.a(lib_a-fclose.o)
__retarget_lock_init                              /usr/local/Cellar/gcc-arm-none-eabi/20180627/bin/../lib/gcc/arm-none-eabi/7.3.1/../../../../arm-none-eabi/lib/thumb/v7e-m/fpv4-sp/hard/libg.a(lib_a-lock.o)
__retarget_lock_init_recursive                    /usr/local/Cellar/gcc-arm-none-eabi/20180627/bin/../lib/gcc/arm-none-eabi/7.3.1/../../../../arm-none-eabi/lib/thumb/v7e-m/fpv4-sp/hard/libg.a(lib_a-lock.o)
                                                  /usr/local/Cellar/gcc-arm-none-eabi/20180627/bin/../lib/gcc/arm-none-eabi/7.3.1/../../../../arm-none-eabi/lib/thumb/v7e-m/fpv4-sp/hard/libc.a(lib_a-findfp.o)
__retarget_lock_release                           /usr/local/Cellar/gcc-arm-none-eabi/20180627/bin/../lib/gcc/arm-none-eabi/7.3.1/../../../../arm-none-eabi/lib/thumb/v7e-m/fpv4-sp/hard/libg.a(lib_a-lock.o)
__retarget_lock_release_recursive                 /usr/local/Cellar/gcc-arm-none-eabi/20180627/bin/../lib/gcc/arm-none-eabi/7.3.1/../../../../arm-none-eabi/lib/thumb/v7e-m/fpv4-sp/hard/libg.a(lib_a-lock.o)
                                                  /usr/local/Cellar/gcc-arm-none-eabi/20180627/bin/../lib/gcc/arm-none-eabi/7.3.1/../../../../arm-none-eabi/lib/thumb/v7e-m/fpv4-sp/hard/libc.a(lib_a-fflush.o)
                                                  /usr/local/Cellar/gcc-arm-none-eabi/20180627/bin/../lib/gcc/arm-none-eabi/7.3.1/../../../../arm-none-eabi/lib/thumb/v7e-m/fpv4-sp/hard/libc.a(lib_a-fclose.o)
                                                  /usr/local/Cellar/gcc-arm-none-eabi/20180627/bin/../lib/gcc/arm-none-eabi/7.3.1/../../../../arm-none-eabi/lib/thumb/v7e-m/fpv4-sp/hard/libc.a(lib_a-mlock.o)
                                                  /usr/local/Cellar/gcc-arm-none-eabi/20180627/bin/../lib/gcc/arm-none-eabi/7.3.1/../../../../arm-none-eabi/lib/thumb/v7e-m/fpv4-sp/hard/libc.a(lib_a-findfp.o)
                                                  /usr/local/Cellar/gcc-arm-none-eabi/20180627/bin/../lib/gcc/arm-none-eabi/7.3.1/../../../../arm-none-eabi/lib/thumb/v7e-m/fpv4-sp/hard/libg.a(lib_a-__atexit.o)
                                                  /usr/local/Cellar/gcc-arm-none-eabi/20180627/bin/../lib/gcc/arm-none-eabi/7.3.1/../../../../arm-none-eabi/lib/thumb/v7e-m/fpv4-sp/hard/libg.a(lib_a-__call_atexit.o)
__retarget_lock_try_acquire                       /usr/local/Cellar/gcc-arm-none-eabi/20180627/bin/../lib/gcc/arm-none-eabi/7.3.1/../../../../arm-none-eabi/lib/thumb/v7e-m/fpv4-sp/hard/libg.a(lib_a-lock.o)
__retarget_lock_try_acquire_recursive             /usr/local/Cellar/gcc-arm-none-eabi/20180627/bin/../lib/gcc/arm-none-eabi/7.3.1/../../../../arm-none-eabi/lib/thumb/v7e-m/fpv4-sp/hard/libg.a(lib_a-lock.o)
__sclose                                          /usr/local/Cellar/gcc-arm-none-eabi/20180627/bin/../lib/gcc/arm-none-eabi/7.3.1/../../../../arm-none-eabi/lib/thumb/v7e-m/fpv4-sp/hard/libc.a(lib_a-stdio.o)
                                                  /usr/local/Cellar/gcc-arm-none-eabi/20180627/bin/../lib/gcc/arm-none-eabi/7.3.1/../../../../arm-none-eabi/lib/thumb/v7e-m/fpv4-sp/hard/libc.a(lib_a-findfp.o)
__seofread                                        /usr/local/Cellar/gcc-arm-none-eabi/20180627/bin/../lib/gcc/arm-none-eabi/7.3.1/../../../../arm-none-eabi/lib/thumb/v7e-m/fpv4-sp/hard/libc.a(lib_a-stdio.o)
__sflush_r                                        /usr/local/Cellar/gcc-arm-none-eabi/20180627/bin/../lib/gcc/arm-none-eabi/7.3.1/../../../../arm-none-eabi/lib/thumb/v7e-m/fpv4-sp/hard/libc.a(lib_a-fflush.o)
                                                  /usr/local/Cellar/gcc-arm-none-eabi/20180627/bin/../lib/gcc/arm-none-eabi/7.3.1/../../../../arm-none-eabi/lib/thumb/v7e-m/fpv4-sp/hard/libc.a(lib_a-fclose.o)
__sfmoreglue                                      /usr/local/Cellar/gcc-arm-none-eabi/20180627/bin/../lib/gcc/arm-none-eabi/7.3.1/../../../../arm-none-eabi/lib/thumb/v7e-m/fpv4-sp/hard/libc.a(lib_a-findfp.o)
__sfp                                             /usr/local/Cellar/gcc-arm-none-eabi/20180627/bin/../lib/gcc/arm-none-eabi/7.3.1/../../../../arm-none-eabi/lib/thumb/v7e-m/fpv4-sp/hard/libc.a(lib_a-findfp.o)
__sfp_lock_acquire                                /usr/local/Cellar/gcc-arm-none-eabi/20180627/bin/../lib/gcc/arm-none-eabi/7.3.1/../../../../arm-none-eabi/lib/thumb/v7e-m/fpv4-sp/hard/libc.a(lib_a-findfp.o)
                                                  /usr/local/Cellar/gcc-arm-none-eabi/20180627/bin/../lib/gcc/arm-none-eabi/7.3.1/../../../../arm-none-eabi/lib/thumb/v7e-m/fpv4-sp/hard/libc.a(lib_a-fclose.o)
__sfp_lock_release                                /usr/local/Cellar/gcc-arm-none-eabi/20180627/bin/../lib/gcc/arm-none-eabi/7.3.1/../../../../arm-none-eabi/lib/thumb/v7e-m/fpv4-sp/hard/libc.a(lib_a-findfp.o)
                                                  /usr/local/Cellar/gcc-arm-none-eabi/20180627/bin/../lib/gcc/arm-none-eabi/7.3.1/../../../../arm-none-eabi/lib/thumb/v7e-m/fpv4-sp/hard/libc.a(lib_a-fclose.o)
__sinit                                           /usr/local/Cellar/gcc-arm-none-eabi/20180627/bin/../lib/gcc/arm-none-eabi/7.3.1/../../../../arm-none-eabi/lib/thumb/v7e-m/fpv4-sp/hard/libc.a(lib_a-findfp.o)
                                                  /usr/local/Cellar/gcc-arm-none-eabi/20180627/bin/../lib/gcc/arm-none-eabi/7.3.1/../../../../arm-none-eabi/lib/thumb/v7e-m/fpv4-sp/hard/libc.a(lib_a-fflush.o)
                                                  /usr/local/Cellar/gcc-arm-none-eabi/20180627/bin/../lib/gcc/arm-none-eabi/7.3.1/../../../../arm-none-eabi/lib/thumb/v7e-m/fpv4-sp/hard/libc.a(lib_a-fclose.o)
                                                  /usr/local/Cellar/gcc-arm-none-eabi/20180627/bin/../lib/gcc/arm-none-eabi/7.3.1/../../../../arm-none-eabi/lib/thumb/v7e-m/fpv4-sp/hard/librdimon.a(rdimon-syscalls.o)
__sinit_lock_acquire                              /usr/local/Cellar/gcc-arm-none-eabi/20180627/bin/../lib/gcc/arm-none-eabi/7.3.1/../../../../arm-none-eabi/lib/thumb/v7e-m/fpv4-sp/hard/libc.a(lib_a-findfp.o)
__sinit_lock_release                              /usr/local/Cellar/gcc-arm-none-eabi/20180627/bin/../lib/gcc/arm-none-eabi/7.3.1/../../../../arm-none-eabi/lib/thumb/v7e-m/fpv4-sp/hard/libc.a(lib_a-findfp.o)
__sread                                           /usr/local/Cellar/gcc-arm-none-eabi/20180627/bin/../lib/gcc/arm-none-eabi/7.3.1/../../../../arm-none-eabi/lib/thumb/v7e-m/fpv4-sp/hard/libc.a(lib_a-stdio.o)
                                                  /usr/local/Cellar/gcc-arm-none-eabi/20180627/bin/../lib/gcc/arm-none-eabi/7.3.1/../../../../arm-none-eabi/lib/thumb/v7e-m/fpv4-sp/hard/libc.a(lib_a-findfp.o)
__sseek                                           /usr/local/Cellar/gcc-arm-none-eabi/20180627/bin/../lib/gcc/arm-none-eabi/7.3.1/../../../../arm-none-eabi/lib/thumb/v7e-m/fpv4-sp/hard/libc.a(lib_a-stdio.o)
                                                  /usr/local/Cellar/gcc-arm-none-eabi/20180627/bin/../lib/gcc/arm-none-eabi/7.3.1/../../../../arm-none-eabi/lib/thumb/v7e-m/fpv4-sp/hard/libc.a(lib_a-findfp.o)
__stack_base__                                    /usr/local/Cellar/gcc-arm-none-eabi/20180627/bin/../lib/gcc/arm-none-eabi/7.3.1/../../../../arm-none-eabi/lib/thumb/v7e-m/fpv4-sp/hard/rdimon-crt0.o
__subdf3                                          /usr/local/Cellar/gcc-arm-none-eabi/20180627/bin/../lib/gcc/arm-none-eabi/7.3.1/thumb/v7e-m/fpv4-sp/hard/libgcc.a(_arm_addsubdf3.o)
__swrite                                          /usr/local/Cellar/gcc-arm-none-eabi/20180627/bin/../lib/gcc/arm-none-eabi/7.3.1/../../../../arm-none-eabi/lib/thumb/v7e-m/fpv4-sp/hard/libc.a(lib_a-stdio.o)
                                                  /usr/local/Cellar/gcc-arm-none-eabi/20180627/bin/../lib/gcc/arm-none-eabi/7.3.1/../../../../arm-none-eabi/lib/thumb/v7e-m/fpv4-sp/hard/libc.a(lib_a-findfp.o)
__udivmoddi4                                      /usr/local/Cellar/gcc-arm-none-eabi/20180627/bin/../lib/gcc/arm-none-eabi/7.3.1/thumb/v7e-m/fpv4-sp/hard/libgcc.a(_udivmoddi4.o)
                                                  /usr/local/Cellar/gcc-arm-none-eabi/20180627/bin/../lib/gcc/arm-none-eabi/7.3.1/thumb/v7e-m/fpv4-sp/hard/libgcc.a(_aeabi_uldivmod.o)
                                                  /usr/local/Cellar/gcc-arm-none-eabi/20180627/bin/../lib/gcc/arm-none-eabi/7.3.1/thumb/v7e-m/fpv4-sp/hard/libgcc.a(_aeabi_ldivmod.o)
_cleanup                                          /usr/local/Cellar/gcc-arm-none-eabi/20180627/bin/../lib/gcc/arm-none-eabi/7.3.1/../../../../arm-none-eabi/lib/thumb/v7e-m/fpv4-sp/hard/libc.a(lib_a-findfp.o)
_cleanup_r                                        /usr/local/Cellar/gcc-arm-none-eabi/20180627/bin/../lib/gcc/arm-none-eabi/7.3.1/../../../../arm-none-eabi/lib/thumb/v7e-m/fpv4-sp/hard/libc.a(lib_a-findfp.o)
_clock                                            /usr/local/Cellar/gcc-arm-none-eabi/20180627/bin/../lib/gcc/arm-none-eabi/7.3.1/../../../../arm-none-eabi/lib/thumb/v7e-m/fpv4-sp/hard/librdimon.a(rdimon-syscalls.o)
_close                                            /usr/local/Cellar/gcc-arm-none-eabi/20180627/bin/../lib/gcc/arm-none-eabi/7.3.1/../../../../arm-none-eabi/lib/thumb/v7e-m/fpv4-sp/hard/librdimon.a(rdimon-syscalls.o)
                                                  /usr/local/Cellar/gcc-arm-none-eabi/20180627/bin/../lib/gcc/arm-none-eabi/7.3.1/../../../../arm-none-eabi/lib/thumb/v7e-m/fpv4-sp/hard/libc.a(lib_a-closer.o)
_close_r                                          /usr/local/Cellar/gcc-arm-none-eabi/20180627/bin/../lib/gcc/arm-none-eabi/7.3.1/../../../../arm-none-eabi/lib/thumb/v7e-m/fpv4-sp/hard/libc.a(lib_a-closer.o)
                                                  /usr/local/Cellar/gcc-arm-none-eabi/20180627/bin/../lib/gcc/arm-none-eabi/7.3.1/../../../../arm-none-eabi/lib/thumb/v7e-m/fpv4-sp/hard/libc.a(lib_a-stdio.o)
_erelocate                                        .build/obj_massdrop_alt_default/protocol/arm_atsam/startup.o
_estack                                           .build/obj_massdrop_alt_default/protocol/arm_atsam/startup.o
_etext                                            .build/obj_massdrop_alt_default/protocol/arm_atsam/startup.o
_exit                                             /usr/local/Cellar/gcc-arm-none-eabi/20180627/bin/../lib/gcc/arm-none-eabi/7.3.1/../../../../arm-none-eabi/lib/thumb/v7e-m/fpv4-sp/hard/librdimon.a(rdimon-_exit.o)
                                                  /usr/local/Cellar/gcc-arm-none-eabi/20180627/bin/../lib/gcc/arm-none-eabi/7.3.1/../../../../arm-none-eabi/lib/thumb/v7e-m/fpv4-sp/hard/libg.a(lib_a-exit.o)
_ezero                                            .build/obj_massdrop_alt_default/protocol/arm_atsam/startup.o
_fclose_r                                         /usr/local/Cellar/gcc-arm-none-eabi/20180627/bin/../lib/gcc/arm-none-eabi/7.3.1/../../../../arm-none-eabi/lib/thumb/v7e-m/fpv4-sp/hard/libc.a(lib_a-fclose.o)
                                                  /usr/local/Cellar/gcc-arm-none-eabi/20180627/bin/../lib/gcc/arm-none-eabi/7.3.1/../../../../arm-none-eabi/lib/thumb/v7e-m/fpv4-sp/hard/libc.a(lib_a-findfp.o)
_fflush_r                                         /usr/local/Cellar/gcc-arm-none-eabi/20180627/bin/../lib/gcc/arm-none-eabi/7.3.1/../../../../arm-none-eabi/lib/thumb/v7e-m/fpv4-sp/hard/libc.a(lib_a-fflush.o)
_fini                                             /usr/local/Cellar/gcc-arm-none-eabi/20180627/bin/../lib/gcc/arm-none-eabi/7.3.1/thumb/v7e-m/fpv4-sp/hard/crti.o
                                                  /usr/local/Cellar/gcc-arm-none-eabi/20180627/bin/../lib/gcc/arm-none-eabi/7.3.1/../../../../arm-none-eabi/lib/thumb/v7e-m/fpv4-sp/hard/libg.a(lib_a-fini.o)
_free_r                                           /usr/local/Cellar/gcc-arm-none-eabi/20180627/bin/../lib/gcc/arm-none-eabi/7.3.1/../../../../arm-none-eabi/lib/thumb/v7e-m/fpv4-sp/hard/libc.a(lib_a-freer.o)
                                                  /usr/local/Cellar/gcc-arm-none-eabi/20180627/bin/../lib/gcc/arm-none-eabi/7.3.1/../../../../arm-none-eabi/lib/thumb/v7e-m/fpv4-sp/hard/libc.a(lib_a-reent.o)
                                                  /usr/local/Cellar/gcc-arm-none-eabi/20180627/bin/../lib/gcc/arm-none-eabi/7.3.1/../../../../arm-none-eabi/lib/thumb/v7e-m/fpv4-sp/hard/libc.a(lib_a-fflush.o)
                                                  /usr/local/Cellar/gcc-arm-none-eabi/20180627/bin/../lib/gcc/arm-none-eabi/7.3.1/../../../../arm-none-eabi/lib/thumb/v7e-m/fpv4-sp/hard/libc.a(lib_a-fclose.o)
                                                  /usr/local/Cellar/gcc-arm-none-eabi/20180627/bin/../lib/gcc/arm-none-eabi/7.3.1/../../../../arm-none-eabi/lib/thumb/v7e-m/fpv4-sp/hard/libc.a(lib_a-mallocr.o)
_fstat                                            /usr/local/Cellar/gcc-arm-none-eabi/20180627/bin/../lib/gcc/arm-none-eabi/7.3.1/../../../../arm-none-eabi/lib/thumb/v7e-m/fpv4-sp/hard/librdimon.a(rdimon-syscalls.o)
_fwalk                                            /usr/local/Cellar/gcc-arm-none-eabi/20180627/bin/../lib/gcc/arm-none-eabi/7.3.1/../../../../arm-none-eabi/lib/thumb/v7e-m/fpv4-sp/hard/libc.a(lib_a-fwalk.o)
                                                  /usr/local/Cellar/gcc-arm-none-eabi/20180627/bin/../lib/gcc/arm-none-eabi/7.3.1/../../../../arm-none-eabi/lib/thumb/v7e-m/fpv4-sp/hard/libc.a(lib_a-findfp.o)
_fwalk_reent                                      /usr/local/Cellar/gcc-arm-none-eabi/20180627/bin/../lib/gcc/arm-none-eabi/7.3.1/../../../../arm-none-eabi/lib/thumb/v7e-m/fpv4-sp/hard/libc.a(lib_a-fwalk.o)
                                                  /usr/local/Cellar/gcc-arm-none-eabi/20180627/bin/../lib/gcc/arm-none-eabi/7.3.1/../../../../arm-none-eabi/lib/thumb/v7e-m/fpv4-sp/hard/libc.a(lib_a-fflush.o)
                                                  /usr/local/Cellar/gcc-arm-none-eabi/20180627/bin/../lib/gcc/arm-none-eabi/7.3.1/../../../../arm-none-eabi/lib/thumb/v7e-m/fpv4-sp/hard/libc.a(lib_a-findfp.o)
_get_semihosting_exts                             /usr/local/Cellar/gcc-arm-none-eabi/20180627/bin/../lib/gcc/arm-none-eabi/7.3.1/../../../../arm-none-eabi/lib/thumb/v7e-m/fpv4-sp/hard/librdimon.a(rdimon-syscalls.o)
_getpid                                           /usr/local/Cellar/gcc-arm-none-eabi/20180627/bin/../lib/gcc/arm-none-eabi/7.3.1/../../../../arm-none-eabi/lib/thumb/v7e-m/fpv4-sp/hard/librdimon.a(rdimon-syscalls.o)
_gettimeofday                                     /usr/local/Cellar/gcc-arm-none-eabi/20180627/bin/../lib/gcc/arm-none-eabi/7.3.1/../../../../arm-none-eabi/lib/thumb/v7e-m/fpv4-sp/hard/librdimon.a(rdimon-syscalls.o)
_global_impure_ptr                                /usr/local/Cellar/gcc-arm-none-eabi/20180627/bin/../lib/gcc/arm-none-eabi/7.3.1/../../../../arm-none-eabi/lib/thumb/v7e-m/fpv4-sp/hard/libg.a(lib_a-impure.o)
                                                  /usr/local/Cellar/gcc-arm-none-eabi/20180627/bin/../lib/gcc/arm-none-eabi/7.3.1/../../../../arm-none-eabi/lib/thumb/v7e-m/fpv4-sp/hard/libc.a(lib_a-fflush.o)
                                                  /usr/local/Cellar/gcc-arm-none-eabi/20180627/bin/../lib/gcc/arm-none-eabi/7.3.1/../../../../arm-none-eabi/lib/thumb/v7e-m/fpv4-sp/hard/libc.a(lib_a-findfp.o)
                                                  /usr/local/Cellar/gcc-arm-none-eabi/20180627/bin/../lib/gcc/arm-none-eabi/7.3.1/../../../../arm-none-eabi/lib/thumb/v7e-m/fpv4-sp/hard/libg.a(lib_a-__atexit.o)
                                                  /usr/local/Cellar/gcc-arm-none-eabi/20180627/bin/../lib/gcc/arm-none-eabi/7.3.1/../../../../arm-none-eabi/lib/thumb/v7e-m/fpv4-sp/hard/libg.a(lib_a-__call_atexit.o)
                                                  /usr/local/Cellar/gcc-arm-none-eabi/20180627/bin/../lib/gcc/arm-none-eabi/7.3.1/../../../../arm-none-eabi/lib/thumb/v7e-m/fpv4-sp/hard/libg.a(lib_a-exit.o)
_has_ext_exit_extended                            /usr/local/Cellar/gcc-arm-none-eabi/20180627/bin/../lib/gcc/arm-none-eabi/7.3.1/../../../../arm-none-eabi/lib/thumb/v7e-m/fpv4-sp/hard/librdimon.a(rdimon-syscalls.o)
                                                  /usr/local/Cellar/gcc-arm-none-eabi/20180627/bin/../lib/gcc/arm-none-eabi/7.3.1/../../../../arm-none-eabi/lib/thumb/v7e-m/fpv4-sp/hard/librdimon.a(rdimon-_kill.o)
_has_ext_stdout_stderr                            /usr/local/Cellar/gcc-arm-none-eabi/20180627/bin/../lib/gcc/arm-none-eabi/7.3.1/../../../../arm-none-eabi/lib/thumb/v7e-m/fpv4-sp/hard/librdimon.a(rdimon-syscalls.o)
_impure_ptr                                       /usr/local/Cellar/gcc-arm-none-eabi/20180627/bin/../lib/gcc/arm-none-eabi/7.3.1/../../../../arm-none-eabi/lib/thumb/v7e-m/fpv4-sp/hard/libg.a(lib_a-impure.o)
                                                  /usr/local/Cellar/gcc-arm-none-eabi/20180627/bin/../lib/gcc/arm-none-eabi/7.3.1/../../../../arm-none-eabi/lib/thumb/v7e-m/fpv4-sp/hard/libc.a(lib_a-reent.o)
                                                  /usr/local/Cellar/gcc-arm-none-eabi/20180627/bin/../lib/gcc/arm-none-eabi/7.3.1/../../../../arm-none-eabi/lib/thumb/v7e-m/fpv4-sp/hard/libc.a(lib_a-fflush.o)
                                                  /usr/local/Cellar/gcc-arm-none-eabi/20180627/bin/../lib/gcc/arm-none-eabi/7.3.1/../../../../arm-none-eabi/lib/thumb/v7e-m/fpv4-sp/hard/libc.a(lib_a-fclose.o)
                                                  /usr/local/Cellar/gcc-arm-none-eabi/20180627/bin/../lib/gcc/arm-none-eabi/7.3.1/../../../../arm-none-eabi/lib/thumb/v7e-m/fpv4-sp/hard/libc.a(lib_a-findfp.o)
                                                  /usr/local/Cellar/gcc-arm-none-eabi/20180627/bin/../lib/gcc/arm-none-eabi/7.3.1/../../../../arm-none-eabi/lib/thumb/v7e-m/fpv4-sp/hard/libc.a(lib_a-errno.o)
                                                  /usr/local/Cellar/gcc-arm-none-eabi/20180627/bin/../lib/gcc/arm-none-eabi/7.3.1/../../../../arm-none-eabi/lib/thumb/v7e-m/fpv4-sp/hard/librdimon.a(rdimon-syscalls.o)
                                                  /usr/local/Cellar/gcc-arm-none-eabi/20180627/bin/../lib/gcc/arm-none-eabi/7.3.1/../../../../arm-none-eabi/lib/thumb/v7e-m/fpv4-sp/hard/libg.a(lib_a-rand.o)
_init                                             /usr/local/Cellar/gcc-arm-none-eabi/20180627/bin/../lib/gcc/arm-none-eabi/7.3.1/thumb/v7e-m/fpv4-sp/hard/crti.o
                                                  /usr/local/Cellar/gcc-arm-none-eabi/20180627/bin/../lib/gcc/arm-none-eabi/7.3.1/../../../../arm-none-eabi/lib/thumb/v7e-m/fpv4-sp/hard/libg.a(lib_a-init.o)
_isatty                                           /usr/local/Cellar/gcc-arm-none-eabi/20180627/bin/../lib/gcc/arm-none-eabi/7.3.1/../../../../arm-none-eabi/lib/thumb/v7e-m/fpv4-sp/hard/librdimon.a(rdimon-syscalls.o)
_kill                                             /usr/local/Cellar/gcc-arm-none-eabi/20180627/bin/../lib/gcc/arm-none-eabi/7.3.1/../../../../arm-none-eabi/lib/thumb/v7e-m/fpv4-sp/hard/librdimon.a(rdimon-_kill.o)
                                                  /usr/local/Cellar/gcc-arm-none-eabi/20180627/bin/../lib/gcc/arm-none-eabi/7.3.1/../../../../arm-none-eabi/lib/thumb/v7e-m/fpv4-sp/hard/librdimon.a(rdimon-_exit.o)
_link                                             /usr/local/Cellar/gcc-arm-none-eabi/20180627/bin/../lib/gcc/arm-none-eabi/7.3.1/../../../../arm-none-eabi/lib/thumb/v7e-m/fpv4-sp/hard/librdimon.a(rdimon-syscalls.o)
_lseek                                            /usr/local/Cellar/gcc-arm-none-eabi/20180627/bin/../lib/gcc/arm-none-eabi/7.3.1/../../../../arm-none-eabi/lib/thumb/v7e-m/fpv4-sp/hard/librdimon.a(rdimon-syscalls.o)
                                                  /usr/local/Cellar/gcc-arm-none-eabi/20180627/bin/../lib/gcc/arm-none-eabi/7.3.1/../../../../arm-none-eabi/lib/thumb/v7e-m/fpv4-sp/hard/libc.a(lib_a-lseekr.o)
_lseek_r                                          /usr/local/Cellar/gcc-arm-none-eabi/20180627/bin/../lib/gcc/arm-none-eabi/7.3.1/../../../../arm-none-eabi/lib/thumb/v7e-m/fpv4-sp/hard/libc.a(lib_a-lseekr.o)
                                                  /usr/local/Cellar/gcc-arm-none-eabi/20180627/bin/../lib/gcc/arm-none-eabi/7.3.1/../../../../arm-none-eabi/lib/thumb/v7e-m/fpv4-sp/hard/libc.a(lib_a-stdio.o)
_mainCRTStartup                                   /usr/local/Cellar/gcc-arm-none-eabi/20180627/bin/../lib/gcc/arm-none-eabi/7.3.1/../../../../arm-none-eabi/lib/thumb/v7e-m/fpv4-sp/hard/rdimon-crt0.o
_malloc_r                                         /usr/local/Cellar/gcc-arm-none-eabi/20180627/bin/../lib/gcc/arm-none-eabi/7.3.1/../../../../arm-none-eabi/lib/thumb/v7e-m/fpv4-sp/hard/libc.a(lib_a-mallocr.o)
                                                  /usr/local/Cellar/gcc-arm-none-eabi/20180627/bin/../lib/gcc/arm-none-eabi/7.3.1/../../../../arm-none-eabi/lib/thumb/v7e-m/fpv4-sp/hard/libc.a(lib_a-findfp.o)
_malloc_trim_r                                    /usr/local/Cellar/gcc-arm-none-eabi/20180627/bin/../lib/gcc/arm-none-eabi/7.3.1/../../../../arm-none-eabi/lib/thumb/v7e-m/fpv4-sp/hard/libc.a(lib_a-freer.o)
_open                                             /usr/local/Cellar/gcc-arm-none-eabi/20180627/bin/../lib/gcc/arm-none-eabi/7.3.1/../../../../arm-none-eabi/lib/thumb/v7e-m/fpv4-sp/hard/librdimon.a(rdimon-syscalls.o)
_read                                             /usr/local/Cellar/gcc-arm-none-eabi/20180627/bin/../lib/gcc/arm-none-eabi/7.3.1/../../../../arm-none-eabi/lib/thumb/v7e-m/fpv4-sp/hard/librdimon.a(rdimon-syscalls.o)
                                                  /usr/local/Cellar/gcc-arm-none-eabi/20180627/bin/../lib/gcc/arm-none-eabi/7.3.1/../../../../arm-none-eabi/lib/thumb/v7e-m/fpv4-sp/hard/libc.a(lib_a-readr.o)
_read_r                                           /usr/local/Cellar/gcc-arm-none-eabi/20180627/bin/../lib/gcc/arm-none-eabi/7.3.1/../../../../arm-none-eabi/lib/thumb/v7e-m/fpv4-sp/hard/libc.a(lib_a-readr.o)
                                                  /usr/local/Cellar/gcc-arm-none-eabi/20180627/bin/../lib/gcc/arm-none-eabi/7.3.1/../../../../arm-none-eabi/lib/thumb/v7e-m/fpv4-sp/hard/libc.a(lib_a-stdio.o)
_reclaim_reent                                    /usr/local/Cellar/gcc-arm-none-eabi/20180627/bin/../lib/gcc/arm-none-eabi/7.3.1/../../../../arm-none-eabi/lib/thumb/v7e-m/fpv4-sp/hard/libc.a(lib_a-reent.o)
_rename                                           /usr/local/Cellar/gcc-arm-none-eabi/20180627/bin/../lib/gcc/arm-none-eabi/7.3.1/../../../../arm-none-eabi/lib/thumb/v7e-m/fpv4-sp/hard/librdimon.a(rdimon-syscalls.o)
_sbrk                                             /usr/local/Cellar/gcc-arm-none-eabi/20180627/bin/../lib/gcc/arm-none-eabi/7.3.1/../../../../arm-none-eabi/lib/thumb/v7e-m/fpv4-sp/hard/librdimon.a(rdimon-syscalls.o)
                                                  /usr/local/Cellar/gcc-arm-none-eabi/20180627/bin/../lib/gcc/arm-none-eabi/7.3.1/../../../../arm-none-eabi/lib/thumb/v7e-m/fpv4-sp/hard/libc.a(lib_a-sbrkr.o)
_sbrk_r                                           /usr/local/Cellar/gcc-arm-none-eabi/20180627/bin/../lib/gcc/arm-none-eabi/7.3.1/../../../../arm-none-eabi/lib/thumb/v7e-m/fpv4-sp/hard/libc.a(lib_a-sbrkr.o)
                                                  /usr/local/Cellar/gcc-arm-none-eabi/20180627/bin/../lib/gcc/arm-none-eabi/7.3.1/../../../../arm-none-eabi/lib/thumb/v7e-m/fpv4-sp/hard/libc.a(lib_a-freer.o)
                                                  /usr/local/Cellar/gcc-arm-none-eabi/20180627/bin/../lib/gcc/arm-none-eabi/7.3.1/../../../../arm-none-eabi/lib/thumb/v7e-m/fpv4-sp/hard/libc.a(lib_a-mallocr.o)
_sfixed                                           .build/obj_massdrop_alt_default/protocol/arm_atsam/startup.o
_srelocate                                        .build/obj_massdrop_alt_default/protocol/arm_atsam/startup.o
_srom                                             .build/obj_massdrop_alt_default/protocol/arm_atsam/usb/usb2422.o
                                                  .build/obj_massdrop_alt_default/protocol/arm_atsam/usb/udc.o
_start                                            /usr/local/Cellar/gcc-arm-none-eabi/20180627/bin/../lib/gcc/arm-none-eabi/7.3.1/../../../../arm-none-eabi/lib/thumb/v7e-m/fpv4-sp/hard/rdimon-crt0.o
_stat                                             /usr/local/Cellar/gcc-arm-none-eabi/20180627/bin/../lib/gcc/arm-none-eabi/7.3.1/../../../../arm-none-eabi/lib/thumb/v7e-m/fpv4-sp/hard/librdimon.a(rdimon-syscalls.o)
_swiclose                                         /usr/local/Cellar/gcc-arm-none-eabi/20180627/bin/../lib/gcc/arm-none-eabi/7.3.1/../../../../arm-none-eabi/lib/thumb/v7e-m/fpv4-sp/hard/librdimon.a(rdimon-syscalls.o)
_swilseek                                         /usr/local/Cellar/gcc-arm-none-eabi/20180627/bin/../lib/gcc/arm-none-eabi/7.3.1/../../../../arm-none-eabi/lib/thumb/v7e-m/fpv4-sp/hard/librdimon.a(rdimon-syscalls.o)
_swiopen                                          /usr/local/Cellar/gcc-arm-none-eabi/20180627/bin/../lib/gcc/arm-none-eabi/7.3.1/../../../../arm-none-eabi/lib/thumb/v7e-m/fpv4-sp/hard/librdimon.a(rdimon-syscalls.o)
_swiread                                          /usr/local/Cellar/gcc-arm-none-eabi/20180627/bin/../lib/gcc/arm-none-eabi/7.3.1/../../../../arm-none-eabi/lib/thumb/v7e-m/fpv4-sp/hard/librdimon.a(rdimon-syscalls.o)
_swistat                                          /usr/local/Cellar/gcc-arm-none-eabi/20180627/bin/../lib/gcc/arm-none-eabi/7.3.1/../../../../arm-none-eabi/lib/thumb/v7e-m/fpv4-sp/hard/librdimon.a(rdimon-syscalls.o)
_swiwrite                                         /usr/local/Cellar/gcc-arm-none-eabi/20180627/bin/../lib/gcc/arm-none-eabi/7.3.1/../../../../arm-none-eabi/lib/thumb/v7e-m/fpv4-sp/hard/librdimon.a(rdimon-syscalls.o)
_system                                           /usr/local/Cellar/gcc-arm-none-eabi/20180627/bin/../lib/gcc/arm-none-eabi/7.3.1/../../../../arm-none-eabi/lib/thumb/v7e-m/fpv4-sp/hard/librdimon.a(rdimon-syscalls.o)
_szero                                            .build/obj_massdrop_alt_default/protocol/arm_atsam/startup.o
_times                                            /usr/local/Cellar/gcc-arm-none-eabi/20180627/bin/../lib/gcc/arm-none-eabi/7.3.1/../../../../arm-none-eabi/lib/thumb/v7e-m/fpv4-sp/hard/librdimon.a(rdimon-syscalls.o)
_unlink                                           /usr/local/Cellar/gcc-arm-none-eabi/20180627/bin/../lib/gcc/arm-none-eabi/7.3.1/../../../../arm-none-eabi/lib/thumb/v7e-m/fpv4-sp/hard/librdimon.a(rdimon-syscalls.o)
_write                                            /usr/local/Cellar/gcc-arm-none-eabi/20180627/bin/../lib/gcc/arm-none-eabi/7.3.1/../../../../arm-none-eabi/lib/thumb/v7e-m/fpv4-sp/hard/librdimon.a(rdimon-syscalls.o)
                                                  /usr/local/Cellar/gcc-arm-none-eabi/20180627/bin/../lib/gcc/arm-none-eabi/7.3.1/../../../../arm-none-eabi/lib/thumb/v7e-m/fpv4-sp/hard/libc.a(lib_a-writer.o)
_write_r                                          /usr/local/Cellar/gcc-arm-none-eabi/20180627/bin/../lib/gcc/arm-none-eabi/7.3.1/../../../../arm-none-eabi/lib/thumb/v7e-m/fpv4-sp/hard/libc.a(lib_a-writer.o)
                                                  /usr/local/Cellar/gcc-arm-none-eabi/20180627/bin/../lib/gcc/arm-none-eabi/7.3.1/../../../../arm-none-eabi/lib/thumb/v7e-m/fpv4-sp/hard/libc.a(lib_a-stdio.o)
action_exec                                       .build/obj_massdrop_alt_default/common/action.o
                                                  .build/obj_massdrop_alt_default/common/keyboard.o
action_for_key                                    .build/obj_massdrop_alt_default/quantum/keymap_common.o
                                                  .build/obj_massdrop_alt_default/common/action_layer.o
action_function                                   .build/obj_massdrop_alt_default/quantum/keymap_common.o
                                                  .build/obj_massdrop_alt_default/common/action.o
action_get_macro                                  .build/obj_massdrop_alt_default/quantum/keymap_common.o
                                                  .build/obj_massdrop_alt_default/common/action.o
action_macro_play                                 .build/obj_massdrop_alt_default/common/action_macro.o
                                                  .build/obj_massdrop_alt_default/common/action.o
action_tapping_process                            .build/obj_massdrop_alt_default/common/action_tapping.o
                                                  .build/obj_massdrop_alt_default/common/action.o
adc_extra                                         .build/obj_massdrop_alt_default/protocol/arm_atsam/usb/usb2422.o
adc_get                                           .build/obj_massdrop_alt_default/protocol/arm_atsam/adc.o
                                                  .build/obj_massdrop_alt_default/protocol/arm_atsam/usb/usb2422.o
                                                  .build/obj_massdrop_alt_default/protocol/arm_atsam/main_arm_atsam.o
add_key                                           .build/obj_massdrop_alt_default/common/action_util.o
                                                  .build/obj_massdrop_alt_default/common/action.o
                                                  .build/obj_massdrop_alt_default/quantum/quantum.o
add_key_bit                                       .build/obj_massdrop_alt_default/common/report.o
add_key_byte                                      .build/obj_massdrop_alt_default/common/report.o
add_key_to_report                                 .build/obj_massdrop_alt_default/common/report.o
                                                  .build/obj_massdrop_alt_default/common/action_util.o
add_macro_mods                                    .build/obj_massdrop_alt_default/common/action_util.o
                                                  .build/obj_massdrop_alt_default/common/action_macro.o
add_mods                                          .build/obj_massdrop_alt_default/common/action_util.o
                                                  .build/obj_massdrop_alt_default/common/action.o
add_weak_mods                                     .build/obj_massdrop_alt_default/common/action_util.o
                                                  .build/obj_massdrop_alt_default/common/action.o
                                                  .build/obj_massdrop_alt_default/quantum/quantum.o
api_send_unicode                                  .build/obj_massdrop_alt_default/quantum/quantum.o
arm_atsam_driver                                  .build/obj_massdrop_alt_default/protocol/arm_atsam/main_arm_atsam.o
ascii_to_altgr_lut                                .build/obj_massdrop_alt_default/quantum/quantum.o
ascii_to_keycode_lut                              .build/obj_massdrop_alt_default/quantum/quantum.o
ascii_to_shift_lut                                .build/obj_massdrop_alt_default/quantum/quantum.o
atexit                                            /usr/local/Cellar/gcc-arm-none-eabi/20180627/bin/../lib/gcc/arm-none-eabi/7.3.1/../../../../arm-none-eabi/lib/thumb/v7e-m/fpv4-sp/hard/libg.a(lib_a-atexit.o)
                                                  /usr/local/Cellar/gcc-arm-none-eabi/20180627/bin/../lib/gcc/arm-none-eabi/7.3.1/../../../../arm-none-eabi/lib/thumb/v7e-m/fpv4-sp/hard/libg.a(lib_a-__call_atexit.o)
                                                  /usr/local/Cellar/gcc-arm-none-eabi/20180627/bin/../lib/gcc/arm-none-eabi/7.3.1/../../../../arm-none-eabi/lib/thumb/v7e-m/fpv4-sp/hard/rdimon-crt0.o
backlight_init_ports                              .build/obj_massdrop_alt_default/quantum/quantum.o
backlight_set                                     .build/obj_massdrop_alt_default/quantum/quantum.o
biton                                             .build/obj_massdrop_alt_default/common/util.o
                                                  .build/obj_massdrop_alt_default/common/report.o
biton16                                           .build/obj_massdrop_alt_default/common/util.o
biton32                                           .build/obj_massdrop_alt_default/common/util.o
bitpop                                            .build/obj_massdrop_alt_default/common/util.o
                                                  .build/obj_massdrop_alt_default/common/action_util.o
bitpop16                                          .build/obj_massdrop_alt_default/common/util.o
bitpop32                                          .build/obj_massdrop_alt_default/common/util.o
bitrev                                            .build/obj_massdrop_alt_default/common/util.o
bitrev16                                          .build/obj_massdrop_alt_default/common/util.o
bitrev32                                          .build/obj_massdrop_alt_default/common/util.o
bootloader_jump                                   .build/obj_massdrop_alt_default/common/arm_atsam/bootloader.o
                                                  .build/obj_massdrop_alt_default/quantum/quantum.o
bootloader_serial_number                          .build/obj_massdrop_alt_default/protocol/arm_atsam/usb/udc.o
bootmagic_lite                                    .build/obj_massdrop_alt_default/quantum/quantum.o
cleanup_glue                                      /usr/local/Cellar/gcc-arm-none-eabi/20180627/bin/../lib/gcc/arm-none-eabi/7.3.1/../../../../arm-none-eabi/lib/thumb/v7e-m/fpv4-sp/hard/libc.a(lib_a-reent.o)
clear_keyboard                                    .build/obj_massdrop_alt_default/common/action.o
                                                  .build/obj_massdrop_alt_default/common/action_tapping.o
                                                  .build/obj_massdrop_alt_default/quantum/quantum.o
clear_keyboard_but_mods                           .build/obj_massdrop_alt_default/common/action.o
clear_keyboard_but_mods_and_keys                  .build/obj_massdrop_alt_default/common/action.o
                                                  .build/obj_massdrop_alt_default/common/action_layer.o
clear_keys                                        .build/obj_massdrop_alt_default/common/action_util.o
                                                  .build/obj_massdrop_alt_default/common/action.o
clear_keys_from_report                            .build/obj_massdrop_alt_default/common/report.o
                                                  .build/obj_massdrop_alt_default/common/action_util.o
clear_macro_mods                                  .build/obj_massdrop_alt_default/common/action_util.o
                                                  .build/obj_massdrop_alt_default/common/action.o
clear_mods                                        .build/obj_massdrop_alt_default/common/action_util.o
                                                  .build/obj_massdrop_alt_default/common/action.o
clear_oneshot_layer_state                         .build/obj_massdrop_alt_default/common/action_util.o
                                                  .build/obj_massdrop_alt_default/common/action.o
clear_oneshot_locked_mods                         .build/obj_massdrop_alt_default/common/action_util.o
clear_oneshot_mods                                .build/obj_massdrop_alt_default/common/action_util.o
                                                  .build/obj_massdrop_alt_default/common/action.o
clear_weak_mods                                   .build/obj_massdrop_alt_default/common/action_util.o
                                                  .build/obj_massdrop_alt_default/common/action.o
clk_enable_sercom_apbmask                         .build/obj_massdrop_alt_default/protocol/arm_atsam/clks.o
col_pins                                          .build/obj_massdrop_alt_default/matrix.o
col_ports                                         .build/obj_massdrop_alt_default/matrix.o
dbg_print                                         .build/obj_massdrop_alt_default/protocol/arm_atsam/d51_util.o
debounce                                          .build/obj_massdrop_alt_default/quantum/debounce/sym_g.o
debounce_active                                   .build/obj_massdrop_alt_default/quantum/debounce/sym_g.o
debounce_init                                     .build/obj_massdrop_alt_default/quantum/debounce/sym_g.o
debug_action                                      .build/obj_massdrop_alt_default/common/action.o
debug_code                                        .build/obj_massdrop_alt_default/protocol/arm_atsam/d51_util.o
                                                  .build/obj_massdrop_alt_default/protocol/arm_atsam/usb/usb2422.o
                                                  .build/obj_massdrop_alt_default/protocol/arm_atsam/spi.o
                                                  .build/obj_massdrop_alt_default/protocol/arm_atsam/main_arm_atsam.o
                                                  .build/obj_massdrop_alt_default/protocol/arm_atsam/led_matrix.o
                                                  .build/obj_massdrop_alt_default/protocol/arm_atsam/i2c_master.o
                                                  .build/obj_massdrop_alt_default/protocol/arm_atsam/clks.o
                                                  .build/obj_massdrop_alt_default/protocol/arm_atsam/adc.o
debug_code_disable                                .build/obj_massdrop_alt_default/protocol/arm_atsam/d51_util.o
                                                  .build/obj_massdrop_alt_default/protocol/arm_atsam/main_arm_atsam.o
debug_code_init                                   .build/obj_massdrop_alt_default/protocol/arm_atsam/d51_util.o
                                                  .build/obj_massdrop_alt_default/protocol/arm_atsam/main_arm_atsam.o
debug_config                                      .build/obj_massdrop_alt_default/common/debug.o
                                                  .build/obj_massdrop_alt_default/common/magic.o
                                                  .build/obj_massdrop_alt_default/common/keyboard.o
                                                  .build/obj_massdrop_alt_default/quantum/quantum.o
                                                  .build/obj_massdrop_alt_default/keyboards/massdrop/alt/keymaps/default/keymap.o
debug_event                                       .build/obj_massdrop_alt_default/common/action.o
                                                  .build/obj_massdrop_alt_default/common/action_tapping.o
debug_record                                      .build/obj_massdrop_alt_default/common/action.o
                                                  .build/obj_massdrop_alt_default/common/action_tapping.o
default_layer_and                                 .build/obj_massdrop_alt_default/common/action_layer.o
                                                  .build/obj_massdrop_alt_default/common/action.o
default_layer_debug                               .build/obj_massdrop_alt_default/common/action_layer.o
                                                  .build/obj_massdrop_alt_default/common/action.o
default_layer_or                                  .build/obj_massdrop_alt_default/common/action_layer.o
                                                  .build/obj_massdrop_alt_default/common/action.o
default_layer_set                                 .build/obj_massdrop_alt_default/common/action_layer.o
                                                  .build/obj_massdrop_alt_default/common/magic.o
                                                  .build/obj_massdrop_alt_default/common/action.o
                                                  .build/obj_massdrop_alt_default/quantum/quantum.o
default_layer_state                               .build/obj_massdrop_alt_default/common/action_layer.o
                                                  .build/obj_massdrop_alt_default/common/eeconfig.o
default_layer_state_set_kb                        .build/obj_massdrop_alt_default/common/action_layer.o
default_layer_state_set_user                      .build/obj_massdrop_alt_default/common/action_layer.o
default_layer_xor                                 .build/obj_massdrop_alt_default/common/action_layer.o
                                                  .build/obj_massdrop_alt_default/common/action.o
del_key                                           .build/obj_massdrop_alt_default/common/action_util.o
                                                  .build/obj_massdrop_alt_default/common/action.o
                                                  .build/obj_massdrop_alt_default/quantum/quantum.o
del_key_bit                                       .build/obj_massdrop_alt_default/common/report.o
del_key_byte                                      .build/obj_massdrop_alt_default/common/report.o
del_key_from_report                               .build/obj_massdrop_alt_default/common/report.o
                                                  .build/obj_massdrop_alt_default/common/action_util.o
del_macro_mods                                    .build/obj_massdrop_alt_default/common/action_util.o
                                                  .build/obj_massdrop_alt_default/common/action_macro.o
del_mods                                          .build/obj_massdrop_alt_default/common/action_util.o
                                                  .build/obj_massdrop_alt_default/common/action.o
del_weak_mods                                     .build/obj_massdrop_alt_default/common/action_util.o
                                                  .build/obj_massdrop_alt_default/common/action.o
                                                  .build/obj_massdrop_alt_default/quantum/quantum.o
digit                                             .build/obj_massdrop_alt_default/protocol/arm_atsam/usb/usb_util.o
disable_action_cache                              .build/obj_massdrop_alt_default/common/action.o
                                                  .build/obj_massdrop_alt_default/common/action_layer.o
                                                  .build/obj_massdrop_alt_default/quantum/quantum.o
disable_jtag                                      .build/obj_massdrop_alt_default/common/keyboard.o
dled_print                                        .build/obj_massdrop_alt_default/protocol/arm_atsam/d51_util.o
dmac_desc                                         .build/obj_massdrop_alt_default/protocol/arm_atsam/usb/usb2422.o
                                                  .build/obj_massdrop_alt_default/protocol/arm_atsam/spi.o
                                                  .build/obj_massdrop_alt_default/protocol/arm_atsam/main_arm_atsam.o
                                                  .build/obj_massdrop_alt_default/protocol/arm_atsam/led_matrix.o
                                                  .build/obj_massdrop_alt_default/protocol/arm_atsam/i2c_master.o
                                                  .build/obj_massdrop_alt_default/protocol/arm_atsam/clks.o
                                                  .build/obj_massdrop_alt_default/protocol/arm_atsam/adc.o
                                                  .build/obj_massdrop_alt_default/common/arm_atsam/suspend.o
                                                  .build/obj_massdrop_alt_default/keyboards/massdrop/alt/keymaps/default/keymap.o
                                                  .build/obj_massdrop_alt_default/config_led.o
                                                  .build/obj_massdrop_alt_default/matrix.o
dmac_desc_wb                                      .build/obj_massdrop_alt_default/protocol/arm_atsam/usb/usb2422.o
                                                  .build/obj_massdrop_alt_default/protocol/arm_atsam/spi.o
                                                  .build/obj_massdrop_alt_default/protocol/arm_atsam/main_arm_atsam.o
                                                  .build/obj_massdrop_alt_default/protocol/arm_atsam/led_matrix.o
                                                  .build/obj_massdrop_alt_default/protocol/arm_atsam/i2c_master.o
                                                  .build/obj_massdrop_alt_default/protocol/arm_atsam/clks.o
                                                  .build/obj_massdrop_alt_default/protocol/arm_atsam/adc.o
                                                  .build/obj_massdrop_alt_default/common/arm_atsam/suspend.o
                                                  .build/obj_massdrop_alt_default/keyboards/massdrop/alt/keymaps/default/keymap.o
                                                  .build/obj_massdrop_alt_default/config_led.o
                                                  .build/obj_massdrop_alt_default/matrix.o
eeconfig_debug_rgb_matrix                         .build/obj_massdrop_alt_default/quantum/rgb_matrix.o
eeconfig_disable                                  .build/obj_massdrop_alt_default/common/eeconfig.o
                                                  .build/obj_massdrop_alt_default/quantum/quantum.o
eeconfig_enable                                   .build/obj_massdrop_alt_default/common/eeconfig.o
eeconfig_init                                     .build/obj_massdrop_alt_default/common/eeconfig.o
                                                  .build/obj_massdrop_alt_default/common/magic.o
                                                  .build/obj_massdrop_alt_default/quantum/rgb_matrix.o
                                                  .build/obj_massdrop_alt_default/quantum/quantum.o
eeconfig_init_kb                                  .build/obj_massdrop_alt_default/common/eeconfig.o
eeconfig_init_quantum                             .build/obj_massdrop_alt_default/common/eeconfig.o
eeconfig_init_user                                .build/obj_massdrop_alt_default/common/eeconfig.o
eeconfig_is_disabled                              .build/obj_massdrop_alt_default/common/eeconfig.o
eeconfig_is_enabled                               .build/obj_massdrop_alt_default/common/eeconfig.o
                                                  .build/obj_massdrop_alt_default/common/magic.o
                                                  .build/obj_massdrop_alt_default/quantum/rgb_matrix.o
                                                  .build/obj_massdrop_alt_default/quantum/quantum.o
eeconfig_read_audio                               .build/obj_massdrop_alt_default/common/eeconfig.o
eeconfig_read_backlight                           .build/obj_massdrop_alt_default/common/eeconfig.o
eeconfig_read_debug                               .build/obj_massdrop_alt_default/common/eeconfig.o
                                                  .build/obj_massdrop_alt_default/common/magic.o
eeconfig_read_default_layer                       .build/obj_massdrop_alt_default/common/eeconfig.o
                                                  .build/obj_massdrop_alt_default/common/magic.o
eeconfig_read_haptic                              .build/obj_massdrop_alt_default/common/eeconfig.o
eeconfig_read_kb                                  .build/obj_massdrop_alt_default/common/eeconfig.o
eeconfig_read_keymap                              .build/obj_massdrop_alt_default/common/eeconfig.o
                                                  .build/obj_massdrop_alt_default/common/magic.o
                                                  .build/obj_massdrop_alt_default/quantum/quantum.o
eeconfig_read_rgb_matrix                          .build/obj_massdrop_alt_default/quantum/rgb_matrix.o
eeconfig_read_user                                .build/obj_massdrop_alt_default/common/eeconfig.o
eeconfig_update_audio                             .build/obj_massdrop_alt_default/common/eeconfig.o
eeconfig_update_backlight                         .build/obj_massdrop_alt_default/common/eeconfig.o
eeconfig_update_debug                             .build/obj_massdrop_alt_default/common/eeconfig.o
eeconfig_update_default_layer                     .build/obj_massdrop_alt_default/common/eeconfig.o
                                                  .build/obj_massdrop_alt_default/quantum/quantum.o
eeconfig_update_haptic                            .build/obj_massdrop_alt_default/common/eeconfig.o
eeconfig_update_kb                                .build/obj_massdrop_alt_default/common/eeconfig.o
eeconfig_update_keymap                            .build/obj_massdrop_alt_default/common/eeconfig.o
                                                  .build/obj_massdrop_alt_default/quantum/quantum.o
eeconfig_update_rgb_matrix                        .build/obj_massdrop_alt_default/quantum/rgb_matrix.o
eeconfig_update_rgb_matrix_default                .build/obj_massdrop_alt_default/quantum/rgb_matrix.o
eeconfig_update_user                              .build/obj_massdrop_alt_default/common/eeconfig.o
eeprom_read_block                                 .build/obj_massdrop_alt_default/common/arm_atsam/eeprom.o
                                                  .build/obj_massdrop_alt_default/quantum/rgb_matrix.o
eeprom_read_byte                                  .build/obj_massdrop_alt_default/common/arm_atsam/eeprom.o
                                                  .build/obj_massdrop_alt_default/common/eeconfig.o
eeprom_read_dword                                 .build/obj_massdrop_alt_default/common/arm_atsam/eeprom.o
                                                  .build/obj_massdrop_alt_default/common/eeconfig.o
eeprom_read_word                                  .build/obj_massdrop_alt_default/common/arm_atsam/eeprom.o
                                                  .build/obj_massdrop_alt_default/common/eeconfig.o
eeprom_update_block                               .build/obj_massdrop_alt_default/common/arm_atsam/eeprom.o
                                                  .build/obj_massdrop_alt_default/quantum/rgb_matrix.o
eeprom_update_byte                                .build/obj_massdrop_alt_default/common/arm_atsam/eeprom.o
                                                  .build/obj_massdrop_alt_default/common/eeconfig.o
eeprom_update_dword                               .build/obj_massdrop_alt_default/common/arm_atsam/eeprom.o
                                                  .build/obj_massdrop_alt_default/common/eeconfig.o
eeprom_update_word                                .build/obj_massdrop_alt_default/common/arm_atsam/eeprom.o
                                                  .build/obj_massdrop_alt_default/common/eeconfig.o
eeprom_write_block                                .build/obj_massdrop_alt_default/common/arm_atsam/eeprom.o
eeprom_write_byte                                 .build/obj_massdrop_alt_default/common/arm_atsam/eeprom.o
eeprom_write_dword                                .build/obj_massdrop_alt_default/common/arm_atsam/eeprom.o
eeprom_write_word                                 .build/obj_massdrop_alt_default/common/arm_atsam/eeprom.o
effect_runner_dx_dy                               .build/obj_massdrop_alt_default/quantum/rgb_matrix.o
effect_runner_dx_dy_dist                          .build/obj_massdrop_alt_default/quantum/rgb_matrix.o
effect_runner_i                                   .build/obj_massdrop_alt_default/quantum/rgb_matrix.o
effect_runner_reactive                            .build/obj_massdrop_alt_default/quantum/rgb_matrix.o
effect_runner_reactive_splash                     .build/obj_massdrop_alt_default/quantum/rgb_matrix.o
effect_runner_sin_cos_i                           .build/obj_massdrop_alt_default/quantum/rgb_matrix.o
end                                               /usr/local/Cellar/gcc-arm-none-eabi/20180627/bin/../lib/gcc/arm-none-eabi/7.3.1/../../../../arm-none-eabi/lib/thumb/v7e-m/fpv4-sp/hard/librdimon.a(rdimon-syscalls.o)
errno                                             /usr/local/Cellar/gcc-arm-none-eabi/20180627/bin/../lib/gcc/arm-none-eabi/7.3.1/../../../../arm-none-eabi/lib/thumb/v7e-m/fpv4-sp/hard/libc.a(lib_a-reent.o)
                                                  /usr/local/Cellar/gcc-arm-none-eabi/20180627/bin/../lib/gcc/arm-none-eabi/7.3.1/../../../../arm-none-eabi/lib/thumb/v7e-m/fpv4-sp/hard/libc.a(lib_a-readr.o)
                                                  /usr/local/Cellar/gcc-arm-none-eabi/20180627/bin/../lib/gcc/arm-none-eabi/7.3.1/../../../../arm-none-eabi/lib/thumb/v7e-m/fpv4-sp/hard/libc.a(lib_a-lseekr.o)
                                                  /usr/local/Cellar/gcc-arm-none-eabi/20180627/bin/../lib/gcc/arm-none-eabi/7.3.1/../../../../arm-none-eabi/lib/thumb/v7e-m/fpv4-sp/hard/libc.a(lib_a-closer.o)
                                                  /usr/local/Cellar/gcc-arm-none-eabi/20180627/bin/../lib/gcc/arm-none-eabi/7.3.1/../../../../arm-none-eabi/lib/thumb/v7e-m/fpv4-sp/hard/libc.a(lib_a-writer.o)
                                                  /usr/local/Cellar/gcc-arm-none-eabi/20180627/bin/../lib/gcc/arm-none-eabi/7.3.1/../../../../arm-none-eabi/lib/thumb/v7e-m/fpv4-sp/hard/libc.a(lib_a-sbrkr.o)
exception_table                                   .build/obj_massdrop_alt_default/protocol/arm_atsam/startup.o
exit                                              /usr/local/Cellar/gcc-arm-none-eabi/20180627/bin/../lib/gcc/arm-none-eabi/7.3.1/../../../../arm-none-eabi/lib/thumb/v7e-m/fpv4-sp/hard/libg.a(lib_a-exit.o)
                                                  /usr/local/Cellar/gcc-arm-none-eabi/20180627/bin/../lib/gcc/arm-none-eabi/7.3.1/../../../../arm-none-eabi/lib/thumb/v7e-m/fpv4-sp/hard/rdimon-crt0.o
fclose                                            /usr/local/Cellar/gcc-arm-none-eabi/20180627/bin/../lib/gcc/arm-none-eabi/7.3.1/../../../../arm-none-eabi/lib/thumb/v7e-m/fpv4-sp/hard/libc.a(lib_a-fclose.o)
fflush                                            /usr/local/Cellar/gcc-arm-none-eabi/20180627/bin/../lib/gcc/arm-none-eabi/7.3.1/../../../../arm-none-eabi/lib/thumb/v7e-m/fpv4-sp/hard/libc.a(lib_a-fflush.o)
flush                                             .build/obj_massdrop_alt_default/protocol/arm_atsam/led_matrix.o
fn_actions                                        .build/obj_massdrop_alt_default/quantum/keymap_common.o
free                                              /usr/local/Cellar/gcc-arm-none-eabi/20180627/bin/../lib/gcc/arm-none-eabi/7.3.1/../../../../arm-none-eabi/lib/thumb/v7e-m/fpv4-sp/hard/libg.a(lib_a-__call_atexit.o)
g_last_hit_tracker                                .build/obj_massdrop_alt_default/quantum/rgb_matrix.o
g_led_config                                      .build/obj_massdrop_alt_default/config_led.o
                                                  .build/obj_massdrop_alt_default/quantum/rgb_matrix.o
g_rgb_counters                                    .build/obj_massdrop_alt_default/quantum/rgb_matrix.o
g_suspend_state                                   .build/obj_massdrop_alt_default/quantum/rgb_matrix.o
g_usb_state                                       .build/obj_massdrop_alt_default/protocol/arm_atsam/main_arm_atsam.o
gcr_actual                                        .build/obj_massdrop_alt_default/protocol/arm_atsam/led_matrix.o
                                                  .build/obj_massdrop_alt_default/protocol/arm_atsam/i2c_master.o
gcr_actual_last                                   .build/obj_massdrop_alt_default/protocol/arm_atsam/led_matrix.o
                                                  .build/obj_massdrop_alt_default/protocol/arm_atsam/i2c_master.o
gcr_compute                                       .build/obj_massdrop_alt_default/protocol/arm_atsam/led_matrix.o
                                                  .build/obj_massdrop_alt_default/protocol/arm_atsam/main_arm_atsam.o
gcr_desired                                       .build/obj_massdrop_alt_default/protocol/arm_atsam/led_matrix.o
                                                  .build/obj_massdrop_alt_default/protocol/arm_atsam/i2c_master.o
get_event_keycode                                 .build/obj_massdrop_alt_default/quantum/quantum.o
get_first_key                                     .build/obj_massdrop_alt_default/common/report.o
get_macro_mods                                    .build/obj_massdrop_alt_default/common/action_util.o
get_mods                                          .build/obj_massdrop_alt_default/common/action_util.o
                                                  .build/obj_massdrop_alt_default/quantum/quantum.o
                                                  .build/obj_massdrop_alt_default/keyboards/massdrop/alt/keymaps/default/keymap.o
get_oneshot_layer                                 .build/obj_massdrop_alt_default/common/action_util.o
                                                  .build/obj_massdrop_alt_default/common/action.o
get_oneshot_layer_state                           .build/obj_massdrop_alt_default/common/action_util.o
                                                  .build/obj_massdrop_alt_default/common/action.o
get_oneshot_locked_mods                           .build/obj_massdrop_alt_default/common/action_util.o
get_oneshot_mods                                  .build/obj_massdrop_alt_default/common/action_util.o
                                                  .build/obj_massdrop_alt_default/common/action.o
get_record_keycode                                .build/obj_massdrop_alt_default/quantum/quantum.o
get_tapping_term                                  .build/obj_massdrop_alt_default/common/action_tapping.o
get_weak_mods                                     .build/obj_massdrop_alt_default/common/action_util.o
has_anykey                                        .build/obj_massdrop_alt_default/common/report.o
                                                  .build/obj_massdrop_alt_default/common/action_util.o
has_anymod                                        .build/obj_massdrop_alt_default/common/action_util.o
has_oneshot_mods_timed_out                        .build/obj_massdrop_alt_default/common/action_util.o
hex_to_keycode                                    .build/obj_massdrop_alt_default/quantum/quantum.o
host_consumer_send                                .build/obj_massdrop_alt_default/common/host.o
                                                  .build/obj_massdrop_alt_default/common/action.o
host_get_driver                                   .build/obj_massdrop_alt_default/common/host.o
host_keyboard_leds                                .build/obj_massdrop_alt_default/common/host.o
                                                  .build/obj_massdrop_alt_default/common/action.o
                                                  .build/obj_massdrop_alt_default/common/keyboard.o
host_keyboard_send                                .build/obj_massdrop_alt_default/common/host.o
                                                  .build/obj_massdrop_alt_default/common/action_util.o
host_last_consumer_report                         .build/obj_massdrop_alt_default/common/host.o
host_last_system_report                           .build/obj_massdrop_alt_default/common/host.o
host_mouse_send                                   .build/obj_massdrop_alt_default/common/host.o
host_set_driver                                   .build/obj_massdrop_alt_default/common/host.o
                                                  .build/obj_massdrop_alt_default/protocol/arm_atsam/main_arm_atsam.o
host_system_send                                  .build/obj_massdrop_alt_default/common/host.o
                                                  .build/obj_massdrop_alt_default/common/action.o
hsv_to_rgb                                        .build/obj_massdrop_alt_default/quantum/color.o
                                                  .build/obj_massdrop_alt_default/quantum/rgb_matrix.o
i2c0_buf                                          .build/obj_massdrop_alt_default/protocol/arm_atsam/usb/usb2422.o
i2c0_init                                         .build/obj_massdrop_alt_default/protocol/arm_atsam/i2c_master.o
                                                  .build/obj_massdrop_alt_default/protocol/arm_atsam/usb/usb2422.o
i2c0_start                                        .build/obj_massdrop_alt_default/protocol/arm_atsam/i2c_master.o
i2c0_stop                                         .build/obj_massdrop_alt_default/protocol/arm_atsam/i2c_master.o
i2c0_transmit                                     .build/obj_massdrop_alt_default/protocol/arm_atsam/i2c_master.o
                                                  .build/obj_massdrop_alt_default/protocol/arm_atsam/usb/usb2422.o
i2c1_init                                         .build/obj_massdrop_alt_default/protocol/arm_atsam/i2c_master.o
                                                  .build/obj_massdrop_alt_default/protocol/arm_atsam/main_arm_atsam.o
i2c1_start                                        .build/obj_massdrop_alt_default/protocol/arm_atsam/i2c_master.o
i2c1_stop                                         .build/obj_massdrop_alt_default/protocol/arm_atsam/i2c_master.o
                                                  .build/obj_massdrop_alt_default/protocol/arm_atsam/led_matrix.o
i2c1_transmit                                     .build/obj_massdrop_alt_default/protocol/arm_atsam/i2c_master.o
i2c_led_begin_dma                                 .build/obj_massdrop_alt_default/protocol/arm_atsam/i2c_master.o
i2c_led_desc_defaults                             .build/obj_massdrop_alt_default/protocol/arm_atsam/i2c_master.o
i2c_led_prepare_send_dma                          .build/obj_massdrop_alt_default/protocol/arm_atsam/i2c_master.o
i2c_led_q_add                                     .build/obj_massdrop_alt_default/protocol/arm_atsam/i2c_master.o
                                                  .build/obj_massdrop_alt_default/protocol/arm_atsam/main_arm_atsam.o
                                                  .build/obj_massdrop_alt_default/protocol/arm_atsam/led_matrix.o
i2c_led_q_available                               .build/obj_massdrop_alt_default/protocol/arm_atsam/i2c_master.o
i2c_led_q_init                                    .build/obj_massdrop_alt_default/protocol/arm_atsam/i2c_master.o
                                                  .build/obj_massdrop_alt_default/protocol/arm_atsam/main_arm_atsam.o
i2c_led_q_isempty                                 .build/obj_massdrop_alt_default/protocol/arm_atsam/i2c_master.o
i2c_led_q_request_room                            .build/obj_massdrop_alt_default/protocol/arm_atsam/i2c_master.o
                                                  .build/obj_massdrop_alt_default/protocol/arm_atsam/main_arm_atsam.o
                                                  .build/obj_massdrop_alt_default/protocol/arm_atsam/led_matrix.o
i2c_led_q_run                                     .build/obj_massdrop_alt_default/protocol/arm_atsam/i2c_master.o
                                                  .build/obj_massdrop_alt_default/protocol/arm_atsam/led_matrix.o
i2c_led_q_running                                 .build/obj_massdrop_alt_default/protocol/arm_atsam/i2c_master.o
                                                  .build/obj_massdrop_alt_default/protocol/arm_atsam/led_matrix.o
i2c_led_q_s_advance                               .build/obj_massdrop_alt_default/protocol/arm_atsam/i2c_master.o
i2c_led_q_size                                    .build/obj_massdrop_alt_default/protocol/arm_atsam/i2c_master.o
i2c_led_select_page                               .build/obj_massdrop_alt_default/protocol/arm_atsam/i2c_master.o
i2c_led_select_page_dma                           .build/obj_massdrop_alt_default/protocol/arm_atsam/i2c_master.o
i2c_led_send_CRWL                                 .build/obj_massdrop_alt_default/protocol/arm_atsam/i2c_master.o
i2c_led_send_CRWL_dma                             .build/obj_massdrop_alt_default/protocol/arm_atsam/i2c_master.o
i2c_led_send_GCR                                  .build/obj_massdrop_alt_default/protocol/arm_atsam/i2c_master.o
i2c_led_send_GCR_dma                              .build/obj_massdrop_alt_default/protocol/arm_atsam/i2c_master.o
i2c_led_send_mode_op_gcr                          .build/obj_massdrop_alt_default/protocol/arm_atsam/i2c_master.o
i2c_led_send_onoff                                .build/obj_massdrop_alt_default/protocol/arm_atsam/i2c_master.o
i2c_led_send_onoff_dma                            .build/obj_massdrop_alt_default/protocol/arm_atsam/i2c_master.o
i2c_led_send_pur_pdr                              .build/obj_massdrop_alt_default/protocol/arm_atsam/i2c_master.o
i2c_led_send_pwm                                  .build/obj_massdrop_alt_default/protocol/arm_atsam/i2c_master.o
i2c_led_send_pwm_dma                              .build/obj_massdrop_alt_default/protocol/arm_atsam/i2c_master.o
inbuf                                             .build/obj_massdrop_alt_default/protocol/arm_atsam/usb/udi_cdc.o
init                                              .build/obj_massdrop_alt_default/protocol/arm_atsam/led_matrix.o
initialise_monitor_handles                        /usr/local/Cellar/gcc-arm-none-eabi/20180627/bin/../lib/gcc/arm-none-eabi/7.3.1/../../../../arm-none-eabi/lib/thumb/v7e-m/fpv4-sp/hard/librdimon.a(rdimon-syscalls.o)
                                                  /usr/local/Cellar/gcc-arm-none-eabi/20180627/bin/../lib/gcc/arm-none-eabi/7.3.1/../../../../arm-none-eabi/lib/thumb/v7e-m/fpv4-sp/hard/rdimon-crt0.o
is_keyboard_master                                .build/obj_massdrop_alt_default/common/keyboard.o
is_oneshot_layer_active                           .build/obj_massdrop_alt_default/common/action_util.o
                                                  .build/obj_massdrop_alt_default/common/action.o
is_tap_action                                     .build/obj_massdrop_alt_default/common/action.o
is_tap_key                                        .build/obj_massdrop_alt_default/common/action.o
                                                  .build/obj_massdrop_alt_default/common/action_tapping.o
issi3733_prepare_arrays                           .build/obj_massdrop_alt_default/protocol/arm_atsam/led_matrix.o
issidrv                                           .build/obj_massdrop_alt_default/protocol/arm_atsam/led_matrix.o
                                                  .build/obj_massdrop_alt_default/protocol/arm_atsam/i2c_master.o
k_rgb_matrix_center                               .build/obj_massdrop_alt_default/quantum/rgb_matrix.o
keyboard_init                                     .build/obj_massdrop_alt_default/common/keyboard.o
                                                  .build/obj_massdrop_alt_default/protocol/arm_atsam/main_arm_atsam.o
keyboard_leds                                     .build/obj_massdrop_alt_default/protocol/arm_atsam/main_arm_atsam.o
                                                  .build/obj_massdrop_alt_default/protocol/arm_atsam/led_matrix.o
keyboard_post_init_kb                             .build/obj_massdrop_alt_default/common/keyboard.o
keyboard_post_init_user                           .build/obj_massdrop_alt_default/common/keyboard.o
keyboard_pre_init_kb                              .build/obj_massdrop_alt_default/common/keyboard.o
keyboard_pre_init_user                            .build/obj_massdrop_alt_default/common/keyboard.o
keyboard_protocol                                 .build/obj_massdrop_alt_default/protocol/arm_atsam/usb/main_usb.o
                                                  .build/obj_massdrop_alt_default/common/report.o
keyboard_report                                   .build/obj_massdrop_alt_default/common/action_util.o
keyboard_set_leds                                 .build/obj_massdrop_alt_default/common/keyboard.o
keyboard_setup                                    .build/obj_massdrop_alt_default/common/keyboard.o
                                                  .build/obj_massdrop_alt_default/protocol/arm_atsam/main_arm_atsam.o
keyboard_task                                     .build/obj_massdrop_alt_default/common/keyboard.o
                                                  .build/obj_massdrop_alt_default/protocol/arm_atsam/main_arm_atsam.o
keycode_config                                    .build/obj_massdrop_alt_default/quantum/keycode_config.o
                                                  .build/obj_massdrop_alt_default/quantum/keymap_common.o
keymap_config                                     .build/obj_massdrop_alt_default/common/magic.o
                                                  .build/obj_massdrop_alt_default/keyboards/massdrop/alt/keymaps/default/keymap.o
                                                  .build/obj_massdrop_alt_default/protocol/arm_atsam/main_arm_atsam.o
                                                  .build/obj_massdrop_alt_default/common/report.o
                                                  .build/obj_massdrop_alt_default/quantum/keycode_config.o
                                                  .build/obj_massdrop_alt_default/quantum/quantum.o
keymap_function_id_to_action                      .build/obj_massdrop_alt_default/quantum/keymap_common.o
keymap_key_to_keycode                             .build/obj_massdrop_alt_default/quantum/keymap_common.o
                                                  .build/obj_massdrop_alt_default/quantum/quantum.o
keymaps                                           .build/obj_massdrop_alt_default/keyboards/massdrop/alt/keymaps/default/keymap.o
                                                  .build/obj_massdrop_alt_default/quantum/keymap_common.o
layer_and                                         .build/obj_massdrop_alt_default/common/action_layer.o
                                                  .build/obj_massdrop_alt_default/common/action.o
layer_clear                                       .build/obj_massdrop_alt_default/common/action_layer.o
                                                  .build/obj_massdrop_alt_default/common/action.o
layer_debug                                       .build/obj_massdrop_alt_default/common/action_layer.o
                                                  .build/obj_massdrop_alt_default/common/action.o
layer_invert                                      .build/obj_massdrop_alt_default/common/action_layer.o
                                                  .build/obj_massdrop_alt_default/common/action.o
layer_move                                        .build/obj_massdrop_alt_default/common/action_layer.o
                                                  .build/obj_massdrop_alt_default/common/action.o
layer_off                                         .build/obj_massdrop_alt_default/common/action_layer.o
                                                  .build/obj_massdrop_alt_default/common/action_util.o
                                                  .build/obj_massdrop_alt_default/common/action.o
layer_on                                          .build/obj_massdrop_alt_default/common/action_layer.o
                                                  .build/obj_massdrop_alt_default/common/action_util.o
                                                  .build/obj_massdrop_alt_default/common/action.o
layer_or                                          .build/obj_massdrop_alt_default/common/action_layer.o
                                                  .build/obj_massdrop_alt_default/common/action.o
layer_state                                       .build/obj_massdrop_alt_default/common/action_layer.o
                                                  .build/obj_massdrop_alt_default/quantum/quantum.o
layer_state_cmp                                   .build/obj_massdrop_alt_default/common/action_layer.o
layer_state_is                                    .build/obj_massdrop_alt_default/common/action_layer.o
layer_state_set                                   .build/obj_massdrop_alt_default/common/action_layer.o
                                                  .build/obj_massdrop_alt_default/common/action.o
                                                  .build/obj_massdrop_alt_default/quantum/quantum.o
layer_state_set_kb                                .build/obj_massdrop_alt_default/common/action_layer.o
layer_state_set_user                              .build/obj_massdrop_alt_default/common/action_layer.o
layer_switch_get_action                           .build/obj_massdrop_alt_default/common/action_layer.o
                                                  .build/obj_massdrop_alt_default/common/action_tapping.o
                                                  .build/obj_massdrop_alt_default/common/action.o
layer_switch_get_layer                            .build/obj_massdrop_alt_default/common/action_layer.o
                                                  .build/obj_massdrop_alt_default/quantum/quantum.o
layer_xor                                         .build/obj_massdrop_alt_default/common/action_layer.o
                                                  .build/obj_massdrop_alt_default/common/action.o
led_buffer                                        .build/obj_massdrop_alt_default/protocol/arm_atsam/led_matrix.o
led_init_ports                                    .build/obj_massdrop_alt_default/quantum/quantum.o
led_map                                           .build/obj_massdrop_alt_default/protocol/arm_atsam/led_matrix.o
led_matrix_indicators                             .build/obj_massdrop_alt_default/protocol/arm_atsam/led_matrix.o
                                                  .build/obj_massdrop_alt_default/config_led.o
led_matrix_prepare                                .build/obj_massdrop_alt_default/protocol/arm_atsam/led_matrix.o
led_set                                           .build/obj_massdrop_alt_default/quantum/quantum.o
                                                  .build/obj_massdrop_alt_default/common/action.o
                                                  .build/obj_massdrop_alt_default/common/keyboard.o
led_set_all                                       .build/obj_massdrop_alt_default/protocol/arm_atsam/led_matrix.o
led_set_kb                                        .build/obj_massdrop_alt_default/quantum/quantum.o
led_set_one                                       .build/obj_massdrop_alt_default/protocol/arm_atsam/led_matrix.o
led_set_user                                      .build/obj_massdrop_alt_default/quantum/quantum.o
led_states                                        .build/obj_massdrop_alt_default/protocol/arm_atsam/main_arm_atsam.o
magic                                             .build/obj_massdrop_alt_default/common/magic.o
                                                  .build/obj_massdrop_alt_default/common/keyboard.o
main                                              .build/obj_massdrop_alt_default/protocol/arm_atsam/main_arm_atsam.o
                                                  .build/obj_massdrop_alt_default/protocol/arm_atsam/startup.o
                                                  /usr/local/Cellar/gcc-arm-none-eabi/20180627/bin/../lib/gcc/arm-none-eabi/7.3.1/../../../../arm-none-eabi/lib/thumb/v7e-m/fpv4-sp/hard/rdimon-crt0.o
main_b_exk_enable                                 .build/obj_massdrop_alt_default/protocol/arm_atsam/usb/main_usb.o
                                                  .build/obj_massdrop_alt_default/protocol/arm_atsam/usb/udi_hid_kbd.o
main_b_kbd_enable                                 .build/obj_massdrop_alt_default/protocol/arm_atsam/usb/main_usb.o
                                                  .build/obj_massdrop_alt_default/protocol/arm_atsam/usb/udi_hid_kbd.o
main_b_nkro_enable                                .build/obj_massdrop_alt_default/protocol/arm_atsam/usb/main_usb.o
                                                  .build/obj_massdrop_alt_default/protocol/arm_atsam/usb/udi_hid_kbd.o
main_exk_disable                                  .build/obj_massdrop_alt_default/protocol/arm_atsam/usb/main_usb.o
                                                  .build/obj_massdrop_alt_default/protocol/arm_atsam/usb/udi_hid_kbd.o
main_exk_enable                                   .build/obj_massdrop_alt_default/protocol/arm_atsam/usb/main_usb.o
                                                  .build/obj_massdrop_alt_default/protocol/arm_atsam/usb/udi_hid_kbd.o
main_kbd_disable                                  .build/obj_massdrop_alt_default/protocol/arm_atsam/usb/main_usb.o
                                                  .build/obj_massdrop_alt_default/protocol/arm_atsam/usb/udi_hid_kbd.o
main_kbd_enable                                   .build/obj_massdrop_alt_default/protocol/arm_atsam/usb/main_usb.o
                                                  .build/obj_massdrop_alt_default/protocol/arm_atsam/usb/udi_hid_kbd.o
main_nkro_disable                                 .build/obj_massdrop_alt_default/protocol/arm_atsam/usb/main_usb.o
                                                  .build/obj_massdrop_alt_default/protocol/arm_atsam/usb/udi_hid_kbd.o
main_nkro_enable                                  .build/obj_massdrop_alt_default/protocol/arm_atsam/usb/main_usb.o
                                                  .build/obj_massdrop_alt_default/protocol/arm_atsam/usb/udi_hid_kbd.o
main_remotewakeup_disable                         .build/obj_massdrop_alt_default/protocol/arm_atsam/usb/main_usb.o
                                                  .build/obj_massdrop_alt_default/protocol/arm_atsam/usb/udc.o
main_remotewakeup_enable                          .build/obj_massdrop_alt_default/protocol/arm_atsam/usb/main_usb.o
                                                  .build/obj_massdrop_alt_default/protocol/arm_atsam/usb/udc.o
main_resume_action                                .build/obj_massdrop_alt_default/protocol/arm_atsam/usb/main_usb.o
                                                  .build/obj_massdrop_alt_default/protocol/arm_atsam/usb/usb_device_udd.o
main_sof_action                                   .build/obj_massdrop_alt_default/protocol/arm_atsam/usb/main_usb.o
                                                  .build/obj_massdrop_alt_default/protocol/arm_atsam/usb/usb_device_udd.o
main_subtask_power_check                          .build/obj_massdrop_alt_default/protocol/arm_atsam/main_arm_atsam.o
main_subtask_usb_extra_device                     .build/obj_massdrop_alt_default/protocol/arm_atsam/main_arm_atsam.o
main_subtask_usb_state                            .build/obj_massdrop_alt_default/protocol/arm_atsam/main_arm_atsam.o
main_subtasks                                     .build/obj_massdrop_alt_default/protocol/arm_atsam/main_arm_atsam.o
main_suspend_action                               .build/obj_massdrop_alt_default/protocol/arm_atsam/usb/main_usb.o
                                                  .build/obj_massdrop_alt_default/protocol/arm_atsam/usb/usb_device_udd.o
malloc                                            /usr/local/Cellar/gcc-arm-none-eabi/20180627/bin/../lib/gcc/arm-none-eabi/7.3.1/../../../../arm-none-eabi/lib/thumb/v7e-m/fpv4-sp/hard/libg.a(lib_a-__atexit.o)
matrix_get_row                                    .build/obj_massdrop_alt_default/matrix.o
                                                  .build/obj_massdrop_alt_default/common/arm_atsam/suspend.o
                                                  .build/obj_massdrop_alt_default/common/keyboard.o
                                                  .build/obj_massdrop_alt_default/quantum/quantum.o
matrix_init                                       .build/obj_massdrop_alt_default/matrix.o
                                                  .build/obj_massdrop_alt_default/protocol/arm_atsam/main_arm_atsam.o
                                                  .build/obj_massdrop_alt_default/common/keyboard.o
matrix_init_kb                                    .build/obj_massdrop_alt_default/matrix.o
                                                  .build/obj_massdrop_alt_default/quantum/quantum.o
matrix_init_quantum                               .build/obj_massdrop_alt_default/quantum/quantum.o
                                                  .build/obj_massdrop_alt_default/matrix.o
matrix_init_user                                  .build/obj_massdrop_alt_default/keyboards/massdrop/alt/keymaps/default/keymap.o
                                                  .build/obj_massdrop_alt_default/matrix.o
matrix_power_down                                 .build/obj_massdrop_alt_default/common/arm_atsam/suspend.o
matrix_power_up                                   .build/obj_massdrop_alt_default/common/arm_atsam/suspend.o
matrix_print                                      .build/obj_massdrop_alt_default/matrix.o
                                                  .build/obj_massdrop_alt_default/common/keyboard.o
matrix_scan                                       .build/obj_massdrop_alt_default/matrix.o
                                                  .build/obj_massdrop_alt_default/common/arm_atsam/suspend.o
                                                  .build/obj_massdrop_alt_default/common/keyboard.o
                                                  .build/obj_massdrop_alt_default/quantum/quantum.o
matrix_scan_kb                                    .build/obj_massdrop_alt_default/matrix.o
                                                  .build/obj_massdrop_alt_default/quantum/quantum.o
matrix_scan_quantum                               .build/obj_massdrop_alt_default/quantum/quantum.o
                                                  .build/obj_massdrop_alt_default/matrix.o
matrix_scan_user                                  .build/obj_massdrop_alt_default/keyboards/massdrop/alt/keymaps/default/keymap.o
                                                  .build/obj_massdrop_alt_default/matrix.o
matrix_setup                                      .build/obj_massdrop_alt_default/common/keyboard.o
mdebounced                                        .build/obj_massdrop_alt_default/matrix.o
mdebouncing                                       .build/obj_massdrop_alt_default/matrix.o
memcpy                                            /usr/local/Cellar/gcc-arm-none-eabi/20180627/bin/../lib/gcc/arm-none-eabi/7.3.1/../../../../arm-none-eabi/lib/thumb/v7e-m/fpv4-sp/hard/libg.a(lib_a-memcpy.o)
                                                  .build/obj_massdrop_alt_default/protocol/arm_atsam/usb/usb_util.o
                                                  .build/obj_massdrop_alt_default/protocol/arm_atsam/usb/usb_device_udd.o
                                                  .build/obj_massdrop_alt_default/protocol/arm_atsam/usb/usb2422.o
                                                  .build/obj_massdrop_alt_default/protocol/arm_atsam/i2c_master.o
                                                  .build/obj_massdrop_alt_default/quantum/rgb_matrix.o
memset                                            /usr/local/Cellar/gcc-arm-none-eabi/20180627/bin/../lib/gcc/arm-none-eabi/7.3.1/../../../../arm-none-eabi/lib/thumb/v7e-m/fpv4-sp/hard/libg.a(lib_a-memset.o)
                                                  /usr/local/Cellar/gcc-arm-none-eabi/20180627/bin/../lib/gcc/arm-none-eabi/7.3.1/../../../../arm-none-eabi/lib/thumb/v7e-m/fpv4-sp/hard/libc.a(lib_a-findfp.o)
                                                  /usr/local/Cellar/gcc-arm-none-eabi/20180627/bin/../lib/gcc/arm-none-eabi/7.3.1/../../../../arm-none-eabi/lib/thumb/v7e-m/fpv4-sp/hard/librdimon.a(rdimon-syscalls.o)
                                                  .build/obj_massdrop_alt_default/protocol/arm_atsam/usb/usb_util.o
                                                  .build/obj_massdrop_alt_default/protocol/arm_atsam/usb/usb.o
                                                  .build/obj_massdrop_alt_default/protocol/arm_atsam/usb/usb2422.o
                                                  .build/obj_massdrop_alt_default/protocol/arm_atsam/usb/udi_hid_kbd.o
                                                  .build/obj_massdrop_alt_default/protocol/arm_atsam/led_matrix.o
                                                  .build/obj_massdrop_alt_default/protocol/arm_atsam/i2c_master.o
                                                  .build/obj_massdrop_alt_default/protocol/arm_atsam/clks.o
                                                  .build/obj_massdrop_alt_default/common/report.o
                                                  /usr/local/Cellar/gcc-arm-none-eabi/20180627/bin/../lib/gcc/arm-none-eabi/7.3.1/../../../../arm-none-eabi/lib/thumb/v7e-m/fpv4-sp/hard/rdimon-crt0.o
mlast                                             .build/obj_massdrop_alt_default/matrix.o
mlatest                                           .build/obj_massdrop_alt_default/matrix.o
mod_config                                        .build/obj_massdrop_alt_default/quantum/keycode_config.o
                                                  .build/obj_massdrop_alt_default/quantum/keymap_common.o
ms_clk                                            .build/obj_massdrop_alt_default/protocol/arm_atsam/clks.o
                                                  .build/obj_massdrop_alt_default/common/arm_atsam/timer.o
oneshot_layer_changed_kb                          .build/obj_massdrop_alt_default/common/action_util.o
oneshot_layer_changed_user                        .build/obj_massdrop_alt_default/common/action_util.o
oneshot_locked_mods_changed_kb                    .build/obj_massdrop_alt_default/common/action_util.o
oneshot_locked_mods_changed_user                  .build/obj_massdrop_alt_default/common/action_util.o
oneshot_mods_changed_kb                           .build/obj_massdrop_alt_default/common/action_util.o
oneshot_mods_changed_user                         .build/obj_massdrop_alt_default/common/action_util.o
perform_space_cadet                               .build/obj_massdrop_alt_default/quantum/process_keycode/process_space_cadet.o
printbuf                                          .build/obj_massdrop_alt_default/protocol/arm_atsam/usb/udi_cdc.o
process_action                                    .build/obj_massdrop_alt_default/common/action.o
process_action_kb                                 .build/obj_massdrop_alt_default/quantum/quantum.o
process_record                                    .build/obj_massdrop_alt_default/common/action.o
                                                  .build/obj_massdrop_alt_default/common/action_tapping.o
process_record_kb                                 .build/obj_massdrop_alt_default/quantum/quantum.o
process_record_nocache                            .build/obj_massdrop_alt_default/common/action.o
process_record_quantum                            .build/obj_massdrop_alt_default/quantum/quantum.o
process_record_tap_hint                           .build/obj_massdrop_alt_default/common/action.o
                                                  .build/obj_massdrop_alt_default/common/action_tapping.o
process_record_user                               .build/obj_massdrop_alt_default/keyboards/massdrop/alt/keymaps/default/keymap.o
process_rgb_matrix                                .build/obj_massdrop_alt_default/quantum/rgb_matrix.o
                                                  .build/obj_massdrop_alt_default/quantum/quantum.o
process_space_cadet                               .build/obj_massdrop_alt_default/quantum/process_keycode/process_space_cadet.o
                                                  .build/obj_massdrop_alt_default/quantum/quantum.o
rand                                              /usr/local/Cellar/gcc-arm-none-eabi/20180627/bin/../lib/gcc/arm-none-eabi/7.3.1/../../../../arm-none-eabi/lib/thumb/v7e-m/fpv4-sp/hard/libg.a(lib_a-rand.o)
                                                  .build/obj_massdrop_alt_default/quantum/rgb_matrix.o
                                                  .build/obj_massdrop_alt_default/quantum/quantum.o
read_source_layers_cache                          .build/obj_massdrop_alt_default/common/action_layer.o
                                                  .build/obj_massdrop_alt_default/quantum/quantum.o
register_code                                     .build/obj_massdrop_alt_default/common/action.o
                                                  .build/obj_massdrop_alt_default/common/action_macro.o
                                                  .build/obj_massdrop_alt_default/quantum/quantum.o
register_code16                                   .build/obj_massdrop_alt_default/quantum/quantum.o
register_mods                                     .build/obj_massdrop_alt_default/common/action.o
                                                  .build/obj_massdrop_alt_default/quantum/process_keycode/process_space_cadet.o
reset_keyboard                                    .build/obj_massdrop_alt_default/quantum/quantum.o
                                                  .build/obj_massdrop_alt_default/keyboards/massdrop/alt/keymaps/default/keymap.o
reset_oneshot_layer                               .build/obj_massdrop_alt_default/common/action_util.o
rgb_matrix_config                                 .build/obj_massdrop_alt_default/quantum/rgb_matrix.o
                                                  .build/obj_massdrop_alt_default/protocol/arm_atsam/led_matrix.o
rgb_matrix_decrease_hue                           .build/obj_massdrop_alt_default/quantum/rgb_matrix.o
                                                  .build/obj_massdrop_alt_default/quantum/quantum.o
rgb_matrix_decrease_sat                           .build/obj_massdrop_alt_default/quantum/rgb_matrix.o
                                                  .build/obj_massdrop_alt_default/quantum/quantum.o
rgb_matrix_decrease_speed                         .build/obj_massdrop_alt_default/quantum/rgb_matrix.o
                                                  .build/obj_massdrop_alt_default/quantum/quantum.o
rgb_matrix_decrease_val                           .build/obj_massdrop_alt_default/quantum/rgb_matrix.o
                                                  .build/obj_massdrop_alt_default/quantum/quantum.o
rgb_matrix_disable                                .build/obj_massdrop_alt_default/quantum/rgb_matrix.o
rgb_matrix_disable_noeeprom                       .build/obj_massdrop_alt_default/quantum/rgb_matrix.o
                                                  .build/obj_massdrop_alt_default/keyboards/massdrop/alt/keymaps/default/keymap.o
rgb_matrix_driver                                 .build/obj_massdrop_alt_default/protocol/arm_atsam/led_matrix.o
                                                  .build/obj_massdrop_alt_default/quantum/rgb_matrix.o
rgb_matrix_enable                                 .build/obj_massdrop_alt_default/quantum/rgb_matrix.o
rgb_matrix_enable_noeeprom                        .build/obj_massdrop_alt_default/quantum/rgb_matrix.o
                                                  .build/obj_massdrop_alt_default/keyboards/massdrop/alt/keymaps/default/keymap.o
rgb_matrix_get_flags                              .build/obj_massdrop_alt_default/quantum/rgb_matrix.o
                                                  .build/obj_massdrop_alt_default/keyboards/massdrop/alt/keymaps/default/keymap.o
rgb_matrix_get_mode                               .build/obj_massdrop_alt_default/quantum/rgb_matrix.o
rgb_matrix_increase_hue                           .build/obj_massdrop_alt_default/quantum/rgb_matrix.o
                                                  .build/obj_massdrop_alt_default/quantum/quantum.o
rgb_matrix_increase_sat                           .build/obj_massdrop_alt_default/quantum/rgb_matrix.o
                                                  .build/obj_massdrop_alt_default/quantum/quantum.o
rgb_matrix_increase_speed                         .build/obj_massdrop_alt_default/quantum/rgb_matrix.o
                                                  .build/obj_massdrop_alt_default/quantum/quantum.o
rgb_matrix_increase_val                           .build/obj_massdrop_alt_default/quantum/rgb_matrix.o
                                                  .build/obj_massdrop_alt_default/quantum/quantum.o
rgb_matrix_indicators                             .build/obj_massdrop_alt_default/quantum/rgb_matrix.o
rgb_matrix_indicators_kb                          .build/obj_massdrop_alt_default/config_led.o
rgb_matrix_indicators_user                        .build/obj_massdrop_alt_default/quantum/rgb_matrix.o
rgb_matrix_init                                   .build/obj_massdrop_alt_default/quantum/rgb_matrix.o
                                                  .build/obj_massdrop_alt_default/quantum/quantum.o
rgb_matrix_map_row_column_to_led                  .build/obj_massdrop_alt_default/quantum/rgb_matrix.o
rgb_matrix_map_row_column_to_led_kb               .build/obj_massdrop_alt_default/quantum/rgb_matrix.o
rgb_matrix_mode                                   .build/obj_massdrop_alt_default/quantum/rgb_matrix.o
                                                  .build/obj_massdrop_alt_default/quantum/quantum.o
rgb_matrix_mode_noeeprom                          .build/obj_massdrop_alt_default/quantum/rgb_matrix.o
rgb_matrix_set_color                              .build/obj_massdrop_alt_default/quantum/rgb_matrix.o
rgb_matrix_set_color_all                          .build/obj_massdrop_alt_default/quantum/rgb_matrix.o
                                                  .build/obj_massdrop_alt_default/keyboards/massdrop/alt/keymaps/default/keymap.o
rgb_matrix_set_flags                              .build/obj_massdrop_alt_default/quantum/rgb_matrix.o
                                                  .build/obj_massdrop_alt_default/keyboards/massdrop/alt/keymaps/default/keymap.o
rgb_matrix_set_suspend_state                      .build/obj_massdrop_alt_default/quantum/rgb_matrix.o
rgb_matrix_sethsv                                 .build/obj_massdrop_alt_default/quantum/rgb_matrix.o
rgb_matrix_sethsv_noeeprom                        .build/obj_massdrop_alt_default/quantum/rgb_matrix.o
rgb_matrix_step                                   .build/obj_massdrop_alt_default/quantum/rgb_matrix.o
                                                  .build/obj_massdrop_alt_default/quantum/quantum.o
rgb_matrix_step_reverse                           .build/obj_massdrop_alt_default/quantum/rgb_matrix.o
                                                  .build/obj_massdrop_alt_default/quantum/quantum.o
rgb_matrix_task                                   .build/obj_massdrop_alt_default/quantum/rgb_matrix.o
                                                  .build/obj_massdrop_alt_default/quantum/quantum.o
rgb_matrix_test                                   .build/obj_massdrop_alt_default/quantum/rgb_matrix.o
rgb_matrix_toggle                                 .build/obj_massdrop_alt_default/quantum/rgb_matrix.o
                                                  .build/obj_massdrop_alt_default/quantum/quantum.o
rgb_matrix_update_pwm_buffers                     .build/obj_massdrop_alt_default/quantum/rgb_matrix.o
row_masks                                         .build/obj_massdrop_alt_default/matrix.o
row_pins                                          .build/obj_massdrop_alt_default/matrix.o
row_ports                                         .build/obj_massdrop_alt_default/matrix.o
send_byte                                         .build/obj_massdrop_alt_default/quantum/quantum.o
send_char                                         .build/obj_massdrop_alt_default/quantum/quantum.o
send_consumer                                     .build/obj_massdrop_alt_default/protocol/arm_atsam/main_arm_atsam.o
send_dword                                        .build/obj_massdrop_alt_default/quantum/quantum.o
send_keyboard                                     .build/obj_massdrop_alt_default/protocol/arm_atsam/main_arm_atsam.o
send_keyboard_report                              .build/obj_massdrop_alt_default/common/action_util.o
                                                  .build/obj_massdrop_alt_default/common/action_macro.o
                                                  .build/obj_massdrop_alt_default/common/action.o
                                                  .build/obj_massdrop_alt_default/quantum/quantum.o
send_mouse                                        .build/obj_massdrop_alt_default/protocol/arm_atsam/main_arm_atsam.o
send_nibble                                       .build/obj_massdrop_alt_default/quantum/quantum.o
send_string                                       .build/obj_massdrop_alt_default/quantum/quantum.o
send_string_P                                     .build/obj_massdrop_alt_default/quantum/quantum.o
send_string_with_delay                            .build/obj_massdrop_alt_default/quantum/quantum.o
send_string_with_delay_P                          .build/obj_massdrop_alt_default/quantum/quantum.o
send_system                                       .build/obj_massdrop_alt_default/protocol/arm_atsam/main_arm_atsam.o
send_word                                         .build/obj_massdrop_alt_default/quantum/quantum.o
sercom_apbbase                                    .build/obj_massdrop_alt_default/protocol/arm_atsam/clks.o
sercom_pchan                                      .build/obj_massdrop_alt_default/protocol/arm_atsam/clks.o
set_macro_mods                                    .build/obj_massdrop_alt_default/common/action_util.o
set_mods                                          .build/obj_massdrop_alt_default/common/action_util.o
set_oneshot_layer                                 .build/obj_massdrop_alt_default/common/action_util.o
                                                  .build/obj_massdrop_alt_default/common/action.o
set_oneshot_locked_mods                           .build/obj_massdrop_alt_default/common/action_util.o
set_oneshot_mods                                  .build/obj_massdrop_alt_default/common/action_util.o
                                                  .build/obj_massdrop_alt_default/common/action.o
set_single_persistent_default_layer               .build/obj_massdrop_alt_default/quantum/quantum.o
set_time                                          .build/obj_massdrop_alt_default/common/arm_atsam/timer.o
set_weak_mods                                     .build/obj_massdrop_alt_default/common/action_util.o
shutdown_user                                     .build/obj_massdrop_alt_default/quantum/quantum.o
source_layers_cache                               .build/obj_massdrop_alt_default/common/action_layer.o
sr_exp_data                                       .build/obj_massdrop_alt_default/protocol/arm_atsam/spi.o
                                                  .build/obj_massdrop_alt_default/protocol/arm_atsam/usb/usb2422.o
                                                  .build/obj_massdrop_alt_default/protocol/arm_atsam/led_matrix.o
                                                  .build/obj_massdrop_alt_default/protocol/arm_atsam/i2c_master.o
srand                                             /usr/local/Cellar/gcc-arm-none-eabi/20180627/bin/../lib/gcc/arm-none-eabi/7.3.1/../../../../arm-none-eabi/lib/thumb/v7e-m/fpv4-sp/hard/libg.a(lib_a-rand.o)
startup_user                                      .build/obj_massdrop_alt_default/quantum/quantum.o
store_or_get_action                               .build/obj_massdrop_alt_default/common/action_layer.o
                                                  .build/obj_massdrop_alt_default/common/action.o
strlen                                            /usr/local/Cellar/gcc-arm-none-eabi/20180627/bin/../lib/gcc/arm-none-eabi/7.3.1/../../../../arm-none-eabi/lib/thumb/v7e-m/fpv4-sp/hard/libc.a(lib_a-strlen.o)
                                                  /usr/local/Cellar/gcc-arm-none-eabi/20180627/bin/../lib/gcc/arm-none-eabi/7.3.1/../../../../arm-none-eabi/lib/thumb/v7e-m/fpv4-sp/hard/librdimon.a(rdimon-syscalls.o)
suspend_idle                                      .build/obj_massdrop_alt_default/common/arm_atsam/suspend.o
suspend_power_down                                .build/obj_massdrop_alt_default/common/arm_atsam/suspend.o
                                                  .build/obj_massdrop_alt_default/protocol/arm_atsam/main_arm_atsam.o
suspend_power_down_kb                             .build/obj_massdrop_alt_default/common/arm_atsam/suspend.o
suspend_power_down_user                           .build/obj_massdrop_alt_default/common/arm_atsam/suspend.o
suspend_wakeup_condition                          .build/obj_massdrop_alt_default/common/arm_atsam/suspend.o
                                                  .build/obj_massdrop_alt_default/protocol/arm_atsam/main_arm_atsam.o
suspend_wakeup_init                               .build/obj_massdrop_alt_default/common/arm_atsam/suspend.o
                                                  .build/obj_massdrop_alt_default/protocol/arm_atsam/main_arm_atsam.o
suspend_wakeup_init_kb                            .build/obj_massdrop_alt_default/common/arm_atsam/suspend.o
suspend_wakeup_init_user                          .build/obj_massdrop_alt_default/common/arm_atsam/suspend.o
system_clks                                       .build/obj_massdrop_alt_default/protocol/arm_atsam/clks.o
tap_code                                          .build/obj_massdrop_alt_default/common/action.o
                                                  .build/obj_massdrop_alt_default/quantum/process_keycode/process_space_cadet.o
                                                  .build/obj_massdrop_alt_default/quantum/quantum.o
tap_code16                                        .build/obj_massdrop_alt_default/quantum/quantum.o
tap_random_base64                                 .build/obj_massdrop_alt_default/quantum/quantum.o
timer_clear                                       .build/obj_massdrop_alt_default/common/arm_atsam/timer.o
timer_elapsed                                     .build/obj_massdrop_alt_default/common/arm_atsam/timer.o
                                                  .build/obj_massdrop_alt_default/quantum/process_keycode/process_space_cadet.o
                                                  .build/obj_massdrop_alt_default/quantum/debounce/sym_g.o
timer_elapsed32                                   .build/obj_massdrop_alt_default/common/arm_atsam/timer.o
                                                  .build/obj_massdrop_alt_default/quantum/rgb_matrix.o
                                                  .build/obj_massdrop_alt_default/keyboards/massdrop/alt/keymaps/default/keymap.o
timer_init                                        .build/obj_massdrop_alt_default/common/arm_atsam/timer.o
                                                  .build/obj_massdrop_alt_default/common/keyboard.o
timer_read                                        .build/obj_massdrop_alt_default/common/arm_atsam/timer.o
                                                  .build/obj_massdrop_alt_default/common/keyboard.o
                                                  .build/obj_massdrop_alt_default/quantum/process_keycode/process_space_cadet.o
                                                  .build/obj_massdrop_alt_default/quantum/debounce/sym_g.o
timer_read32                                      .build/obj_massdrop_alt_default/common/arm_atsam/timer.o
                                                  .build/obj_massdrop_alt_default/quantum/rgb_matrix.o
                                                  .build/obj_massdrop_alt_default/keyboards/massdrop/alt/keymaps/default/keymap.o
timer_read64                                      .build/obj_massdrop_alt_default/common/arm_atsam/timer.o
                                                  .build/obj_massdrop_alt_default/protocol/arm_atsam/usb/usb2422.o
                                                  .build/obj_massdrop_alt_default/protocol/arm_atsam/main_arm_atsam.o
                                                  .build/obj_massdrop_alt_default/protocol/arm_atsam/clks.o
                                                  .build/obj_massdrop_alt_default/matrix.o
tp_buttons                                        .build/obj_massdrop_alt_default/common/action.o
udc_config                                        .build/obj_massdrop_alt_default/protocol/arm_atsam/usb/udi_hid_kbd_desc.o
                                                  .build/obj_massdrop_alt_default/protocol/arm_atsam/usb/udc.o
udc_config_fshs                                   .build/obj_massdrop_alt_default/protocol/arm_atsam/usb/udi_hid_kbd_desc.o
udc_desc                                          .build/obj_massdrop_alt_default/protocol/arm_atsam/usb/udi_hid_kbd_desc.o
udc_device_desc                                   .build/obj_massdrop_alt_default/protocol/arm_atsam/usb/udi_hid_kbd_desc.o
udc_get_interface_desc                            .build/obj_massdrop_alt_default/protocol/arm_atsam/usb/udc.o
                                                  .build/obj_massdrop_alt_default/protocol/arm_atsam/usb/udi_hid.o
udc_process_setup                                 .build/obj_massdrop_alt_default/protocol/arm_atsam/usb/udc.o
                                                  .build/obj_massdrop_alt_default/protocol/arm_atsam/usb/usb_device_udd.o
udc_reset                                         .build/obj_massdrop_alt_default/protocol/arm_atsam/usb/udc.o
                                                  .build/obj_massdrop_alt_default/protocol/arm_atsam/usb/usb_device_udd.o
udc_sof_notify                                    .build/obj_massdrop_alt_default/protocol/arm_atsam/usb/udc.o
                                                  .build/obj_massdrop_alt_default/protocol/arm_atsam/usb/usb_device_udd.o
udc_start                                         .build/obj_massdrop_alt_default/protocol/arm_atsam/usb/udc.o
                                                  .build/obj_massdrop_alt_default/protocol/arm_atsam/main_arm_atsam.o
udc_stop                                          .build/obj_massdrop_alt_default/protocol/arm_atsam/usb/udc.o
udd_attach                                        .build/obj_massdrop_alt_default/protocol/arm_atsam/usb/usb_device_udd.o
udd_ctrl_buffer                                   .build/obj_massdrop_alt_default/protocol/arm_atsam/usb/usb_device_udd.o
udd_detach                                        .build/obj_massdrop_alt_default/protocol/arm_atsam/usb/usb_device_udd.o
udd_disable                                       .build/obj_massdrop_alt_default/protocol/arm_atsam/usb/usb_device_udd.o
                                                  .build/obj_massdrop_alt_default/protocol/arm_atsam/usb/udc.o
udd_enable                                        .build/obj_massdrop_alt_default/protocol/arm_atsam/usb/usb_device_udd.o
                                                  .build/obj_massdrop_alt_default/protocol/arm_atsam/usb/udc.o
udd_ep_abort                                      .build/obj_massdrop_alt_default/protocol/arm_atsam/usb/usb_device_udd.o
                                                  .build/obj_massdrop_alt_default/protocol/arm_atsam/usb/udc.o
udd_ep_alloc                                      .build/obj_massdrop_alt_default/protocol/arm_atsam/usb/usb_device_udd.o
                                                  .build/obj_massdrop_alt_default/protocol/arm_atsam/usb/udc.o
udd_ep_clear_halt                                 .build/obj_massdrop_alt_default/protocol/arm_atsam/usb/usb_device_udd.o
                                                  .build/obj_massdrop_alt_default/protocol/arm_atsam/usb/udc.o
udd_ep_free                                       .build/obj_massdrop_alt_default/protocol/arm_atsam/usb/usb_device_udd.o
                                                  .build/obj_massdrop_alt_default/protocol/arm_atsam/usb/udc.o
udd_ep_is_halted                                  .build/obj_massdrop_alt_default/protocol/arm_atsam/usb/usb_device_udd.o
                                                  .build/obj_massdrop_alt_default/protocol/arm_atsam/usb/udc.o
udd_ep_out_cache_buffer                           .build/obj_massdrop_alt_default/protocol/arm_atsam/usb/usb_device_udd.o
udd_ep_run                                        .build/obj_massdrop_alt_default/protocol/arm_atsam/usb/usb_device_udd.o
                                                  .build/obj_massdrop_alt_default/protocol/arm_atsam/usb/udi_hid_kbd.o
udd_ep_set_halt                                   .build/obj_massdrop_alt_default/protocol/arm_atsam/usb/usb_device_udd.o
                                                  .build/obj_massdrop_alt_default/protocol/arm_atsam/usb/udc.o
udd_ep_wait_stall_clear                           .build/obj_massdrop_alt_default/protocol/arm_atsam/usb/usb_device_udd.o
udd_g_ctrlreq                                     .build/obj_massdrop_alt_default/protocol/arm_atsam/usb/usb_device_udd.o
                                                  .build/obj_massdrop_alt_default/protocol/arm_atsam/usb/udi_hid_kbd.o
                                                  .build/obj_massdrop_alt_default/protocol/arm_atsam/usb/udi_hid.o
                                                  .build/obj_massdrop_alt_default/protocol/arm_atsam/usb/udc.o
udd_get_frame_number                              .build/obj_massdrop_alt_default/protocol/arm_atsam/usb/usb_device_udd.o
                                                  .build/obj_massdrop_alt_default/protocol/arm_atsam/usb/main_usb.o
udd_get_micro_frame_number                        .build/obj_massdrop_alt_default/protocol/arm_atsam/usb/usb_device_udd.o
udd_getaddress                                    .build/obj_massdrop_alt_default/protocol/arm_atsam/usb/usb_device_udd.o
                                                  .build/obj_massdrop_alt_default/protocol/arm_atsam/usb/udc.o
udd_is_high_speed                                 .build/obj_massdrop_alt_default/protocol/arm_atsam/usb/usb_device_udd.o
udd_send_remotewakeup                             .build/obj_massdrop_alt_default/protocol/arm_atsam/usb/usb_device_udd.o
                                                  .build/obj_massdrop_alt_default/protocol/arm_atsam/main_arm_atsam.o
udd_set_address                                   .build/obj_massdrop_alt_default/protocol/arm_atsam/usb/usb_device_udd.o
                                                  .build/obj_massdrop_alt_default/protocol/arm_atsam/usb/udc.o
udd_set_setup_payload                             .build/obj_massdrop_alt_default/protocol/arm_atsam/usb/usb_device_udd.o
                                                  .build/obj_massdrop_alt_default/protocol/arm_atsam/usb/udc.o
udi_api_hid_exk                                   .build/obj_massdrop_alt_default/protocol/arm_atsam/usb/udi_hid_kbd.o
                                                  .build/obj_massdrop_alt_default/protocol/arm_atsam/usb/udi_hid_kbd_desc.o
udi_api_hid_kbd                                   .build/obj_massdrop_alt_default/protocol/arm_atsam/usb/udi_hid_kbd.o
                                                  .build/obj_massdrop_alt_default/protocol/arm_atsam/usb/udi_hid_kbd_desc.o
udi_api_hid_nkro                                  .build/obj_massdrop_alt_default/protocol/arm_atsam/usb/udi_hid_kbd.o
                                                  .build/obj_massdrop_alt_default/protocol/arm_atsam/usb/udi_hid_kbd_desc.o
udi_apis                                          .build/obj_massdrop_alt_default/protocol/arm_atsam/usb/udi_hid_kbd_desc.o
udi_hid_exk_b_report_valid                        .build/obj_massdrop_alt_default/protocol/arm_atsam/usb/udi_hid_kbd.o
                                                  .build/obj_massdrop_alt_default/protocol/arm_atsam/main_arm_atsam.o
udi_hid_exk_disable                               .build/obj_massdrop_alt_default/protocol/arm_atsam/usb/udi_hid_kbd.o
udi_hid_exk_enable                                .build/obj_massdrop_alt_default/protocol/arm_atsam/usb/udi_hid_kbd.o
udi_hid_exk_getsetting                            .build/obj_massdrop_alt_default/protocol/arm_atsam/usb/udi_hid_kbd.o
udi_hid_exk_report                                .build/obj_massdrop_alt_default/protocol/arm_atsam/usb/udi_hid_kbd.o
                                                  .build/obj_massdrop_alt_default/protocol/arm_atsam/main_arm_atsam.o
udi_hid_exk_report_desc                           .build/obj_massdrop_alt_default/protocol/arm_atsam/usb/udi_hid_kbd.o
udi_hid_exk_report_set                            .build/obj_massdrop_alt_default/protocol/arm_atsam/usb/udi_hid_kbd.o
udi_hid_exk_send_report                           .build/obj_massdrop_alt_default/protocol/arm_atsam/usb/udi_hid_kbd.o
                                                  .build/obj_massdrop_alt_default/protocol/arm_atsam/main_arm_atsam.o
udi_hid_exk_setup                                 .build/obj_massdrop_alt_default/protocol/arm_atsam/usb/udi_hid_kbd.o
udi_hid_kbd_b_report_trans_ongoing                .build/obj_massdrop_alt_default/protocol/arm_atsam/usb/udi_hid_kbd.o
                                                  .build/obj_massdrop_alt_default/protocol/arm_atsam/main_arm_atsam.o
udi_hid_kbd_b_report_valid                        .build/obj_massdrop_alt_default/protocol/arm_atsam/usb/udi_hid_kbd.o
                                                  .build/obj_massdrop_alt_default/protocol/arm_atsam/main_arm_atsam.o
udi_hid_kbd_disable                               .build/obj_massdrop_alt_default/protocol/arm_atsam/usb/udi_hid_kbd.o
udi_hid_kbd_enable                                .build/obj_massdrop_alt_default/protocol/arm_atsam/usb/udi_hid_kbd.o
udi_hid_kbd_getsetting                            .build/obj_massdrop_alt_default/protocol/arm_atsam/usb/udi_hid_kbd.o
udi_hid_kbd_report                                .build/obj_massdrop_alt_default/protocol/arm_atsam/usb/udi_hid_kbd.o
                                                  .build/obj_massdrop_alt_default/protocol/arm_atsam/main_arm_atsam.o
udi_hid_kbd_report_desc                           .build/obj_massdrop_alt_default/protocol/arm_atsam/usb/udi_hid_kbd.o
udi_hid_kbd_report_set                            .build/obj_massdrop_alt_default/protocol/arm_atsam/usb/udi_hid_kbd.o
                                                  .build/obj_massdrop_alt_default/protocol/arm_atsam/main_arm_atsam.o
udi_hid_kbd_send_report                           .build/obj_massdrop_alt_default/protocol/arm_atsam/usb/udi_hid_kbd.o
                                                  .build/obj_massdrop_alt_default/protocol/arm_atsam/main_arm_atsam.o
udi_hid_kbd_setup                                 .build/obj_massdrop_alt_default/protocol/arm_atsam/usb/udi_hid_kbd.o
udi_hid_nkro_b_report_trans_ongoing               .build/obj_massdrop_alt_default/protocol/arm_atsam/usb/udi_hid_kbd.o
                                                  .build/obj_massdrop_alt_default/protocol/arm_atsam/main_arm_atsam.o
udi_hid_nkro_b_report_valid                       .build/obj_massdrop_alt_default/protocol/arm_atsam/usb/udi_hid_kbd.o
                                                  .build/obj_massdrop_alt_default/protocol/arm_atsam/main_arm_atsam.o
udi_hid_nkro_disable                              .build/obj_massdrop_alt_default/protocol/arm_atsam/usb/udi_hid_kbd.o
udi_hid_nkro_enable                               .build/obj_massdrop_alt_default/protocol/arm_atsam/usb/udi_hid_kbd.o
udi_hid_nkro_getsetting                           .build/obj_massdrop_alt_default/protocol/arm_atsam/usb/udi_hid_kbd.o
udi_hid_nkro_report                               .build/obj_massdrop_alt_default/protocol/arm_atsam/usb/udi_hid_kbd.o
                                                  .build/obj_massdrop_alt_default/protocol/arm_atsam/main_arm_atsam.o
udi_hid_nkro_report_desc                          .build/obj_massdrop_alt_default/protocol/arm_atsam/usb/udi_hid_kbd.o
udi_hid_nkro_report_set                           .build/obj_massdrop_alt_default/protocol/arm_atsam/usb/udi_hid_kbd.o
                                                  .build/obj_massdrop_alt_default/protocol/arm_atsam/main_arm_atsam.o
udi_hid_nkro_send_report                          .build/obj_massdrop_alt_default/protocol/arm_atsam/usb/udi_hid_kbd.o
                                                  .build/obj_massdrop_alt_default/protocol/arm_atsam/main_arm_atsam.o
udi_hid_nkro_setup                                .build/obj_massdrop_alt_default/protocol/arm_atsam/usb/udi_hid_kbd.o
udi_hid_setup                                     .build/obj_massdrop_alt_default/protocol/arm_atsam/usb/udi_hid.o
                                                  .build/obj_massdrop_alt_default/protocol/arm_atsam/usb/udi_hid_kbd.o
ui_init                                           .build/obj_massdrop_alt_default/protocol/arm_atsam/usb/ui.o
ui_kbd_led                                        .build/obj_massdrop_alt_default/protocol/arm_atsam/usb/ui.o
ui_powerdown                                      .build/obj_massdrop_alt_default/protocol/arm_atsam/usb/ui.o
                                                  .build/obj_massdrop_alt_default/protocol/arm_atsam/usb/main_usb.o
ui_process                                        .build/obj_massdrop_alt_default/protocol/arm_atsam/usb/ui.o
                                                  .build/obj_massdrop_alt_default/protocol/arm_atsam/usb/main_usb.o
ui_wakeup                                         .build/obj_massdrop_alt_default/protocol/arm_atsam/usb/ui.o
                                                  .build/obj_massdrop_alt_default/protocol/arm_atsam/usb/main_usb.o
ui_wakeup_disable                                 .build/obj_massdrop_alt_default/protocol/arm_atsam/usb/ui.o
                                                  .build/obj_massdrop_alt_default/protocol/arm_atsam/usb/main_usb.o
ui_wakeup_enable                                  .build/obj_massdrop_alt_default/protocol/arm_atsam/usb/ui.o
                                                  .build/obj_massdrop_alt_default/protocol/arm_atsam/usb/main_usb.o
unregister_code                                   .build/obj_massdrop_alt_default/common/action.o
                                                  .build/obj_massdrop_alt_default/common/action_macro.o
                                                  .build/obj_massdrop_alt_default/quantum/quantum.o
unregister_code16                                 .build/obj_massdrop_alt_default/quantum/quantum.o
unregister_mods                                   .build/obj_massdrop_alt_default/common/action.o
                                                  .build/obj_massdrop_alt_default/quantum/process_keycode/process_space_cadet.o
update_source_layers_cache                        .build/obj_massdrop_alt_default/common/action_layer.o
                                                  .build/obj_massdrop_alt_default/quantum/quantum.o
update_tri_layer                                  .build/obj_massdrop_alt_default/quantum/quantum.o
update_tri_layer_state                            .build/obj_massdrop_alt_default/quantum/quantum.o
usb_descriptor_table                              .build/obj_massdrop_alt_default/protocol/arm_atsam/usb/usb.o
usb_device                                        .build/obj_massdrop_alt_default/protocol/arm_atsam/usb/usb_device_udd.o
usb_device_disable_callback                       .build/obj_massdrop_alt_default/protocol/arm_atsam/usb/usb.o
                                                  .build/obj_massdrop_alt_default/protocol/arm_atsam/usb/usb_device_udd.o
usb_device_enable_callback                        .build/obj_massdrop_alt_default/protocol/arm_atsam/usb/usb.o
                                                  .build/obj_massdrop_alt_default/protocol/arm_atsam/usb/usb_device_udd.o
usb_device_endpoint_abort_job                     .build/obj_massdrop_alt_default/protocol/arm_atsam/usb/usb.o
                                                  .build/obj_massdrop_alt_default/protocol/arm_atsam/usb/usb_device_udd.o
usb_device_endpoint_clear_halt                    .build/obj_massdrop_alt_default/protocol/arm_atsam/usb/usb.o
                                                  .build/obj_massdrop_alt_default/protocol/arm_atsam/usb/usb_device_udd.o
usb_device_endpoint_disable_callback              .build/obj_massdrop_alt_default/protocol/arm_atsam/usb/usb.o
                                                  .build/obj_massdrop_alt_default/protocol/arm_atsam/usb/usb_device_udd.o
usb_device_endpoint_enable_callback               .build/obj_massdrop_alt_default/protocol/arm_atsam/usb/usb.o
                                                  .build/obj_massdrop_alt_default/protocol/arm_atsam/usb/usb_device_udd.o
usb_device_endpoint_get_config_defaults           .build/obj_massdrop_alt_default/protocol/arm_atsam/usb/usb.o
                                                  .build/obj_massdrop_alt_default/protocol/arm_atsam/usb/usb_device_udd.o
usb_device_endpoint_is_configured                 .build/obj_massdrop_alt_default/protocol/arm_atsam/usb/usb.o
                                                  .build/obj_massdrop_alt_default/protocol/arm_atsam/usb/usb_device_udd.o
usb_device_endpoint_is_halted                     .build/obj_massdrop_alt_default/protocol/arm_atsam/usb/usb.o
                                                  .build/obj_massdrop_alt_default/protocol/arm_atsam/usb/usb_device_udd.o
usb_device_endpoint_read_buffer_job               .build/obj_massdrop_alt_default/protocol/arm_atsam/usb/usb.o
                                                  .build/obj_massdrop_alt_default/protocol/arm_atsam/usb/usb_device_udd.o
usb_device_endpoint_register_callback             .build/obj_massdrop_alt_default/protocol/arm_atsam/usb/usb.o
                                                  .build/obj_massdrop_alt_default/protocol/arm_atsam/usb/usb_device_udd.o
usb_device_endpoint_set_config                    .build/obj_massdrop_alt_default/protocol/arm_atsam/usb/usb.o
                                                  .build/obj_massdrop_alt_default/protocol/arm_atsam/usb/usb_device_udd.o
usb_device_endpoint_set_halt                      .build/obj_massdrop_alt_default/protocol/arm_atsam/usb/usb.o
                                                  .build/obj_massdrop_alt_default/protocol/arm_atsam/usb/usb_device_udd.o
usb_device_endpoint_setup_buffer_job              .build/obj_massdrop_alt_default/protocol/arm_atsam/usb/usb.o
                                                  .build/obj_massdrop_alt_default/protocol/arm_atsam/usb/usb_device_udd.o
usb_device_endpoint_unregister_callback           .build/obj_massdrop_alt_default/protocol/arm_atsam/usb/usb.o
                                                  .build/obj_massdrop_alt_default/protocol/arm_atsam/usb/usb_device_udd.o
usb_device_endpoint_write_buffer_job              .build/obj_massdrop_alt_default/protocol/arm_atsam/usb/usb.o
                                                  .build/obj_massdrop_alt_default/protocol/arm_atsam/usb/usb_device_udd.o
usb_device_register_callback                      .build/obj_massdrop_alt_default/protocol/arm_atsam/usb/usb.o
                                                  .build/obj_massdrop_alt_default/protocol/arm_atsam/usb/usb_device_udd.o
usb_device_serial_name_size                       .build/obj_massdrop_alt_default/protocol/arm_atsam/usb/udc.o
usb_device_unregister_callback                    .build/obj_massdrop_alt_default/protocol/arm_atsam/usb/usb.o
usb_disable                                       .build/obj_massdrop_alt_default/protocol/arm_atsam/usb/usb.o
usb_enable                                        .build/obj_massdrop_alt_default/protocol/arm_atsam/usb/usb.o
                                                  .build/obj_massdrop_alt_default/protocol/arm_atsam/usb/usb_device_udd.o
usb_extra_manual                                  .build/obj_massdrop_alt_default/protocol/arm_atsam/usb/usb2422.o
                                                  .build/obj_massdrop_alt_default/protocol/arm_atsam/led_matrix.o
                                                  .build/obj_massdrop_alt_default/keyboards/massdrop/alt/keymaps/default/keymap.o
usb_extra_state                                   .build/obj_massdrop_alt_default/protocol/arm_atsam/usb/usb2422.o
                                                  .build/obj_massdrop_alt_default/protocol/arm_atsam/led_matrix.o
usb_gcr_auto                                      .build/obj_massdrop_alt_default/protocol/arm_atsam/usb/usb2422.o
                                                  .build/obj_massdrop_alt_default/protocol/arm_atsam/led_matrix.o
                                                  .build/obj_massdrop_alt_default/keyboards/massdrop/alt/keymaps/default/keymap.o
usb_get_config_defaults                           .build/obj_massdrop_alt_default/protocol/arm_atsam/usb/usb.o
                                                  .build/obj_massdrop_alt_default/protocol/arm_atsam/usb/usb_device_udd.o
usb_host_port                                     .build/obj_massdrop_alt_default/protocol/arm_atsam/usb/usb2422.o
usb_init                                          .build/obj_massdrop_alt_default/protocol/arm_atsam/usb/usb.o
                                                  .build/obj_massdrop_alt_default/protocol/arm_atsam/usb/usb_device_udd.o
usec_delay_mult                                   .build/obj_massdrop_alt_default/protocol/arm_atsam/clks.o
v_5v                                              .build/obj_massdrop_alt_default/protocol/arm_atsam/adc.o
                                                  .build/obj_massdrop_alt_default/protocol/arm_atsam/usb/usb2422.o
                                                  .build/obj_massdrop_alt_default/protocol/arm_atsam/main_arm_atsam.o
                                                  .build/obj_massdrop_alt_default/protocol/arm_atsam/led_matrix.o
v_5v_avg                                          .build/obj_massdrop_alt_default/protocol/arm_atsam/adc.o
                                                  .build/obj_massdrop_alt_default/protocol/arm_atsam/main_arm_atsam.o
                                                  .build/obj_massdrop_alt_default/protocol/arm_atsam/led_matrix.o
v_con_1                                           .build/obj_massdrop_alt_default/protocol/arm_atsam/adc.o
                                                  .build/obj_massdrop_alt_default/protocol/arm_atsam/usb/usb2422.o
v_con_1_boot                                      .build/obj_massdrop_alt_default/protocol/arm_atsam/adc.o
                                                  .build/obj_massdrop_alt_default/protocol/arm_atsam/usb/usb2422.o
v_con_2                                           .build/obj_massdrop_alt_default/protocol/arm_atsam/adc.o
                                                  .build/obj_massdrop_alt_default/protocol/arm_atsam/usb/usb2422.o
v_con_2_boot                                      .build/obj_massdrop_alt_default/protocol/arm_atsam/adc.o
                                                  .build/obj_massdrop_alt_default/protocol/arm_atsam/usb/usb2422.o
