   1              		.cpu cortex-m4
   2              		.eabi_attribute 20, 1
   3              		.eabi_attribute 21, 1
   4              		.eabi_attribute 23, 3
   5              		.eabi_attribute 24, 1
   6              		.eabi_attribute 25, 1
   7              		.eabi_attribute 26, 1
   8              		.eabi_attribute 30, 4
   9              		.eabi_attribute 34, 1
  10              		.eabi_attribute 18, 2
  11              		.file	"process_music.c"
  12              		.text
  13              	.Ltext0:
  14              		.cfi_sections	.debug_frame
  15              		.section	.text.music_all_notes_off,"ax",%progbits
  16              		.align	1
  17              		.global	music_all_notes_off
  18              		.syntax unified
  19              		.thumb
  20              		.thumb_func
  21              		.fpu softvfp
  23              	music_all_notes_off:
  24              	.LFB289:
  25              		.file 1 "quantum/process_keycode/process_music.c"
   1:quantum/process_keycode/process_music.c **** /* Copyright 2016 Jack Humbert
   2:quantum/process_keycode/process_music.c ****  *
   3:quantum/process_keycode/process_music.c ****  * This program is free software: you can redistribute it and/or modify
   4:quantum/process_keycode/process_music.c ****  * it under the terms of the GNU General Public License as published by
   5:quantum/process_keycode/process_music.c ****  * the Free Software Foundation, either version 2 of the License, or
   6:quantum/process_keycode/process_music.c ****  * (at your option) any later version.
   7:quantum/process_keycode/process_music.c ****  *
   8:quantum/process_keycode/process_music.c ****  * This program is distributed in the hope that it will be useful,
   9:quantum/process_keycode/process_music.c ****  * but WITHOUT ANY WARRANTY; without even the implied warranty of
  10:quantum/process_keycode/process_music.c ****  * MERCHANTABILITY or FITNESS FOR A PARTICULAR PURPOSE.  See the
  11:quantum/process_keycode/process_music.c ****  * GNU General Public License for more details.
  12:quantum/process_keycode/process_music.c ****  *
  13:quantum/process_keycode/process_music.c ****  * You should have received a copy of the GNU General Public License
  14:quantum/process_keycode/process_music.c ****  * along with this program.  If not, see <http://www.gnu.org/licenses/>.
  15:quantum/process_keycode/process_music.c ****  */
  16:quantum/process_keycode/process_music.c **** #include "process_music.h"
  17:quantum/process_keycode/process_music.c **** 
  18:quantum/process_keycode/process_music.c **** #ifdef AUDIO_ENABLE
  19:quantum/process_keycode/process_music.c **** #    include "process_audio.h"
  20:quantum/process_keycode/process_music.c **** #endif
  21:quantum/process_keycode/process_music.c **** #if defined(MIDI_ENABLE) && defined(MIDI_BASIC)
  22:quantum/process_keycode/process_music.c **** #    include "process_midi.h"
  23:quantum/process_keycode/process_music.c **** #endif
  24:quantum/process_keycode/process_music.c **** 
  25:quantum/process_keycode/process_music.c **** #if defined(AUDIO_ENABLE) || (defined(MIDI_ENABLE) && defined(MIDI_BASIC))
  26:quantum/process_keycode/process_music.c **** 
  27:quantum/process_keycode/process_music.c **** bool    music_activated     = false;
  28:quantum/process_keycode/process_music.c **** bool    midi_activated      = false;
  29:quantum/process_keycode/process_music.c **** uint8_t music_starting_note = 0x0C;
  30:quantum/process_keycode/process_music.c **** int     music_offset        = 7;
  31:quantum/process_keycode/process_music.c **** uint8_t music_mode          = MUSIC_MODE_MAJOR;
  32:quantum/process_keycode/process_music.c **** 
  33:quantum/process_keycode/process_music.c **** // music sequencer
  34:quantum/process_keycode/process_music.c **** static bool    music_sequence_recording = false;
  35:quantum/process_keycode/process_music.c **** static bool    music_sequence_recorded  = false;
  36:quantum/process_keycode/process_music.c **** static bool    music_sequence_playing   = false;
  37:quantum/process_keycode/process_music.c **** static uint8_t music_sequence[16]       = {0};
  38:quantum/process_keycode/process_music.c **** static uint8_t music_sequence_count     = 0;
  39:quantum/process_keycode/process_music.c **** static uint8_t music_sequence_position  = 0;
  40:quantum/process_keycode/process_music.c **** 
  41:quantum/process_keycode/process_music.c **** static uint16_t music_sequence_timer    = 0;
  42:quantum/process_keycode/process_music.c **** static uint16_t music_sequence_interval = 100;
  43:quantum/process_keycode/process_music.c **** 
  44:quantum/process_keycode/process_music.c **** #    ifdef AUDIO_ENABLE
  45:quantum/process_keycode/process_music.c **** #        ifndef MUSIC_ON_SONG
  46:quantum/process_keycode/process_music.c **** #            define MUSIC_ON_SONG SONG(MUSIC_ON_SOUND)
  47:quantum/process_keycode/process_music.c **** #        endif
  48:quantum/process_keycode/process_music.c **** #        ifndef MUSIC_OFF_SONG
  49:quantum/process_keycode/process_music.c **** #            define MUSIC_OFF_SONG SONG(MUSIC_OFF_SOUND)
  50:quantum/process_keycode/process_music.c **** #        endif
  51:quantum/process_keycode/process_music.c **** #        ifndef MIDI_ON_SONG
  52:quantum/process_keycode/process_music.c **** #            define MIDI_ON_SONG SONG(MUSIC_ON_SOUND)
  53:quantum/process_keycode/process_music.c **** #        endif
  54:quantum/process_keycode/process_music.c **** #        ifndef MIDI_OFF_SONG
  55:quantum/process_keycode/process_music.c **** #            define MIDI_OFF_SONG SONG(MUSIC_OFF_SOUND)
  56:quantum/process_keycode/process_music.c **** #        endif
  57:quantum/process_keycode/process_music.c **** #        ifndef CHROMATIC_SONG
  58:quantum/process_keycode/process_music.c **** #            define CHROMATIC_SONG SONG(CHROMATIC_SOUND)
  59:quantum/process_keycode/process_music.c **** #        endif
  60:quantum/process_keycode/process_music.c **** #        ifndef GUITAR_SONG
  61:quantum/process_keycode/process_music.c **** #            define GUITAR_SONG SONG(GUITAR_SOUND)
  62:quantum/process_keycode/process_music.c **** #        endif
  63:quantum/process_keycode/process_music.c **** #        ifndef VIOLIN_SONG
  64:quantum/process_keycode/process_music.c **** #            define VIOLIN_SONG SONG(VIOLIN_SOUND)
  65:quantum/process_keycode/process_music.c **** #        endif
  66:quantum/process_keycode/process_music.c **** #        ifndef MAJOR_SONG
  67:quantum/process_keycode/process_music.c **** #            define MAJOR_SONG SONG(MAJOR_SOUND)
  68:quantum/process_keycode/process_music.c **** #        endif
  69:quantum/process_keycode/process_music.c **** float music_mode_songs[NUMBER_OF_MODES][5][2] = {CHROMATIC_SONG, GUITAR_SONG, VIOLIN_SONG, MAJOR_SO
  70:quantum/process_keycode/process_music.c **** float music_on_song[][2]                      = MUSIC_ON_SONG;
  71:quantum/process_keycode/process_music.c **** float music_off_song[][2]                     = MUSIC_OFF_SONG;
  72:quantum/process_keycode/process_music.c **** float midi_on_song[][2]                       = MIDI_ON_SONG;
  73:quantum/process_keycode/process_music.c **** float midi_off_song[][2]                      = MIDI_OFF_SONG;
  74:quantum/process_keycode/process_music.c **** #    endif
  75:quantum/process_keycode/process_music.c **** 
  76:quantum/process_keycode/process_music.c **** static void music_noteon(uint8_t note) {
  77:quantum/process_keycode/process_music.c **** #    ifdef AUDIO_ENABLE
  78:quantum/process_keycode/process_music.c ****     if (music_activated) process_audio_noteon(note);
  79:quantum/process_keycode/process_music.c **** #    endif
  80:quantum/process_keycode/process_music.c **** #    if defined(MIDI_ENABLE) && defined(MIDI_BASIC)
  81:quantum/process_keycode/process_music.c ****     if (midi_activated) process_midi_basic_noteon(note);
  82:quantum/process_keycode/process_music.c **** #    endif
  83:quantum/process_keycode/process_music.c **** }
  84:quantum/process_keycode/process_music.c **** 
  85:quantum/process_keycode/process_music.c **** static void music_noteoff(uint8_t note) {
  86:quantum/process_keycode/process_music.c **** #    ifdef AUDIO_ENABLE
  87:quantum/process_keycode/process_music.c ****     if (music_activated) process_audio_noteoff(note);
  88:quantum/process_keycode/process_music.c **** #    endif
  89:quantum/process_keycode/process_music.c **** #    if defined(MIDI_ENABLE) && defined(MIDI_BASIC)
  90:quantum/process_keycode/process_music.c ****     if (midi_activated) process_midi_basic_noteoff(note);
  91:quantum/process_keycode/process_music.c **** #    endif
  92:quantum/process_keycode/process_music.c **** }
  93:quantum/process_keycode/process_music.c **** 
  94:quantum/process_keycode/process_music.c **** void music_all_notes_off(void) {
  26              		.loc 1 94 0
  27              		.cfi_startproc
  28              		@ args = 0, pretend = 0, frame = 0
  29              		@ frame_needed = 0, uses_anonymous_args = 0
  30              		@ link register save eliminated.
  95:quantum/process_keycode/process_music.c **** #    ifdef AUDIO_ENABLE
  96:quantum/process_keycode/process_music.c ****     if (music_activated) process_audio_all_notes_off();
  31              		.loc 1 96 0
  32 0000 024B     		ldr	r3, .L3
  33 0002 1B78     		ldrb	r3, [r3]	@ zero_extendqisi2
  34 0004 0BB1     		cbz	r3, .L1
  35              		.loc 1 96 0 is_stmt 0 discriminator 1
  36 0006 FFF7FEBF 		b	process_audio_all_notes_off
  37              	.LVL0:
  38              	.L1:
  97:quantum/process_keycode/process_music.c **** #    endif
  98:quantum/process_keycode/process_music.c **** #    if defined(MIDI_ENABLE) && defined(MIDI_BASIC)
  99:quantum/process_keycode/process_music.c ****     if (midi_activated) process_midi_all_notes_off();
 100:quantum/process_keycode/process_music.c **** #    endif
 101:quantum/process_keycode/process_music.c **** }
  39              		.loc 1 101 0 is_stmt 1
  40 000a 7047     		bx	lr
  41              	.L4:
  42              		.align	2
  43              	.L3:
  44 000c 00000000 		.word	.LANCHOR0
  45              		.cfi_endproc
  46              	.LFE289:
  48              		.section	.text.music_mask_user,"ax",%progbits
  49              		.align	1
  50              		.weak	music_mask_user
  51              		.syntax unified
  52              		.thumb
  53              		.thumb_func
  54              		.fpu softvfp
  56              	music_mask_user:
  57              	.LFB293:
 102:quantum/process_keycode/process_music.c **** 
 103:quantum/process_keycode/process_music.c **** bool process_music(uint16_t keycode, keyrecord_t *record) {
 104:quantum/process_keycode/process_music.c ****     if (keycode == MU_ON && record->event.pressed) {
 105:quantum/process_keycode/process_music.c ****         music_on();
 106:quantum/process_keycode/process_music.c ****         return false;
 107:quantum/process_keycode/process_music.c ****     }
 108:quantum/process_keycode/process_music.c **** 
 109:quantum/process_keycode/process_music.c ****     if (keycode == MU_OFF && record->event.pressed) {
 110:quantum/process_keycode/process_music.c ****         music_off();
 111:quantum/process_keycode/process_music.c ****         return false;
 112:quantum/process_keycode/process_music.c ****     }
 113:quantum/process_keycode/process_music.c **** 
 114:quantum/process_keycode/process_music.c ****     if (keycode == MU_TOG && record->event.pressed) {
 115:quantum/process_keycode/process_music.c ****         if (music_activated) {
 116:quantum/process_keycode/process_music.c ****             music_off();
 117:quantum/process_keycode/process_music.c ****         } else {
 118:quantum/process_keycode/process_music.c ****             music_on();
 119:quantum/process_keycode/process_music.c ****         }
 120:quantum/process_keycode/process_music.c ****         return false;
 121:quantum/process_keycode/process_music.c ****     }
 122:quantum/process_keycode/process_music.c **** 
 123:quantum/process_keycode/process_music.c ****     if (keycode == MI_ON && record->event.pressed) {
 124:quantum/process_keycode/process_music.c ****         midi_on();
 125:quantum/process_keycode/process_music.c ****         return false;
 126:quantum/process_keycode/process_music.c ****     }
 127:quantum/process_keycode/process_music.c **** 
 128:quantum/process_keycode/process_music.c ****     if (keycode == MI_OFF && record->event.pressed) {
 129:quantum/process_keycode/process_music.c ****         midi_off();
 130:quantum/process_keycode/process_music.c ****         return false;
 131:quantum/process_keycode/process_music.c ****     }
 132:quantum/process_keycode/process_music.c **** 
 133:quantum/process_keycode/process_music.c ****     if (keycode == MI_TOG && record->event.pressed) {
 134:quantum/process_keycode/process_music.c ****         if (midi_activated) {
 135:quantum/process_keycode/process_music.c ****             midi_off();
 136:quantum/process_keycode/process_music.c ****         } else {
 137:quantum/process_keycode/process_music.c ****             midi_on();
 138:quantum/process_keycode/process_music.c ****         }
 139:quantum/process_keycode/process_music.c ****         return false;
 140:quantum/process_keycode/process_music.c ****     }
 141:quantum/process_keycode/process_music.c **** 
 142:quantum/process_keycode/process_music.c ****     if (keycode == MU_MOD && record->event.pressed) {
 143:quantum/process_keycode/process_music.c ****         music_mode_cycle();
 144:quantum/process_keycode/process_music.c ****         return false;
 145:quantum/process_keycode/process_music.c ****     }
 146:quantum/process_keycode/process_music.c **** 
 147:quantum/process_keycode/process_music.c ****     if (music_activated || midi_activated) {
 148:quantum/process_keycode/process_music.c ****         if (record->event.pressed) {
 149:quantum/process_keycode/process_music.c ****             if (keycode == KC_LCTL) {  // Start recording
 150:quantum/process_keycode/process_music.c ****                 music_all_notes_off();
 151:quantum/process_keycode/process_music.c ****                 music_sequence_recording = true;
 152:quantum/process_keycode/process_music.c ****                 music_sequence_recorded  = false;
 153:quantum/process_keycode/process_music.c ****                 music_sequence_playing   = false;
 154:quantum/process_keycode/process_music.c ****                 music_sequence_count     = 0;
 155:quantum/process_keycode/process_music.c ****                 return false;
 156:quantum/process_keycode/process_music.c ****             }
 157:quantum/process_keycode/process_music.c **** 
 158:quantum/process_keycode/process_music.c ****             if (keycode == KC_LALT) {  // Stop recording/playing
 159:quantum/process_keycode/process_music.c ****                 music_all_notes_off();
 160:quantum/process_keycode/process_music.c ****                 if (music_sequence_recording) {  // was recording
 161:quantum/process_keycode/process_music.c ****                     music_sequence_recorded = true;
 162:quantum/process_keycode/process_music.c ****                 }
 163:quantum/process_keycode/process_music.c ****                 music_sequence_recording = false;
 164:quantum/process_keycode/process_music.c ****                 music_sequence_playing   = false;
 165:quantum/process_keycode/process_music.c ****                 return false;
 166:quantum/process_keycode/process_music.c ****             }
 167:quantum/process_keycode/process_music.c **** 
 168:quantum/process_keycode/process_music.c ****             if (keycode == KC_LGUI && music_sequence_recorded) {  // Start playing
 169:quantum/process_keycode/process_music.c ****                 music_all_notes_off();
 170:quantum/process_keycode/process_music.c ****                 music_sequence_recording = false;
 171:quantum/process_keycode/process_music.c ****                 music_sequence_playing   = true;
 172:quantum/process_keycode/process_music.c ****                 music_sequence_position  = 0;
 173:quantum/process_keycode/process_music.c ****                 music_sequence_timer     = 0;
 174:quantum/process_keycode/process_music.c ****                 return false;
 175:quantum/process_keycode/process_music.c ****             }
 176:quantum/process_keycode/process_music.c **** 
 177:quantum/process_keycode/process_music.c ****             if (keycode == KC_UP) {
 178:quantum/process_keycode/process_music.c ****                 music_sequence_interval -= 10;
 179:quantum/process_keycode/process_music.c ****                 return false;
 180:quantum/process_keycode/process_music.c ****             }
 181:quantum/process_keycode/process_music.c **** 
 182:quantum/process_keycode/process_music.c ****             if (keycode == KC_DOWN) {
 183:quantum/process_keycode/process_music.c ****                 music_sequence_interval += 10;
 184:quantum/process_keycode/process_music.c ****                 return false;
 185:quantum/process_keycode/process_music.c ****             }
 186:quantum/process_keycode/process_music.c ****         }
 187:quantum/process_keycode/process_music.c **** 
 188:quantum/process_keycode/process_music.c ****         uint8_t note = 36;
 189:quantum/process_keycode/process_music.c **** #    ifdef MUSIC_MAP
 190:quantum/process_keycode/process_music.c ****         if (music_mode == MUSIC_MODE_CHROMATIC) {
 191:quantum/process_keycode/process_music.c ****             note = music_starting_note + music_offset + 36 + music_map[record->event.key.row][recor
 192:quantum/process_keycode/process_music.c ****         } else {
 193:quantum/process_keycode/process_music.c ****             uint8_t position = music_map[record->event.key.row][record->event.key.col];
 194:quantum/process_keycode/process_music.c ****             note             = music_starting_note + music_offset + 36 + SCALE[position % 12] + (po
 195:quantum/process_keycode/process_music.c ****         }
 196:quantum/process_keycode/process_music.c **** #    else
 197:quantum/process_keycode/process_music.c ****         if (music_mode == MUSIC_MODE_CHROMATIC)
 198:quantum/process_keycode/process_music.c ****             note = (music_starting_note + record->event.key.col + music_offset - 3) + 12 * (MATRIX_
 199:quantum/process_keycode/process_music.c ****         else if (music_mode == MUSIC_MODE_GUITAR)
 200:quantum/process_keycode/process_music.c ****             note = (music_starting_note + record->event.key.col + music_offset + 32) + 5 * (MATRIX_
 201:quantum/process_keycode/process_music.c ****         else if (music_mode == MUSIC_MODE_VIOLIN)
 202:quantum/process_keycode/process_music.c ****             note = (music_starting_note + record->event.key.col + music_offset + 32) + 7 * (MATRIX_
 203:quantum/process_keycode/process_music.c ****         else if (music_mode == MUSIC_MODE_MAJOR)
 204:quantum/process_keycode/process_music.c ****             note = (music_starting_note + SCALE[record->event.key.col + music_offset] - 3) + 12 * (
 205:quantum/process_keycode/process_music.c ****         else
 206:quantum/process_keycode/process_music.c ****             note = music_starting_note;
 207:quantum/process_keycode/process_music.c **** #    endif
 208:quantum/process_keycode/process_music.c **** 
 209:quantum/process_keycode/process_music.c ****         if (record->event.pressed) {
 210:quantum/process_keycode/process_music.c ****             music_noteon(note);
 211:quantum/process_keycode/process_music.c ****             if (music_sequence_recording) {
 212:quantum/process_keycode/process_music.c ****                 music_sequence[music_sequence_count] = note;
 213:quantum/process_keycode/process_music.c ****                 music_sequence_count++;
 214:quantum/process_keycode/process_music.c ****             }
 215:quantum/process_keycode/process_music.c ****         } else {
 216:quantum/process_keycode/process_music.c ****             music_noteoff(note);
 217:quantum/process_keycode/process_music.c ****         }
 218:quantum/process_keycode/process_music.c **** 
 219:quantum/process_keycode/process_music.c ****         if (music_mask(keycode)) return false;
 220:quantum/process_keycode/process_music.c ****     }
 221:quantum/process_keycode/process_music.c **** 
 222:quantum/process_keycode/process_music.c ****     return true;
 223:quantum/process_keycode/process_music.c **** }
 224:quantum/process_keycode/process_music.c **** 
 225:quantum/process_keycode/process_music.c **** bool music_mask(uint16_t keycode) {
 226:quantum/process_keycode/process_music.c **** #    ifdef MUSIC_MASK
 227:quantum/process_keycode/process_music.c ****     return MUSIC_MASK;
 228:quantum/process_keycode/process_music.c **** #    else
 229:quantum/process_keycode/process_music.c ****     return music_mask_kb(keycode);
 230:quantum/process_keycode/process_music.c **** #    endif
 231:quantum/process_keycode/process_music.c **** }
 232:quantum/process_keycode/process_music.c **** 
 233:quantum/process_keycode/process_music.c **** __attribute__((weak)) bool music_mask_kb(uint16_t keycode) { return music_mask_user(keycode); }
 234:quantum/process_keycode/process_music.c **** 
 235:quantum/process_keycode/process_music.c **** __attribute__((weak)) bool music_mask_user(uint16_t keycode) { return keycode < 0xFF; }
  58              		.loc 1 235 0
  59              		.cfi_startproc
  60              		@ args = 0, pretend = 0, frame = 0
  61              		@ frame_needed = 0, uses_anonymous_args = 0
  62              		@ link register save eliminated.
  63              	.LVL1:
  64              		.loc 1 235 0
  65 0000 FE28     		cmp	r0, #254
  66 0002 8CBF     		ite	hi
  67 0004 0020     		movhi	r0, #0
  68              	.LVL2:
  69 0006 0120     		movls	r0, #1
  70 0008 7047     		bx	lr
  71              		.cfi_endproc
  72              	.LFE293:
  74              		.section	.text.music_mask_kb,"ax",%progbits
  75              		.align	1
  76              		.weak	music_mask_kb
  77              		.syntax unified
  78              		.thumb
  79              		.thumb_func
  80              		.fpu softvfp
  82              	music_mask_kb:
  83              	.LFB292:
 233:quantum/process_keycode/process_music.c **** 
  84              		.loc 1 233 0
  85              		.cfi_startproc
  86              		@ args = 0, pretend = 0, frame = 0
  87              		@ frame_needed = 0, uses_anonymous_args = 0
  88              	.LVL3:
  89 0000 08B5     		push	{r3, lr}
  90              		.cfi_def_cfa_offset 8
  91              		.cfi_offset 3, -8
  92              		.cfi_offset 14, -4
 233:quantum/process_keycode/process_music.c **** 
  93              		.loc 1 233 0
  94 0002 FFF7FEFF 		bl	music_mask_user
  95              	.LVL4:
  96 0006 08BD     		pop	{r3, pc}
  97              		.cfi_endproc
  98              	.LFE292:
 100              		.section	.text.music_mask,"ax",%progbits
 101              		.align	1
 102              		.global	music_mask
 103              		.syntax unified
 104              		.thumb
 105              		.thumb_func
 106              		.fpu softvfp
 108              	music_mask:
 109              	.LFB291:
 225:quantum/process_keycode/process_music.c **** #    ifdef MUSIC_MASK
 110              		.loc 1 225 0
 111              		.cfi_startproc
 112              		@ args = 0, pretend = 0, frame = 0
 113              		@ frame_needed = 0, uses_anonymous_args = 0
 114              	.LVL5:
 115 0000 08B5     		push	{r3, lr}
 116              		.cfi_def_cfa_offset 8
 117              		.cfi_offset 3, -8
 118              		.cfi_offset 14, -4
 229:quantum/process_keycode/process_music.c **** #    endif
 119              		.loc 1 229 0
 120 0002 FFF7FEFF 		bl	music_mask_kb
 121              	.LVL6:
 231:quantum/process_keycode/process_music.c **** 
 122              		.loc 1 231 0
 123 0006 08BD     		pop	{r3, pc}
 124              		.cfi_endproc
 125              	.LFE291:
 127              		.section	.text.is_music_on,"ax",%progbits
 128              		.align	1
 129              		.global	is_music_on
 130              		.syntax unified
 131              		.thumb
 132              		.thumb_func
 133              		.fpu softvfp
 135              	is_music_on:
 136              	.LFB294:
 236:quantum/process_keycode/process_music.c **** 
 237:quantum/process_keycode/process_music.c **** bool is_music_on(void) { return (music_activated != 0); }
 137              		.loc 1 237 0
 138              		.cfi_startproc
 139              		@ args = 0, pretend = 0, frame = 0
 140              		@ frame_needed = 0, uses_anonymous_args = 0
 141              		@ link register save eliminated.
 142              		.loc 1 237 0
 143 0000 014B     		ldr	r3, .L9
 144 0002 1878     		ldrb	r0, [r3]	@ zero_extendqisi2
 145 0004 7047     		bx	lr
 146              	.L10:
 147 0006 00BF     		.align	2
 148              	.L9:
 149 0008 00000000 		.word	.LANCHOR0
 150              		.cfi_endproc
 151              	.LFE294:
 153              		.section	.text.music_off,"ax",%progbits
 154              		.align	1
 155              		.global	music_off
 156              		.syntax unified
 157              		.thumb
 158              		.thumb_func
 159              		.fpu softvfp
 161              	music_off:
 162              	.LFB297:
 238:quantum/process_keycode/process_music.c **** 
 239:quantum/process_keycode/process_music.c **** void music_toggle(void) {
 240:quantum/process_keycode/process_music.c ****     if (!music_activated) {
 241:quantum/process_keycode/process_music.c ****         music_on();
 242:quantum/process_keycode/process_music.c ****     } else {
 243:quantum/process_keycode/process_music.c ****         music_off();
 244:quantum/process_keycode/process_music.c ****     }
 245:quantum/process_keycode/process_music.c **** }
 246:quantum/process_keycode/process_music.c **** 
 247:quantum/process_keycode/process_music.c **** void music_on(void) {
 248:quantum/process_keycode/process_music.c ****     music_activated = 1;
 249:quantum/process_keycode/process_music.c **** #    ifdef AUDIO_ENABLE
 250:quantum/process_keycode/process_music.c ****     PLAY_SONG(music_on_song);
 251:quantum/process_keycode/process_music.c **** #    endif
 252:quantum/process_keycode/process_music.c ****     music_on_user();
 253:quantum/process_keycode/process_music.c **** }
 254:quantum/process_keycode/process_music.c **** 
 255:quantum/process_keycode/process_music.c **** void music_off(void) {
 163              		.loc 1 255 0
 164              		.cfi_startproc
 165              		@ args = 0, pretend = 0, frame = 0
 166              		@ frame_needed = 0, uses_anonymous_args = 0
 167 0000 08B5     		push	{r3, lr}
 168              		.cfi_def_cfa_offset 8
 169              		.cfi_offset 3, -8
 170              		.cfi_offset 14, -4
 256:quantum/process_keycode/process_music.c ****     music_all_notes_off();
 171              		.loc 1 256 0
 172 0002 FFF7FEFF 		bl	music_all_notes_off
 173              	.LVL7:
 257:quantum/process_keycode/process_music.c ****     music_activated = 0;
 174              		.loc 1 257 0
 175 0006 044B     		ldr	r3, .L12
 258:quantum/process_keycode/process_music.c **** #    ifdef AUDIO_ENABLE
 259:quantum/process_keycode/process_music.c ****     PLAY_SONG(music_off_song);
 176              		.loc 1 259 0
 177 0008 0448     		ldr	r0, .L12+4
 257:quantum/process_keycode/process_music.c ****     music_activated = 0;
 178              		.loc 1 257 0
 179 000a 0022     		movs	r2, #0
 180 000c 1A70     		strb	r2, [r3]
 181              		.loc 1 259 0
 182 000e 0821     		movs	r1, #8
 260:quantum/process_keycode/process_music.c **** #    endif
 261:quantum/process_keycode/process_music.c **** }
 183              		.loc 1 261 0
 184 0010 BDE80840 		pop	{r3, lr}
 185              		.cfi_restore 14
 186              		.cfi_restore 3
 187              		.cfi_def_cfa_offset 0
 259:quantum/process_keycode/process_music.c **** #    endif
 188              		.loc 1 259 0
 189 0014 FFF7FEBF 		b	play_notes
 190              	.LVL8:
 191              	.L13:
 192              		.align	2
 193              	.L12:
 194 0018 00000000 		.word	.LANCHOR0
 195 001c 00000000 		.word	.LANCHOR1
 196              		.cfi_endproc
 197              	.LFE297:
 199              		.section	.text.is_midi_on,"ax",%progbits
 200              		.align	1
 201              		.global	is_midi_on
 202              		.syntax unified
 203              		.thumb
 204              		.thumb_func
 205              		.fpu softvfp
 207              	is_midi_on:
 208              	.LFB298:
 262:quantum/process_keycode/process_music.c **** 
 263:quantum/process_keycode/process_music.c **** bool is_midi_on(void) { return (midi_activated != 0); }
 209              		.loc 1 263 0
 210              		.cfi_startproc
 211              		@ args = 0, pretend = 0, frame = 0
 212              		@ frame_needed = 0, uses_anonymous_args = 0
 213              		@ link register save eliminated.
 214              		.loc 1 263 0
 215 0000 014B     		ldr	r3, .L15
 216 0002 1878     		ldrb	r0, [r3]	@ zero_extendqisi2
 217 0004 7047     		bx	lr
 218              	.L16:
 219 0006 00BF     		.align	2
 220              	.L15:
 221 0008 00000000 		.word	.LANCHOR2
 222              		.cfi_endproc
 223              	.LFE298:
 225              		.section	.text.midi_off,"ax",%progbits
 226              		.align	1
 227              		.global	midi_off
 228              		.syntax unified
 229              		.thumb
 230              		.thumb_func
 231              		.fpu softvfp
 233              	midi_off:
 234              	.LFB301:
 264:quantum/process_keycode/process_music.c **** 
 265:quantum/process_keycode/process_music.c **** void midi_toggle(void) {
 266:quantum/process_keycode/process_music.c ****     if (!midi_activated) {
 267:quantum/process_keycode/process_music.c ****         midi_on();
 268:quantum/process_keycode/process_music.c ****     } else {
 269:quantum/process_keycode/process_music.c ****         midi_off();
 270:quantum/process_keycode/process_music.c ****     }
 271:quantum/process_keycode/process_music.c **** }
 272:quantum/process_keycode/process_music.c **** 
 273:quantum/process_keycode/process_music.c **** void midi_on(void) {
 274:quantum/process_keycode/process_music.c ****     midi_activated = 1;
 275:quantum/process_keycode/process_music.c **** #    ifdef AUDIO_ENABLE
 276:quantum/process_keycode/process_music.c ****     PLAY_SONG(midi_on_song);
 277:quantum/process_keycode/process_music.c **** #    endif
 278:quantum/process_keycode/process_music.c ****     midi_on_user();
 279:quantum/process_keycode/process_music.c **** }
 280:quantum/process_keycode/process_music.c **** 
 281:quantum/process_keycode/process_music.c **** void midi_off(void) {
 235              		.loc 1 281 0
 236              		.cfi_startproc
 237              		@ args = 0, pretend = 0, frame = 0
 238              		@ frame_needed = 0, uses_anonymous_args = 0
 239              		@ link register save eliminated.
 282:quantum/process_keycode/process_music.c **** #    if defined(MIDI_ENABLE) && defined(MIDI_BASIC)
 283:quantum/process_keycode/process_music.c ****     process_midi_all_notes_off();
 284:quantum/process_keycode/process_music.c **** #    endif
 285:quantum/process_keycode/process_music.c ****     midi_activated = 0;
 240              		.loc 1 285 0
 241 0000 034B     		ldr	r3, .L18
 286:quantum/process_keycode/process_music.c **** #    ifdef AUDIO_ENABLE
 287:quantum/process_keycode/process_music.c ****     PLAY_SONG(midi_off_song);
 242              		.loc 1 287 0
 243 0002 0448     		ldr	r0, .L18+4
 285:quantum/process_keycode/process_music.c **** #    ifdef AUDIO_ENABLE
 244              		.loc 1 285 0
 245 0004 0022     		movs	r2, #0
 246              		.loc 1 287 0
 247 0006 0821     		movs	r1, #8
 285:quantum/process_keycode/process_music.c **** #    ifdef AUDIO_ENABLE
 248              		.loc 1 285 0
 249 0008 1A70     		strb	r2, [r3]
 250              		.loc 1 287 0
 251 000a FFF7FEBF 		b	play_notes
 252              	.LVL9:
 253              	.L19:
 254 000e 00BF     		.align	2
 255              	.L18:
 256 0010 00000000 		.word	.LANCHOR2
 257 0014 00000000 		.word	.LANCHOR3
 258              		.cfi_endproc
 259              	.LFE301:
 261              		.section	.text.music_mode_cycle,"ax",%progbits
 262              		.align	1
 263              		.global	music_mode_cycle
 264              		.syntax unified
 265              		.thumb
 266              		.thumb_func
 267              		.fpu softvfp
 269              	music_mode_cycle:
 270              	.LFB302:
 288:quantum/process_keycode/process_music.c **** #    endif
 289:quantum/process_keycode/process_music.c **** }
 290:quantum/process_keycode/process_music.c **** 
 291:quantum/process_keycode/process_music.c **** void music_mode_cycle(void) {
 271              		.loc 1 291 0
 272              		.cfi_startproc
 273              		@ args = 0, pretend = 0, frame = 0
 274              		@ frame_needed = 0, uses_anonymous_args = 0
 275 0000 10B5     		push	{r4, lr}
 276              		.cfi_def_cfa_offset 8
 277              		.cfi_offset 4, -8
 278              		.cfi_offset 14, -4
 292:quantum/process_keycode/process_music.c ****     music_all_notes_off();
 279              		.loc 1 292 0
 280 0002 FFF7FEFF 		bl	music_all_notes_off
 281              	.LVL10:
 293:quantum/process_keycode/process_music.c ****     music_mode = (music_mode + 1) % NUMBER_OF_MODES;
 282              		.loc 1 293 0
 283 0006 084A     		ldr	r2, .L21
 294:quantum/process_keycode/process_music.c **** #    ifdef AUDIO_ENABLE
 295:quantum/process_keycode/process_music.c ****     PLAY_SONG(music_mode_songs[music_mode]);
 284              		.loc 1 295 0
 285 0008 0848     		ldr	r0, .L21+4
 293:quantum/process_keycode/process_music.c ****     music_mode = (music_mode + 1) % NUMBER_OF_MODES;
 286              		.loc 1 293 0
 287 000a 1378     		ldrb	r3, [r2]	@ zero_extendqisi2
 288 000c 0133     		adds	r3, r3, #1
 289 000e 03F00303 		and	r3, r3, #3
 290 0012 1370     		strb	r3, [r2]
 291              		.loc 1 295 0
 292 0014 2824     		movs	r4, #40
 293 0016 04FB0300 		mla	r0, r4, r3, r0
 294 001a 0022     		movs	r2, #0
 295 001c 0521     		movs	r1, #5
 296:quantum/process_keycode/process_music.c **** #    endif
 297:quantum/process_keycode/process_music.c **** }
 296              		.loc 1 297 0
 297 001e BDE81040 		pop	{r4, lr}
 298              		.cfi_restore 14
 299              		.cfi_restore 4
 300              		.cfi_def_cfa_offset 0
 295:quantum/process_keycode/process_music.c **** #    endif
 301              		.loc 1 295 0
 302 0022 FFF7FEBF 		b	play_notes
 303              	.LVL11:
 304              	.L22:
 305 0026 00BF     		.align	2
 306              	.L21:
 307 0028 00000000 		.word	.LANCHOR4
 308 002c 00000000 		.word	.LANCHOR5
 309              		.cfi_endproc
 310              	.LFE302:
 312              		.section	.text.matrix_scan_music,"ax",%progbits
 313              		.align	1
 314              		.global	matrix_scan_music
 315              		.syntax unified
 316              		.thumb
 317              		.thumb_func
 318              		.fpu softvfp
 320              	matrix_scan_music:
 321              	.LFB303:
 298:quantum/process_keycode/process_music.c **** 
 299:quantum/process_keycode/process_music.c **** void matrix_scan_music(void) {
 322              		.loc 1 299 0
 323              		.cfi_startproc
 324              		@ args = 0, pretend = 0, frame = 0
 325              		@ frame_needed = 0, uses_anonymous_args = 0
 326 0000 F8B5     		push	{r3, r4, r5, r6, r7, lr}
 327              		.cfi_def_cfa_offset 24
 328              		.cfi_offset 3, -24
 329              		.cfi_offset 4, -20
 330              		.cfi_offset 5, -16
 331              		.cfi_offset 6, -12
 332              		.cfi_offset 7, -8
 333              		.cfi_offset 14, -4
 300:quantum/process_keycode/process_music.c ****     if (music_sequence_playing) {
 334              		.loc 1 300 0
 335 0002 174B     		ldr	r3, .L41
 336 0004 1B78     		ldrb	r3, [r3]	@ zero_extendqisi2
 337 0006 8BB1     		cbz	r3, .L23
 301:quantum/process_keycode/process_music.c ****         if ((music_sequence_timer == 0) || (timer_elapsed(music_sequence_timer) > music_sequence_in
 338              		.loc 1 301 0
 339 0008 164C     		ldr	r4, .L41+4
 340 000a 2088     		ldrh	r0, [r4]
 341 000c 40B9     		cbnz	r0, .L26
 342              	.L29:
 343              	.LBB11:
 302:quantum/process_keycode/process_music.c ****             music_sequence_timer = timer_read();
 344              		.loc 1 302 0
 345 000e FFF7FEFF 		bl	timer_read
 346              	.LVL12:
 347 0012 2080     		strh	r0, [r4]	@ movhi
 303:quantum/process_keycode/process_music.c ****             uint8_t prev_note    = music_sequence[(music_sequence_position - 1 < 0) ? (music_sequen
 348              		.loc 1 303 0
 349 0014 144C     		ldr	r4, .L41+8
 350 0016 154E     		ldr	r6, .L41+12
 351 0018 2378     		ldrb	r3, [r4]	@ zero_extendqisi2
 352 001a 43B1     		cbz	r3, .L27
 353              		.loc 1 303 0 is_stmt 0 discriminator 2
 354 001c 5A1E     		subs	r2, r3, #1
 355 001e 08E0     		b	.L31
 356              	.L26:
 357              	.LBE11:
 301:quantum/process_keycode/process_music.c ****         if ((music_sequence_timer == 0) || (timer_elapsed(music_sequence_timer) > music_sequence_in
 358              		.loc 1 301 0 is_stmt 1 discriminator 1
 359 0020 FFF7FEFF 		bl	timer_elapsed
 360              	.LVL13:
 361 0024 124B     		ldr	r3, .L41+16
 362 0026 1B88     		ldrh	r3, [r3]
 363 0028 8342     		cmp	r3, r0
 364 002a F0D3     		bcc	.L29
 365              	.L23:
 304:quantum/process_keycode/process_music.c ****             uint8_t next_note    = music_sequence[music_sequence_position];
 305:quantum/process_keycode/process_music.c ****             music_noteoff(prev_note);
 306:quantum/process_keycode/process_music.c ****             music_noteon(next_note);
 307:quantum/process_keycode/process_music.c ****             music_sequence_position = (music_sequence_position + 1) % music_sequence_count;
 308:quantum/process_keycode/process_music.c ****         }
 309:quantum/process_keycode/process_music.c ****     }
 310:quantum/process_keycode/process_music.c **** }
 366              		.loc 1 310 0
 367 002c F8BD     		pop	{r3, r4, r5, r6, r7, pc}
 368              	.L27:
 369              	.LBB20:
 303:quantum/process_keycode/process_music.c ****             uint8_t prev_note    = music_sequence[(music_sequence_position - 1 < 0) ? (music_sequen
 370              		.loc 1 303 0 discriminator 1
 371 002e 3278     		ldrb	r2, [r6]	@ zero_extendqisi2
 372 0030 013A     		subs	r2, r2, #1
 373              	.L31:
 374              	.LVL14:
 375              	.LBB12:
 376              	.LBB13:
  87:quantum/process_keycode/process_music.c **** #    endif
 377              		.loc 1 87 0 discriminator 4
 378 0032 104D     		ldr	r5, .L41+20
 379              	.LBE13:
 380              	.LBE12:
 304:quantum/process_keycode/process_music.c ****             uint8_t next_note    = music_sequence[music_sequence_position];
 381              		.loc 1 304 0 discriminator 4
 382 0034 1049     		ldr	r1, .L41+24
 383              	.LBB16:
 384              	.LBB14:
  87:quantum/process_keycode/process_music.c **** #    endif
 385              		.loc 1 87 0 discriminator 4
 386 0036 2878     		ldrb	r0, [r5]	@ zero_extendqisi2
 387              	.LBE14:
 388              	.LBE16:
 304:quantum/process_keycode/process_music.c ****             uint8_t next_note    = music_sequence[music_sequence_position];
 389              		.loc 1 304 0 discriminator 4
 390 0038 CF5C     		ldrb	r7, [r1, r3]	@ zero_extendqisi2
 391              	.LVL15:
 392              	.LBB17:
 393              	.LBB15:
  87:quantum/process_keycode/process_music.c **** #    endif
 394              		.loc 1 87 0 discriminator 4
 395 003a 10B1     		cbz	r0, .L32
  87:quantum/process_keycode/process_music.c **** #    endif
 396              		.loc 1 87 0 is_stmt 0
 397 003c 885C     		ldrb	r0, [r1, r2]	@ zero_extendqisi2
 398 003e FFF7FEFF 		bl	process_audio_noteoff
 399              	.LVL16:
 400              	.L32:
 401              	.LBE15:
 402              	.LBE17:
 403              	.LBB18:
 404              	.LBB19:
  78:quantum/process_keycode/process_music.c **** #    endif
 405              		.loc 1 78 0 is_stmt 1
 406 0042 2B78     		ldrb	r3, [r5]	@ zero_extendqisi2
 407 0044 13B1     		cbz	r3, .L33
 408 0046 3846     		mov	r0, r7
 409 0048 FFF7FEFF 		bl	process_audio_noteon
 410              	.LVL17:
 411              	.L33:
 412              	.LBE19:
 413              	.LBE18:
 307:quantum/process_keycode/process_music.c ****         }
 414              		.loc 1 307 0 discriminator 4
 415 004c 2378     		ldrb	r3, [r4]	@ zero_extendqisi2
 416 004e 3178     		ldrb	r1, [r6]	@ zero_extendqisi2
 417 0050 0133     		adds	r3, r3, #1
 418 0052 93FBF1F2 		sdiv	r2, r3, r1
 419 0056 01FB1233 		mls	r3, r1, r2, r3
 420 005a 2370     		strb	r3, [r4]
 421              	.LBE20:
 422              		.loc 1 310 0 discriminator 4
 423 005c E6E7     		b	.L23
 424              	.L42:
 425 005e 00BF     		.align	2
 426              	.L41:
 427 0060 00000000 		.word	.LANCHOR6
 428 0064 00000000 		.word	.LANCHOR7
 429 0068 00000000 		.word	.LANCHOR8
 430 006c 00000000 		.word	.LANCHOR10
 431 0070 00000000 		.word	.LANCHOR9
 432 0074 00000000 		.word	.LANCHOR0
 433 0078 00000000 		.word	.LANCHOR11
 434              		.cfi_endproc
 435              	.LFE303:
 437              		.section	.text.music_on_user,"ax",%progbits
 438              		.align	1
 439              		.weak	music_on_user
 440              		.syntax unified
 441              		.thumb
 442              		.thumb_func
 443              		.fpu softvfp
 445              	music_on_user:
 446              	.LFB304:
 311:quantum/process_keycode/process_music.c **** 
 312:quantum/process_keycode/process_music.c **** __attribute__((weak)) void music_on_user() {}
 447              		.loc 1 312 0
 448              		.cfi_startproc
 449              		@ args = 0, pretend = 0, frame = 0
 450              		@ frame_needed = 0, uses_anonymous_args = 0
 451              		@ link register save eliminated.
 452              		.loc 1 312 0
 453 0000 7047     		bx	lr
 454              		.cfi_endproc
 455              	.LFE304:
 457              		.section	.text.music_on,"ax",%progbits
 458              		.align	1
 459              		.global	music_on
 460              		.syntax unified
 461              		.thumb
 462              		.thumb_func
 463              		.fpu softvfp
 465              	music_on:
 466              	.LFB296:
 247:quantum/process_keycode/process_music.c ****     music_activated = 1;
 467              		.loc 1 247 0
 468              		.cfi_startproc
 469              		@ args = 0, pretend = 0, frame = 0
 470              		@ frame_needed = 0, uses_anonymous_args = 0
 471 0000 08B5     		push	{r3, lr}
 472              		.cfi_def_cfa_offset 8
 473              		.cfi_offset 3, -8
 474              		.cfi_offset 14, -4
 248:quantum/process_keycode/process_music.c **** #    ifdef AUDIO_ENABLE
 475              		.loc 1 248 0
 476 0002 054B     		ldr	r3, .L45
 250:quantum/process_keycode/process_music.c **** #    endif
 477              		.loc 1 250 0
 478 0004 0548     		ldr	r0, .L45+4
 248:quantum/process_keycode/process_music.c **** #    ifdef AUDIO_ENABLE
 479              		.loc 1 248 0
 480 0006 0122     		movs	r2, #1
 481 0008 1A70     		strb	r2, [r3]
 250:quantum/process_keycode/process_music.c **** #    endif
 482              		.loc 1 250 0
 483 000a 0821     		movs	r1, #8
 484 000c 0022     		movs	r2, #0
 485 000e FFF7FEFF 		bl	play_notes
 486              	.LVL18:
 252:quantum/process_keycode/process_music.c **** }
 487              		.loc 1 252 0
 488 0012 FFF7FEFF 		bl	music_on_user
 489              	.LVL19:
 253:quantum/process_keycode/process_music.c **** 
 490              		.loc 1 253 0
 491 0016 08BD     		pop	{r3, pc}
 492              	.L46:
 493              		.align	2
 494              	.L45:
 495 0018 00000000 		.word	.LANCHOR0
 496 001c 00000000 		.word	.LANCHOR12
 497              		.cfi_endproc
 498              	.LFE296:
 500              		.section	.text.music_toggle,"ax",%progbits
 501              		.align	1
 502              		.global	music_toggle
 503              		.syntax unified
 504              		.thumb
 505              		.thumb_func
 506              		.fpu softvfp
 508              	music_toggle:
 509              	.LFB295:
 239:quantum/process_keycode/process_music.c ****     if (!music_activated) {
 510              		.loc 1 239 0
 511              		.cfi_startproc
 512              		@ args = 0, pretend = 0, frame = 0
 513              		@ frame_needed = 0, uses_anonymous_args = 0
 514              		@ link register save eliminated.
 240:quantum/process_keycode/process_music.c ****         music_on();
 515              		.loc 1 240 0
 516 0000 034B     		ldr	r3, .L49
 517 0002 1B78     		ldrb	r3, [r3]	@ zero_extendqisi2
 518 0004 0BB9     		cbnz	r3, .L48
 241:quantum/process_keycode/process_music.c ****     } else {
 519              		.loc 1 241 0
 520 0006 FFF7FEBF 		b	music_on
 521              	.LVL20:
 522              	.L48:
 243:quantum/process_keycode/process_music.c ****     }
 523              		.loc 1 243 0
 524 000a FFF7FEBF 		b	music_off
 525              	.LVL21:
 526              	.L50:
 527 000e 00BF     		.align	2
 528              	.L49:
 529 0010 00000000 		.word	.LANCHOR0
 530              		.cfi_endproc
 531              	.LFE295:
 533              		.section	.text.midi_on_user,"ax",%progbits
 534              		.align	1
 535              		.weak	midi_on_user
 536              		.syntax unified
 537              		.thumb
 538              		.thumb_func
 539              		.fpu softvfp
 541              	midi_on_user:
 542              	.LFB308:
 543              		.cfi_startproc
 544              		@ args = 0, pretend = 0, frame = 0
 545              		@ frame_needed = 0, uses_anonymous_args = 0
 546              		@ link register save eliminated.
 547 0000 7047     		bx	lr
 548              		.cfi_endproc
 549              	.LFE308:
 551              		.section	.text.midi_on,"ax",%progbits
 552              		.align	1
 553              		.global	midi_on
 554              		.syntax unified
 555              		.thumb
 556              		.thumb_func
 557              		.fpu softvfp
 559              	midi_on:
 560              	.LFB300:
 273:quantum/process_keycode/process_music.c ****     midi_activated = 1;
 561              		.loc 1 273 0
 562              		.cfi_startproc
 563              		@ args = 0, pretend = 0, frame = 0
 564              		@ frame_needed = 0, uses_anonymous_args = 0
 273:quantum/process_keycode/process_music.c ****     midi_activated = 1;
 565              		.loc 1 273 0
 566 0000 08B5     		push	{r3, lr}
 567              		.cfi_def_cfa_offset 8
 568              		.cfi_offset 3, -8
 569              		.cfi_offset 14, -4
 274:quantum/process_keycode/process_music.c **** #    ifdef AUDIO_ENABLE
 570              		.loc 1 274 0
 571 0002 054B     		ldr	r3, .L53
 276:quantum/process_keycode/process_music.c **** #    endif
 572              		.loc 1 276 0
 573 0004 0548     		ldr	r0, .L53+4
 274:quantum/process_keycode/process_music.c **** #    ifdef AUDIO_ENABLE
 574              		.loc 1 274 0
 575 0006 0122     		movs	r2, #1
 576 0008 1A70     		strb	r2, [r3]
 276:quantum/process_keycode/process_music.c **** #    endif
 577              		.loc 1 276 0
 578 000a 0821     		movs	r1, #8
 579 000c 0022     		movs	r2, #0
 580 000e FFF7FEFF 		bl	play_notes
 581              	.LVL22:
 278:quantum/process_keycode/process_music.c **** }
 582              		.loc 1 278 0
 583 0012 FFF7FEFF 		bl	midi_on_user
 584              	.LVL23:
 279:quantum/process_keycode/process_music.c **** 
 585              		.loc 1 279 0
 586 0016 08BD     		pop	{r3, pc}
 587              	.L54:
 588              		.align	2
 589              	.L53:
 590 0018 00000000 		.word	.LANCHOR2
 591 001c 00000000 		.word	.LANCHOR13
 592              		.cfi_endproc
 593              	.LFE300:
 595              		.section	.text.process_music,"ax",%progbits
 596              		.align	1
 597              		.global	process_music
 598              		.syntax unified
 599              		.thumb
 600              		.thumb_func
 601              		.fpu softvfp
 603              	process_music:
 604              	.LFB290:
 103:quantum/process_keycode/process_music.c ****     if (keycode == MU_ON && record->event.pressed) {
 605              		.loc 1 103 0
 606              		.cfi_startproc
 607              		@ args = 0, pretend = 0, frame = 40
 608              		@ frame_needed = 0, uses_anonymous_args = 0
 609              	.LVL24:
 610 0000 2DE9F041 		push	{r4, r5, r6, r7, r8, lr}
 611              		.cfi_def_cfa_offset 24
 612              		.cfi_offset 4, -24
 613              		.cfi_offset 5, -20
 614              		.cfi_offset 6, -16
 615              		.cfi_offset 7, -12
 616              		.cfi_offset 8, -8
 617              		.cfi_offset 14, -4
 104:quantum/process_keycode/process_music.c ****         music_on();
 618              		.loc 1 104 0
 619 0004 45F62643 		movw	r3, #23590
 620 0008 9842     		cmp	r0, r3
 103:quantum/process_keycode/process_music.c ****     if (keycode == MU_ON && record->event.pressed) {
 621              		.loc 1 103 0
 622 000a 8AB0     		sub	sp, sp, #40
 623              		.cfi_def_cfa_offset 64
 103:quantum/process_keycode/process_music.c ****     if (keycode == MU_ON && record->event.pressed) {
 624              		.loc 1 103 0
 625 000c 0546     		mov	r5, r0
 104:quantum/process_keycode/process_music.c ****         music_on();
 626              		.loc 1 104 0
 627 000e 06D1     		bne	.L56
 104:quantum/process_keycode/process_music.c ****         music_on();
 628              		.loc 1 104 0 is_stmt 0 discriminator 1
 629 0010 8B78     		ldrb	r3, [r1, #2]	@ zero_extendqisi2
 630 0012 002B     		cmp	r3, #0
 631 0014 3ED0     		beq	.L57
 632              	.L62:
 105:quantum/process_keycode/process_music.c ****         return false;
 633              		.loc 1 105 0 is_stmt 1
 634 0016 FFF7FEFF 		bl	music_on
 635              	.LVL25:
 636              	.L122:
 637              	.LBB29:
 184:quantum/process_keycode/process_music.c ****             }
 638              		.loc 1 184 0
 639 001a 0020     		movs	r0, #0
 640 001c 53E0     		b	.L58
 641              	.LVL26:
 642              	.L56:
 643              	.LBE29:
 109:quantum/process_keycode/process_music.c ****         music_off();
 644              		.loc 1 109 0
 645 001e 45F62743 		movw	r3, #23591
 646 0022 9842     		cmp	r0, r3
 647 0024 05D1     		bne	.L59
 109:quantum/process_keycode/process_music.c ****         music_off();
 648              		.loc 1 109 0 is_stmt 0 discriminator 1
 649 0026 8B78     		ldrb	r3, [r1, #2]	@ zero_extendqisi2
 650 0028 002B     		cmp	r3, #0
 651 002a 33D0     		beq	.L57
 652              	.L61:
 110:quantum/process_keycode/process_music.c ****         return false;
 653              		.loc 1 110 0 is_stmt 1
 654 002c FFF7FEFF 		bl	music_off
 655              	.LVL27:
 656 0030 F3E7     		b	.L122
 657              	.LVL28:
 658              	.L59:
 114:quantum/process_keycode/process_music.c ****         if (music_activated) {
 659              		.loc 1 114 0
 660 0032 45F62843 		movw	r3, #23592
 661 0036 9842     		cmp	r0, r3
 662 0038 06D1     		bne	.L60
 663 003a 654B     		ldr	r3, .L125
 114:quantum/process_keycode/process_music.c ****         if (music_activated) {
 664              		.loc 1 114 0 is_stmt 0 discriminator 1
 665 003c 8A78     		ldrb	r2, [r1, #2]	@ zero_extendqisi2
 666 003e 1B78     		ldrb	r3, [r3]	@ zero_extendqisi2
 667 0040 42B3     		cbz	r2, .L57
 115:quantum/process_keycode/process_music.c ****             music_off();
 668              		.loc 1 115 0 is_stmt 1
 669 0042 002B     		cmp	r3, #0
 670 0044 F2D1     		bne	.L61
 671 0046 E6E7     		b	.L62
 672              	.L60:
 123:quantum/process_keycode/process_music.c ****         midi_on();
 673              		.loc 1 123 0
 674 0048 45F62C43 		movw	r3, #23596
 675 004c 9842     		cmp	r0, r3
 676 004e 04D1     		bne	.L63
 123:quantum/process_keycode/process_music.c ****         midi_on();
 677              		.loc 1 123 0 is_stmt 0 discriminator 1
 678 0050 8B78     		ldrb	r3, [r1, #2]	@ zero_extendqisi2
 679 0052 FBB1     		cbz	r3, .L57
 680              	.L67:
 124:quantum/process_keycode/process_music.c ****         return false;
 681              		.loc 1 124 0 is_stmt 1
 682 0054 FFF7FEFF 		bl	midi_on
 683              	.LVL29:
 684 0058 DFE7     		b	.L122
 685              	.LVL30:
 686              	.L63:
 128:quantum/process_keycode/process_music.c ****         midi_off();
 687              		.loc 1 128 0
 688 005a 45F62D43 		movw	r3, #23597
 689 005e 9842     		cmp	r0, r3
 690 0060 04D1     		bne	.L64
 128:quantum/process_keycode/process_music.c ****         midi_off();
 691              		.loc 1 128 0 is_stmt 0 discriminator 1
 692 0062 8B78     		ldrb	r3, [r1, #2]	@ zero_extendqisi2
 693 0064 B3B1     		cbz	r3, .L57
 694              	.L66:
 129:quantum/process_keycode/process_music.c ****         return false;
 695              		.loc 1 129 0 is_stmt 1
 696 0066 FFF7FEFF 		bl	midi_off
 697              	.LVL31:
 698 006a D6E7     		b	.L122
 699              	.LVL32:
 700              	.L64:
 133:quantum/process_keycode/process_music.c ****         if (midi_activated) {
 701              		.loc 1 133 0
 702 006c 45F62E43 		movw	r3, #23598
 703 0070 9842     		cmp	r0, r3
 704 0072 06D1     		bne	.L65
 133:quantum/process_keycode/process_music.c ****         if (midi_activated) {
 705              		.loc 1 133 0 is_stmt 0 discriminator 1
 706 0074 8B78     		ldrb	r3, [r1, #2]	@ zero_extendqisi2
 707 0076 6BB1     		cbz	r3, .L57
 134:quantum/process_keycode/process_music.c ****             midi_off();
 708              		.loc 1 134 0 is_stmt 1
 709 0078 564B     		ldr	r3, .L125+4
 710 007a 1B78     		ldrb	r3, [r3]	@ zero_extendqisi2
 711 007c 002B     		cmp	r3, #0
 712 007e F2D1     		bne	.L66
 713 0080 E8E7     		b	.L67
 714              	.L65:
 142:quantum/process_keycode/process_music.c ****         music_mode_cycle();
 715              		.loc 1 142 0
 716 0082 45F62943 		movw	r3, #23593
 717 0086 9842     		cmp	r0, r3
 718 0088 04D1     		bne	.L57
 142:quantum/process_keycode/process_music.c ****         music_mode_cycle();
 719              		.loc 1 142 0 is_stmt 0 discriminator 1
 720 008a 8B78     		ldrb	r3, [r1, #2]	@ zero_extendqisi2
 721 008c 13B1     		cbz	r3, .L57
 143:quantum/process_keycode/process_music.c ****         return false;
 722              		.loc 1 143 0 is_stmt 1
 723 008e FFF7FEFF 		bl	music_mode_cycle
 724              	.LVL33:
 725 0092 C2E7     		b	.L122
 726              	.LVL34:
 727              	.L57:
 147:quantum/process_keycode/process_music.c ****         if (record->event.pressed) {
 728              		.loc 1 147 0
 729 0094 4E4B     		ldr	r3, .L125
 730 0096 1A78     		ldrb	r2, [r3]	@ zero_extendqisi2
 731 0098 22B9     		cbnz	r2, .L68
 147:quantum/process_keycode/process_music.c ****         if (record->event.pressed) {
 732              		.loc 1 147 0 is_stmt 0 discriminator 1
 733 009a 4E4B     		ldr	r3, .L125+4
 734 009c 1B78     		ldrb	r3, [r3]	@ zero_extendqisi2
 735 009e 002B     		cmp	r3, #0
 736 00a0 00F09480 		beq	.L83
 737              	.L68:
 738              	.LBB38:
 148:quantum/process_keycode/process_music.c ****             if (keycode == KC_LCTL) {  // Start recording
 739              		.loc 1 148 0 is_stmt 1
 740 00a4 8E78     		ldrb	r6, [r1, #2]	@ zero_extendqisi2
 741 00a6 002E     		cmp	r6, #0
 742 00a8 3DD0     		beq	.L69
 149:quantum/process_keycode/process_music.c ****                 music_all_notes_off();
 743              		.loc 1 149 0
 744 00aa E02D     		cmp	r5, #224
 745 00ac 0ED1     		bne	.L70
 150:quantum/process_keycode/process_music.c ****                 music_sequence_recording = true;
 746              		.loc 1 150 0
 747 00ae FFF7FEFF 		bl	music_all_notes_off
 748              	.LVL35:
 151:quantum/process_keycode/process_music.c ****                 music_sequence_recorded  = false;
 749              		.loc 1 151 0
 750 00b2 494B     		ldr	r3, .L125+8
 751 00b4 0122     		movs	r2, #1
 752 00b6 1A70     		strb	r2, [r3]
 152:quantum/process_keycode/process_music.c ****                 music_sequence_playing   = false;
 753              		.loc 1 152 0
 754 00b8 484B     		ldr	r3, .L125+12
 755 00ba 0020     		movs	r0, #0
 756 00bc 1870     		strb	r0, [r3]
 153:quantum/process_keycode/process_music.c ****                 music_sequence_count     = 0;
 757              		.loc 1 153 0
 758 00be 484B     		ldr	r3, .L125+16
 759 00c0 1870     		strb	r0, [r3]
 154:quantum/process_keycode/process_music.c ****                 return false;
 760              		.loc 1 154 0
 761 00c2 484B     		ldr	r3, .L125+20
 762              	.L124:
 164:quantum/process_keycode/process_music.c ****                 return false;
 763              		.loc 1 164 0
 764 00c4 1870     		strb	r0, [r3]
 765              	.L58:
 766              	.LBE38:
 223:quantum/process_keycode/process_music.c **** 
 767              		.loc 1 223 0
 768 00c6 0AB0     		add	sp, sp, #40
 769              		.cfi_remember_state
 770              		.cfi_def_cfa_offset 24
 771              		@ sp needed
 772 00c8 BDE8F081 		pop	{r4, r5, r6, r7, r8, pc}
 773              	.LVL36:
 774              	.L70:
 775              		.cfi_restore_state
 776              	.LBB39:
 158:quantum/process_keycode/process_music.c ****                 music_all_notes_off();
 777              		.loc 1 158 0
 778 00cc E22D     		cmp	r5, #226
 779 00ce 0BD1     		bne	.L71
 159:quantum/process_keycode/process_music.c ****                 if (music_sequence_recording) {  // was recording
 780              		.loc 1 159 0
 781 00d0 FFF7FEFF 		bl	music_all_notes_off
 782              	.LVL37:
 160:quantum/process_keycode/process_music.c ****                     music_sequence_recorded = true;
 783              		.loc 1 160 0
 784 00d4 404B     		ldr	r3, .L125+8
 785 00d6 1A78     		ldrb	r2, [r3]	@ zero_extendqisi2
 786 00d8 12B1     		cbz	r2, .L72
 161:quantum/process_keycode/process_music.c ****                 }
 787              		.loc 1 161 0
 788 00da 404A     		ldr	r2, .L125+12
 789 00dc 0121     		movs	r1, #1
 790 00de 1170     		strb	r1, [r2]
 791              	.L72:
 163:quantum/process_keycode/process_music.c ****                 music_sequence_playing   = false;
 792              		.loc 1 163 0
 793 00e0 0020     		movs	r0, #0
 794 00e2 1870     		strb	r0, [r3]
 164:quantum/process_keycode/process_music.c ****                 return false;
 795              		.loc 1 164 0
 796 00e4 3E4B     		ldr	r3, .L125+16
 797 00e6 EDE7     		b	.L124
 798              	.LVL38:
 799              	.L71:
 168:quantum/process_keycode/process_music.c ****                 music_all_notes_off();
 800              		.loc 1 168 0
 801 00e8 E32D     		cmp	r5, #227
 802 00ea 0FD1     		bne	.L73
 168:quantum/process_keycode/process_music.c ****                 music_all_notes_off();
 803              		.loc 1 168 0 is_stmt 0 discriminator 1
 804 00ec 3B4B     		ldr	r3, .L125+12
 805 00ee 1B78     		ldrb	r3, [r3]	@ zero_extendqisi2
 806 00f0 CBB1     		cbz	r3, .L69
 169:quantum/process_keycode/process_music.c ****                 music_sequence_recording = false;
 807              		.loc 1 169 0 is_stmt 1
 808 00f2 FFF7FEFF 		bl	music_all_notes_off
 809              	.LVL39:
 170:quantum/process_keycode/process_music.c ****                 music_sequence_playing   = true;
 810              		.loc 1 170 0
 811 00f6 384B     		ldr	r3, .L125+8
 812 00f8 0020     		movs	r0, #0
 813 00fa 1870     		strb	r0, [r3]
 171:quantum/process_keycode/process_music.c ****                 music_sequence_position  = 0;
 814              		.loc 1 171 0
 815 00fc 384B     		ldr	r3, .L125+16
 816 00fe 0122     		movs	r2, #1
 817 0100 1A70     		strb	r2, [r3]
 172:quantum/process_keycode/process_music.c ****                 music_sequence_timer     = 0;
 818              		.loc 1 172 0
 819 0102 394B     		ldr	r3, .L125+24
 820 0104 1870     		strb	r0, [r3]
 173:quantum/process_keycode/process_music.c ****                 return false;
 821              		.loc 1 173 0
 822 0106 394B     		ldr	r3, .L125+28
 823 0108 1880     		strh	r0, [r3]	@ movhi
 174:quantum/process_keycode/process_music.c ****             }
 824              		.loc 1 174 0
 825 010a DCE7     		b	.L58
 826              	.LVL40:
 827              	.L73:
 177:quantum/process_keycode/process_music.c ****                 music_sequence_interval -= 10;
 828              		.loc 1 177 0
 829 010c 522D     		cmp	r5, #82
 830 010e 04D1     		bne	.L74
 178:quantum/process_keycode/process_music.c ****                 return false;
 831              		.loc 1 178 0
 832 0110 374A     		ldr	r2, .L125+32
 833 0112 1388     		ldrh	r3, [r2]
 834 0114 0A3B     		subs	r3, r3, #10
 835              	.L123:
 183:quantum/process_keycode/process_music.c ****                 return false;
 836              		.loc 1 183 0
 837 0116 1380     		strh	r3, [r2]	@ movhi
 838 0118 7FE7     		b	.L122
 839              	.L74:
 182:quantum/process_keycode/process_music.c ****                 music_sequence_interval += 10;
 840              		.loc 1 182 0
 841 011a 512D     		cmp	r5, #81
 842 011c 03D1     		bne	.L69
 183:quantum/process_keycode/process_music.c ****                 return false;
 843              		.loc 1 183 0
 844 011e 344A     		ldr	r2, .L125+32
 845 0120 1388     		ldrh	r3, [r2]
 846 0122 0A33     		adds	r3, r3, #10
 847 0124 F7E7     		b	.L123
 848              	.L69:
 849              	.LVL41:
 850 0126 4B78     		ldrb	r3, [r1, #1]	@ zero_extendqisi2
 851 0128 3248     		ldr	r0, .L125+36
 852              	.LVL42:
 853 012a 0978     		ldrb	r1, [r1]	@ zero_extendqisi2
 854              	.LVL43:
 855 012c 0624     		movs	r4, #6
 856 012e 04FB0303 		mla	r3, r4, r3, r0
 857 0132 13F801C0 		ldrb	ip, [r3, r1]	@ zero_extendqisi2
 858 0136 304B     		ldr	r3, .L125+40
 859 0138 1C78     		ldrb	r4, [r3]	@ zero_extendqisi2
 860 013a 304B     		ldr	r3, .L125+44
 861 013c 1B68     		ldr	r3, [r3]
 862 013e 2434     		adds	r4, r4, #36
 863 0140 1C44     		add	r4, r4, r3
 190:quantum/process_keycode/process_music.c ****             note = music_starting_note + music_offset + 36 + music_map[record->event.key.row][recor
 864              		.loc 1 190 0
 865 0142 2F4B     		ldr	r3, .L125+48
 866 0144 1B78     		ldrb	r3, [r3]	@ zero_extendqisi2
 867 0146 E4B2     		uxtb	r4, r4
 868 0148 BBB9     		cbnz	r3, .L75
 191:quantum/process_keycode/process_music.c ****         } else {
 869              		.loc 1 191 0
 870 014a 6444     		add	r4, r4, ip
 871              	.L121:
 872              	.LBB30:
 194:quantum/process_keycode/process_music.c ****         }
 873              		.loc 1 194 0
 874 014c E4B2     		uxtb	r4, r4
 875              	.LVL44:
 876              	.LBE30:
 209:quantum/process_keycode/process_music.c ****             music_noteon(note);
 877              		.loc 1 209 0
 878 014e 002E     		cmp	r6, #0
 879 0150 36D0     		beq	.L78
 880              	.LVL45:
 881              	.LBB31:
 882              	.LBB32:
  78:quantum/process_keycode/process_music.c **** #    endif
 883              		.loc 1 78 0
 884 0152 12B1     		cbz	r2, .L79
 885 0154 2046     		mov	r0, r4
 886 0156 FFF7FEFF 		bl	process_audio_noteon
 887              	.LVL46:
 888              	.L79:
 889              	.LBE32:
 890              	.LBE31:
 211:quantum/process_keycode/process_music.c ****                 music_sequence[music_sequence_count] = note;
 891              		.loc 1 211 0
 892 015a 1F4B     		ldr	r3, .L125+8
 893 015c 1B78     		ldrb	r3, [r3]	@ zero_extendqisi2
 894 015e 2BB1     		cbz	r3, .L81
 212:quantum/process_keycode/process_music.c ****                 music_sequence_count++;
 895              		.loc 1 212 0
 896 0160 204A     		ldr	r2, .L125+20
 897 0162 2849     		ldr	r1, .L125+52
 898 0164 1378     		ldrb	r3, [r2]	@ zero_extendqisi2
 899 0166 CC54     		strb	r4, [r1, r3]
 213:quantum/process_keycode/process_music.c ****             }
 900              		.loc 1 213 0
 901 0168 0133     		adds	r3, r3, #1
 902 016a 1370     		strb	r3, [r2]
 903              	.L81:
 904              	.LVL47:
 905              	.LBB33:
 906              	.LBB34:
 229:quantum/process_keycode/process_music.c **** #    endif
 907              		.loc 1 229 0
 908 016c 2846     		mov	r0, r5
 909 016e FFF7FEFF 		bl	music_mask_kb
 910              	.LVL48:
 911              	.LBE34:
 912              	.LBE33:
 219:quantum/process_keycode/process_music.c ****     }
 913              		.loc 1 219 0
 914 0172 80F00100 		eor	r0, r0, #1
 915 0176 C0B2     		uxtb	r0, r0
 916 0178 A5E7     		b	.L58
 917              	.LVL49:
 918              	.L75:
 919              	.LBB35:
 194:quantum/process_keycode/process_music.c ****         }
 920              		.loc 1 194 0
 921 017a 234B     		ldr	r3, .L125+56
 922 017c 01AF     		add	r7, sp, #4
 923 017e 03F12008 		add	r8, r3, #32
 924              	.LVL50:
 925              	.L77:
 926 0182 1868     		ldr	r0, [r3]	@ unaligned
 927 0184 5968     		ldr	r1, [r3, #4]	@ unaligned
 928 0186 BE46     		mov	lr, r7
 929 0188 AEE80300 		stmia	lr!, {r0, r1}
 930 018c 0833     		adds	r3, r3, #8
 931 018e 4345     		cmp	r3, r8
 932 0190 7746     		mov	r7, lr
 933 0192 F6D1     		bne	.L77
 934 0194 1988     		ldrh	r1, [r3]	@ unaligned
 935 0196 AEF80010 		strh	r1, [lr]	@ unaligned
 936 019a 9B78     		ldrb	r3, [r3, #2]	@ zero_extendqisi2
 937 019c 8EF80230 		strb	r3, [lr, #2]
 938 01a0 0C21     		movs	r1, #12
 939 01a2 BCFBF1F3 		udiv	r3, ip, r1
 940 01a6 03EB4300 		add	r0, r3, r3, lsl #1
 941 01aa 01FB13C3 		mls	r3, r1, r3, ip
 942 01ae 0AA9     		add	r1, sp, #40
 943 01b0 51FA83F3 		uxtab	r3, r1, r3
 944 01b4 04EB8004 		add	r4, r4, r0, lsl #2
 945 01b8 13F8243C 		ldrb	r3, [r3, #-36]	@ zero_extendqisi2
 946 01bc 1C44     		add	r4, r4, r3
 947 01be C5E7     		b	.L121
 948              	.LVL51:
 949              	.L78:
 950              	.LBE35:
 951              	.LBB36:
 952              	.LBB37:
  87:quantum/process_keycode/process_music.c **** #    endif
 953              		.loc 1 87 0
 954 01c0 002A     		cmp	r2, #0
 955 01c2 D3D0     		beq	.L81
 956 01c4 2046     		mov	r0, r4
 957 01c6 FFF7FEFF 		bl	process_audio_noteoff
 958              	.LVL52:
 959 01ca CFE7     		b	.L81
 960              	.LVL53:
 961              	.L83:
 962              	.LBE37:
 963              	.LBE36:
 964              	.LBE39:
 222:quantum/process_keycode/process_music.c **** }
 965              		.loc 1 222 0
 966 01cc 0120     		movs	r0, #1
 967              	.LVL54:
 968 01ce 7AE7     		b	.L58
 969              	.L126:
 970              		.align	2
 971              	.L125:
 972 01d0 00000000 		.word	.LANCHOR0
 973 01d4 00000000 		.word	.LANCHOR2
 974 01d8 00000000 		.word	.LANCHOR14
 975 01dc 00000000 		.word	.LANCHOR15
 976 01e0 00000000 		.word	.LANCHOR6
 977 01e4 00000000 		.word	.LANCHOR10
 978 01e8 00000000 		.word	.LANCHOR8
 979 01ec 00000000 		.word	.LANCHOR7
 980 01f0 00000000 		.word	.LANCHOR9
 981 01f4 00000000 		.word	music_map
 982 01f8 00000000 		.word	.LANCHOR16
 983 01fc 00000000 		.word	.LANCHOR17
 984 0200 00000000 		.word	.LANCHOR4
 985 0204 00000000 		.word	.LANCHOR11
 986 0208 00000000 		.word	.LANCHOR18
 987              		.cfi_endproc
 988              	.LFE290:
 990              		.section	.text.midi_toggle,"ax",%progbits
 991              		.align	1
 992              		.global	midi_toggle
 993              		.syntax unified
 994              		.thumb
 995              		.thumb_func
 996              		.fpu softvfp
 998              	midi_toggle:
 999              	.LFB299:
 265:quantum/process_keycode/process_music.c ****     if (!midi_activated) {
 1000              		.loc 1 265 0
 1001              		.cfi_startproc
 1002              		@ args = 0, pretend = 0, frame = 0
 1003              		@ frame_needed = 0, uses_anonymous_args = 0
 1004              		@ link register save eliminated.
 266:quantum/process_keycode/process_music.c ****         midi_on();
 1005              		.loc 1 266 0
 1006 0000 034B     		ldr	r3, .L129
 1007 0002 1B78     		ldrb	r3, [r3]	@ zero_extendqisi2
 1008 0004 0BB9     		cbnz	r3, .L128
 267:quantum/process_keycode/process_music.c ****     } else {
 1009              		.loc 1 267 0
 1010 0006 FFF7FEBF 		b	midi_on
 1011              	.LVL55:
 1012              	.L128:
 269:quantum/process_keycode/process_music.c ****     }
 1013              		.loc 1 269 0
 1014 000a FFF7FEBF 		b	midi_off
 1015              	.LVL56:
 1016              	.L130:
 1017 000e 00BF     		.align	2
 1018              	.L129:
 1019 0010 00000000 		.word	.LANCHOR2
 1020              		.cfi_endproc
 1021              	.LFE299:
 1023              		.section	.text.music_scale_user,"ax",%progbits
 1024              		.align	1
 1025              		.weak	music_scale_user
 1026              		.syntax unified
 1027              		.thumb
 1028              		.thumb_func
 1029              		.fpu softvfp
 1031              	music_scale_user:
 1032              	.LFB310:
 1033              		.cfi_startproc
 1034              		@ args = 0, pretend = 0, frame = 0
 1035              		@ frame_needed = 0, uses_anonymous_args = 0
 1036              		@ link register save eliminated.
 1037 0000 7047     		bx	lr
 1038              		.cfi_endproc
 1039              	.LFE310:
 1041              		.global	midi_off_song
 1042              		.global	midi_on_song
 1043              		.global	music_off_song
 1044              		.global	music_on_song
 1045              		.global	music_mode_songs
 1046              		.global	music_mode
 1047              		.global	music_offset
 1048              		.global	music_starting_note
 1049              		.global	midi_activated
 1050              		.global	music_activated
 1051              		.section	.rodata
 1052              		.set	.LANCHOR18,. + 0
 1053              	.LC0:
 1054 0000 00       		.byte	0
 1055 0001 02       		.byte	2
 1056 0002 04       		.byte	4
 1057 0003 05       		.byte	5
 1058 0004 07       		.byte	7
 1059 0005 09       		.byte	9
 1060 0006 0B       		.byte	11
 1061 0007 0C       		.byte	12
 1062 0008 0E       		.byte	14
 1063 0009 10       		.byte	16
 1064 000a 11       		.byte	17
 1065 000b 13       		.byte	19
 1066 000c 15       		.byte	21
 1067 000d 17       		.byte	23
 1068 000e 18       		.byte	24
 1069 000f 1A       		.byte	26
 1070 0010 1C       		.byte	28
 1071 0011 1D       		.byte	29
 1072 0012 1F       		.byte	31
 1073 0013 21       		.byte	33
 1074 0014 23       		.byte	35
 1075 0015 24       		.byte	36
 1076 0016 26       		.byte	38
 1077 0017 28       		.byte	40
 1078 0018 29       		.byte	41
 1079 0019 2B       		.byte	43
 1080 001a 2D       		.byte	45
 1081 001b 2F       		.byte	47
 1082 001c 30       		.byte	48
 1083 001d 32       		.byte	50
 1084 001e 34       		.byte	52
 1085 001f 35       		.byte	53
 1086 0020 37       		.byte	55
 1087 0021 39       		.byte	57
 1088 0022 3B       		.byte	59
 1089              		.section	.bss.midi_activated,"aw",%nobits
 1090              		.set	.LANCHOR2,. + 0
 1093              	midi_activated:
 1094 0000 00       		.space	1
 1095              		.section	.bss.music_activated,"aw",%nobits
 1096              		.set	.LANCHOR0,. + 0
 1099              	music_activated:
 1100 0000 00       		.space	1
 1101              		.section	.bss.music_sequence,"aw",%nobits
 1102              		.set	.LANCHOR11,. + 0
 1105              	music_sequence:
 1106 0000 00000000 		.space	16
 1106      00000000 
 1106      00000000 
 1106      00000000 
 1107              		.section	.bss.music_sequence_count,"aw",%nobits
 1108              		.set	.LANCHOR10,. + 0
 1111              	music_sequence_count:
 1112 0000 00       		.space	1
 1113              		.section	.bss.music_sequence_playing,"aw",%nobits
 1114              		.set	.LANCHOR6,. + 0
 1117              	music_sequence_playing:
 1118 0000 00       		.space	1
 1119              		.section	.bss.music_sequence_position,"aw",%nobits
 1120              		.set	.LANCHOR8,. + 0
 1123              	music_sequence_position:
 1124 0000 00       		.space	1
 1125              		.section	.bss.music_sequence_recorded,"aw",%nobits
 1126              		.set	.LANCHOR15,. + 0
 1129              	music_sequence_recorded:
 1130 0000 00       		.space	1
 1131              		.section	.bss.music_sequence_recording,"aw",%nobits
 1132              		.set	.LANCHOR14,. + 0
 1135              	music_sequence_recording:
 1136 0000 00       		.space	1
 1137              		.section	.bss.music_sequence_timer,"aw",%nobits
 1138              		.align	1
 1139              		.set	.LANCHOR7,. + 0
 1142              	music_sequence_timer:
 1143 0000 0000     		.space	2
 1144              		.section	.data.midi_off_song,"aw",%progbits
 1145              		.align	2
 1146              		.set	.LANCHOR3,. + 0
 1149              	midi_off_song:
 1150 0000 0000DC44 		.word	1155268608
 1151 0004 00000041 		.word	1090519040
 1152 0008 0AA7CF44 		.word	1154459402
 1153 000c 00000041 		.word	1090519040
 1154 0010 5CFFB844 		.word	1152974684
 1155 0014 00000041 		.word	1090519040
 1156 0018 52D0A444 		.word	1151651922
 1157 001c 00000041 		.word	1090519040
 1158 0020 1FD59244 		.word	1150473503
 1159 0024 00000041 		.word	1090519040
 1160 0028 5C978A44 		.word	1149933404
 1161 002c 00000041 		.word	1090519040
 1162 0030 48F17644 		.word	1148645704
 1163 0034 00000041 		.word	1090519040
 1164 0038 00005C44 		.word	1146880000
 1165 003c 00000041 		.word	1090519040
 1166              		.section	.data.midi_on_song,"aw",%progbits
 1167              		.align	2
 1168              		.set	.LANCHOR13,. + 0
 1171              	midi_on_song:
 1172 0000 00005C44 		.word	1146880000
 1173 0004 00000041 		.word	1090519040
 1174 0008 48F17644 		.word	1148645704
 1175 000c 00000041 		.word	1090519040
 1176 0010 5C978A44 		.word	1149933404
 1177 0014 00000041 		.word	1090519040
 1178 0018 1FD59244 		.word	1150473503
 1179 001c 00000041 		.word	1090519040
 1180 0020 52D0A444 		.word	1151651922
 1181 0024 00000041 		.word	1090519040
 1182 0028 5CFFB844 		.word	1152974684
 1183 002c 00000041 		.word	1090519040
 1184 0030 0AA7CF44 		.word	1154459402
 1185 0034 00000041 		.word	1090519040
 1186 0038 0000DC44 		.word	1155268608
 1187 003c 00000041 		.word	1090519040
 1188              		.section	.data.music_mode,"aw",%progbits
 1189              		.set	.LANCHOR4,. + 0
 1192              	music_mode:
 1193 0000 03       		.byte	3
 1194              		.section	.data.music_mode_songs,"aw",%progbits
 1195              		.align	2
 1196              		.set	.LANCHOR5,. + 0
 1199              	music_mode_songs:
 1200 0000 00005C44 		.word	1146880000
 1201 0004 00008041 		.word	1098907648
 1202 0008 1F156944 		.word	1147737375
 1203 000c 00008041 		.word	1098907648
 1204 0010 48F17644 		.word	1148645704
 1205 0014 00008041 		.word	1098907648
 1206 0018 00D08244 		.word	1149423616
 1207 001c 00008041 		.word	1098907648
 1208 0020 5C978A44 		.word	1149933404
 1209 0024 00008041 		.word	1098907648
 1210 0028 A4D02444 		.word	1143263396
 1211 002c 00008041 		.word	1098907648
 1212 0030 00005C44 		.word	1146880000
 1213 0034 00008041 		.word	1098907648
 1214 0038 1FD59244 		.word	1150473503
 1215 003c 00008041 		.word	1098907648
 1216 0040 5CFFC344 		.word	1153695580
 1217 0044 00008041 		.word	1098907648
 1218 0048 00000000 		.space	8
 1218      00000000 
 1219 0050 5CFF4344 		.word	1145306972
 1220 0054 00008041 		.word	1098907648
 1221 0058 1FD59244 		.word	1150473503
 1222 005c 00008041 		.word	1098907648
 1223 0060 0000DC44 		.word	1155268608
 1224 0064 00008041 		.word	1098907648
 1225 0068 52D02445 		.word	1160040530
 1226 006c 00008041 		.word	1098907648
 1227 0070 00000000 		.space	8
 1227      00000000 
 1228 0078 00005C44 		.word	1146880000
 1229 007c 00008041 		.word	1098907648
 1230 0080 48F17644 		.word	1148645704
 1231 0084 00008041 		.word	1098907648
 1232 0088 5C978A44 		.word	1149933404
 1233 008c 00008041 		.word	1098907648
 1234 0090 1FD59244 		.word	1150473503
 1235 0094 00008041 		.word	1098907648
 1236 0098 52D0A444 		.word	1151651922
 1237 009c 00008041 		.word	1098907648
 1238              		.section	.data.music_off_song,"aw",%progbits
 1239              		.align	2
 1240              		.set	.LANCHOR1,. + 0
 1243              	music_off_song:
 1244 0000 0000DC44 		.word	1155268608
 1245 0004 00000041 		.word	1090519040
 1246 0008 0AA7CF44 		.word	1154459402
 1247 000c 00000041 		.word	1090519040
 1248 0010 5CFFB844 		.word	1152974684
 1249 0014 00000041 		.word	1090519040
 1250 0018 52D0A444 		.word	1151651922
 1251 001c 00000041 		.word	1090519040
 1252 0020 1FD59244 		.word	1150473503
 1253 0024 00000041 		.word	1090519040
 1254 0028 5C978A44 		.word	1149933404
 1255 002c 00000041 		.word	1090519040
 1256 0030 48F17644 		.word	1148645704
 1257 0034 00000041 		.word	1090519040
 1258 0038 00005C44 		.word	1146880000
 1259 003c 00000041 		.word	1090519040
 1260              		.section	.data.music_offset,"aw",%progbits
 1261              		.align	2
 1262              		.set	.LANCHOR17,. + 0
 1265              	music_offset:
 1266 0000 07000000 		.word	7
 1267              		.section	.data.music_on_song,"aw",%progbits
 1268              		.align	2
 1269              		.set	.LANCHOR12,. + 0
 1272              	music_on_song:
 1273 0000 00005C44 		.word	1146880000
 1274 0004 00000041 		.word	1090519040
 1275 0008 48F17644 		.word	1148645704
 1276 000c 00000041 		.word	1090519040
 1277 0010 5C978A44 		.word	1149933404
 1278 0014 00000041 		.word	1090519040
 1279 0018 1FD59244 		.word	1150473503
 1280 001c 00000041 		.word	1090519040
 1281 0020 52D0A444 		.word	1151651922
 1282 0024 00000041 		.word	1090519040
 1283 0028 5CFFB844 		.word	1152974684
 1284 002c 00000041 		.word	1090519040
 1285 0030 0AA7CF44 		.word	1154459402
 1286 0034 00000041 		.word	1090519040
 1287 0038 0000DC44 		.word	1155268608
 1288 003c 00000041 		.word	1090519040
 1289              		.section	.data.music_sequence_interval,"aw",%progbits
 1290              		.align	1
 1291              		.set	.LANCHOR9,. + 0
 1294              	music_sequence_interval:
 1295 0000 6400     		.short	100
 1296              		.section	.data.music_starting_note,"aw",%progbits
 1297              		.set	.LANCHOR16,. + 0
 1300              	music_starting_note:
 1301 0000 0C       		.byte	12
 1302              		.text
 1303              	.Letext0:
 1304              		.file 2 "/usr/local/Cellar/gcc-arm-none-eabi/20180627/lib/gcc/arm-none-eabi/7.3.1/include/stddef.h
 1305              		.file 3 "/usr/local/Cellar/gcc-arm-none-eabi/20180627/arm-none-eabi/include/machine/_default_types
 1306              		.file 4 "/usr/local/Cellar/gcc-arm-none-eabi/20180627/arm-none-eabi/include/sys/_stdint.h"
 1307              		.file 5 "./lib/chibios/os/common/ports/ARMCMx/compilers/GCC/chtypes.h"
 1308              		.file 6 "./lib/chibios/os/rt/include/chsystypes.h"
 1309              		.file 7 "./lib/chibios/os/rt/include/chschd.h"
 1310              		.file 8 "./lib/chibios/os/common/ext/CMSIS/include/core_cm4.h"
 1311              		.file 9 "./lib/chibios/os/common/ext/CMSIS/ST/STM32F3xx/system_stm32f3xx.h"
 1312              		.file 10 "./lib/chibios/os/common/ext/CMSIS/ST/STM32F3xx/stm32f303xc.h"
 1313              		.file 11 "./lib/chibios/os/common/ports/ARMCMx/chcore.h"
 1314              		.file 12 "./lib/chibios/os/common/ports/ARMCMx/chcore_v7m.h"
 1315              		.file 13 "./lib/chibios/os/hal/ports/STM32/LLD/TIMv1/stm32_tim.h"
 1316              		.file 14 "./lib/chibios/os/rt/include/chtm.h"
 1317              		.file 15 "./lib/chibios/os/rt/include/chsem.h"
 1318              		.file 16 "./lib/chibios/os/rt/include/chmtx.h"
 1319              		.file 17 "./lib/chibios/os/rt/include/chsys.h"
 1320              		.file 18 "./lib/chibios/os/rt/include/chregistry.h"
 1321              		.file 19 "./lib/chibios/os/common/oslib/include/chmemcore.h"
 1322              		.file 20 "./lib/chibios/os/hal/ports/STM32/LLD/DMAv1/stm32_dma.h"
 1323              		.file 21 "./lib/chibios/os/hal/ports/STM32/LLD/GPIOv2/hal_pal_lld.h"
 1324              		.file 22 "./lib/chibios/os/hal/include/hal_dac.h"
 1325              		.file 23 "./lib/chibios/os/hal/ports/STM32/LLD/DACv1/hal_dac_lld.h"
 1326              		.file 24 "./lib/chibios/os/hal/include/hal_gpt.h"
 1327              		.file 25 "./lib/chibios/os/hal/ports/STM32/LLD/TIMv1/hal_gpt_lld.h"
 1328              		.file 26 "./lib/chibios/os/hal/include/hal_i2c.h"
 1329              		.file 27 "./lib/chibios/os/hal/ports/STM32/LLD/I2Cv2/hal_i2c_lld.h"
 1330              		.file 28 "./lib/chibios/os/hal/include/hal_pwm.h"
 1331              		.file 29 "./lib/chibios/os/hal/ports/STM32/LLD/TIMv1/hal_pwm_lld.h"
 1332              		.file 30 "./lib/chibios/os/hal/include/hal_usb.h"
 1333              		.file 31 "./lib/chibios/os/hal/ports/STM32/LLD/USBv1/hal_usb_lld.h"
 1334              		.file 32 "tmk_core/common/keyboard.h"
 1335              		.file 33 "tmk_core/common/action.h"
 1336              		.file 34 "tmk_core/common/report.h"
 1337              		.file 35 "tmk_core/common/host.h"
 1338              		.file 36 "tmk_core/common/debug.h"
 1339              		.file 37 "quantum/keycode_config.h"
 1340              		.file 38 "tmk_core/common/keycode.h"
 1341              		.file 39 "quantum/quantum_keycodes.h"
 1342              		.file 40 "quantum/keymap.h"
 1343              		.file 41 "tmk_core/common/action_layer.h"
 1344              		.file 42 "tmk_core/common/timer.h"
 1345              		.file 43 "tmk_core/common/action_util.h"
 1346              		.file 44 "/usr/local/Cellar/gcc-arm-none-eabi/20180627/arm-none-eabi/include/sys/lock.h"
 1347              		.file 45 "/usr/local/Cellar/gcc-arm-none-eabi/20180627/arm-none-eabi/include/sys/_types.h"
 1348              		.file 46 "/usr/local/Cellar/gcc-arm-none-eabi/20180627/arm-none-eabi/include/sys/reent.h"
 1349              		.file 47 "/usr/local/Cellar/gcc-arm-none-eabi/20180627/arm-none-eabi/include/stdlib.h"
 1350              		.file 48 "quantum/audio/luts.h"
 1351              		.file 49 "/usr/local/Cellar/gcc-arm-none-eabi/20180627/arm-none-eabi/include/math.h"
 1352              		.file 50 "quantum/quantum.h"
 1353              		.file 51 "quantum/process_keycode/process_music.h"
 1354              		.file 52 "quantum/process_keycode/process_audio.h"
 1355              		.file 53 "quantum/audio/audio.h"