   1              		.cpu cortex-m4
   2              		.eabi_attribute 27, 1
   3              		.eabi_attribute 28, 1
   4              		.eabi_attribute 20, 1
   5              		.eabi_attribute 21, 1
   6              		.eabi_attribute 23, 3
   7              		.eabi_attribute 24, 1
   8              		.eabi_attribute 25, 1
   9              		.eabi_attribute 26, 1
  10              		.eabi_attribute 30, 4
  11              		.eabi_attribute 34, 1
  12              		.eabi_attribute 18, 4
  13              		.file	"clks.c"
  14              		.text
  15              	.Ltext0:
  16              		.cfi_sections	.debug_frame
  17              		.section	.text.CLK_oscctrl_init,"ax",%progbits
  18              		.align	1
  19              		.global	CLK_oscctrl_init
  20              		.syntax unified
  21              		.thumb
  22              		.thumb_func
  23              		.fpu fpv4-sp-d16
  25              	CLK_oscctrl_init:
  26              	.LFB145:
  27              		.file 1 "tmk_core/protocol/arm_atsam/clks.c"
   1:tmk_core/protocol/arm_atsam/clks.c **** /*
   2:tmk_core/protocol/arm_atsam/clks.c **** Copyright 2018 Massdrop Inc.
   3:tmk_core/protocol/arm_atsam/clks.c **** 
   4:tmk_core/protocol/arm_atsam/clks.c **** This program is free software: you can redistribute it and/or modify
   5:tmk_core/protocol/arm_atsam/clks.c **** it under the terms of the GNU General Public License as published by
   6:tmk_core/protocol/arm_atsam/clks.c **** the Free Software Foundation, either version 2 of the License, or
   7:tmk_core/protocol/arm_atsam/clks.c **** (at your option) any later version.
   8:tmk_core/protocol/arm_atsam/clks.c **** 
   9:tmk_core/protocol/arm_atsam/clks.c **** This program is distributed in the hope that it will be useful,
  10:tmk_core/protocol/arm_atsam/clks.c **** but WITHOUT ANY WARRANTY; without even the implied warranty of
  11:tmk_core/protocol/arm_atsam/clks.c **** MERCHANTABILITY or FITNESS FOR A PARTICULAR PURPOSE.  See the
  12:tmk_core/protocol/arm_atsam/clks.c **** GNU General Public License for more details.
  13:tmk_core/protocol/arm_atsam/clks.c **** 
  14:tmk_core/protocol/arm_atsam/clks.c **** You should have received a copy of the GNU General Public License
  15:tmk_core/protocol/arm_atsam/clks.c **** along with this program.  If not, see <http://www.gnu.org/licenses/>.
  16:tmk_core/protocol/arm_atsam/clks.c **** */
  17:tmk_core/protocol/arm_atsam/clks.c **** 
  18:tmk_core/protocol/arm_atsam/clks.c **** #include "arm_atsam_protocol.h"
  19:tmk_core/protocol/arm_atsam/clks.c **** 
  20:tmk_core/protocol/arm_atsam/clks.c **** #include <string.h>
  21:tmk_core/protocol/arm_atsam/clks.c **** 
  22:tmk_core/protocol/arm_atsam/clks.c **** volatile clk_t    system_clks;
  23:tmk_core/protocol/arm_atsam/clks.c **** volatile uint64_t ms_clk;
  24:tmk_core/protocol/arm_atsam/clks.c **** uint32_t          usec_delay_mult;
  25:tmk_core/protocol/arm_atsam/clks.c **** #define USEC_DELAY_LOOP_CYCLES 3  // Sum of instruction cycles in us delay loop
  26:tmk_core/protocol/arm_atsam/clks.c **** 
  27:tmk_core/protocol/arm_atsam/clks.c **** const uint32_t sercom_apbbase[] = {(uint32_t)SERCOM0, (uint32_t)SERCOM1, (uint32_t)SERCOM2, (uint32
  28:tmk_core/protocol/arm_atsam/clks.c **** const uint8_t  sercom_pchan[]   = {7, 8, 23, 24, 34, 35};
  29:tmk_core/protocol/arm_atsam/clks.c **** 
  30:tmk_core/protocol/arm_atsam/clks.c **** #define USE_DPLL_IND 0
  31:tmk_core/protocol/arm_atsam/clks.c **** #define USE_DPLL_DEF GCLK_SOURCE_DPLL0
  32:tmk_core/protocol/arm_atsam/clks.c **** 
  33:tmk_core/protocol/arm_atsam/clks.c **** void CLK_oscctrl_init(void) {
  28              		.loc 1 33 0
  29              		.cfi_startproc
  30              		@ args = 0, pretend = 0, frame = 0
  31              		@ frame_needed = 0, uses_anonymous_args = 0
  32              	.LVL0:
  33 0000 10B5     		push	{r4, lr}
  34              		.cfi_def_cfa_offset 8
  35              		.cfi_offset 4, -8
  36              		.cfi_offset 14, -4
  34:tmk_core/protocol/arm_atsam/clks.c ****     Oscctrl *posctrl = OSCCTRL;
  35:tmk_core/protocol/arm_atsam/clks.c ****     Gclk *   pgclk   = GCLK;
  36:tmk_core/protocol/arm_atsam/clks.c **** 
  37:tmk_core/protocol/arm_atsam/clks.c ****     DBGC(DC_CLK_OSC_INIT_BEGIN);
  37              		.loc 1 37 0
  38 0002 504A     		ldr	r2, .L21
  38:tmk_core/protocol/arm_atsam/clks.c **** 
  39:tmk_core/protocol/arm_atsam/clks.c ****     // default setup on por
  40:tmk_core/protocol/arm_atsam/clks.c ****     system_clks.freq_dfll    = FREQ_DFLL_DEFAULT;
  39              		.loc 1 40 0
  40 0004 5049     		ldr	r1, .L21+4
  37:tmk_core/protocol/arm_atsam/clks.c **** 
  41              		.loc 1 37 0
  42 0006 3223     		movs	r3, #50
  43 0008 1360     		str	r3, [r2]
  44              		.loc 1 40 0
  45 000a 504B     		ldr	r3, .L21+8
  46 000c 0B60     		str	r3, [r1]
  41:tmk_core/protocol/arm_atsam/clks.c ****     system_clks.freq_gclk[0] = system_clks.freq_dfll;
  47              		.loc 1 41 0
  48 000e 0B68     		ldr	r3, [r1]
  49 0010 0B62     		str	r3, [r1, #32]
  42:tmk_core/protocol/arm_atsam/clks.c **** 
  43:tmk_core/protocol/arm_atsam/clks.c ****     // configure and startup 16MHz xosc0
  44:tmk_core/protocol/arm_atsam/clks.c ****     posctrl->XOSCCTRL[0].bit.ENABLE   = 0;
  50              		.loc 1 44 0
  51 0012 4F4B     		ldr	r3, .L21+12
  52 0014 5869     		ldr	r0, [r3, #20]
  53 0016 6FF34100 		bfc	r0, #1, #1
  54 001a 5861     		str	r0, [r3, #20]
  45:tmk_core/protocol/arm_atsam/clks.c ****     posctrl->XOSCCTRL[0].bit.STARTUP  = 0xD;
  55              		.loc 1 45 0
  56 001c 5869     		ldr	r0, [r3, #20]
  57 001e 0D24     		movs	r4, #13
  58 0020 64F31750 		bfi	r0, r4, #20, #4
  59 0024 5861     		str	r0, [r3, #20]
  46:tmk_core/protocol/arm_atsam/clks.c ****     posctrl->XOSCCTRL[0].bit.ENALC    = 1;
  60              		.loc 1 46 0
  61 0026 5869     		ldr	r0, [r3, #20]
  62 0028 40F40040 		orr	r0, r0, #32768
  63 002c 5861     		str	r0, [r3, #20]
  47:tmk_core/protocol/arm_atsam/clks.c ****     posctrl->XOSCCTRL[0].bit.IMULT    = 5;
  64              		.loc 1 47 0
  65 002e 5869     		ldr	r0, [r3, #20]
  66 0030 0524     		movs	r4, #5
  67 0032 64F3CE20 		bfi	r0, r4, #11, #4
  68 0036 5861     		str	r0, [r3, #20]
  48:tmk_core/protocol/arm_atsam/clks.c ****     posctrl->XOSCCTRL[0].bit.IPTAT    = 3;
  69              		.loc 1 48 0
  70 0038 5869     		ldr	r0, [r3, #20]
  71 003a 40F4C060 		orr	r0, r0, #1536
  72 003e 5861     		str	r0, [r3, #20]
  49:tmk_core/protocol/arm_atsam/clks.c ****     posctrl->XOSCCTRL[0].bit.ONDEMAND = 0;
  73              		.loc 1 49 0
  74 0040 5869     		ldr	r0, [r3, #20]
  75 0042 6FF3C710 		bfc	r0, #7, #1
  76 0046 5861     		str	r0, [r3, #20]
  50:tmk_core/protocol/arm_atsam/clks.c ****     posctrl->XOSCCTRL[0].bit.XTALEN   = 1;
  77              		.loc 1 50 0
  78 0048 5869     		ldr	r0, [r3, #20]
  79 004a 40F00400 		orr	r0, r0, #4
  80 004e 5861     		str	r0, [r3, #20]
  51:tmk_core/protocol/arm_atsam/clks.c ****     posctrl->XOSCCTRL[0].bit.ENABLE   = 1;
  81              		.loc 1 51 0
  82 0050 5869     		ldr	r0, [r3, #20]
  83 0052 40F00200 		orr	r0, r0, #2
  84 0056 5861     		str	r0, [r3, #20]
  52:tmk_core/protocol/arm_atsam/clks.c ****     while (posctrl->STATUS.bit.XOSCRDY0 == 0) {
  53:tmk_core/protocol/arm_atsam/clks.c ****         DBGC(DC_CLK_OSC_INIT_XOSC0_SYNC);
  85              		.loc 1 53 0
  86 0058 3324     		movs	r4, #51
  87              	.L2:
  52:tmk_core/protocol/arm_atsam/clks.c ****     while (posctrl->STATUS.bit.XOSCRDY0 == 0) {
  88              		.loc 1 52 0
  89 005a 1869     		ldr	r0, [r3, #16]
  90 005c C007     		lsls	r0, r0, #31
  91 005e 61D5     		bpl	.L3
  54:tmk_core/protocol/arm_atsam/clks.c ****     }
  55:tmk_core/protocol/arm_atsam/clks.c ****     system_clks.freq_xosc0 = FREQ_XOSC0;
  92              		.loc 1 55 0
  93 0060 3C48     		ldr	r0, .L21+16
  94 0062 0865     		str	r0, [r1, #80]
  56:tmk_core/protocol/arm_atsam/clks.c **** 
  57:tmk_core/protocol/arm_atsam/clks.c ****     // configure and startup DPLL
  58:tmk_core/protocol/arm_atsam/clks.c ****     posctrl->Dpll[USE_DPLL_IND].DPLLCTRLA.bit.ENABLE = 0;
  95              		.loc 1 58 0
  96 0064 93F83000 		ldrb	r0, [r3, #48]	@ zero_extendqisi2
  97 0068 6FF34100 		bfc	r0, #1, #1
  98 006c 83F83000 		strb	r0, [r3, #48]
  59:tmk_core/protocol/arm_atsam/clks.c ****     while (posctrl->Dpll[USE_DPLL_IND].DPLLSYNCBUSY.bit.ENABLE) {
  99              		.loc 1 59 0
 100 0070 374B     		ldr	r3, .L21+12
  60:tmk_core/protocol/arm_atsam/clks.c ****         DBGC(DC_CLK_OSC_INIT_DPLL_SYNC_DISABLE);
 101              		.loc 1 60 0
 102 0072 3424     		movs	r4, #52
 103              	.L4:
  59:tmk_core/protocol/arm_atsam/clks.c ****     while (posctrl->Dpll[USE_DPLL_IND].DPLLSYNCBUSY.bit.ENABLE) {
 104              		.loc 1 59 0
 105 0074 D86B     		ldr	r0, [r3, #60]
 106 0076 8007     		lsls	r0, r0, #30
 107 0078 56D4     		bmi	.L5
  61:tmk_core/protocol/arm_atsam/clks.c ****     }
  62:tmk_core/protocol/arm_atsam/clks.c ****     posctrl->Dpll[USE_DPLL_IND].DPLLCTRLB.bit.REFCLK = 2;          // select XOSC0 (16MHz)
 108              		.loc 1 62 0
 109 007a 986B     		ldr	r0, [r3, #56]
 110 007c 0224     		movs	r4, #2
 111 007e 64F34710 		bfi	r0, r4, #5, #3
 112 0082 9863     		str	r0, [r3, #56]
  63:tmk_core/protocol/arm_atsam/clks.c ****     posctrl->Dpll[USE_DPLL_IND].DPLLCTRLB.bit.DIV    = 7;          // 16 MHz / (2 * (7 + 1)) = 1 MH
 113              		.loc 1 63 0
 114 0084 986B     		ldr	r0, [r3, #56]
 115 0086 0724     		movs	r4, #7
 116 0088 64F31A40 		bfi	r0, r4, #16, #11
 117 008c 9863     		str	r0, [r3, #56]
  64:tmk_core/protocol/arm_atsam/clks.c ****     posctrl->Dpll[USE_DPLL_IND].DPLLRATIO.bit.LDR    = PLL_RATIO;  // 1 MHz * (PLL_RATIO(47) + 1) =
 118              		.loc 1 64 0
 119 008e 586B     		ldr	r0, [r3, #52]
 120 0090 2F24     		movs	r4, #47
 121 0092 64F30C00 		bfi	r0, r4, #0, #13
 122 0096 5863     		str	r0, [r3, #52]
  65:tmk_core/protocol/arm_atsam/clks.c ****     while (posctrl->Dpll[USE_DPLL_IND].DPLLSYNCBUSY.bit.DPLLRATIO) {
 123              		.loc 1 65 0
 124 0098 2D4B     		ldr	r3, .L21+12
  66:tmk_core/protocol/arm_atsam/clks.c ****         DBGC(DC_CLK_OSC_INIT_DPLL_SYNC_RATIO);
 125              		.loc 1 66 0
 126 009a 3520     		movs	r0, #53
 127              	.L6:
  65:tmk_core/protocol/arm_atsam/clks.c ****     while (posctrl->Dpll[USE_DPLL_IND].DPLLSYNCBUSY.bit.DPLLRATIO) {
 128              		.loc 1 65 0
 129 009c DC6B     		ldr	r4, [r3, #60]
 130 009e C4F38004 		ubfx	r4, r4, #2, #1
 131 00a2 002C     		cmp	r4, #0
 132 00a4 42D1     		bne	.L7
  67:tmk_core/protocol/arm_atsam/clks.c ****     }
  68:tmk_core/protocol/arm_atsam/clks.c ****     posctrl->Dpll[USE_DPLL_IND].DPLLCTRLA.bit.ONDEMAND = 0;
 133              		.loc 1 68 0
 134 00a6 93F83000 		ldrb	r0, [r3, #48]	@ zero_extendqisi2
 135 00aa 64F3C710 		bfi	r0, r4, #7, #1
 136 00ae 83F83000 		strb	r0, [r3, #48]
  69:tmk_core/protocol/arm_atsam/clks.c ****     posctrl->Dpll[USE_DPLL_IND].DPLLCTRLA.bit.ENABLE   = 1;
 137              		.loc 1 69 0
 138 00b2 93F83000 		ldrb	r0, [r3, #48]	@ zero_extendqisi2
 139 00b6 40F00200 		orr	r0, r0, #2
 140 00ba 83F83000 		strb	r0, [r3, #48]
  70:tmk_core/protocol/arm_atsam/clks.c ****     while (posctrl->Dpll[USE_DPLL_IND].DPLLSYNCBUSY.bit.ENABLE) {
 141              		.loc 1 70 0
 142 00be 2448     		ldr	r0, .L21+12
  71:tmk_core/protocol/arm_atsam/clks.c ****         DBGC(DC_CLK_OSC_INIT_DPLL_SYNC_ENABLE);
 143              		.loc 1 71 0
 144 00c0 3624     		movs	r4, #54
 145              	.L8:
  70:tmk_core/protocol/arm_atsam/clks.c ****     while (posctrl->Dpll[USE_DPLL_IND].DPLLSYNCBUSY.bit.ENABLE) {
 146              		.loc 1 70 0
 147 00c2 C36B     		ldr	r3, [r0, #60]
 148 00c4 9B07     		lsls	r3, r3, #30
 149 00c6 33D4     		bmi	.L9
  72:tmk_core/protocol/arm_atsam/clks.c ****     }
  73:tmk_core/protocol/arm_atsam/clks.c ****     while (posctrl->Dpll[USE_DPLL_IND].DPLLSTATUS.bit.LOCK == 0) {
 150              		.loc 1 73 0
 151 00c8 2148     		ldr	r0, .L21+12
  74:tmk_core/protocol/arm_atsam/clks.c ****         DBGC(DC_CLK_OSC_INIT_DPLL_WAIT_LOCK);
 152              		.loc 1 74 0
 153 00ca 3724     		movs	r4, #55
 154              	.L10:
  73:tmk_core/protocol/arm_atsam/clks.c ****         DBGC(DC_CLK_OSC_INIT_DPLL_WAIT_LOCK);
 155              		.loc 1 73 0
 156 00cc 036C     		ldr	r3, [r0, #64]
 157 00ce DB07     		lsls	r3, r3, #31
 158 00d0 30D5     		bpl	.L19
  75:tmk_core/protocol/arm_atsam/clks.c ****     }
  76:tmk_core/protocol/arm_atsam/clks.c ****     while (posctrl->Dpll[USE_DPLL_IND].DPLLSTATUS.bit.CLKRDY == 0) {
 159              		.loc 1 76 0
 160 00d2 1F4C     		ldr	r4, .L21+12
  77:tmk_core/protocol/arm_atsam/clks.c ****         DBGC(DC_CLK_OSC_INIT_DPLL_WAIT_CLKRDY);
 161              		.loc 1 77 0
 162 00d4 3820     		movs	r0, #56
 163              	.L11:
  76:tmk_core/protocol/arm_atsam/clks.c ****         DBGC(DC_CLK_OSC_INIT_DPLL_WAIT_CLKRDY);
 164              		.loc 1 76 0
 165 00d6 236C     		ldr	r3, [r4, #64]
 166 00d8 9B07     		lsls	r3, r3, #30
 167 00da 2DD5     		bpl	.L13
  78:tmk_core/protocol/arm_atsam/clks.c ****     }
  79:tmk_core/protocol/arm_atsam/clks.c ****     system_clks.freq_dpll[0] = (system_clks.freq_xosc0 / 2 / (posctrl->Dpll[USE_DPLL_IND].DPLLCTRLB
 168              		.loc 1 79 0
 169 00dc 086D     		ldr	r0, [r1, #80]
 170 00de A36B     		ldr	r3, [r4, #56]
 171 00e0 646B     		ldr	r4, [r4, #52]
 172 00e2 C3F30A43 		ubfx	r3, r3, #16, #11
 173 00e6 C4F30C04 		ubfx	r4, r4, #0, #13
 174 00ea 4008     		lsrs	r0, r0, #1
 175 00ec 0133     		adds	r3, r3, #1
 176 00ee B0FBF3F3 		udiv	r3, r0, r3
 177 00f2 04FB0333 		mla	r3, r4, r3, r3
 178 00f6 4B60     		str	r3, [r1, #4]
  80:tmk_core/protocol/arm_atsam/clks.c **** 
  81:tmk_core/protocol/arm_atsam/clks.c ****     // change gclk0 to DPLL
  82:tmk_core/protocol/arm_atsam/clks.c ****     pgclk->GENCTRL[GEN_DPLL0].bit.SRC = USE_DPLL_DEF;
 179              		.loc 1 82 0
 180 00f8 174B     		ldr	r3, .L21+20
 181 00fa 186A     		ldr	r0, [r3, #32]
 182 00fc 0724     		movs	r4, #7
 183 00fe 64F30300 		bfi	r0, r4, #0, #4
 184 0102 1862     		str	r0, [r3, #32]
  83:tmk_core/protocol/arm_atsam/clks.c ****     while (pgclk->SYNCBUSY.bit.GENCTRL0) {
  84:tmk_core/protocol/arm_atsam/clks.c ****         DBGC(DC_CLK_OSC_INIT_GCLK_SYNC_GENCTRL0);
 185              		.loc 1 84 0
 186 0104 3924     		movs	r4, #57
 187              	.L14:
  83:tmk_core/protocol/arm_atsam/clks.c ****     while (pgclk->SYNCBUSY.bit.GENCTRL0) {
 188              		.loc 1 83 0
 189 0106 5868     		ldr	r0, [r3, #4]
 190 0108 4007     		lsls	r0, r0, #29
 191 010a 17D4     		bmi	.L15
  85:tmk_core/protocol/arm_atsam/clks.c ****     }
  86:tmk_core/protocol/arm_atsam/clks.c **** 
  87:tmk_core/protocol/arm_atsam/clks.c ****     system_clks.freq_gclk[0] = system_clks.freq_dpll[0];
 192              		.loc 1 87 0
 193 010c 4B68     		ldr	r3, [r1, #4]
 194 010e 0B62     		str	r3, [r1, #32]
  88:tmk_core/protocol/arm_atsam/clks.c **** 
  89:tmk_core/protocol/arm_atsam/clks.c ****     usec_delay_mult = system_clks.freq_gclk[0] / (USEC_DELAY_LOOP_CYCLES * 1000000);
 195              		.loc 1 89 0
 196 0110 0B6A     		ldr	r3, [r1, #32]
 197 0112 1249     		ldr	r1, .L21+24
 198 0114 B3FBF1F3 		udiv	r3, r3, r1
 199 0118 1149     		ldr	r1, .L21+28
  90:tmk_core/protocol/arm_atsam/clks.c ****     if (usec_delay_mult < 1) usec_delay_mult = 1;  // Never allow a multiplier of zero
 200              		.loc 1 90 0
 201 011a 8BB1     		cbz	r3, .L16
 202              	.L20:
 203              		.loc 1 90 0 is_stmt 0 discriminator 1
 204 011c 0B60     		str	r3, [r1]
  91:tmk_core/protocol/arm_atsam/clks.c **** 
  92:tmk_core/protocol/arm_atsam/clks.c ****     DBGC(DC_CLK_OSC_INIT_COMPLETE);
 205              		.loc 1 92 0 is_stmt 1 discriminator 1
 206 011e 3A23     		movs	r3, #58
 207 0120 1360     		str	r3, [r2]
  93:tmk_core/protocol/arm_atsam/clks.c **** }
 208              		.loc 1 93 0 discriminator 1
 209 0122 10BD     		pop	{r4, pc}
 210              	.L3:
  53:tmk_core/protocol/arm_atsam/clks.c ****     }
 211              		.loc 1 53 0
 212 0124 1460     		str	r4, [r2]
 213 0126 98E7     		b	.L2
 214              	.L5:
  60:tmk_core/protocol/arm_atsam/clks.c ****     }
 215              		.loc 1 60 0
 216 0128 1460     		str	r4, [r2]
 217 012a A3E7     		b	.L4
 218              	.L7:
  66:tmk_core/protocol/arm_atsam/clks.c ****     }
 219              		.loc 1 66 0
 220 012c 1060     		str	r0, [r2]
 221 012e B5E7     		b	.L6
 222              	.L9:
  71:tmk_core/protocol/arm_atsam/clks.c ****     }
 223              		.loc 1 71 0
 224 0130 1460     		str	r4, [r2]
 225 0132 C6E7     		b	.L8
 226              	.L19:
  74:tmk_core/protocol/arm_atsam/clks.c ****     }
 227              		.loc 1 74 0
 228 0134 1460     		str	r4, [r2]
 229 0136 C9E7     		b	.L10
 230              	.L13:
  77:tmk_core/protocol/arm_atsam/clks.c ****     }
 231              		.loc 1 77 0
 232 0138 1060     		str	r0, [r2]
 233 013a CCE7     		b	.L11
 234              	.L15:
  84:tmk_core/protocol/arm_atsam/clks.c ****     }
 235              		.loc 1 84 0
 236 013c 1460     		str	r4, [r2]
 237 013e E2E7     		b	.L14
 238              	.L16:
  90:tmk_core/protocol/arm_atsam/clks.c **** 
 239              		.loc 1 90 0 discriminator 1
 240 0140 0123     		movs	r3, #1
 241 0142 EBE7     		b	.L20
 242              	.L22:
 243              		.align	2
 244              	.L21:
 245 0144 00000000 		.word	debug_code
 246 0148 00000000 		.word	system_clks
 247 014c 006CDC02 		.word	48000000
 248 0150 00100040 		.word	1073745920
 249 0154 0024F400 		.word	16000000
 250 0158 001C0040 		.word	1073748992
 251 015c C0C62D00 		.word	3000000
 252 0160 00000000 		.word	usec_delay_mult
 253              		.cfi_endproc
 254              	.LFE145:
 256              		.section	.text.CLK_set_gclk_freq,"ax",%progbits
 257              		.align	1
 258              		.global	CLK_set_gclk_freq
 259              		.syntax unified
 260              		.thumb
 261              		.thumb_func
 262              		.fpu fpv4-sp-d16
 264              	CLK_set_gclk_freq:
 265              	.LFB146:
  94:tmk_core/protocol/arm_atsam/clks.c **** 
  95:tmk_core/protocol/arm_atsam/clks.c **** // configure for 1MHz (1 usec timebase)
  96:tmk_core/protocol/arm_atsam/clks.c **** // call CLK_set_gclk_freq(GEN_TC45, FREQ_TC45_DEFAULT);
  97:tmk_core/protocol/arm_atsam/clks.c **** uint32_t CLK_set_gclk_freq(uint8_t gclkn, uint32_t freq) {
 266              		.loc 1 97 0
 267              		.cfi_startproc
 268              		@ args = 0, pretend = 0, frame = 0
 269              		@ frame_needed = 0, uses_anonymous_args = 0
 270              	.LVL1:
  98:tmk_core/protocol/arm_atsam/clks.c ****     Gclk *pgclk = GCLK;
  99:tmk_core/protocol/arm_atsam/clks.c **** 
 100:tmk_core/protocol/arm_atsam/clks.c ****     DBGC(DC_CLK_SET_GCLK_FREQ_BEGIN);
 271              		.loc 1 100 0
 272 0000 2C4B     		ldr	r3, .L34
 273 0002 2222     		movs	r2, #34
  97:tmk_core/protocol/arm_atsam/clks.c ****     Gclk *pgclk = GCLK;
 274              		.loc 1 97 0
 275 0004 70B5     		push	{r4, r5, r6, lr}
 276              		.cfi_def_cfa_offset 16
 277              		.cfi_offset 4, -16
 278              		.cfi_offset 5, -12
 279              		.cfi_offset 6, -8
 280              		.cfi_offset 14, -4
 281              		.loc 1 100 0
 282 0006 1A60     		str	r2, [r3]
 101:tmk_core/protocol/arm_atsam/clks.c **** 
 102:tmk_core/protocol/arm_atsam/clks.c ****     while (pgclk->SYNCBUSY.vec.GENCTRL) {
 283              		.loc 1 102 0
 284 0008 2B4A     		ldr	r2, .L34+4
 103:tmk_core/protocol/arm_atsam/clks.c ****         DBGC(DC_CLK_SET_GCLK_FREQ_SYNC_1);
 285              		.loc 1 103 0
 286 000a 2325     		movs	r5, #35
 287              	.L24:
 102:tmk_core/protocol/arm_atsam/clks.c ****         DBGC(DC_CLK_SET_GCLK_FREQ_SYNC_1);
 288              		.loc 1 102 0
 289 000c 5468     		ldr	r4, [r2, #4]
 290 000e C4F38B04 		ubfx	r4, r4, #2, #12
 291 0012 002C     		cmp	r4, #0
 292 0014 43D1     		bne	.L25
 104:tmk_core/protocol/arm_atsam/clks.c ****     }
 105:tmk_core/protocol/arm_atsam/clks.c ****     pgclk->GENCTRL[gclkn].bit.SRC = USE_DPLL_DEF;
 293              		.loc 1 105 0
 294 0016 00F10805 		add	r5, r0, #8
 295 001a 0726     		movs	r6, #7
 296 001c 52F82540 		ldr	r4, [r2, r5, lsl #2]
 297 0020 66F30304 		bfi	r4, r6, #0, #4
 298 0024 42F82540 		str	r4, [r2, r5, lsl #2]
 106:tmk_core/protocol/arm_atsam/clks.c ****     while (pgclk->SYNCBUSY.vec.GENCTRL) {
 299              		.loc 1 106 0
 300 0028 234C     		ldr	r4, .L34+4
 107:tmk_core/protocol/arm_atsam/clks.c ****         DBGC(DC_CLK_SET_GCLK_FREQ_SYNC_2);
 301              		.loc 1 107 0
 302 002a 2426     		movs	r6, #36
 303              	.L26:
 106:tmk_core/protocol/arm_atsam/clks.c ****     while (pgclk->SYNCBUSY.vec.GENCTRL) {
 304              		.loc 1 106 0
 305 002c 6268     		ldr	r2, [r4, #4]
 306 002e C2F38B02 		ubfx	r2, r2, #2, #12
 307 0032 002A     		cmp	r2, #0
 308 0034 35D1     		bne	.L27
 309 0036 8000     		lsls	r0, r0, #2
 310              	.LVL2:
 108:tmk_core/protocol/arm_atsam/clks.c ****     }
 109:tmk_core/protocol/arm_atsam/clks.c ****     pgclk->GENCTRL[gclkn].bit.DIV = (uint8_t)(system_clks.freq_dpll[0] / freq);
 311              		.loc 1 109 0
 312 0038 204A     		ldr	r2, .L34+8
 313 003a 00F18040 		add	r0, r0, #1073741824
 314 003e 00F5E050 		add	r0, r0, #7168
 315 0042 5468     		ldr	r4, [r2, #4]
 316 0044 B4FBF1F1 		udiv	r1, r4, r1
 317              	.LVL3:
 110:tmk_core/protocol/arm_atsam/clks.c ****     while (pgclk->SYNCBUSY.vec.GENCTRL) {
 318              		.loc 1 110 0
 319 0048 1B4C     		ldr	r4, .L34+4
 109:tmk_core/protocol/arm_atsam/clks.c ****     while (pgclk->SYNCBUSY.vec.GENCTRL) {
 320              		.loc 1 109 0
 321 004a C9B2     		uxtb	r1, r1
 322 004c 4184     		strh	r1, [r0, #34]	@ movhi
 111:tmk_core/protocol/arm_atsam/clks.c ****         DBGC(DC_CLK_SET_GCLK_FREQ_SYNC_3);
 323              		.loc 1 111 0
 324 004e 2526     		movs	r6, #37
 325              	.L28:
 110:tmk_core/protocol/arm_atsam/clks.c ****     while (pgclk->SYNCBUSY.vec.GENCTRL) {
 326              		.loc 1 110 0
 327 0050 6168     		ldr	r1, [r4, #4]
 328 0052 C1F38B01 		ubfx	r1, r1, #2, #12
 329 0056 31BB     		cbnz	r1, .L29
 112:tmk_core/protocol/arm_atsam/clks.c ****     }
 113:tmk_core/protocol/arm_atsam/clks.c ****     pgclk->GENCTRL[gclkn].bit.DIVSEL = 0;
 330              		.loc 1 113 0
 331 0058 54F82560 		ldr	r6, [r4, r5, lsl #2]
 332 005c 61F30C36 		bfi	r6, r1, #12, #1
 114:tmk_core/protocol/arm_atsam/clks.c ****     while (pgclk->SYNCBUSY.vec.GENCTRL) {
 333              		.loc 1 114 0
 334 0060 1549     		ldr	r1, .L34+4
 113:tmk_core/protocol/arm_atsam/clks.c ****     while (pgclk->SYNCBUSY.vec.GENCTRL) {
 335              		.loc 1 113 0
 336 0062 44F82560 		str	r6, [r4, r5, lsl #2]
 115:tmk_core/protocol/arm_atsam/clks.c ****         DBGC(DC_CLK_SET_GCLK_FREQ_SYNC_4);
 337              		.loc 1 115 0
 338 0066 2626     		movs	r6, #38
 339              	.L30:
 114:tmk_core/protocol/arm_atsam/clks.c ****     while (pgclk->SYNCBUSY.vec.GENCTRL) {
 340              		.loc 1 114 0
 341 0068 4C68     		ldr	r4, [r1, #4]
 342 006a C4F38B04 		ubfx	r4, r4, #2, #12
 343 006e E4B9     		cbnz	r4, .L31
 116:tmk_core/protocol/arm_atsam/clks.c ****     }
 117:tmk_core/protocol/arm_atsam/clks.c ****     pgclk->GENCTRL[gclkn].bit.GENEN = 1;
 344              		.loc 1 117 0
 345 0070 51F82540 		ldr	r4, [r1, r5, lsl #2]
 346 0074 44F48074 		orr	r4, r4, #256
 347 0078 41F82540 		str	r4, [r1, r5, lsl #2]
 118:tmk_core/protocol/arm_atsam/clks.c ****     while (pgclk->SYNCBUSY.vec.GENCTRL) {
 348              		.loc 1 118 0
 349 007c 0E4C     		ldr	r4, .L34+4
 119:tmk_core/protocol/arm_atsam/clks.c ****         DBGC(DC_CLK_SET_GCLK_FREQ_SYNC_5);
 350              		.loc 1 119 0
 351 007e 2726     		movs	r6, #39
 352              	.L32:
 118:tmk_core/protocol/arm_atsam/clks.c ****     while (pgclk->SYNCBUSY.vec.GENCTRL) {
 353              		.loc 1 118 0
 354 0080 6168     		ldr	r1, [r4, #4]
 355 0082 C1F38B01 		ubfx	r1, r1, #2, #12
 356 0086 91B9     		cbnz	r1, .L33
 120:tmk_core/protocol/arm_atsam/clks.c ****     }
 121:tmk_core/protocol/arm_atsam/clks.c ****     system_clks.freq_gclk[gclkn] = system_clks.freq_dpll[0] / pgclk->GENCTRL[gclkn].bit.DIV;
 357              		.loc 1 121 0
 358 0088 5168     		ldr	r1, [r2, #4]
 359 008a 408C     		ldrh	r0, [r0, #34]
 360 008c B1FBF0F1 		udiv	r1, r1, r0
 361 0090 42F82510 		str	r1, [r2, r5, lsl #2]
 122:tmk_core/protocol/arm_atsam/clks.c **** 
 123:tmk_core/protocol/arm_atsam/clks.c ****     DBGC(DC_CLK_SET_GCLK_FREQ_COMPLETE);
 362              		.loc 1 123 0
 363 0094 2821     		movs	r1, #40
 364 0096 1960     		str	r1, [r3]
 124:tmk_core/protocol/arm_atsam/clks.c **** 
 125:tmk_core/protocol/arm_atsam/clks.c ****     return system_clks.freq_gclk[gclkn];
 365              		.loc 1 125 0
 366 0098 52F82500 		ldr	r0, [r2, r5, lsl #2]
 126:tmk_core/protocol/arm_atsam/clks.c **** }
 367              		.loc 1 126 0
 368 009c 70BD     		pop	{r4, r5, r6, pc}
 369              	.LVL4:
 370              	.L25:
 103:tmk_core/protocol/arm_atsam/clks.c ****     }
 371              		.loc 1 103 0
 372 009e 1D60     		str	r5, [r3]
 373 00a0 B4E7     		b	.L24
 374              	.L27:
 107:tmk_core/protocol/arm_atsam/clks.c ****     }
 375              		.loc 1 107 0
 376 00a2 1E60     		str	r6, [r3]
 377 00a4 C2E7     		b	.L26
 378              	.LVL5:
 379              	.L29:
 111:tmk_core/protocol/arm_atsam/clks.c ****     }
 380              		.loc 1 111 0
 381 00a6 1E60     		str	r6, [r3]
 382 00a8 D2E7     		b	.L28
 383              	.L31:
 115:tmk_core/protocol/arm_atsam/clks.c ****     }
 384              		.loc 1 115 0
 385 00aa 1E60     		str	r6, [r3]
 386 00ac DCE7     		b	.L30
 387              	.L33:
 119:tmk_core/protocol/arm_atsam/clks.c ****     }
 388              		.loc 1 119 0
 389 00ae 1E60     		str	r6, [r3]
 390 00b0 E6E7     		b	.L32
 391              	.L35:
 392 00b2 00BF     		.align	2
 393              	.L34:
 394 00b4 00000000 		.word	debug_code
 395 00b8 001C0040 		.word	1073748992
 396 00bc 00000000 		.word	system_clks
 397              		.cfi_endproc
 398              	.LFE146:
 400              		.section	.text.CLK_init_osc,"ax",%progbits
 401              		.align	1
 402              		.global	CLK_init_osc
 403              		.syntax unified
 404              		.thumb
 405              		.thumb_func
 406              		.fpu fpv4-sp-d16
 408              	CLK_init_osc:
 409              	.LFB147:
 127:tmk_core/protocol/arm_atsam/clks.c **** 
 128:tmk_core/protocol/arm_atsam/clks.c **** void CLK_init_osc(void) {
 410              		.loc 1 128 0
 411              		.cfi_startproc
 412              		@ args = 0, pretend = 0, frame = 0
 413              		@ frame_needed = 0, uses_anonymous_args = 0
 414              		@ link register save eliminated.
 415              	.LVL6:
 129:tmk_core/protocol/arm_atsam/clks.c ****     uint8_t gclkn = GEN_OSC0;
 130:tmk_core/protocol/arm_atsam/clks.c ****     Gclk *  pgclk = GCLK;
 131:tmk_core/protocol/arm_atsam/clks.c **** 
 132:tmk_core/protocol/arm_atsam/clks.c ****     DBGC(DC_CLK_INIT_OSC_BEGIN);
 416              		.loc 1 132 0
 417 0000 204B     		ldr	r3, .L47
 133:tmk_core/protocol/arm_atsam/clks.c **** 
 134:tmk_core/protocol/arm_atsam/clks.c ****     while (pgclk->SYNCBUSY.vec.GENCTRL) {
 418              		.loc 1 134 0
 419 0002 2149     		ldr	r1, .L47+4
 132:tmk_core/protocol/arm_atsam/clks.c **** 
 420              		.loc 1 132 0
 421 0004 2922     		movs	r2, #41
 422 0006 1A60     		str	r2, [r3]
 135:tmk_core/protocol/arm_atsam/clks.c ****         DBGC(DC_CLK_INIT_OSC_SYNC_1);
 423              		.loc 1 135 0
 424 0008 2A20     		movs	r0, #42
 425              	.L37:
 134:tmk_core/protocol/arm_atsam/clks.c ****         DBGC(DC_CLK_INIT_OSC_SYNC_1);
 426              		.loc 1 134 0
 427 000a 4A68     		ldr	r2, [r1, #4]
 428 000c C2F38B02 		ubfx	r2, r2, #2, #12
 429 0010 002A     		cmp	r2, #0
 430 0012 2DD1     		bne	.L38
 136:tmk_core/protocol/arm_atsam/clks.c ****     }
 137:tmk_core/protocol/arm_atsam/clks.c ****     pgclk->GENCTRL[gclkn].bit.SRC = GCLK_SOURCE_XOSC0;
 431              		.loc 1 137 0
 432 0014 486A     		ldr	r0, [r1, #36]
 433 0016 62F30300 		bfi	r0, r2, #0, #4
 138:tmk_core/protocol/arm_atsam/clks.c ****     while (pgclk->SYNCBUSY.vec.GENCTRL) {
 434              		.loc 1 138 0
 435 001a 1B4A     		ldr	r2, .L47+4
 137:tmk_core/protocol/arm_atsam/clks.c ****     while (pgclk->SYNCBUSY.vec.GENCTRL) {
 436              		.loc 1 137 0
 437 001c 4862     		str	r0, [r1, #36]
 139:tmk_core/protocol/arm_atsam/clks.c ****         DBGC(DC_CLK_INIT_OSC_SYNC_2);
 438              		.loc 1 139 0
 439 001e 2B20     		movs	r0, #43
 440              	.L39:
 138:tmk_core/protocol/arm_atsam/clks.c ****     while (pgclk->SYNCBUSY.vec.GENCTRL) {
 441              		.loc 1 138 0
 442 0020 5168     		ldr	r1, [r2, #4]
 443 0022 C1F38B01 		ubfx	r1, r1, #2, #12
 444 0026 29BB     		cbnz	r1, .L40
 140:tmk_core/protocol/arm_atsam/clks.c ****     }
 141:tmk_core/protocol/arm_atsam/clks.c ****     pgclk->GENCTRL[gclkn].bit.DIV = 1;
 445              		.loc 1 141 0
 446 0028 516A     		ldr	r1, [r2, #36]
 447 002a C0F20101 		movt	r1, 1
 448 002e 5162     		str	r1, [r2, #36]
 142:tmk_core/protocol/arm_atsam/clks.c ****     while (pgclk->SYNCBUSY.vec.GENCTRL) {
 449              		.loc 1 142 0
 450 0030 1549     		ldr	r1, .L47+4
 143:tmk_core/protocol/arm_atsam/clks.c ****         DBGC(DC_CLK_INIT_OSC_SYNC_3);
 451              		.loc 1 143 0
 452 0032 2C20     		movs	r0, #44
 453              	.L41:
 142:tmk_core/protocol/arm_atsam/clks.c ****     while (pgclk->SYNCBUSY.vec.GENCTRL) {
 454              		.loc 1 142 0
 455 0034 4A68     		ldr	r2, [r1, #4]
 456 0036 C2F38B02 		ubfx	r2, r2, #2, #12
 457 003a EAB9     		cbnz	r2, .L42
 144:tmk_core/protocol/arm_atsam/clks.c ****     }
 145:tmk_core/protocol/arm_atsam/clks.c ****     pgclk->GENCTRL[gclkn].bit.DIVSEL = 0;
 458              		.loc 1 145 0
 459 003c 486A     		ldr	r0, [r1, #36]
 460 003e 62F30C30 		bfi	r0, r2, #12, #1
 146:tmk_core/protocol/arm_atsam/clks.c ****     while (pgclk->SYNCBUSY.vec.GENCTRL) {
 461              		.loc 1 146 0
 462 0042 114A     		ldr	r2, .L47+4
 145:tmk_core/protocol/arm_atsam/clks.c ****     while (pgclk->SYNCBUSY.vec.GENCTRL) {
 463              		.loc 1 145 0
 464 0044 4862     		str	r0, [r1, #36]
 147:tmk_core/protocol/arm_atsam/clks.c ****         DBGC(DC_CLK_INIT_OSC_SYNC_4);
 465              		.loc 1 147 0
 466 0046 2D20     		movs	r0, #45
 467              	.L43:
 146:tmk_core/protocol/arm_atsam/clks.c ****     while (pgclk->SYNCBUSY.vec.GENCTRL) {
 468              		.loc 1 146 0
 469 0048 5168     		ldr	r1, [r2, #4]
 470 004a C1F38B01 		ubfx	r1, r1, #2, #12
 471 004e A9B9     		cbnz	r1, .L44
 148:tmk_core/protocol/arm_atsam/clks.c ****     }
 149:tmk_core/protocol/arm_atsam/clks.c ****     pgclk->GENCTRL[gclkn].bit.GENEN = 1;
 472              		.loc 1 149 0
 473 0050 516A     		ldr	r1, [r2, #36]
 474 0052 41F48071 		orr	r1, r1, #256
 475 0056 5162     		str	r1, [r2, #36]
 150:tmk_core/protocol/arm_atsam/clks.c ****     while (pgclk->SYNCBUSY.vec.GENCTRL) {
 476              		.loc 1 150 0
 477 0058 0B49     		ldr	r1, .L47+4
 151:tmk_core/protocol/arm_atsam/clks.c ****         DBGC(DC_CLK_INIT_OSC_SYNC_5);
 478              		.loc 1 151 0
 479 005a 2E20     		movs	r0, #46
 480              	.L45:
 150:tmk_core/protocol/arm_atsam/clks.c ****     while (pgclk->SYNCBUSY.vec.GENCTRL) {
 481              		.loc 1 150 0
 482 005c 4A68     		ldr	r2, [r1, #4]
 483 005e C2F38B02 		ubfx	r2, r2, #2, #12
 484 0062 6AB9     		cbnz	r2, .L46
 152:tmk_core/protocol/arm_atsam/clks.c ****     }
 153:tmk_core/protocol/arm_atsam/clks.c ****     system_clks.freq_gclk[gclkn] = system_clks.freq_xosc0;
 485              		.loc 1 153 0
 486 0064 094A     		ldr	r2, .L47+8
 487 0066 116D     		ldr	r1, [r2, #80]
 488 0068 5162     		str	r1, [r2, #36]
 154:tmk_core/protocol/arm_atsam/clks.c **** 
 155:tmk_core/protocol/arm_atsam/clks.c ****     DBGC(DC_CLK_INIT_OSC_COMPLETE);
 489              		.loc 1 155 0
 490 006a 2F22     		movs	r2, #47
 491 006c 1A60     		str	r2, [r3]
 156:tmk_core/protocol/arm_atsam/clks.c **** }
 492              		.loc 1 156 0
 493 006e 7047     		bx	lr
 494              	.L38:
 135:tmk_core/protocol/arm_atsam/clks.c ****     }
 495              		.loc 1 135 0
 496 0070 1860     		str	r0, [r3]
 497 0072 CAE7     		b	.L37
 498              	.L40:
 139:tmk_core/protocol/arm_atsam/clks.c ****     }
 499              		.loc 1 139 0
 500 0074 1860     		str	r0, [r3]
 501 0076 D3E7     		b	.L39
 502              	.L42:
 143:tmk_core/protocol/arm_atsam/clks.c ****     }
 503              		.loc 1 143 0
 504 0078 1860     		str	r0, [r3]
 505 007a DBE7     		b	.L41
 506              	.L44:
 147:tmk_core/protocol/arm_atsam/clks.c ****     }
 507              		.loc 1 147 0
 508 007c 1860     		str	r0, [r3]
 509 007e E3E7     		b	.L43
 510              	.L46:
 151:tmk_core/protocol/arm_atsam/clks.c ****     }
 511              		.loc 1 151 0
 512 0080 1860     		str	r0, [r3]
 513 0082 EBE7     		b	.L45
 514              	.L48:
 515              		.align	2
 516              	.L47:
 517 0084 00000000 		.word	debug_code
 518 0088 001C0040 		.word	1073748992
 519 008c 00000000 		.word	system_clks
 520              		.cfi_endproc
 521              	.LFE147:
 523              		.section	.text.CLK_reset_time,"ax",%progbits
 524              		.align	1
 525              		.global	CLK_reset_time
 526              		.syntax unified
 527              		.thumb
 528              		.thumb_func
 529              		.fpu fpv4-sp-d16
 531              	CLK_reset_time:
 532              	.LFB148:
 157:tmk_core/protocol/arm_atsam/clks.c **** 
 158:tmk_core/protocol/arm_atsam/clks.c **** void CLK_reset_time(void) {
 533              		.loc 1 158 0
 534              		.cfi_startproc
 535              		@ args = 0, pretend = 0, frame = 0
 536              		@ frame_needed = 0, uses_anonymous_args = 0
 537              		@ link register save eliminated.
 538              	.LVL7:
 159:tmk_core/protocol/arm_atsam/clks.c ****     Tc *ptc4 = TC4;
 160:tmk_core/protocol/arm_atsam/clks.c ****     Tc *ptc0 = TC0;
 161:tmk_core/protocol/arm_atsam/clks.c **** 
 162:tmk_core/protocol/arm_atsam/clks.c ****     ms_clk = 0;
 539              		.loc 1 162 0
 540 0000 1D4B     		ldr	r3, .L62
 163:tmk_core/protocol/arm_atsam/clks.c **** 
 164:tmk_core/protocol/arm_atsam/clks.c ****     DBGC(DC_CLK_RESET_TIME_BEGIN);
 541              		.loc 1 164 0
 542 0002 1E4A     		ldr	r2, .L62+4
 162:tmk_core/protocol/arm_atsam/clks.c **** 
 543              		.loc 1 162 0
 544 0004 0021     		movs	r1, #0
 545 0006 0020     		movs	r0, #0
 546 0008 C3E90001 		strd	r0, [r3]
 547              		.loc 1 164 0
 548 000c 3023     		movs	r3, #48
 549 000e 1360     		str	r3, [r2]
 165:tmk_core/protocol/arm_atsam/clks.c **** 
 166:tmk_core/protocol/arm_atsam/clks.c ****     // stop counters
 167:tmk_core/protocol/arm_atsam/clks.c ****     ptc4->COUNT16.CTRLA.bit.ENABLE = 0;
 550              		.loc 1 167 0
 551 0010 1B4B     		ldr	r3, .L62+8
 552 0012 1968     		ldr	r1, [r3]
 553 0014 6FF34101 		bfc	r1, #1, #1
 554 0018 1960     		str	r1, [r3]
 555              	.L50:
 168:tmk_core/protocol/arm_atsam/clks.c ****     while (ptc4->COUNT16.SYNCBUSY.bit.ENABLE) {
 556              		.loc 1 168 0 discriminator 1
 557 001a 1969     		ldr	r1, [r3, #16]
 558 001c C1F34001 		ubfx	r1, r1, #1, #1
 559 0020 0029     		cmp	r1, #0
 560 0022 FAD1     		bne	.L50
 169:tmk_core/protocol/arm_atsam/clks.c ****     }
 170:tmk_core/protocol/arm_atsam/clks.c ****     ptc0->COUNT32.CTRLA.bit.ENABLE = 0;
 561              		.loc 1 170 0
 562 0024 174B     		ldr	r3, .L62+12
 563 0026 1868     		ldr	r0, [r3]
 564 0028 61F34100 		bfi	r0, r1, #1, #1
 565 002c 1860     		str	r0, [r3]
 566              	.L51:
 171:tmk_core/protocol/arm_atsam/clks.c ****     while (ptc0->COUNT32.SYNCBUSY.bit.ENABLE) {
 567              		.loc 1 171 0 discriminator 1
 568 002e 1969     		ldr	r1, [r3, #16]
 569 0030 C1F34001 		ubfx	r1, r1, #1, #1
 570 0034 0029     		cmp	r1, #0
 571 0036 FAD1     		bne	.L51
 172:tmk_core/protocol/arm_atsam/clks.c ****     }
 173:tmk_core/protocol/arm_atsam/clks.c ****     // zero counters
 174:tmk_core/protocol/arm_atsam/clks.c ****     ptc4->COUNT16.COUNT.reg = 0;
 572              		.loc 1 174 0
 573 0038 114B     		ldr	r3, .L62+8
 574 003a 9982     		strh	r1, [r3, #20]	@ movhi
 575              	.L52:
 175:tmk_core/protocol/arm_atsam/clks.c ****     while (ptc4->COUNT16.SYNCBUSY.bit.COUNT) {
 576              		.loc 1 175 0 discriminator 1
 577 003c 1969     		ldr	r1, [r3, #16]
 578 003e C1F30011 		ubfx	r1, r1, #4, #1
 579 0042 0029     		cmp	r1, #0
 580 0044 FAD1     		bne	.L52
 176:tmk_core/protocol/arm_atsam/clks.c ****     }
 177:tmk_core/protocol/arm_atsam/clks.c ****     ptc0->COUNT32.COUNT.reg = 0;
 581              		.loc 1 177 0
 582 0046 0F4B     		ldr	r3, .L62+12
 583 0048 5961     		str	r1, [r3, #20]
 584              	.L53:
 178:tmk_core/protocol/arm_atsam/clks.c ****     while (ptc0->COUNT32.SYNCBUSY.bit.COUNT) {
 585              		.loc 1 178 0 discriminator 1
 586 004a 1969     		ldr	r1, [r3, #16]
 587 004c C906     		lsls	r1, r1, #27
 588 004e FCD4     		bmi	.L53
 179:tmk_core/protocol/arm_atsam/clks.c ****     }
 180:tmk_core/protocol/arm_atsam/clks.c ****     // start counters
 181:tmk_core/protocol/arm_atsam/clks.c ****     ptc0->COUNT32.CTRLA.bit.ENABLE = 1;
 589              		.loc 1 181 0
 590 0050 1968     		ldr	r1, [r3]
 591 0052 41F00201 		orr	r1, r1, #2
 592 0056 1960     		str	r1, [r3]
 182:tmk_core/protocol/arm_atsam/clks.c ****     while (ptc0->COUNT32.SYNCBUSY.bit.ENABLE) {
 593              		.loc 1 182 0
 594 0058 0A49     		ldr	r1, .L62+12
 595              	.L54:
 596              		.loc 1 182 0 is_stmt 0 discriminator 1
 597 005a 0B69     		ldr	r3, [r1, #16]
 598 005c 9807     		lsls	r0, r3, #30
 599 005e FCD4     		bmi	.L54
 183:tmk_core/protocol/arm_atsam/clks.c ****     }
 184:tmk_core/protocol/arm_atsam/clks.c ****     ptc4->COUNT16.CTRLA.bit.ENABLE = 1;
 600              		.loc 1 184 0 is_stmt 1
 601 0060 074B     		ldr	r3, .L62+8
 602 0062 1968     		ldr	r1, [r3]
 603 0064 41F00201 		orr	r1, r1, #2
 604 0068 1960     		str	r1, [r3]
 605              	.L55:
 185:tmk_core/protocol/arm_atsam/clks.c ****     while (ptc4->COUNT16.SYNCBUSY.bit.ENABLE) {
 606              		.loc 1 185 0 discriminator 1
 607 006a 1969     		ldr	r1, [r3, #16]
 608 006c 8907     		lsls	r1, r1, #30
 609 006e FCD4     		bmi	.L55
 186:tmk_core/protocol/arm_atsam/clks.c ****     }
 187:tmk_core/protocol/arm_atsam/clks.c **** 
 188:tmk_core/protocol/arm_atsam/clks.c ****     DBGC(DC_CLK_RESET_TIME_COMPLETE);
 610              		.loc 1 188 0
 611 0070 3123     		movs	r3, #49
 612 0072 1360     		str	r3, [r2]
 189:tmk_core/protocol/arm_atsam/clks.c **** }
 613              		.loc 1 189 0
 614 0074 7047     		bx	lr
 615              	.L63:
 616 0076 00BF     		.align	2
 617              	.L62:
 618 0078 00000000 		.word	ms_clk
 619 007c 00000000 		.word	debug_code
 620 0080 00140042 		.word	1107301376
 621 0084 00380040 		.word	1073756160
 622              		.cfi_endproc
 623              	.LFE148:
 625              		.section	.text.TC4_Handler,"ax",%progbits
 626              		.align	1
 627              		.global	TC4_Handler
 628              		.syntax unified
 629              		.thumb
 630              		.thumb_func
 631              		.fpu fpv4-sp-d16
 633              	TC4_Handler:
 634              	.LFB149:
 190:tmk_core/protocol/arm_atsam/clks.c **** 
 191:tmk_core/protocol/arm_atsam/clks.c **** void TC4_Handler() {
 635              		.loc 1 191 0
 636              		.cfi_startproc
 637              		@ args = 0, pretend = 0, frame = 0
 638              		@ frame_needed = 0, uses_anonymous_args = 0
 639 0000 2DE90048 		push	{fp, lr}
 640              		.cfi_def_cfa_offset 8
 641              		.cfi_offset 11, -8
 642              		.cfi_offset 14, -4
 192:tmk_core/protocol/arm_atsam/clks.c ****     if (TC4->COUNT16.INTFLAG.bit.MC0) {
 643              		.loc 1 192 0
 644 0004 084B     		ldr	r3, .L69
 645 0006 9A7A     		ldrb	r2, [r3, #10]	@ zero_extendqisi2
 646 0008 D206     		lsls	r2, r2, #27
 647 000a 0AD5     		bpl	.L64
 193:tmk_core/protocol/arm_atsam/clks.c ****         TC4->COUNT16.INTFLAG.reg = TC_INTENCLR_MC0;
 648              		.loc 1 193 0
 649 000c 1022     		movs	r2, #16
 194:tmk_core/protocol/arm_atsam/clks.c ****         ms_clk++;
 650              		.loc 1 194 0
 651 000e 0749     		ldr	r1, .L69+4
 193:tmk_core/protocol/arm_atsam/clks.c ****         TC4->COUNT16.INTFLAG.reg = TC_INTENCLR_MC0;
 652              		.loc 1 193 0
 653 0010 9A72     		strb	r2, [r3, #10]
 654              		.loc 1 194 0
 655 0012 D1E900BC 		ldrd	fp, [r1]
 656 0016 1BF10102 		adds	r2, fp, #1
 657 001a 4CF10003 		adc	r3, ip, #0
 658 001e C1E90023 		strd	r2, [r1]
 659              	.L64:
 195:tmk_core/protocol/arm_atsam/clks.c ****     }
 196:tmk_core/protocol/arm_atsam/clks.c **** }
 660              		.loc 1 196 0
 661 0022 BDE80088 		pop	{fp, pc}
 662              	.L70:
 663 0026 00BF     		.align	2
 664              	.L69:
 665 0028 00140042 		.word	1107301376
 666 002c 00000000 		.word	ms_clk
 667              		.cfi_endproc
 668              	.LFE149:
 670              		.section	.text.CLK_enable_timebase,"ax",%progbits
 671              		.align	1
 672              		.global	CLK_enable_timebase
 673              		.syntax unified
 674              		.thumb
 675              		.thumb_func
 676              		.fpu fpv4-sp-d16
 678              	CLK_enable_timebase:
 679              	.LFB150:
 197:tmk_core/protocol/arm_atsam/clks.c **** 
 198:tmk_core/protocol/arm_atsam/clks.c **** uint32_t CLK_enable_timebase(void) {
 680              		.loc 1 198 0
 681              		.cfi_startproc
 682              		@ args = 0, pretend = 0, frame = 0
 683              		@ frame_needed = 0, uses_anonymous_args = 0
 684              	.LVL8:
 685 0000 38B5     		push	{r3, r4, r5, lr}
 686              		.cfi_def_cfa_offset 16
 687              		.cfi_offset 3, -16
 688              		.cfi_offset 4, -12
 689              		.cfi_offset 5, -8
 690              		.cfi_offset 14, -4
 199:tmk_core/protocol/arm_atsam/clks.c ****     Gclk * pgclk  = GCLK;
 200:tmk_core/protocol/arm_atsam/clks.c ****     Mclk * pmclk  = MCLK;
 201:tmk_core/protocol/arm_atsam/clks.c ****     Tc *   ptc4   = TC4;
 202:tmk_core/protocol/arm_atsam/clks.c ****     Tc *   ptc0   = TC0;
 203:tmk_core/protocol/arm_atsam/clks.c ****     Evsys *pevsys = EVSYS;
 204:tmk_core/protocol/arm_atsam/clks.c **** 
 205:tmk_core/protocol/arm_atsam/clks.c ****     DBGC(DC_CLK_ENABLE_TIMEBASE_BEGIN);
 691              		.loc 1 205 0
 692 0002 744C     		ldr	r4, .L88
 206:tmk_core/protocol/arm_atsam/clks.c **** 
 207:tmk_core/protocol/arm_atsam/clks.c ****     // gclk2  highspeed time base
 208:tmk_core/protocol/arm_atsam/clks.c ****     CLK_set_gclk_freq(GEN_TC45, FREQ_TC45_DEFAULT);
 693              		.loc 1 208 0
 694 0004 7449     		ldr	r1, .L88+4
 205:tmk_core/protocol/arm_atsam/clks.c **** 
 695              		.loc 1 205 0
 696 0006 0923     		movs	r3, #9
 697              		.loc 1 208 0
 698 0008 0220     		movs	r0, #2
 205:tmk_core/protocol/arm_atsam/clks.c **** 
 699              		.loc 1 205 0
 700 000a 2360     		str	r3, [r4]
 701              		.loc 1 208 0
 702 000c FFF7FEFF 		bl	CLK_set_gclk_freq
 703              	.LVL9:
 209:tmk_core/protocol/arm_atsam/clks.c ****     CLK_init_osc();
 704              		.loc 1 209 0
 705 0010 FFF7FEFF 		bl	CLK_init_osc
 706              	.LVL10:
 210:tmk_core/protocol/arm_atsam/clks.c **** 
 211:tmk_core/protocol/arm_atsam/clks.c ****     // unmask TC4, sourcegclk2 to TC4
 212:tmk_core/protocol/arm_atsam/clks.c ****     pmclk->APBCMASK.bit.TC4_             = 1;
 707              		.loc 1 212 0
 708 0014 714A     		ldr	r2, .L88+8
 709 0016 D369     		ldr	r3, [r2, #28]
 710 0018 43F02003 		orr	r3, r3, #32
 711 001c D361     		str	r3, [r2, #28]
 213:tmk_core/protocol/arm_atsam/clks.c ****     pgclk->PCHCTRL[TC4_GCLK_ID].bit.GEN  = GEN_TC45;
 712              		.loc 1 213 0
 713 001e 704B     		ldr	r3, .L88+12
 714 0020 D3F8F820 		ldr	r2, [r3, #248]
 715 0024 0221     		movs	r1, #2
 716 0026 61F30302 		bfi	r2, r1, #0, #4
 717 002a C3F8F820 		str	r2, [r3, #248]
 214:tmk_core/protocol/arm_atsam/clks.c ****     pgclk->PCHCTRL[TC4_GCLK_ID].bit.CHEN = 1;
 718              		.loc 1 214 0
 719 002e D3F8F820 		ldr	r2, [r3, #248]
 720 0032 42F04002 		orr	r2, r2, #64
 721 0036 C3F8F820 		str	r2, [r3, #248]
 215:tmk_core/protocol/arm_atsam/clks.c **** 
 216:tmk_core/protocol/arm_atsam/clks.c ****     // configure TC4
 217:tmk_core/protocol/arm_atsam/clks.c ****     DBGC(DC_CLK_ENABLE_TIMEBASE_TC4_BEGIN);
 722              		.loc 1 217 0
 723 003a 0D23     		movs	r3, #13
 724 003c 2360     		str	r3, [r4]
 218:tmk_core/protocol/arm_atsam/clks.c ****     ptc4->COUNT16.CTRLA.bit.ENABLE = 0;
 725              		.loc 1 218 0
 726 003e 694B     		ldr	r3, .L88+16
 727 0040 1A68     		ldr	r2, [r3]
 728 0042 6FF34102 		bfc	r2, #1, #1
 729 0046 1A60     		str	r2, [r3]
 219:tmk_core/protocol/arm_atsam/clks.c ****     while (ptc4->COUNT16.SYNCBUSY.bit.ENABLE) {
 220:tmk_core/protocol/arm_atsam/clks.c ****         DBGC(DC_CLK_ENABLE_TIMEBASE_TC4_SYNC_DISABLE);
 730              		.loc 1 220 0
 731 0048 0E21     		movs	r1, #14
 732              	.L72:
 219:tmk_core/protocol/arm_atsam/clks.c ****     while (ptc4->COUNT16.SYNCBUSY.bit.ENABLE) {
 733              		.loc 1 219 0
 734 004a 1A69     		ldr	r2, [r3, #16]
 735 004c 9207     		lsls	r2, r2, #30
 736 004e 00F1B180 		bmi	.L73
 221:tmk_core/protocol/arm_atsam/clks.c ****     }
 222:tmk_core/protocol/arm_atsam/clks.c ****     ptc4->COUNT16.CTRLA.bit.SWRST = 1;
 737              		.loc 1 222 0
 738 0052 1A68     		ldr	r2, [r3]
 739 0054 42F00102 		orr	r2, r2, #1
 740 0058 1A60     		str	r2, [r3]
 223:tmk_core/protocol/arm_atsam/clks.c ****     while (ptc4->COUNT16.SYNCBUSY.bit.SWRST) {
 741              		.loc 1 223 0
 742 005a 624A     		ldr	r2, .L88+16
 224:tmk_core/protocol/arm_atsam/clks.c ****         DBGC(DC_CLK_ENABLE_TIMEBASE_TC4_SYNC_SWRST_1);
 743              		.loc 1 224 0
 744 005c 0F21     		movs	r1, #15
 745              	.L74:
 223:tmk_core/protocol/arm_atsam/clks.c ****     while (ptc4->COUNT16.SYNCBUSY.bit.SWRST) {
 746              		.loc 1 223 0
 747 005e 1369     		ldr	r3, [r2, #16]
 748 0060 DB07     		lsls	r3, r3, #31
 749 0062 00F1A980 		bmi	.L75
 225:tmk_core/protocol/arm_atsam/clks.c ****     }
 226:tmk_core/protocol/arm_atsam/clks.c ****     while (ptc4->COUNT16.CTRLA.bit.SWRST) {
 750              		.loc 1 226 0
 751 0066 5F4B     		ldr	r3, .L88+16
 227:tmk_core/protocol/arm_atsam/clks.c ****         DBGC(DC_CLK_ENABLE_TIMEBASE_TC4_SYNC_SWRST_2);
 752              		.loc 1 227 0
 753 0068 1021     		movs	r1, #16
 754              	.L76:
 226:tmk_core/protocol/arm_atsam/clks.c ****         DBGC(DC_CLK_ENABLE_TIMEBASE_TC4_SYNC_SWRST_2);
 755              		.loc 1 226 0
 756 006a 1A68     		ldr	r2, [r3]
 757 006c D507     		lsls	r5, r2, #31
 758 006e 00F1A580 		bmi	.L77
 228:tmk_core/protocol/arm_atsam/clks.c ****     }
 229:tmk_core/protocol/arm_atsam/clks.c **** 
 230:tmk_core/protocol/arm_atsam/clks.c ****     // CTRLA defaults
 231:tmk_core/protocol/arm_atsam/clks.c ****     // CTRLB as default, counting up
 232:tmk_core/protocol/arm_atsam/clks.c ****     ptc4->COUNT16.CTRLBCLR.reg = 5;
 759              		.loc 1 232 0
 760 0072 0522     		movs	r2, #5
 761 0074 1A71     		strb	r2, [r3, #4]
 233:tmk_core/protocol/arm_atsam/clks.c ****     while (ptc4->COUNT16.SYNCBUSY.bit.CTRLB) {
 762              		.loc 1 233 0
 763 0076 5B4B     		ldr	r3, .L88+16
 234:tmk_core/protocol/arm_atsam/clks.c ****         DBGC(DC_CLK_ENABLE_TIMEBASE_TC4_SYNC_CLTRB);
 764              		.loc 1 234 0
 765 0078 1121     		movs	r1, #17
 766              	.L78:
 233:tmk_core/protocol/arm_atsam/clks.c ****     while (ptc4->COUNT16.SYNCBUSY.bit.CTRLB) {
 767              		.loc 1 233 0
 768 007a 1A69     		ldr	r2, [r3, #16]
 769 007c 5007     		lsls	r0, r2, #29
 770 007e 00F19F80 		bmi	.L79
 235:tmk_core/protocol/arm_atsam/clks.c ****     }
 236:tmk_core/protocol/arm_atsam/clks.c ****     ptc4->COUNT16.CC[0].reg = 999;
 771              		.loc 1 236 0
 772 0082 40F2E732 		movw	r2, #999
 773 0086 9A83     		strh	r2, [r3, #28]	@ movhi
 237:tmk_core/protocol/arm_atsam/clks.c ****     while (ptc4->COUNT16.SYNCBUSY.bit.CC0) {
 774              		.loc 1 237 0
 775 0088 564B     		ldr	r3, .L88+16
 238:tmk_core/protocol/arm_atsam/clks.c ****         DBGC(DC_CLK_ENABLE_TIMEBASE_TC4_SYNC_CC0);
 776              		.loc 1 238 0
 777 008a 1221     		movs	r1, #18
 778              	.L80:
 237:tmk_core/protocol/arm_atsam/clks.c ****     while (ptc4->COUNT16.SYNCBUSY.bit.CC0) {
 779              		.loc 1 237 0
 780 008c 1A69     		ldr	r2, [r3, #16]
 781 008e C2F38012 		ubfx	r2, r2, #6, #1
 782 0092 002A     		cmp	r2, #0
 783 0094 40F09680 		bne	.L81
 239:tmk_core/protocol/arm_atsam/clks.c ****     }
 240:tmk_core/protocol/arm_atsam/clks.c ****     // ptc4->COUNT16.DBGCTRL.bit.DBGRUN = 1;
 241:tmk_core/protocol/arm_atsam/clks.c **** 
 242:tmk_core/protocol/arm_atsam/clks.c ****     // wave mode
 243:tmk_core/protocol/arm_atsam/clks.c ****     ptc4->COUNT16.WAVE.bit.WAVEGEN = 1;  // MFRQ match frequency mode, toggle each CC match
 784              		.loc 1 243 0
 785 0098 197B     		ldrb	r1, [r3, #12]	@ zero_extendqisi2
 786 009a 0120     		movs	r0, #1
 787 009c 60F30101 		bfi	r1, r0, #0, #2
 788 00a0 1973     		strb	r1, [r3, #12]
 244:tmk_core/protocol/arm_atsam/clks.c ****     // generate event for next stage
 245:tmk_core/protocol/arm_atsam/clks.c ****     ptc4->COUNT16.EVCTRL.bit.MCEO0 = 1;
 789              		.loc 1 245 0
 790 00a2 D988     		ldrh	r1, [r3, #6]
 791 00a4 41F48051 		orr	r1, r1, #4096
 792 00a8 D980     		strh	r1, [r3, #6]	@ movhi
 793              	.LVL11:
 794              	.LBB4:
 795              	.LBB5:
 796              		.file 2 "lib/arm_atsam/packs/arm/cmsis/5.0.1/CMSIS/Include/core_cm4.h"
   1:lib/arm_atsam/packs/arm/cmsis/5.0.1/CMSIS/Include/core_cm4.h **** /**************************************************************************//**
   2:lib/arm_atsam/packs/arm/cmsis/5.0.1/CMSIS/Include/core_cm4.h ****  * @file     core_cm4.h
   3:lib/arm_atsam/packs/arm/cmsis/5.0.1/CMSIS/Include/core_cm4.h ****  * @brief    CMSIS Cortex-M4 Core Peripheral Access Layer Header File
   4:lib/arm_atsam/packs/arm/cmsis/5.0.1/CMSIS/Include/core_cm4.h ****  * @version  V5.0.1
   5:lib/arm_atsam/packs/arm/cmsis/5.0.1/CMSIS/Include/core_cm4.h ****  * @date     30. January 2017
   6:lib/arm_atsam/packs/arm/cmsis/5.0.1/CMSIS/Include/core_cm4.h ****  ******************************************************************************/
   7:lib/arm_atsam/packs/arm/cmsis/5.0.1/CMSIS/Include/core_cm4.h **** /*
   8:lib/arm_atsam/packs/arm/cmsis/5.0.1/CMSIS/Include/core_cm4.h ****  * Copyright (c) 2009-2016 ARM Limited. All rights reserved.
   9:lib/arm_atsam/packs/arm/cmsis/5.0.1/CMSIS/Include/core_cm4.h ****  *
  10:lib/arm_atsam/packs/arm/cmsis/5.0.1/CMSIS/Include/core_cm4.h ****  * SPDX-License-Identifier: Apache-2.0
  11:lib/arm_atsam/packs/arm/cmsis/5.0.1/CMSIS/Include/core_cm4.h ****  *
  12:lib/arm_atsam/packs/arm/cmsis/5.0.1/CMSIS/Include/core_cm4.h ****  * Licensed under the Apache License, Version 2.0 (the License); you may
  13:lib/arm_atsam/packs/arm/cmsis/5.0.1/CMSIS/Include/core_cm4.h ****  * not use this file except in compliance with the License.
  14:lib/arm_atsam/packs/arm/cmsis/5.0.1/CMSIS/Include/core_cm4.h ****  * You may obtain a copy of the License at
  15:lib/arm_atsam/packs/arm/cmsis/5.0.1/CMSIS/Include/core_cm4.h ****  *
  16:lib/arm_atsam/packs/arm/cmsis/5.0.1/CMSIS/Include/core_cm4.h ****  * www.apache.org/licenses/LICENSE-2.0
  17:lib/arm_atsam/packs/arm/cmsis/5.0.1/CMSIS/Include/core_cm4.h ****  *
  18:lib/arm_atsam/packs/arm/cmsis/5.0.1/CMSIS/Include/core_cm4.h ****  * Unless required by applicable law or agreed to in writing, software
  19:lib/arm_atsam/packs/arm/cmsis/5.0.1/CMSIS/Include/core_cm4.h ****  * distributed under the License is distributed on an AS IS BASIS, WITHOUT
  20:lib/arm_atsam/packs/arm/cmsis/5.0.1/CMSIS/Include/core_cm4.h ****  * WARRANTIES OR CONDITIONS OF ANY KIND, either express or implied.
  21:lib/arm_atsam/packs/arm/cmsis/5.0.1/CMSIS/Include/core_cm4.h ****  * See the License for the specific language governing permissions and
  22:lib/arm_atsam/packs/arm/cmsis/5.0.1/CMSIS/Include/core_cm4.h ****  * limitations under the License.
  23:lib/arm_atsam/packs/arm/cmsis/5.0.1/CMSIS/Include/core_cm4.h ****  */
  24:lib/arm_atsam/packs/arm/cmsis/5.0.1/CMSIS/Include/core_cm4.h **** 
  25:lib/arm_atsam/packs/arm/cmsis/5.0.1/CMSIS/Include/core_cm4.h **** #if   defined ( __ICCARM__ )
  26:lib/arm_atsam/packs/arm/cmsis/5.0.1/CMSIS/Include/core_cm4.h ****  #pragma system_include         /* treat file as system include file for MISRA check */
  27:lib/arm_atsam/packs/arm/cmsis/5.0.1/CMSIS/Include/core_cm4.h **** #elif defined (__ARMCC_VERSION) && (__ARMCC_VERSION >= 6010050)
  28:lib/arm_atsam/packs/arm/cmsis/5.0.1/CMSIS/Include/core_cm4.h ****   #pragma clang system_header   /* treat file as system include file */
  29:lib/arm_atsam/packs/arm/cmsis/5.0.1/CMSIS/Include/core_cm4.h **** #endif
  30:lib/arm_atsam/packs/arm/cmsis/5.0.1/CMSIS/Include/core_cm4.h **** 
  31:lib/arm_atsam/packs/arm/cmsis/5.0.1/CMSIS/Include/core_cm4.h **** #ifndef __CORE_CM4_H_GENERIC
  32:lib/arm_atsam/packs/arm/cmsis/5.0.1/CMSIS/Include/core_cm4.h **** #define __CORE_CM4_H_GENERIC
  33:lib/arm_atsam/packs/arm/cmsis/5.0.1/CMSIS/Include/core_cm4.h **** 
  34:lib/arm_atsam/packs/arm/cmsis/5.0.1/CMSIS/Include/core_cm4.h **** #include <stdint.h>
  35:lib/arm_atsam/packs/arm/cmsis/5.0.1/CMSIS/Include/core_cm4.h **** 
  36:lib/arm_atsam/packs/arm/cmsis/5.0.1/CMSIS/Include/core_cm4.h **** #ifdef __cplusplus
  37:lib/arm_atsam/packs/arm/cmsis/5.0.1/CMSIS/Include/core_cm4.h ****  extern "C" {
  38:lib/arm_atsam/packs/arm/cmsis/5.0.1/CMSIS/Include/core_cm4.h **** #endif
  39:lib/arm_atsam/packs/arm/cmsis/5.0.1/CMSIS/Include/core_cm4.h **** 
  40:lib/arm_atsam/packs/arm/cmsis/5.0.1/CMSIS/Include/core_cm4.h **** /**
  41:lib/arm_atsam/packs/arm/cmsis/5.0.1/CMSIS/Include/core_cm4.h ****   \page CMSIS_MISRA_Exceptions  MISRA-C:2004 Compliance Exceptions
  42:lib/arm_atsam/packs/arm/cmsis/5.0.1/CMSIS/Include/core_cm4.h ****   CMSIS violates the following MISRA-C:2004 rules:
  43:lib/arm_atsam/packs/arm/cmsis/5.0.1/CMSIS/Include/core_cm4.h **** 
  44:lib/arm_atsam/packs/arm/cmsis/5.0.1/CMSIS/Include/core_cm4.h ****    \li Required Rule 8.5, object/function definition in header file.<br>
  45:lib/arm_atsam/packs/arm/cmsis/5.0.1/CMSIS/Include/core_cm4.h ****      Function definitions in header files are used to allow 'inlining'.
  46:lib/arm_atsam/packs/arm/cmsis/5.0.1/CMSIS/Include/core_cm4.h **** 
  47:lib/arm_atsam/packs/arm/cmsis/5.0.1/CMSIS/Include/core_cm4.h ****    \li Required Rule 18.4, declaration of union type or object of union type: '{...}'.<br>
  48:lib/arm_atsam/packs/arm/cmsis/5.0.1/CMSIS/Include/core_cm4.h ****      Unions are used for effective representation of core registers.
  49:lib/arm_atsam/packs/arm/cmsis/5.0.1/CMSIS/Include/core_cm4.h **** 
  50:lib/arm_atsam/packs/arm/cmsis/5.0.1/CMSIS/Include/core_cm4.h ****    \li Advisory Rule 19.7, Function-like macro defined.<br>
  51:lib/arm_atsam/packs/arm/cmsis/5.0.1/CMSIS/Include/core_cm4.h ****      Function-like macros are used to allow more efficient code.
  52:lib/arm_atsam/packs/arm/cmsis/5.0.1/CMSIS/Include/core_cm4.h ****  */
  53:lib/arm_atsam/packs/arm/cmsis/5.0.1/CMSIS/Include/core_cm4.h **** 
  54:lib/arm_atsam/packs/arm/cmsis/5.0.1/CMSIS/Include/core_cm4.h **** 
  55:lib/arm_atsam/packs/arm/cmsis/5.0.1/CMSIS/Include/core_cm4.h **** /*******************************************************************************
  56:lib/arm_atsam/packs/arm/cmsis/5.0.1/CMSIS/Include/core_cm4.h ****  *                 CMSIS definitions
  57:lib/arm_atsam/packs/arm/cmsis/5.0.1/CMSIS/Include/core_cm4.h ****  ******************************************************************************/
  58:lib/arm_atsam/packs/arm/cmsis/5.0.1/CMSIS/Include/core_cm4.h **** /**
  59:lib/arm_atsam/packs/arm/cmsis/5.0.1/CMSIS/Include/core_cm4.h ****   \ingroup Cortex_M4
  60:lib/arm_atsam/packs/arm/cmsis/5.0.1/CMSIS/Include/core_cm4.h ****   @{
  61:lib/arm_atsam/packs/arm/cmsis/5.0.1/CMSIS/Include/core_cm4.h ****  */
  62:lib/arm_atsam/packs/arm/cmsis/5.0.1/CMSIS/Include/core_cm4.h **** 
  63:lib/arm_atsam/packs/arm/cmsis/5.0.1/CMSIS/Include/core_cm4.h **** /*  CMSIS CM4 definitions */
  64:lib/arm_atsam/packs/arm/cmsis/5.0.1/CMSIS/Include/core_cm4.h **** #define __CM4_CMSIS_VERSION_MAIN  ( 5U)                                  /*!< [31:16] CMSIS HAL mai
  65:lib/arm_atsam/packs/arm/cmsis/5.0.1/CMSIS/Include/core_cm4.h **** #define __CM4_CMSIS_VERSION_SUB   ( 0U)                                  /*!< [15:0]  CMSIS HAL sub
  66:lib/arm_atsam/packs/arm/cmsis/5.0.1/CMSIS/Include/core_cm4.h **** #define __CM4_CMSIS_VERSION       ((__CM4_CMSIS_VERSION_MAIN << 16U) | \
  67:lib/arm_atsam/packs/arm/cmsis/5.0.1/CMSIS/Include/core_cm4.h ****                                     __CM4_CMSIS_VERSION_SUB           )  /*!< CMSIS HAL version num
  68:lib/arm_atsam/packs/arm/cmsis/5.0.1/CMSIS/Include/core_cm4.h **** 
  69:lib/arm_atsam/packs/arm/cmsis/5.0.1/CMSIS/Include/core_cm4.h **** #define __CORTEX_M                (4U)                                   /*!< Cortex-M Core */
  70:lib/arm_atsam/packs/arm/cmsis/5.0.1/CMSIS/Include/core_cm4.h **** 
  71:lib/arm_atsam/packs/arm/cmsis/5.0.1/CMSIS/Include/core_cm4.h **** /** __FPU_USED indicates whether an FPU is used or not.
  72:lib/arm_atsam/packs/arm/cmsis/5.0.1/CMSIS/Include/core_cm4.h ****     For this, __FPU_PRESENT has to be checked prior to making use of FPU specific registers and fun
  73:lib/arm_atsam/packs/arm/cmsis/5.0.1/CMSIS/Include/core_cm4.h **** */
  74:lib/arm_atsam/packs/arm/cmsis/5.0.1/CMSIS/Include/core_cm4.h **** #if defined ( __CC_ARM )
  75:lib/arm_atsam/packs/arm/cmsis/5.0.1/CMSIS/Include/core_cm4.h ****   #if defined __TARGET_FPU_VFP
  76:lib/arm_atsam/packs/arm/cmsis/5.0.1/CMSIS/Include/core_cm4.h ****     #if defined (__FPU_PRESENT) && (__FPU_PRESENT == 1U)
  77:lib/arm_atsam/packs/arm/cmsis/5.0.1/CMSIS/Include/core_cm4.h ****       #define __FPU_USED       1U
  78:lib/arm_atsam/packs/arm/cmsis/5.0.1/CMSIS/Include/core_cm4.h ****     #else
  79:lib/arm_atsam/packs/arm/cmsis/5.0.1/CMSIS/Include/core_cm4.h ****       #error "Compiler generates FPU instructions for a device without an FPU (check __FPU_PRESENT)
  80:lib/arm_atsam/packs/arm/cmsis/5.0.1/CMSIS/Include/core_cm4.h ****       #define __FPU_USED       0U
  81:lib/arm_atsam/packs/arm/cmsis/5.0.1/CMSIS/Include/core_cm4.h ****     #endif
  82:lib/arm_atsam/packs/arm/cmsis/5.0.1/CMSIS/Include/core_cm4.h ****   #else
  83:lib/arm_atsam/packs/arm/cmsis/5.0.1/CMSIS/Include/core_cm4.h ****     #define __FPU_USED         0U
  84:lib/arm_atsam/packs/arm/cmsis/5.0.1/CMSIS/Include/core_cm4.h ****   #endif
  85:lib/arm_atsam/packs/arm/cmsis/5.0.1/CMSIS/Include/core_cm4.h **** 
  86:lib/arm_atsam/packs/arm/cmsis/5.0.1/CMSIS/Include/core_cm4.h **** #elif defined (__ARMCC_VERSION) && (__ARMCC_VERSION >= 6010050)
  87:lib/arm_atsam/packs/arm/cmsis/5.0.1/CMSIS/Include/core_cm4.h ****   #if defined __ARM_PCS_VFP
  88:lib/arm_atsam/packs/arm/cmsis/5.0.1/CMSIS/Include/core_cm4.h ****     #if defined (__FPU_PRESENT) && (__FPU_PRESENT == 1U)
  89:lib/arm_atsam/packs/arm/cmsis/5.0.1/CMSIS/Include/core_cm4.h ****       #define __FPU_USED       1U
  90:lib/arm_atsam/packs/arm/cmsis/5.0.1/CMSIS/Include/core_cm4.h ****     #else
  91:lib/arm_atsam/packs/arm/cmsis/5.0.1/CMSIS/Include/core_cm4.h ****       #warning "Compiler generates FPU instructions for a device without an FPU (check __FPU_PRESEN
  92:lib/arm_atsam/packs/arm/cmsis/5.0.1/CMSIS/Include/core_cm4.h ****       #define __FPU_USED       0U
  93:lib/arm_atsam/packs/arm/cmsis/5.0.1/CMSIS/Include/core_cm4.h ****     #endif
  94:lib/arm_atsam/packs/arm/cmsis/5.0.1/CMSIS/Include/core_cm4.h ****   #else
  95:lib/arm_atsam/packs/arm/cmsis/5.0.1/CMSIS/Include/core_cm4.h ****     #define __FPU_USED         0U
  96:lib/arm_atsam/packs/arm/cmsis/5.0.1/CMSIS/Include/core_cm4.h ****   #endif
  97:lib/arm_atsam/packs/arm/cmsis/5.0.1/CMSIS/Include/core_cm4.h **** 
  98:lib/arm_atsam/packs/arm/cmsis/5.0.1/CMSIS/Include/core_cm4.h **** #elif defined ( __GNUC__ )
  99:lib/arm_atsam/packs/arm/cmsis/5.0.1/CMSIS/Include/core_cm4.h ****   #if defined (__VFP_FP__) && !defined(__SOFTFP__)
 100:lib/arm_atsam/packs/arm/cmsis/5.0.1/CMSIS/Include/core_cm4.h ****     #if defined (__FPU_PRESENT) && (__FPU_PRESENT == 1U)
 101:lib/arm_atsam/packs/arm/cmsis/5.0.1/CMSIS/Include/core_cm4.h ****       #define __FPU_USED       1U
 102:lib/arm_atsam/packs/arm/cmsis/5.0.1/CMSIS/Include/core_cm4.h ****     #else
 103:lib/arm_atsam/packs/arm/cmsis/5.0.1/CMSIS/Include/core_cm4.h ****       #error "Compiler generates FPU instructions for a device without an FPU (check __FPU_PRESENT)
 104:lib/arm_atsam/packs/arm/cmsis/5.0.1/CMSIS/Include/core_cm4.h ****       #define __FPU_USED       0U
 105:lib/arm_atsam/packs/arm/cmsis/5.0.1/CMSIS/Include/core_cm4.h ****     #endif
 106:lib/arm_atsam/packs/arm/cmsis/5.0.1/CMSIS/Include/core_cm4.h ****   #else
 107:lib/arm_atsam/packs/arm/cmsis/5.0.1/CMSIS/Include/core_cm4.h ****     #define __FPU_USED         0U
 108:lib/arm_atsam/packs/arm/cmsis/5.0.1/CMSIS/Include/core_cm4.h ****   #endif
 109:lib/arm_atsam/packs/arm/cmsis/5.0.1/CMSIS/Include/core_cm4.h **** 
 110:lib/arm_atsam/packs/arm/cmsis/5.0.1/CMSIS/Include/core_cm4.h **** #elif defined ( __ICCARM__ )
 111:lib/arm_atsam/packs/arm/cmsis/5.0.1/CMSIS/Include/core_cm4.h ****   #if defined __ARMVFP__
 112:lib/arm_atsam/packs/arm/cmsis/5.0.1/CMSIS/Include/core_cm4.h ****     #if defined (__FPU_PRESENT) && (__FPU_PRESENT == 1U)
 113:lib/arm_atsam/packs/arm/cmsis/5.0.1/CMSIS/Include/core_cm4.h ****       #define __FPU_USED       1U
 114:lib/arm_atsam/packs/arm/cmsis/5.0.1/CMSIS/Include/core_cm4.h ****     #else
 115:lib/arm_atsam/packs/arm/cmsis/5.0.1/CMSIS/Include/core_cm4.h ****       #error "Compiler generates FPU instructions for a device without an FPU (check __FPU_PRESENT)
 116:lib/arm_atsam/packs/arm/cmsis/5.0.1/CMSIS/Include/core_cm4.h ****       #define __FPU_USED       0U
 117:lib/arm_atsam/packs/arm/cmsis/5.0.1/CMSIS/Include/core_cm4.h ****     #endif
 118:lib/arm_atsam/packs/arm/cmsis/5.0.1/CMSIS/Include/core_cm4.h ****   #else
 119:lib/arm_atsam/packs/arm/cmsis/5.0.1/CMSIS/Include/core_cm4.h ****     #define __FPU_USED         0U
 120:lib/arm_atsam/packs/arm/cmsis/5.0.1/CMSIS/Include/core_cm4.h ****   #endif
 121:lib/arm_atsam/packs/arm/cmsis/5.0.1/CMSIS/Include/core_cm4.h **** 
 122:lib/arm_atsam/packs/arm/cmsis/5.0.1/CMSIS/Include/core_cm4.h **** #elif defined ( __TI_ARM__ )
 123:lib/arm_atsam/packs/arm/cmsis/5.0.1/CMSIS/Include/core_cm4.h ****   #if defined __TI_VFP_SUPPORT__
 124:lib/arm_atsam/packs/arm/cmsis/5.0.1/CMSIS/Include/core_cm4.h ****     #if defined (__FPU_PRESENT) && (__FPU_PRESENT == 1U)
 125:lib/arm_atsam/packs/arm/cmsis/5.0.1/CMSIS/Include/core_cm4.h ****       #define __FPU_USED       1U
 126:lib/arm_atsam/packs/arm/cmsis/5.0.1/CMSIS/Include/core_cm4.h ****     #else
 127:lib/arm_atsam/packs/arm/cmsis/5.0.1/CMSIS/Include/core_cm4.h ****       #error "Compiler generates FPU instructions for a device without an FPU (check __FPU_PRESENT)
 128:lib/arm_atsam/packs/arm/cmsis/5.0.1/CMSIS/Include/core_cm4.h ****       #define __FPU_USED       0U
 129:lib/arm_atsam/packs/arm/cmsis/5.0.1/CMSIS/Include/core_cm4.h ****     #endif
 130:lib/arm_atsam/packs/arm/cmsis/5.0.1/CMSIS/Include/core_cm4.h ****   #else
 131:lib/arm_atsam/packs/arm/cmsis/5.0.1/CMSIS/Include/core_cm4.h ****     #define __FPU_USED         0U
 132:lib/arm_atsam/packs/arm/cmsis/5.0.1/CMSIS/Include/core_cm4.h ****   #endif
 133:lib/arm_atsam/packs/arm/cmsis/5.0.1/CMSIS/Include/core_cm4.h **** 
 134:lib/arm_atsam/packs/arm/cmsis/5.0.1/CMSIS/Include/core_cm4.h **** #elif defined ( __TASKING__ )
 135:lib/arm_atsam/packs/arm/cmsis/5.0.1/CMSIS/Include/core_cm4.h ****   #if defined __FPU_VFP__
 136:lib/arm_atsam/packs/arm/cmsis/5.0.1/CMSIS/Include/core_cm4.h ****     #if defined (__FPU_PRESENT) && (__FPU_PRESENT == 1U)
 137:lib/arm_atsam/packs/arm/cmsis/5.0.1/CMSIS/Include/core_cm4.h ****       #define __FPU_USED       1U
 138:lib/arm_atsam/packs/arm/cmsis/5.0.1/CMSIS/Include/core_cm4.h ****     #else
 139:lib/arm_atsam/packs/arm/cmsis/5.0.1/CMSIS/Include/core_cm4.h ****       #error "Compiler generates FPU instructions for a device without an FPU (check __FPU_PRESENT)
 140:lib/arm_atsam/packs/arm/cmsis/5.0.1/CMSIS/Include/core_cm4.h ****       #define __FPU_USED       0U
 141:lib/arm_atsam/packs/arm/cmsis/5.0.1/CMSIS/Include/core_cm4.h ****     #endif
 142:lib/arm_atsam/packs/arm/cmsis/5.0.1/CMSIS/Include/core_cm4.h ****   #else
 143:lib/arm_atsam/packs/arm/cmsis/5.0.1/CMSIS/Include/core_cm4.h ****     #define __FPU_USED         0U
 144:lib/arm_atsam/packs/arm/cmsis/5.0.1/CMSIS/Include/core_cm4.h ****   #endif
 145:lib/arm_atsam/packs/arm/cmsis/5.0.1/CMSIS/Include/core_cm4.h **** 
 146:lib/arm_atsam/packs/arm/cmsis/5.0.1/CMSIS/Include/core_cm4.h **** #elif defined ( __CSMC__ )
 147:lib/arm_atsam/packs/arm/cmsis/5.0.1/CMSIS/Include/core_cm4.h ****   #if ( __CSMC__ & 0x400U)
 148:lib/arm_atsam/packs/arm/cmsis/5.0.1/CMSIS/Include/core_cm4.h ****     #if defined (__FPU_PRESENT) && (__FPU_PRESENT == 1U)
 149:lib/arm_atsam/packs/arm/cmsis/5.0.1/CMSIS/Include/core_cm4.h ****       #define __FPU_USED       1U
 150:lib/arm_atsam/packs/arm/cmsis/5.0.1/CMSIS/Include/core_cm4.h ****     #else
 151:lib/arm_atsam/packs/arm/cmsis/5.0.1/CMSIS/Include/core_cm4.h ****       #error "Compiler generates FPU instructions for a device without an FPU (check __FPU_PRESENT)
 152:lib/arm_atsam/packs/arm/cmsis/5.0.1/CMSIS/Include/core_cm4.h ****       #define __FPU_USED       0U
 153:lib/arm_atsam/packs/arm/cmsis/5.0.1/CMSIS/Include/core_cm4.h ****     #endif
 154:lib/arm_atsam/packs/arm/cmsis/5.0.1/CMSIS/Include/core_cm4.h ****   #else
 155:lib/arm_atsam/packs/arm/cmsis/5.0.1/CMSIS/Include/core_cm4.h ****     #define __FPU_USED         0U
 156:lib/arm_atsam/packs/arm/cmsis/5.0.1/CMSIS/Include/core_cm4.h ****   #endif
 157:lib/arm_atsam/packs/arm/cmsis/5.0.1/CMSIS/Include/core_cm4.h **** 
 158:lib/arm_atsam/packs/arm/cmsis/5.0.1/CMSIS/Include/core_cm4.h **** #endif
 159:lib/arm_atsam/packs/arm/cmsis/5.0.1/CMSIS/Include/core_cm4.h **** 
 160:lib/arm_atsam/packs/arm/cmsis/5.0.1/CMSIS/Include/core_cm4.h **** #include "cmsis_compiler.h"               /* CMSIS compiler specific defines */
 161:lib/arm_atsam/packs/arm/cmsis/5.0.1/CMSIS/Include/core_cm4.h **** 
 162:lib/arm_atsam/packs/arm/cmsis/5.0.1/CMSIS/Include/core_cm4.h **** 
 163:lib/arm_atsam/packs/arm/cmsis/5.0.1/CMSIS/Include/core_cm4.h **** #ifdef __cplusplus
 164:lib/arm_atsam/packs/arm/cmsis/5.0.1/CMSIS/Include/core_cm4.h **** }
 165:lib/arm_atsam/packs/arm/cmsis/5.0.1/CMSIS/Include/core_cm4.h **** #endif
 166:lib/arm_atsam/packs/arm/cmsis/5.0.1/CMSIS/Include/core_cm4.h **** 
 167:lib/arm_atsam/packs/arm/cmsis/5.0.1/CMSIS/Include/core_cm4.h **** #endif /* __CORE_CM4_H_GENERIC */
 168:lib/arm_atsam/packs/arm/cmsis/5.0.1/CMSIS/Include/core_cm4.h **** 
 169:lib/arm_atsam/packs/arm/cmsis/5.0.1/CMSIS/Include/core_cm4.h **** #ifndef __CMSIS_GENERIC
 170:lib/arm_atsam/packs/arm/cmsis/5.0.1/CMSIS/Include/core_cm4.h **** 
 171:lib/arm_atsam/packs/arm/cmsis/5.0.1/CMSIS/Include/core_cm4.h **** #ifndef __CORE_CM4_H_DEPENDANT
 172:lib/arm_atsam/packs/arm/cmsis/5.0.1/CMSIS/Include/core_cm4.h **** #define __CORE_CM4_H_DEPENDANT
 173:lib/arm_atsam/packs/arm/cmsis/5.0.1/CMSIS/Include/core_cm4.h **** 
 174:lib/arm_atsam/packs/arm/cmsis/5.0.1/CMSIS/Include/core_cm4.h **** #ifdef __cplusplus
 175:lib/arm_atsam/packs/arm/cmsis/5.0.1/CMSIS/Include/core_cm4.h ****  extern "C" {
 176:lib/arm_atsam/packs/arm/cmsis/5.0.1/CMSIS/Include/core_cm4.h **** #endif
 177:lib/arm_atsam/packs/arm/cmsis/5.0.1/CMSIS/Include/core_cm4.h **** 
 178:lib/arm_atsam/packs/arm/cmsis/5.0.1/CMSIS/Include/core_cm4.h **** /* check device defines and use defaults */
 179:lib/arm_atsam/packs/arm/cmsis/5.0.1/CMSIS/Include/core_cm4.h **** #if defined __CHECK_DEVICE_DEFINES
 180:lib/arm_atsam/packs/arm/cmsis/5.0.1/CMSIS/Include/core_cm4.h ****   #ifndef __CM4_REV
 181:lib/arm_atsam/packs/arm/cmsis/5.0.1/CMSIS/Include/core_cm4.h ****     #define __CM4_REV               0x0000U
 182:lib/arm_atsam/packs/arm/cmsis/5.0.1/CMSIS/Include/core_cm4.h ****     #warning "__CM4_REV not defined in device header file; using default!"
 183:lib/arm_atsam/packs/arm/cmsis/5.0.1/CMSIS/Include/core_cm4.h ****   #endif
 184:lib/arm_atsam/packs/arm/cmsis/5.0.1/CMSIS/Include/core_cm4.h **** 
 185:lib/arm_atsam/packs/arm/cmsis/5.0.1/CMSIS/Include/core_cm4.h ****   #ifndef __FPU_PRESENT
 186:lib/arm_atsam/packs/arm/cmsis/5.0.1/CMSIS/Include/core_cm4.h ****     #define __FPU_PRESENT             0U
 187:lib/arm_atsam/packs/arm/cmsis/5.0.1/CMSIS/Include/core_cm4.h ****     #warning "__FPU_PRESENT not defined in device header file; using default!"
 188:lib/arm_atsam/packs/arm/cmsis/5.0.1/CMSIS/Include/core_cm4.h ****   #endif
 189:lib/arm_atsam/packs/arm/cmsis/5.0.1/CMSIS/Include/core_cm4.h **** 
 190:lib/arm_atsam/packs/arm/cmsis/5.0.1/CMSIS/Include/core_cm4.h ****   #ifndef __MPU_PRESENT
 191:lib/arm_atsam/packs/arm/cmsis/5.0.1/CMSIS/Include/core_cm4.h ****     #define __MPU_PRESENT             0U
 192:lib/arm_atsam/packs/arm/cmsis/5.0.1/CMSIS/Include/core_cm4.h ****     #warning "__MPU_PRESENT not defined in device header file; using default!"
 193:lib/arm_atsam/packs/arm/cmsis/5.0.1/CMSIS/Include/core_cm4.h ****   #endif
 194:lib/arm_atsam/packs/arm/cmsis/5.0.1/CMSIS/Include/core_cm4.h **** 
 195:lib/arm_atsam/packs/arm/cmsis/5.0.1/CMSIS/Include/core_cm4.h ****   #ifndef __NVIC_PRIO_BITS
 196:lib/arm_atsam/packs/arm/cmsis/5.0.1/CMSIS/Include/core_cm4.h ****     #define __NVIC_PRIO_BITS          3U
 197:lib/arm_atsam/packs/arm/cmsis/5.0.1/CMSIS/Include/core_cm4.h ****     #warning "__NVIC_PRIO_BITS not defined in device header file; using default!"
 198:lib/arm_atsam/packs/arm/cmsis/5.0.1/CMSIS/Include/core_cm4.h ****   #endif
 199:lib/arm_atsam/packs/arm/cmsis/5.0.1/CMSIS/Include/core_cm4.h **** 
 200:lib/arm_atsam/packs/arm/cmsis/5.0.1/CMSIS/Include/core_cm4.h ****   #ifndef __Vendor_SysTickConfig
 201:lib/arm_atsam/packs/arm/cmsis/5.0.1/CMSIS/Include/core_cm4.h ****     #define __Vendor_SysTickConfig    0U
 202:lib/arm_atsam/packs/arm/cmsis/5.0.1/CMSIS/Include/core_cm4.h ****     #warning "__Vendor_SysTickConfig not defined in device header file; using default!"
 203:lib/arm_atsam/packs/arm/cmsis/5.0.1/CMSIS/Include/core_cm4.h ****   #endif
 204:lib/arm_atsam/packs/arm/cmsis/5.0.1/CMSIS/Include/core_cm4.h **** #endif
 205:lib/arm_atsam/packs/arm/cmsis/5.0.1/CMSIS/Include/core_cm4.h **** 
 206:lib/arm_atsam/packs/arm/cmsis/5.0.1/CMSIS/Include/core_cm4.h **** /* IO definitions (access restrictions to peripheral registers) */
 207:lib/arm_atsam/packs/arm/cmsis/5.0.1/CMSIS/Include/core_cm4.h **** /**
 208:lib/arm_atsam/packs/arm/cmsis/5.0.1/CMSIS/Include/core_cm4.h ****     \defgroup CMSIS_glob_defs CMSIS Global Defines
 209:lib/arm_atsam/packs/arm/cmsis/5.0.1/CMSIS/Include/core_cm4.h **** 
 210:lib/arm_atsam/packs/arm/cmsis/5.0.1/CMSIS/Include/core_cm4.h ****     <strong>IO Type Qualifiers</strong> are used
 211:lib/arm_atsam/packs/arm/cmsis/5.0.1/CMSIS/Include/core_cm4.h ****     \li to specify the access to peripheral variables.
 212:lib/arm_atsam/packs/arm/cmsis/5.0.1/CMSIS/Include/core_cm4.h ****     \li for automatic generation of peripheral register debug information.
 213:lib/arm_atsam/packs/arm/cmsis/5.0.1/CMSIS/Include/core_cm4.h **** */
 214:lib/arm_atsam/packs/arm/cmsis/5.0.1/CMSIS/Include/core_cm4.h **** #ifdef __cplusplus
 215:lib/arm_atsam/packs/arm/cmsis/5.0.1/CMSIS/Include/core_cm4.h ****   #define   __I     volatile             /*!< Defines 'read only' permissions */
 216:lib/arm_atsam/packs/arm/cmsis/5.0.1/CMSIS/Include/core_cm4.h **** #else
 217:lib/arm_atsam/packs/arm/cmsis/5.0.1/CMSIS/Include/core_cm4.h ****   #define   __I     volatile const       /*!< Defines 'read only' permissions */
 218:lib/arm_atsam/packs/arm/cmsis/5.0.1/CMSIS/Include/core_cm4.h **** #endif
 219:lib/arm_atsam/packs/arm/cmsis/5.0.1/CMSIS/Include/core_cm4.h **** #define     __O     volatile             /*!< Defines 'write only' permissions */
 220:lib/arm_atsam/packs/arm/cmsis/5.0.1/CMSIS/Include/core_cm4.h **** #define     __IO    volatile             /*!< Defines 'read / write' permissions */
 221:lib/arm_atsam/packs/arm/cmsis/5.0.1/CMSIS/Include/core_cm4.h **** 
 222:lib/arm_atsam/packs/arm/cmsis/5.0.1/CMSIS/Include/core_cm4.h **** /* following defines should be used for structure members */
 223:lib/arm_atsam/packs/arm/cmsis/5.0.1/CMSIS/Include/core_cm4.h **** #define     __IM     volatile const      /*! Defines 'read only' structure member permissions */
 224:lib/arm_atsam/packs/arm/cmsis/5.0.1/CMSIS/Include/core_cm4.h **** #define     __OM     volatile            /*! Defines 'write only' structure member permissions */
 225:lib/arm_atsam/packs/arm/cmsis/5.0.1/CMSIS/Include/core_cm4.h **** #define     __IOM    volatile            /*! Defines 'read / write' structure member permissions */
 226:lib/arm_atsam/packs/arm/cmsis/5.0.1/CMSIS/Include/core_cm4.h **** 
 227:lib/arm_atsam/packs/arm/cmsis/5.0.1/CMSIS/Include/core_cm4.h **** /*@} end of group Cortex_M4 */
 228:lib/arm_atsam/packs/arm/cmsis/5.0.1/CMSIS/Include/core_cm4.h **** 
 229:lib/arm_atsam/packs/arm/cmsis/5.0.1/CMSIS/Include/core_cm4.h **** 
 230:lib/arm_atsam/packs/arm/cmsis/5.0.1/CMSIS/Include/core_cm4.h **** 
 231:lib/arm_atsam/packs/arm/cmsis/5.0.1/CMSIS/Include/core_cm4.h **** /*******************************************************************************
 232:lib/arm_atsam/packs/arm/cmsis/5.0.1/CMSIS/Include/core_cm4.h ****  *                 Register Abstraction
 233:lib/arm_atsam/packs/arm/cmsis/5.0.1/CMSIS/Include/core_cm4.h ****   Core Register contain:
 234:lib/arm_atsam/packs/arm/cmsis/5.0.1/CMSIS/Include/core_cm4.h ****   - Core Register
 235:lib/arm_atsam/packs/arm/cmsis/5.0.1/CMSIS/Include/core_cm4.h ****   - Core NVIC Register
 236:lib/arm_atsam/packs/arm/cmsis/5.0.1/CMSIS/Include/core_cm4.h ****   - Core SCB Register
 237:lib/arm_atsam/packs/arm/cmsis/5.0.1/CMSIS/Include/core_cm4.h ****   - Core SysTick Register
 238:lib/arm_atsam/packs/arm/cmsis/5.0.1/CMSIS/Include/core_cm4.h ****   - Core Debug Register
 239:lib/arm_atsam/packs/arm/cmsis/5.0.1/CMSIS/Include/core_cm4.h ****   - Core MPU Register
 240:lib/arm_atsam/packs/arm/cmsis/5.0.1/CMSIS/Include/core_cm4.h ****   - Core FPU Register
 241:lib/arm_atsam/packs/arm/cmsis/5.0.1/CMSIS/Include/core_cm4.h ****  ******************************************************************************/
 242:lib/arm_atsam/packs/arm/cmsis/5.0.1/CMSIS/Include/core_cm4.h **** /**
 243:lib/arm_atsam/packs/arm/cmsis/5.0.1/CMSIS/Include/core_cm4.h ****   \defgroup CMSIS_core_register Defines and Type Definitions
 244:lib/arm_atsam/packs/arm/cmsis/5.0.1/CMSIS/Include/core_cm4.h ****   \brief Type definitions and defines for Cortex-M processor based devices.
 245:lib/arm_atsam/packs/arm/cmsis/5.0.1/CMSIS/Include/core_cm4.h **** */
 246:lib/arm_atsam/packs/arm/cmsis/5.0.1/CMSIS/Include/core_cm4.h **** 
 247:lib/arm_atsam/packs/arm/cmsis/5.0.1/CMSIS/Include/core_cm4.h **** /**
 248:lib/arm_atsam/packs/arm/cmsis/5.0.1/CMSIS/Include/core_cm4.h ****   \ingroup    CMSIS_core_register
 249:lib/arm_atsam/packs/arm/cmsis/5.0.1/CMSIS/Include/core_cm4.h ****   \defgroup   CMSIS_CORE  Status and Control Registers
 250:lib/arm_atsam/packs/arm/cmsis/5.0.1/CMSIS/Include/core_cm4.h ****   \brief      Core Register type definitions.
 251:lib/arm_atsam/packs/arm/cmsis/5.0.1/CMSIS/Include/core_cm4.h ****   @{
 252:lib/arm_atsam/packs/arm/cmsis/5.0.1/CMSIS/Include/core_cm4.h ****  */
 253:lib/arm_atsam/packs/arm/cmsis/5.0.1/CMSIS/Include/core_cm4.h **** 
 254:lib/arm_atsam/packs/arm/cmsis/5.0.1/CMSIS/Include/core_cm4.h **** /**
 255:lib/arm_atsam/packs/arm/cmsis/5.0.1/CMSIS/Include/core_cm4.h ****   \brief  Union type to access the Application Program Status Register (APSR).
 256:lib/arm_atsam/packs/arm/cmsis/5.0.1/CMSIS/Include/core_cm4.h ****  */
 257:lib/arm_atsam/packs/arm/cmsis/5.0.1/CMSIS/Include/core_cm4.h **** typedef union
 258:lib/arm_atsam/packs/arm/cmsis/5.0.1/CMSIS/Include/core_cm4.h **** {
 259:lib/arm_atsam/packs/arm/cmsis/5.0.1/CMSIS/Include/core_cm4.h ****   struct
 260:lib/arm_atsam/packs/arm/cmsis/5.0.1/CMSIS/Include/core_cm4.h ****   {
 261:lib/arm_atsam/packs/arm/cmsis/5.0.1/CMSIS/Include/core_cm4.h ****     uint32_t _reserved0:16;              /*!< bit:  0..15  Reserved */
 262:lib/arm_atsam/packs/arm/cmsis/5.0.1/CMSIS/Include/core_cm4.h ****     uint32_t GE:4;                       /*!< bit: 16..19  Greater than or Equal flags */
 263:lib/arm_atsam/packs/arm/cmsis/5.0.1/CMSIS/Include/core_cm4.h ****     uint32_t _reserved1:7;               /*!< bit: 20..26  Reserved */
 264:lib/arm_atsam/packs/arm/cmsis/5.0.1/CMSIS/Include/core_cm4.h ****     uint32_t Q:1;                        /*!< bit:     27  Saturation condition flag */
 265:lib/arm_atsam/packs/arm/cmsis/5.0.1/CMSIS/Include/core_cm4.h ****     uint32_t V:1;                        /*!< bit:     28  Overflow condition code flag */
 266:lib/arm_atsam/packs/arm/cmsis/5.0.1/CMSIS/Include/core_cm4.h ****     uint32_t C:1;                        /*!< bit:     29  Carry condition code flag */
 267:lib/arm_atsam/packs/arm/cmsis/5.0.1/CMSIS/Include/core_cm4.h ****     uint32_t Z:1;                        /*!< bit:     30  Zero condition code flag */
 268:lib/arm_atsam/packs/arm/cmsis/5.0.1/CMSIS/Include/core_cm4.h ****     uint32_t N:1;                        /*!< bit:     31  Negative condition code flag */
 269:lib/arm_atsam/packs/arm/cmsis/5.0.1/CMSIS/Include/core_cm4.h ****   } b;                                   /*!< Structure used for bit  access */
 270:lib/arm_atsam/packs/arm/cmsis/5.0.1/CMSIS/Include/core_cm4.h ****   uint32_t w;                            /*!< Type      used for word access */
 271:lib/arm_atsam/packs/arm/cmsis/5.0.1/CMSIS/Include/core_cm4.h **** } APSR_Type;
 272:lib/arm_atsam/packs/arm/cmsis/5.0.1/CMSIS/Include/core_cm4.h **** 
 273:lib/arm_atsam/packs/arm/cmsis/5.0.1/CMSIS/Include/core_cm4.h **** /* APSR Register Definitions */
 274:lib/arm_atsam/packs/arm/cmsis/5.0.1/CMSIS/Include/core_cm4.h **** #define APSR_N_Pos                         31U                                            /*!< APSR
 275:lib/arm_atsam/packs/arm/cmsis/5.0.1/CMSIS/Include/core_cm4.h **** #define APSR_N_Msk                         (1UL << APSR_N_Pos)                            /*!< APSR
 276:lib/arm_atsam/packs/arm/cmsis/5.0.1/CMSIS/Include/core_cm4.h **** 
 277:lib/arm_atsam/packs/arm/cmsis/5.0.1/CMSIS/Include/core_cm4.h **** #define APSR_Z_Pos                         30U                                            /*!< APSR
 278:lib/arm_atsam/packs/arm/cmsis/5.0.1/CMSIS/Include/core_cm4.h **** #define APSR_Z_Msk                         (1UL << APSR_Z_Pos)                            /*!< APSR
 279:lib/arm_atsam/packs/arm/cmsis/5.0.1/CMSIS/Include/core_cm4.h **** 
 280:lib/arm_atsam/packs/arm/cmsis/5.0.1/CMSIS/Include/core_cm4.h **** #define APSR_C_Pos                         29U                                            /*!< APSR
 281:lib/arm_atsam/packs/arm/cmsis/5.0.1/CMSIS/Include/core_cm4.h **** #define APSR_C_Msk                         (1UL << APSR_C_Pos)                            /*!< APSR
 282:lib/arm_atsam/packs/arm/cmsis/5.0.1/CMSIS/Include/core_cm4.h **** 
 283:lib/arm_atsam/packs/arm/cmsis/5.0.1/CMSIS/Include/core_cm4.h **** #define APSR_V_Pos                         28U                                            /*!< APSR
 284:lib/arm_atsam/packs/arm/cmsis/5.0.1/CMSIS/Include/core_cm4.h **** #define APSR_V_Msk                         (1UL << APSR_V_Pos)                            /*!< APSR
 285:lib/arm_atsam/packs/arm/cmsis/5.0.1/CMSIS/Include/core_cm4.h **** 
 286:lib/arm_atsam/packs/arm/cmsis/5.0.1/CMSIS/Include/core_cm4.h **** #define APSR_Q_Pos                         27U                                            /*!< APSR
 287:lib/arm_atsam/packs/arm/cmsis/5.0.1/CMSIS/Include/core_cm4.h **** #define APSR_Q_Msk                         (1UL << APSR_Q_Pos)                            /*!< APSR
 288:lib/arm_atsam/packs/arm/cmsis/5.0.1/CMSIS/Include/core_cm4.h **** 
 289:lib/arm_atsam/packs/arm/cmsis/5.0.1/CMSIS/Include/core_cm4.h **** #define APSR_GE_Pos                        16U                                            /*!< APSR
 290:lib/arm_atsam/packs/arm/cmsis/5.0.1/CMSIS/Include/core_cm4.h **** #define APSR_GE_Msk                        (0xFUL << APSR_GE_Pos)                         /*!< APSR
 291:lib/arm_atsam/packs/arm/cmsis/5.0.1/CMSIS/Include/core_cm4.h **** 
 292:lib/arm_atsam/packs/arm/cmsis/5.0.1/CMSIS/Include/core_cm4.h **** 
 293:lib/arm_atsam/packs/arm/cmsis/5.0.1/CMSIS/Include/core_cm4.h **** /**
 294:lib/arm_atsam/packs/arm/cmsis/5.0.1/CMSIS/Include/core_cm4.h ****   \brief  Union type to access the Interrupt Program Status Register (IPSR).
 295:lib/arm_atsam/packs/arm/cmsis/5.0.1/CMSIS/Include/core_cm4.h ****  */
 296:lib/arm_atsam/packs/arm/cmsis/5.0.1/CMSIS/Include/core_cm4.h **** typedef union
 297:lib/arm_atsam/packs/arm/cmsis/5.0.1/CMSIS/Include/core_cm4.h **** {
 298:lib/arm_atsam/packs/arm/cmsis/5.0.1/CMSIS/Include/core_cm4.h ****   struct
 299:lib/arm_atsam/packs/arm/cmsis/5.0.1/CMSIS/Include/core_cm4.h ****   {
 300:lib/arm_atsam/packs/arm/cmsis/5.0.1/CMSIS/Include/core_cm4.h ****     uint32_t ISR:9;                      /*!< bit:  0.. 8  Exception number */
 301:lib/arm_atsam/packs/arm/cmsis/5.0.1/CMSIS/Include/core_cm4.h ****     uint32_t _reserved0:23;              /*!< bit:  9..31  Reserved */
 302:lib/arm_atsam/packs/arm/cmsis/5.0.1/CMSIS/Include/core_cm4.h ****   } b;                                   /*!< Structure used for bit  access */
 303:lib/arm_atsam/packs/arm/cmsis/5.0.1/CMSIS/Include/core_cm4.h ****   uint32_t w;                            /*!< Type      used for word access */
 304:lib/arm_atsam/packs/arm/cmsis/5.0.1/CMSIS/Include/core_cm4.h **** } IPSR_Type;
 305:lib/arm_atsam/packs/arm/cmsis/5.0.1/CMSIS/Include/core_cm4.h **** 
 306:lib/arm_atsam/packs/arm/cmsis/5.0.1/CMSIS/Include/core_cm4.h **** /* IPSR Register Definitions */
 307:lib/arm_atsam/packs/arm/cmsis/5.0.1/CMSIS/Include/core_cm4.h **** #define IPSR_ISR_Pos                        0U                                            /*!< IPSR
 308:lib/arm_atsam/packs/arm/cmsis/5.0.1/CMSIS/Include/core_cm4.h **** #define IPSR_ISR_Msk                       (0x1FFUL /*<< IPSR_ISR_Pos*/)                  /*!< IPSR
 309:lib/arm_atsam/packs/arm/cmsis/5.0.1/CMSIS/Include/core_cm4.h **** 
 310:lib/arm_atsam/packs/arm/cmsis/5.0.1/CMSIS/Include/core_cm4.h **** 
 311:lib/arm_atsam/packs/arm/cmsis/5.0.1/CMSIS/Include/core_cm4.h **** /**
 312:lib/arm_atsam/packs/arm/cmsis/5.0.1/CMSIS/Include/core_cm4.h ****   \brief  Union type to access the Special-Purpose Program Status Registers (xPSR).
 313:lib/arm_atsam/packs/arm/cmsis/5.0.1/CMSIS/Include/core_cm4.h ****  */
 314:lib/arm_atsam/packs/arm/cmsis/5.0.1/CMSIS/Include/core_cm4.h **** typedef union
 315:lib/arm_atsam/packs/arm/cmsis/5.0.1/CMSIS/Include/core_cm4.h **** {
 316:lib/arm_atsam/packs/arm/cmsis/5.0.1/CMSIS/Include/core_cm4.h ****   struct
 317:lib/arm_atsam/packs/arm/cmsis/5.0.1/CMSIS/Include/core_cm4.h ****   {
 318:lib/arm_atsam/packs/arm/cmsis/5.0.1/CMSIS/Include/core_cm4.h ****     uint32_t ISR:9;                      /*!< bit:  0.. 8  Exception number */
 319:lib/arm_atsam/packs/arm/cmsis/5.0.1/CMSIS/Include/core_cm4.h ****     uint32_t _reserved0:1;               /*!< bit:      9  Reserved */
 320:lib/arm_atsam/packs/arm/cmsis/5.0.1/CMSIS/Include/core_cm4.h ****     uint32_t ICI_IT_1:6;                 /*!< bit: 10..15  ICI/IT part 1 */
 321:lib/arm_atsam/packs/arm/cmsis/5.0.1/CMSIS/Include/core_cm4.h ****     uint32_t GE:4;                       /*!< bit: 16..19  Greater than or Equal flags */
 322:lib/arm_atsam/packs/arm/cmsis/5.0.1/CMSIS/Include/core_cm4.h ****     uint32_t _reserved1:4;               /*!< bit: 20..23  Reserved */
 323:lib/arm_atsam/packs/arm/cmsis/5.0.1/CMSIS/Include/core_cm4.h ****     uint32_t T:1;                        /*!< bit:     24  Thumb bit */
 324:lib/arm_atsam/packs/arm/cmsis/5.0.1/CMSIS/Include/core_cm4.h ****     uint32_t ICI_IT_2:2;                 /*!< bit: 25..26  ICI/IT part 2 */
 325:lib/arm_atsam/packs/arm/cmsis/5.0.1/CMSIS/Include/core_cm4.h ****     uint32_t Q:1;                        /*!< bit:     27  Saturation condition flag */
 326:lib/arm_atsam/packs/arm/cmsis/5.0.1/CMSIS/Include/core_cm4.h ****     uint32_t V:1;                        /*!< bit:     28  Overflow condition code flag */
 327:lib/arm_atsam/packs/arm/cmsis/5.0.1/CMSIS/Include/core_cm4.h ****     uint32_t C:1;                        /*!< bit:     29  Carry condition code flag */
 328:lib/arm_atsam/packs/arm/cmsis/5.0.1/CMSIS/Include/core_cm4.h ****     uint32_t Z:1;                        /*!< bit:     30  Zero condition code flag */
 329:lib/arm_atsam/packs/arm/cmsis/5.0.1/CMSIS/Include/core_cm4.h ****     uint32_t N:1;                        /*!< bit:     31  Negative condition code flag */
 330:lib/arm_atsam/packs/arm/cmsis/5.0.1/CMSIS/Include/core_cm4.h ****   } b;                                   /*!< Structure used for bit  access */
 331:lib/arm_atsam/packs/arm/cmsis/5.0.1/CMSIS/Include/core_cm4.h ****   uint32_t w;                            /*!< Type      used for word access */
 332:lib/arm_atsam/packs/arm/cmsis/5.0.1/CMSIS/Include/core_cm4.h **** } xPSR_Type;
 333:lib/arm_atsam/packs/arm/cmsis/5.0.1/CMSIS/Include/core_cm4.h **** 
 334:lib/arm_atsam/packs/arm/cmsis/5.0.1/CMSIS/Include/core_cm4.h **** /* xPSR Register Definitions */
 335:lib/arm_atsam/packs/arm/cmsis/5.0.1/CMSIS/Include/core_cm4.h **** #define xPSR_N_Pos                         31U                                            /*!< xPSR
 336:lib/arm_atsam/packs/arm/cmsis/5.0.1/CMSIS/Include/core_cm4.h **** #define xPSR_N_Msk                         (1UL << xPSR_N_Pos)                            /*!< xPSR
 337:lib/arm_atsam/packs/arm/cmsis/5.0.1/CMSIS/Include/core_cm4.h **** 
 338:lib/arm_atsam/packs/arm/cmsis/5.0.1/CMSIS/Include/core_cm4.h **** #define xPSR_Z_Pos                         30U                                            /*!< xPSR
 339:lib/arm_atsam/packs/arm/cmsis/5.0.1/CMSIS/Include/core_cm4.h **** #define xPSR_Z_Msk                         (1UL << xPSR_Z_Pos)                            /*!< xPSR
 340:lib/arm_atsam/packs/arm/cmsis/5.0.1/CMSIS/Include/core_cm4.h **** 
 341:lib/arm_atsam/packs/arm/cmsis/5.0.1/CMSIS/Include/core_cm4.h **** #define xPSR_C_Pos                         29U                                            /*!< xPSR
 342:lib/arm_atsam/packs/arm/cmsis/5.0.1/CMSIS/Include/core_cm4.h **** #define xPSR_C_Msk                         (1UL << xPSR_C_Pos)                            /*!< xPSR
 343:lib/arm_atsam/packs/arm/cmsis/5.0.1/CMSIS/Include/core_cm4.h **** 
 344:lib/arm_atsam/packs/arm/cmsis/5.0.1/CMSIS/Include/core_cm4.h **** #define xPSR_V_Pos                         28U                                            /*!< xPSR
 345:lib/arm_atsam/packs/arm/cmsis/5.0.1/CMSIS/Include/core_cm4.h **** #define xPSR_V_Msk                         (1UL << xPSR_V_Pos)                            /*!< xPSR
 346:lib/arm_atsam/packs/arm/cmsis/5.0.1/CMSIS/Include/core_cm4.h **** 
 347:lib/arm_atsam/packs/arm/cmsis/5.0.1/CMSIS/Include/core_cm4.h **** #define xPSR_Q_Pos                         27U                                            /*!< xPSR
 348:lib/arm_atsam/packs/arm/cmsis/5.0.1/CMSIS/Include/core_cm4.h **** #define xPSR_Q_Msk                         (1UL << xPSR_Q_Pos)                            /*!< xPSR
 349:lib/arm_atsam/packs/arm/cmsis/5.0.1/CMSIS/Include/core_cm4.h **** 
 350:lib/arm_atsam/packs/arm/cmsis/5.0.1/CMSIS/Include/core_cm4.h **** #define xPSR_ICI_IT_2_Pos                  25U                                            /*!< xPSR
 351:lib/arm_atsam/packs/arm/cmsis/5.0.1/CMSIS/Include/core_cm4.h **** #define xPSR_ICI_IT_2_Msk                  (3UL << xPSR_ICI_IT_2_Pos)                     /*!< xPSR
 352:lib/arm_atsam/packs/arm/cmsis/5.0.1/CMSIS/Include/core_cm4.h **** 
 353:lib/arm_atsam/packs/arm/cmsis/5.0.1/CMSIS/Include/core_cm4.h **** #define xPSR_T_Pos                         24U                                            /*!< xPSR
 354:lib/arm_atsam/packs/arm/cmsis/5.0.1/CMSIS/Include/core_cm4.h **** #define xPSR_T_Msk                         (1UL << xPSR_T_Pos)                            /*!< xPSR
 355:lib/arm_atsam/packs/arm/cmsis/5.0.1/CMSIS/Include/core_cm4.h **** 
 356:lib/arm_atsam/packs/arm/cmsis/5.0.1/CMSIS/Include/core_cm4.h **** #define xPSR_GE_Pos                        16U                                            /*!< xPSR
 357:lib/arm_atsam/packs/arm/cmsis/5.0.1/CMSIS/Include/core_cm4.h **** #define xPSR_GE_Msk                        (0xFUL << xPSR_GE_Pos)                         /*!< xPSR
 358:lib/arm_atsam/packs/arm/cmsis/5.0.1/CMSIS/Include/core_cm4.h **** 
 359:lib/arm_atsam/packs/arm/cmsis/5.0.1/CMSIS/Include/core_cm4.h **** #define xPSR_ICI_IT_1_Pos                  10U                                            /*!< xPSR
 360:lib/arm_atsam/packs/arm/cmsis/5.0.1/CMSIS/Include/core_cm4.h **** #define xPSR_ICI_IT_1_Msk                  (0x3FUL << xPSR_ICI_IT_1_Pos)                  /*!< xPSR
 361:lib/arm_atsam/packs/arm/cmsis/5.0.1/CMSIS/Include/core_cm4.h **** 
 362:lib/arm_atsam/packs/arm/cmsis/5.0.1/CMSIS/Include/core_cm4.h **** #define xPSR_ISR_Pos                        0U                                            /*!< xPSR
 363:lib/arm_atsam/packs/arm/cmsis/5.0.1/CMSIS/Include/core_cm4.h **** #define xPSR_ISR_Msk                       (0x1FFUL /*<< xPSR_ISR_Pos*/)                  /*!< xPSR
 364:lib/arm_atsam/packs/arm/cmsis/5.0.1/CMSIS/Include/core_cm4.h **** 
 365:lib/arm_atsam/packs/arm/cmsis/5.0.1/CMSIS/Include/core_cm4.h **** 
 366:lib/arm_atsam/packs/arm/cmsis/5.0.1/CMSIS/Include/core_cm4.h **** /**
 367:lib/arm_atsam/packs/arm/cmsis/5.0.1/CMSIS/Include/core_cm4.h ****   \brief  Union type to access the Control Registers (CONTROL).
 368:lib/arm_atsam/packs/arm/cmsis/5.0.1/CMSIS/Include/core_cm4.h ****  */
 369:lib/arm_atsam/packs/arm/cmsis/5.0.1/CMSIS/Include/core_cm4.h **** typedef union
 370:lib/arm_atsam/packs/arm/cmsis/5.0.1/CMSIS/Include/core_cm4.h **** {
 371:lib/arm_atsam/packs/arm/cmsis/5.0.1/CMSIS/Include/core_cm4.h ****   struct
 372:lib/arm_atsam/packs/arm/cmsis/5.0.1/CMSIS/Include/core_cm4.h ****   {
 373:lib/arm_atsam/packs/arm/cmsis/5.0.1/CMSIS/Include/core_cm4.h ****     uint32_t nPRIV:1;                    /*!< bit:      0  Execution privilege in Thread mode */
 374:lib/arm_atsam/packs/arm/cmsis/5.0.1/CMSIS/Include/core_cm4.h ****     uint32_t SPSEL:1;                    /*!< bit:      1  Stack to be used */
 375:lib/arm_atsam/packs/arm/cmsis/5.0.1/CMSIS/Include/core_cm4.h ****     uint32_t FPCA:1;                     /*!< bit:      2  FP extension active flag */
 376:lib/arm_atsam/packs/arm/cmsis/5.0.1/CMSIS/Include/core_cm4.h ****     uint32_t _reserved0:29;              /*!< bit:  3..31  Reserved */
 377:lib/arm_atsam/packs/arm/cmsis/5.0.1/CMSIS/Include/core_cm4.h ****   } b;                                   /*!< Structure used for bit  access */
 378:lib/arm_atsam/packs/arm/cmsis/5.0.1/CMSIS/Include/core_cm4.h ****   uint32_t w;                            /*!< Type      used for word access */
 379:lib/arm_atsam/packs/arm/cmsis/5.0.1/CMSIS/Include/core_cm4.h **** } CONTROL_Type;
 380:lib/arm_atsam/packs/arm/cmsis/5.0.1/CMSIS/Include/core_cm4.h **** 
 381:lib/arm_atsam/packs/arm/cmsis/5.0.1/CMSIS/Include/core_cm4.h **** /* CONTROL Register Definitions */
 382:lib/arm_atsam/packs/arm/cmsis/5.0.1/CMSIS/Include/core_cm4.h **** #define CONTROL_FPCA_Pos                    2U                                            /*!< CONT
 383:lib/arm_atsam/packs/arm/cmsis/5.0.1/CMSIS/Include/core_cm4.h **** #define CONTROL_FPCA_Msk                   (1UL << CONTROL_FPCA_Pos)                      /*!< CONT
 384:lib/arm_atsam/packs/arm/cmsis/5.0.1/CMSIS/Include/core_cm4.h **** 
 385:lib/arm_atsam/packs/arm/cmsis/5.0.1/CMSIS/Include/core_cm4.h **** #define CONTROL_SPSEL_Pos                   1U                                            /*!< CONT
 386:lib/arm_atsam/packs/arm/cmsis/5.0.1/CMSIS/Include/core_cm4.h **** #define CONTROL_SPSEL_Msk                  (1UL << CONTROL_SPSEL_Pos)                     /*!< CONT
 387:lib/arm_atsam/packs/arm/cmsis/5.0.1/CMSIS/Include/core_cm4.h **** 
 388:lib/arm_atsam/packs/arm/cmsis/5.0.1/CMSIS/Include/core_cm4.h **** #define CONTROL_nPRIV_Pos                   0U                                            /*!< CONT
 389:lib/arm_atsam/packs/arm/cmsis/5.0.1/CMSIS/Include/core_cm4.h **** #define CONTROL_nPRIV_Msk                  (1UL /*<< CONTROL_nPRIV_Pos*/)                 /*!< CONT
 390:lib/arm_atsam/packs/arm/cmsis/5.0.1/CMSIS/Include/core_cm4.h **** 
 391:lib/arm_atsam/packs/arm/cmsis/5.0.1/CMSIS/Include/core_cm4.h **** /*@} end of group CMSIS_CORE */
 392:lib/arm_atsam/packs/arm/cmsis/5.0.1/CMSIS/Include/core_cm4.h **** 
 393:lib/arm_atsam/packs/arm/cmsis/5.0.1/CMSIS/Include/core_cm4.h **** 
 394:lib/arm_atsam/packs/arm/cmsis/5.0.1/CMSIS/Include/core_cm4.h **** /**
 395:lib/arm_atsam/packs/arm/cmsis/5.0.1/CMSIS/Include/core_cm4.h ****   \ingroup    CMSIS_core_register
 396:lib/arm_atsam/packs/arm/cmsis/5.0.1/CMSIS/Include/core_cm4.h ****   \defgroup   CMSIS_NVIC  Nested Vectored Interrupt Controller (NVIC)
 397:lib/arm_atsam/packs/arm/cmsis/5.0.1/CMSIS/Include/core_cm4.h ****   \brief      Type definitions for the NVIC Registers
 398:lib/arm_atsam/packs/arm/cmsis/5.0.1/CMSIS/Include/core_cm4.h ****   @{
 399:lib/arm_atsam/packs/arm/cmsis/5.0.1/CMSIS/Include/core_cm4.h ****  */
 400:lib/arm_atsam/packs/arm/cmsis/5.0.1/CMSIS/Include/core_cm4.h **** 
 401:lib/arm_atsam/packs/arm/cmsis/5.0.1/CMSIS/Include/core_cm4.h **** /**
 402:lib/arm_atsam/packs/arm/cmsis/5.0.1/CMSIS/Include/core_cm4.h ****   \brief  Structure type to access the Nested Vectored Interrupt Controller (NVIC).
 403:lib/arm_atsam/packs/arm/cmsis/5.0.1/CMSIS/Include/core_cm4.h ****  */
 404:lib/arm_atsam/packs/arm/cmsis/5.0.1/CMSIS/Include/core_cm4.h **** typedef struct
 405:lib/arm_atsam/packs/arm/cmsis/5.0.1/CMSIS/Include/core_cm4.h **** {
 406:lib/arm_atsam/packs/arm/cmsis/5.0.1/CMSIS/Include/core_cm4.h ****   __IOM uint32_t ISER[8U];               /*!< Offset: 0x000 (R/W)  Interrupt Set Enable Register */
 407:lib/arm_atsam/packs/arm/cmsis/5.0.1/CMSIS/Include/core_cm4.h ****         uint32_t RESERVED0[24U];
 408:lib/arm_atsam/packs/arm/cmsis/5.0.1/CMSIS/Include/core_cm4.h ****   __IOM uint32_t ICER[8U];               /*!< Offset: 0x080 (R/W)  Interrupt Clear Enable Register 
 409:lib/arm_atsam/packs/arm/cmsis/5.0.1/CMSIS/Include/core_cm4.h ****         uint32_t RSERVED1[24U];
 410:lib/arm_atsam/packs/arm/cmsis/5.0.1/CMSIS/Include/core_cm4.h ****   __IOM uint32_t ISPR[8U];               /*!< Offset: 0x100 (R/W)  Interrupt Set Pending Register *
 411:lib/arm_atsam/packs/arm/cmsis/5.0.1/CMSIS/Include/core_cm4.h ****         uint32_t RESERVED2[24U];
 412:lib/arm_atsam/packs/arm/cmsis/5.0.1/CMSIS/Include/core_cm4.h ****   __IOM uint32_t ICPR[8U];               /*!< Offset: 0x180 (R/W)  Interrupt Clear Pending Register
 413:lib/arm_atsam/packs/arm/cmsis/5.0.1/CMSIS/Include/core_cm4.h ****         uint32_t RESERVED3[24U];
 414:lib/arm_atsam/packs/arm/cmsis/5.0.1/CMSIS/Include/core_cm4.h ****   __IOM uint32_t IABR[8U];               /*!< Offset: 0x200 (R/W)  Interrupt Active bit Register */
 415:lib/arm_atsam/packs/arm/cmsis/5.0.1/CMSIS/Include/core_cm4.h ****         uint32_t RESERVED4[56U];
 416:lib/arm_atsam/packs/arm/cmsis/5.0.1/CMSIS/Include/core_cm4.h ****   __IOM uint8_t  IP[240U];               /*!< Offset: 0x300 (R/W)  Interrupt Priority Register (8Bi
 417:lib/arm_atsam/packs/arm/cmsis/5.0.1/CMSIS/Include/core_cm4.h ****         uint32_t RESERVED5[644U];
 418:lib/arm_atsam/packs/arm/cmsis/5.0.1/CMSIS/Include/core_cm4.h ****   __OM  uint32_t STIR;                   /*!< Offset: 0xE00 ( /W)  Software Trigger Interrupt Regis
 419:lib/arm_atsam/packs/arm/cmsis/5.0.1/CMSIS/Include/core_cm4.h **** }  NVIC_Type;
 420:lib/arm_atsam/packs/arm/cmsis/5.0.1/CMSIS/Include/core_cm4.h **** 
 421:lib/arm_atsam/packs/arm/cmsis/5.0.1/CMSIS/Include/core_cm4.h **** /* Software Triggered Interrupt Register Definitions */
 422:lib/arm_atsam/packs/arm/cmsis/5.0.1/CMSIS/Include/core_cm4.h **** #define NVIC_STIR_INTID_Pos                 0U                                         /*!< STIR: I
 423:lib/arm_atsam/packs/arm/cmsis/5.0.1/CMSIS/Include/core_cm4.h **** #define NVIC_STIR_INTID_Msk                (0x1FFUL /*<< NVIC_STIR_INTID_Pos*/)        /*!< STIR: I
 424:lib/arm_atsam/packs/arm/cmsis/5.0.1/CMSIS/Include/core_cm4.h **** 
 425:lib/arm_atsam/packs/arm/cmsis/5.0.1/CMSIS/Include/core_cm4.h **** /*@} end of group CMSIS_NVIC */
 426:lib/arm_atsam/packs/arm/cmsis/5.0.1/CMSIS/Include/core_cm4.h **** 
 427:lib/arm_atsam/packs/arm/cmsis/5.0.1/CMSIS/Include/core_cm4.h **** 
 428:lib/arm_atsam/packs/arm/cmsis/5.0.1/CMSIS/Include/core_cm4.h **** /**
 429:lib/arm_atsam/packs/arm/cmsis/5.0.1/CMSIS/Include/core_cm4.h ****   \ingroup  CMSIS_core_register
 430:lib/arm_atsam/packs/arm/cmsis/5.0.1/CMSIS/Include/core_cm4.h ****   \defgroup CMSIS_SCB     System Control Block (SCB)
 431:lib/arm_atsam/packs/arm/cmsis/5.0.1/CMSIS/Include/core_cm4.h ****   \brief    Type definitions for the System Control Block Registers
 432:lib/arm_atsam/packs/arm/cmsis/5.0.1/CMSIS/Include/core_cm4.h ****   @{
 433:lib/arm_atsam/packs/arm/cmsis/5.0.1/CMSIS/Include/core_cm4.h ****  */
 434:lib/arm_atsam/packs/arm/cmsis/5.0.1/CMSIS/Include/core_cm4.h **** 
 435:lib/arm_atsam/packs/arm/cmsis/5.0.1/CMSIS/Include/core_cm4.h **** /**
 436:lib/arm_atsam/packs/arm/cmsis/5.0.1/CMSIS/Include/core_cm4.h ****   \brief  Structure type to access the System Control Block (SCB).
 437:lib/arm_atsam/packs/arm/cmsis/5.0.1/CMSIS/Include/core_cm4.h ****  */
 438:lib/arm_atsam/packs/arm/cmsis/5.0.1/CMSIS/Include/core_cm4.h **** typedef struct
 439:lib/arm_atsam/packs/arm/cmsis/5.0.1/CMSIS/Include/core_cm4.h **** {
 440:lib/arm_atsam/packs/arm/cmsis/5.0.1/CMSIS/Include/core_cm4.h ****   __IM  uint32_t CPUID;                  /*!< Offset: 0x000 (R/ )  CPUID Base Register */
 441:lib/arm_atsam/packs/arm/cmsis/5.0.1/CMSIS/Include/core_cm4.h ****   __IOM uint32_t ICSR;                   /*!< Offset: 0x004 (R/W)  Interrupt Control and State Regi
 442:lib/arm_atsam/packs/arm/cmsis/5.0.1/CMSIS/Include/core_cm4.h ****   __IOM uint32_t VTOR;                   /*!< Offset: 0x008 (R/W)  Vector Table Offset Register */
 443:lib/arm_atsam/packs/arm/cmsis/5.0.1/CMSIS/Include/core_cm4.h ****   __IOM uint32_t AIRCR;                  /*!< Offset: 0x00C (R/W)  Application Interrupt and Reset 
 444:lib/arm_atsam/packs/arm/cmsis/5.0.1/CMSIS/Include/core_cm4.h ****   __IOM uint32_t SCR;                    /*!< Offset: 0x010 (R/W)  System Control Register */
 445:lib/arm_atsam/packs/arm/cmsis/5.0.1/CMSIS/Include/core_cm4.h ****   __IOM uint32_t CCR;                    /*!< Offset: 0x014 (R/W)  Configuration Control Register *
 446:lib/arm_atsam/packs/arm/cmsis/5.0.1/CMSIS/Include/core_cm4.h ****   __IOM uint8_t  SHP[12U];               /*!< Offset: 0x018 (R/W)  System Handlers Priority Registe
 447:lib/arm_atsam/packs/arm/cmsis/5.0.1/CMSIS/Include/core_cm4.h ****   __IOM uint32_t SHCSR;                  /*!< Offset: 0x024 (R/W)  System Handler Control and State
 448:lib/arm_atsam/packs/arm/cmsis/5.0.1/CMSIS/Include/core_cm4.h ****   __IOM uint32_t CFSR;                   /*!< Offset: 0x028 (R/W)  Configurable Fault Status Regist
 449:lib/arm_atsam/packs/arm/cmsis/5.0.1/CMSIS/Include/core_cm4.h ****   __IOM uint32_t HFSR;                   /*!< Offset: 0x02C (R/W)  HardFault Status Register */
 450:lib/arm_atsam/packs/arm/cmsis/5.0.1/CMSIS/Include/core_cm4.h ****   __IOM uint32_t DFSR;                   /*!< Offset: 0x030 (R/W)  Debug Fault Status Register */
 451:lib/arm_atsam/packs/arm/cmsis/5.0.1/CMSIS/Include/core_cm4.h ****   __IOM uint32_t MMFAR;                  /*!< Offset: 0x034 (R/W)  MemManage Fault Address Register
 452:lib/arm_atsam/packs/arm/cmsis/5.0.1/CMSIS/Include/core_cm4.h ****   __IOM uint32_t BFAR;                   /*!< Offset: 0x038 (R/W)  BusFault Address Register */
 453:lib/arm_atsam/packs/arm/cmsis/5.0.1/CMSIS/Include/core_cm4.h ****   __IOM uint32_t AFSR;                   /*!< Offset: 0x03C (R/W)  Auxiliary Fault Status Register 
 454:lib/arm_atsam/packs/arm/cmsis/5.0.1/CMSIS/Include/core_cm4.h ****   __IM  uint32_t PFR[2U];                /*!< Offset: 0x040 (R/ )  Processor Feature Register */
 455:lib/arm_atsam/packs/arm/cmsis/5.0.1/CMSIS/Include/core_cm4.h ****   __IM  uint32_t DFR;                    /*!< Offset: 0x048 (R/ )  Debug Feature Register */
 456:lib/arm_atsam/packs/arm/cmsis/5.0.1/CMSIS/Include/core_cm4.h ****   __IM  uint32_t ADR;                    /*!< Offset: 0x04C (R/ )  Auxiliary Feature Register */
 457:lib/arm_atsam/packs/arm/cmsis/5.0.1/CMSIS/Include/core_cm4.h ****   __IM  uint32_t MMFR[4U];               /*!< Offset: 0x050 (R/ )  Memory Model Feature Register */
 458:lib/arm_atsam/packs/arm/cmsis/5.0.1/CMSIS/Include/core_cm4.h ****   __IM  uint32_t ISAR[5U];               /*!< Offset: 0x060 (R/ )  Instruction Set Attributes Regis
 459:lib/arm_atsam/packs/arm/cmsis/5.0.1/CMSIS/Include/core_cm4.h ****         uint32_t RESERVED0[5U];
 460:lib/arm_atsam/packs/arm/cmsis/5.0.1/CMSIS/Include/core_cm4.h ****   __IOM uint32_t CPACR;                  /*!< Offset: 0x088 (R/W)  Coprocessor Access Control Regis
 461:lib/arm_atsam/packs/arm/cmsis/5.0.1/CMSIS/Include/core_cm4.h **** } SCB_Type;
 462:lib/arm_atsam/packs/arm/cmsis/5.0.1/CMSIS/Include/core_cm4.h **** 
 463:lib/arm_atsam/packs/arm/cmsis/5.0.1/CMSIS/Include/core_cm4.h **** /* SCB CPUID Register Definitions */
 464:lib/arm_atsam/packs/arm/cmsis/5.0.1/CMSIS/Include/core_cm4.h **** #define SCB_CPUID_IMPLEMENTER_Pos          24U                                            /*!< SCB 
 465:lib/arm_atsam/packs/arm/cmsis/5.0.1/CMSIS/Include/core_cm4.h **** #define SCB_CPUID_IMPLEMENTER_Msk          (0xFFUL << SCB_CPUID_IMPLEMENTER_Pos)          /*!< SCB 
 466:lib/arm_atsam/packs/arm/cmsis/5.0.1/CMSIS/Include/core_cm4.h **** 
 467:lib/arm_atsam/packs/arm/cmsis/5.0.1/CMSIS/Include/core_cm4.h **** #define SCB_CPUID_VARIANT_Pos              20U                                            /*!< SCB 
 468:lib/arm_atsam/packs/arm/cmsis/5.0.1/CMSIS/Include/core_cm4.h **** #define SCB_CPUID_VARIANT_Msk              (0xFUL << SCB_CPUID_VARIANT_Pos)               /*!< SCB 
 469:lib/arm_atsam/packs/arm/cmsis/5.0.1/CMSIS/Include/core_cm4.h **** 
 470:lib/arm_atsam/packs/arm/cmsis/5.0.1/CMSIS/Include/core_cm4.h **** #define SCB_CPUID_ARCHITECTURE_Pos         16U                                            /*!< SCB 
 471:lib/arm_atsam/packs/arm/cmsis/5.0.1/CMSIS/Include/core_cm4.h **** #define SCB_CPUID_ARCHITECTURE_Msk         (0xFUL << SCB_CPUID_ARCHITECTURE_Pos)          /*!< SCB 
 472:lib/arm_atsam/packs/arm/cmsis/5.0.1/CMSIS/Include/core_cm4.h **** 
 473:lib/arm_atsam/packs/arm/cmsis/5.0.1/CMSIS/Include/core_cm4.h **** #define SCB_CPUID_PARTNO_Pos                4U                                            /*!< SCB 
 474:lib/arm_atsam/packs/arm/cmsis/5.0.1/CMSIS/Include/core_cm4.h **** #define SCB_CPUID_PARTNO_Msk               (0xFFFUL << SCB_CPUID_PARTNO_Pos)              /*!< SCB 
 475:lib/arm_atsam/packs/arm/cmsis/5.0.1/CMSIS/Include/core_cm4.h **** 
 476:lib/arm_atsam/packs/arm/cmsis/5.0.1/CMSIS/Include/core_cm4.h **** #define SCB_CPUID_REVISION_Pos              0U                                            /*!< SCB 
 477:lib/arm_atsam/packs/arm/cmsis/5.0.1/CMSIS/Include/core_cm4.h **** #define SCB_CPUID_REVISION_Msk             (0xFUL /*<< SCB_CPUID_REVISION_Pos*/)          /*!< SCB 
 478:lib/arm_atsam/packs/arm/cmsis/5.0.1/CMSIS/Include/core_cm4.h **** 
 479:lib/arm_atsam/packs/arm/cmsis/5.0.1/CMSIS/Include/core_cm4.h **** /* SCB Interrupt Control State Register Definitions */
 480:lib/arm_atsam/packs/arm/cmsis/5.0.1/CMSIS/Include/core_cm4.h **** #define SCB_ICSR_NMIPENDSET_Pos            31U                                            /*!< SCB 
 481:lib/arm_atsam/packs/arm/cmsis/5.0.1/CMSIS/Include/core_cm4.h **** #define SCB_ICSR_NMIPENDSET_Msk            (1UL << SCB_ICSR_NMIPENDSET_Pos)               /*!< SCB 
 482:lib/arm_atsam/packs/arm/cmsis/5.0.1/CMSIS/Include/core_cm4.h **** 
 483:lib/arm_atsam/packs/arm/cmsis/5.0.1/CMSIS/Include/core_cm4.h **** #define SCB_ICSR_PENDSVSET_Pos             28U                                            /*!< SCB 
 484:lib/arm_atsam/packs/arm/cmsis/5.0.1/CMSIS/Include/core_cm4.h **** #define SCB_ICSR_PENDSVSET_Msk             (1UL << SCB_ICSR_PENDSVSET_Pos)                /*!< SCB 
 485:lib/arm_atsam/packs/arm/cmsis/5.0.1/CMSIS/Include/core_cm4.h **** 
 486:lib/arm_atsam/packs/arm/cmsis/5.0.1/CMSIS/Include/core_cm4.h **** #define SCB_ICSR_PENDSVCLR_Pos             27U                                            /*!< SCB 
 487:lib/arm_atsam/packs/arm/cmsis/5.0.1/CMSIS/Include/core_cm4.h **** #define SCB_ICSR_PENDSVCLR_Msk             (1UL << SCB_ICSR_PENDSVCLR_Pos)                /*!< SCB 
 488:lib/arm_atsam/packs/arm/cmsis/5.0.1/CMSIS/Include/core_cm4.h **** 
 489:lib/arm_atsam/packs/arm/cmsis/5.0.1/CMSIS/Include/core_cm4.h **** #define SCB_ICSR_PENDSTSET_Pos             26U                                            /*!< SCB 
 490:lib/arm_atsam/packs/arm/cmsis/5.0.1/CMSIS/Include/core_cm4.h **** #define SCB_ICSR_PENDSTSET_Msk             (1UL << SCB_ICSR_PENDSTSET_Pos)                /*!< SCB 
 491:lib/arm_atsam/packs/arm/cmsis/5.0.1/CMSIS/Include/core_cm4.h **** 
 492:lib/arm_atsam/packs/arm/cmsis/5.0.1/CMSIS/Include/core_cm4.h **** #define SCB_ICSR_PENDSTCLR_Pos             25U                                            /*!< SCB 
 493:lib/arm_atsam/packs/arm/cmsis/5.0.1/CMSIS/Include/core_cm4.h **** #define SCB_ICSR_PENDSTCLR_Msk             (1UL << SCB_ICSR_PENDSTCLR_Pos)                /*!< SCB 
 494:lib/arm_atsam/packs/arm/cmsis/5.0.1/CMSIS/Include/core_cm4.h **** 
 495:lib/arm_atsam/packs/arm/cmsis/5.0.1/CMSIS/Include/core_cm4.h **** #define SCB_ICSR_ISRPREEMPT_Pos            23U                                            /*!< SCB 
 496:lib/arm_atsam/packs/arm/cmsis/5.0.1/CMSIS/Include/core_cm4.h **** #define SCB_ICSR_ISRPREEMPT_Msk            (1UL << SCB_ICSR_ISRPREEMPT_Pos)               /*!< SCB 
 497:lib/arm_atsam/packs/arm/cmsis/5.0.1/CMSIS/Include/core_cm4.h **** 
 498:lib/arm_atsam/packs/arm/cmsis/5.0.1/CMSIS/Include/core_cm4.h **** #define SCB_ICSR_ISRPENDING_Pos            22U                                            /*!< SCB 
 499:lib/arm_atsam/packs/arm/cmsis/5.0.1/CMSIS/Include/core_cm4.h **** #define SCB_ICSR_ISRPENDING_Msk            (1UL << SCB_ICSR_ISRPENDING_Pos)               /*!< SCB 
 500:lib/arm_atsam/packs/arm/cmsis/5.0.1/CMSIS/Include/core_cm4.h **** 
 501:lib/arm_atsam/packs/arm/cmsis/5.0.1/CMSIS/Include/core_cm4.h **** #define SCB_ICSR_VECTPENDING_Pos           12U                                            /*!< SCB 
 502:lib/arm_atsam/packs/arm/cmsis/5.0.1/CMSIS/Include/core_cm4.h **** #define SCB_ICSR_VECTPENDING_Msk           (0x1FFUL << SCB_ICSR_VECTPENDING_Pos)          /*!< SCB 
 503:lib/arm_atsam/packs/arm/cmsis/5.0.1/CMSIS/Include/core_cm4.h **** 
 504:lib/arm_atsam/packs/arm/cmsis/5.0.1/CMSIS/Include/core_cm4.h **** #define SCB_ICSR_RETTOBASE_Pos             11U                                            /*!< SCB 
 505:lib/arm_atsam/packs/arm/cmsis/5.0.1/CMSIS/Include/core_cm4.h **** #define SCB_ICSR_RETTOBASE_Msk             (1UL << SCB_ICSR_RETTOBASE_Pos)                /*!< SCB 
 506:lib/arm_atsam/packs/arm/cmsis/5.0.1/CMSIS/Include/core_cm4.h **** 
 507:lib/arm_atsam/packs/arm/cmsis/5.0.1/CMSIS/Include/core_cm4.h **** #define SCB_ICSR_VECTACTIVE_Pos             0U                                            /*!< SCB 
 508:lib/arm_atsam/packs/arm/cmsis/5.0.1/CMSIS/Include/core_cm4.h **** #define SCB_ICSR_VECTACTIVE_Msk            (0x1FFUL /*<< SCB_ICSR_VECTACTIVE_Pos*/)       /*!< SCB 
 509:lib/arm_atsam/packs/arm/cmsis/5.0.1/CMSIS/Include/core_cm4.h **** 
 510:lib/arm_atsam/packs/arm/cmsis/5.0.1/CMSIS/Include/core_cm4.h **** /* SCB Vector Table Offset Register Definitions */
 511:lib/arm_atsam/packs/arm/cmsis/5.0.1/CMSIS/Include/core_cm4.h **** #define SCB_VTOR_TBLOFF_Pos                 7U                                            /*!< SCB 
 512:lib/arm_atsam/packs/arm/cmsis/5.0.1/CMSIS/Include/core_cm4.h **** #define SCB_VTOR_TBLOFF_Msk                (0x1FFFFFFUL << SCB_VTOR_TBLOFF_Pos)           /*!< SCB 
 513:lib/arm_atsam/packs/arm/cmsis/5.0.1/CMSIS/Include/core_cm4.h **** 
 514:lib/arm_atsam/packs/arm/cmsis/5.0.1/CMSIS/Include/core_cm4.h **** /* SCB Application Interrupt and Reset Control Register Definitions */
 515:lib/arm_atsam/packs/arm/cmsis/5.0.1/CMSIS/Include/core_cm4.h **** #define SCB_AIRCR_VECTKEY_Pos              16U                                            /*!< SCB 
 516:lib/arm_atsam/packs/arm/cmsis/5.0.1/CMSIS/Include/core_cm4.h **** #define SCB_AIRCR_VECTKEY_Msk              (0xFFFFUL << SCB_AIRCR_VECTKEY_Pos)            /*!< SCB 
 517:lib/arm_atsam/packs/arm/cmsis/5.0.1/CMSIS/Include/core_cm4.h **** 
 518:lib/arm_atsam/packs/arm/cmsis/5.0.1/CMSIS/Include/core_cm4.h **** #define SCB_AIRCR_VECTKEYSTAT_Pos          16U                                            /*!< SCB 
 519:lib/arm_atsam/packs/arm/cmsis/5.0.1/CMSIS/Include/core_cm4.h **** #define SCB_AIRCR_VECTKEYSTAT_Msk          (0xFFFFUL << SCB_AIRCR_VECTKEYSTAT_Pos)        /*!< SCB 
 520:lib/arm_atsam/packs/arm/cmsis/5.0.1/CMSIS/Include/core_cm4.h **** 
 521:lib/arm_atsam/packs/arm/cmsis/5.0.1/CMSIS/Include/core_cm4.h **** #define SCB_AIRCR_ENDIANESS_Pos            15U                                            /*!< SCB 
 522:lib/arm_atsam/packs/arm/cmsis/5.0.1/CMSIS/Include/core_cm4.h **** #define SCB_AIRCR_ENDIANESS_Msk            (1UL << SCB_AIRCR_ENDIANESS_Pos)               /*!< SCB 
 523:lib/arm_atsam/packs/arm/cmsis/5.0.1/CMSIS/Include/core_cm4.h **** 
 524:lib/arm_atsam/packs/arm/cmsis/5.0.1/CMSIS/Include/core_cm4.h **** #define SCB_AIRCR_PRIGROUP_Pos              8U                                            /*!< SCB 
 525:lib/arm_atsam/packs/arm/cmsis/5.0.1/CMSIS/Include/core_cm4.h **** #define SCB_AIRCR_PRIGROUP_Msk             (7UL << SCB_AIRCR_PRIGROUP_Pos)                /*!< SCB 
 526:lib/arm_atsam/packs/arm/cmsis/5.0.1/CMSIS/Include/core_cm4.h **** 
 527:lib/arm_atsam/packs/arm/cmsis/5.0.1/CMSIS/Include/core_cm4.h **** #define SCB_AIRCR_SYSRESETREQ_Pos           2U                                            /*!< SCB 
 528:lib/arm_atsam/packs/arm/cmsis/5.0.1/CMSIS/Include/core_cm4.h **** #define SCB_AIRCR_SYSRESETREQ_Msk          (1UL << SCB_AIRCR_SYSRESETREQ_Pos)             /*!< SCB 
 529:lib/arm_atsam/packs/arm/cmsis/5.0.1/CMSIS/Include/core_cm4.h **** 
 530:lib/arm_atsam/packs/arm/cmsis/5.0.1/CMSIS/Include/core_cm4.h **** #define SCB_AIRCR_VECTCLRACTIVE_Pos         1U                                            /*!< SCB 
 531:lib/arm_atsam/packs/arm/cmsis/5.0.1/CMSIS/Include/core_cm4.h **** #define SCB_AIRCR_VECTCLRACTIVE_Msk        (1UL << SCB_AIRCR_VECTCLRACTIVE_Pos)           /*!< SCB 
 532:lib/arm_atsam/packs/arm/cmsis/5.0.1/CMSIS/Include/core_cm4.h **** 
 533:lib/arm_atsam/packs/arm/cmsis/5.0.1/CMSIS/Include/core_cm4.h **** #define SCB_AIRCR_VECTRESET_Pos             0U                                            /*!< SCB 
 534:lib/arm_atsam/packs/arm/cmsis/5.0.1/CMSIS/Include/core_cm4.h **** #define SCB_AIRCR_VECTRESET_Msk            (1UL /*<< SCB_AIRCR_VECTRESET_Pos*/)           /*!< SCB 
 535:lib/arm_atsam/packs/arm/cmsis/5.0.1/CMSIS/Include/core_cm4.h **** 
 536:lib/arm_atsam/packs/arm/cmsis/5.0.1/CMSIS/Include/core_cm4.h **** /* SCB System Control Register Definitions */
 537:lib/arm_atsam/packs/arm/cmsis/5.0.1/CMSIS/Include/core_cm4.h **** #define SCB_SCR_SEVONPEND_Pos               4U                                            /*!< SCB 
 538:lib/arm_atsam/packs/arm/cmsis/5.0.1/CMSIS/Include/core_cm4.h **** #define SCB_SCR_SEVONPEND_Msk              (1UL << SCB_SCR_SEVONPEND_Pos)                 /*!< SCB 
 539:lib/arm_atsam/packs/arm/cmsis/5.0.1/CMSIS/Include/core_cm4.h **** 
 540:lib/arm_atsam/packs/arm/cmsis/5.0.1/CMSIS/Include/core_cm4.h **** #define SCB_SCR_SLEEPDEEP_Pos               2U                                            /*!< SCB 
 541:lib/arm_atsam/packs/arm/cmsis/5.0.1/CMSIS/Include/core_cm4.h **** #define SCB_SCR_SLEEPDEEP_Msk              (1UL << SCB_SCR_SLEEPDEEP_Pos)                 /*!< SCB 
 542:lib/arm_atsam/packs/arm/cmsis/5.0.1/CMSIS/Include/core_cm4.h **** 
 543:lib/arm_atsam/packs/arm/cmsis/5.0.1/CMSIS/Include/core_cm4.h **** #define SCB_SCR_SLEEPONEXIT_Pos             1U                                            /*!< SCB 
 544:lib/arm_atsam/packs/arm/cmsis/5.0.1/CMSIS/Include/core_cm4.h **** #define SCB_SCR_SLEEPONEXIT_Msk            (1UL << SCB_SCR_SLEEPONEXIT_Pos)               /*!< SCB 
 545:lib/arm_atsam/packs/arm/cmsis/5.0.1/CMSIS/Include/core_cm4.h **** 
 546:lib/arm_atsam/packs/arm/cmsis/5.0.1/CMSIS/Include/core_cm4.h **** /* SCB Configuration Control Register Definitions */
 547:lib/arm_atsam/packs/arm/cmsis/5.0.1/CMSIS/Include/core_cm4.h **** #define SCB_CCR_STKALIGN_Pos                9U                                            /*!< SCB 
 548:lib/arm_atsam/packs/arm/cmsis/5.0.1/CMSIS/Include/core_cm4.h **** #define SCB_CCR_STKALIGN_Msk               (1UL << SCB_CCR_STKALIGN_Pos)                  /*!< SCB 
 549:lib/arm_atsam/packs/arm/cmsis/5.0.1/CMSIS/Include/core_cm4.h **** 
 550:lib/arm_atsam/packs/arm/cmsis/5.0.1/CMSIS/Include/core_cm4.h **** #define SCB_CCR_BFHFNMIGN_Pos               8U                                            /*!< SCB 
 551:lib/arm_atsam/packs/arm/cmsis/5.0.1/CMSIS/Include/core_cm4.h **** #define SCB_CCR_BFHFNMIGN_Msk              (1UL << SCB_CCR_BFHFNMIGN_Pos)                 /*!< SCB 
 552:lib/arm_atsam/packs/arm/cmsis/5.0.1/CMSIS/Include/core_cm4.h **** 
 553:lib/arm_atsam/packs/arm/cmsis/5.0.1/CMSIS/Include/core_cm4.h **** #define SCB_CCR_DIV_0_TRP_Pos               4U                                            /*!< SCB 
 554:lib/arm_atsam/packs/arm/cmsis/5.0.1/CMSIS/Include/core_cm4.h **** #define SCB_CCR_DIV_0_TRP_Msk              (1UL << SCB_CCR_DIV_0_TRP_Pos)                 /*!< SCB 
 555:lib/arm_atsam/packs/arm/cmsis/5.0.1/CMSIS/Include/core_cm4.h **** 
 556:lib/arm_atsam/packs/arm/cmsis/5.0.1/CMSIS/Include/core_cm4.h **** #define SCB_CCR_UNALIGN_TRP_Pos             3U                                            /*!< SCB 
 557:lib/arm_atsam/packs/arm/cmsis/5.0.1/CMSIS/Include/core_cm4.h **** #define SCB_CCR_UNALIGN_TRP_Msk            (1UL << SCB_CCR_UNALIGN_TRP_Pos)               /*!< SCB 
 558:lib/arm_atsam/packs/arm/cmsis/5.0.1/CMSIS/Include/core_cm4.h **** 
 559:lib/arm_atsam/packs/arm/cmsis/5.0.1/CMSIS/Include/core_cm4.h **** #define SCB_CCR_USERSETMPEND_Pos            1U                                            /*!< SCB 
 560:lib/arm_atsam/packs/arm/cmsis/5.0.1/CMSIS/Include/core_cm4.h **** #define SCB_CCR_USERSETMPEND_Msk           (1UL << SCB_CCR_USERSETMPEND_Pos)              /*!< SCB 
 561:lib/arm_atsam/packs/arm/cmsis/5.0.1/CMSIS/Include/core_cm4.h **** 
 562:lib/arm_atsam/packs/arm/cmsis/5.0.1/CMSIS/Include/core_cm4.h **** #define SCB_CCR_NONBASETHRDENA_Pos          0U                                            /*!< SCB 
 563:lib/arm_atsam/packs/arm/cmsis/5.0.1/CMSIS/Include/core_cm4.h **** #define SCB_CCR_NONBASETHRDENA_Msk         (1UL /*<< SCB_CCR_NONBASETHRDENA_Pos*/)        /*!< SCB 
 564:lib/arm_atsam/packs/arm/cmsis/5.0.1/CMSIS/Include/core_cm4.h **** 
 565:lib/arm_atsam/packs/arm/cmsis/5.0.1/CMSIS/Include/core_cm4.h **** /* SCB System Handler Control and State Register Definitions */
 566:lib/arm_atsam/packs/arm/cmsis/5.0.1/CMSIS/Include/core_cm4.h **** #define SCB_SHCSR_USGFAULTENA_Pos          18U                                            /*!< SCB 
 567:lib/arm_atsam/packs/arm/cmsis/5.0.1/CMSIS/Include/core_cm4.h **** #define SCB_SHCSR_USGFAULTENA_Msk          (1UL << SCB_SHCSR_USGFAULTENA_Pos)             /*!< SCB 
 568:lib/arm_atsam/packs/arm/cmsis/5.0.1/CMSIS/Include/core_cm4.h **** 
 569:lib/arm_atsam/packs/arm/cmsis/5.0.1/CMSIS/Include/core_cm4.h **** #define SCB_SHCSR_BUSFAULTENA_Pos          17U                                            /*!< SCB 
 570:lib/arm_atsam/packs/arm/cmsis/5.0.1/CMSIS/Include/core_cm4.h **** #define SCB_SHCSR_BUSFAULTENA_Msk          (1UL << SCB_SHCSR_BUSFAULTENA_Pos)             /*!< SCB 
 571:lib/arm_atsam/packs/arm/cmsis/5.0.1/CMSIS/Include/core_cm4.h **** 
 572:lib/arm_atsam/packs/arm/cmsis/5.0.1/CMSIS/Include/core_cm4.h **** #define SCB_SHCSR_MEMFAULTENA_Pos          16U                                            /*!< SCB 
 573:lib/arm_atsam/packs/arm/cmsis/5.0.1/CMSIS/Include/core_cm4.h **** #define SCB_SHCSR_MEMFAULTENA_Msk          (1UL << SCB_SHCSR_MEMFAULTENA_Pos)             /*!< SCB 
 574:lib/arm_atsam/packs/arm/cmsis/5.0.1/CMSIS/Include/core_cm4.h **** 
 575:lib/arm_atsam/packs/arm/cmsis/5.0.1/CMSIS/Include/core_cm4.h **** #define SCB_SHCSR_SVCALLPENDED_Pos         15U                                            /*!< SCB 
 576:lib/arm_atsam/packs/arm/cmsis/5.0.1/CMSIS/Include/core_cm4.h **** #define SCB_SHCSR_SVCALLPENDED_Msk         (1UL << SCB_SHCSR_SVCALLPENDED_Pos)            /*!< SCB 
 577:lib/arm_atsam/packs/arm/cmsis/5.0.1/CMSIS/Include/core_cm4.h **** 
 578:lib/arm_atsam/packs/arm/cmsis/5.0.1/CMSIS/Include/core_cm4.h **** #define SCB_SHCSR_BUSFAULTPENDED_Pos       14U                                            /*!< SCB 
 579:lib/arm_atsam/packs/arm/cmsis/5.0.1/CMSIS/Include/core_cm4.h **** #define SCB_SHCSR_BUSFAULTPENDED_Msk       (1UL << SCB_SHCSR_BUSFAULTPENDED_Pos)          /*!< SCB 
 580:lib/arm_atsam/packs/arm/cmsis/5.0.1/CMSIS/Include/core_cm4.h **** 
 581:lib/arm_atsam/packs/arm/cmsis/5.0.1/CMSIS/Include/core_cm4.h **** #define SCB_SHCSR_MEMFAULTPENDED_Pos       13U                                            /*!< SCB 
 582:lib/arm_atsam/packs/arm/cmsis/5.0.1/CMSIS/Include/core_cm4.h **** #define SCB_SHCSR_MEMFAULTPENDED_Msk       (1UL << SCB_SHCSR_MEMFAULTPENDED_Pos)          /*!< SCB 
 583:lib/arm_atsam/packs/arm/cmsis/5.0.1/CMSIS/Include/core_cm4.h **** 
 584:lib/arm_atsam/packs/arm/cmsis/5.0.1/CMSIS/Include/core_cm4.h **** #define SCB_SHCSR_USGFAULTPENDED_Pos       12U                                            /*!< SCB 
 585:lib/arm_atsam/packs/arm/cmsis/5.0.1/CMSIS/Include/core_cm4.h **** #define SCB_SHCSR_USGFAULTPENDED_Msk       (1UL << SCB_SHCSR_USGFAULTPENDED_Pos)          /*!< SCB 
 586:lib/arm_atsam/packs/arm/cmsis/5.0.1/CMSIS/Include/core_cm4.h **** 
 587:lib/arm_atsam/packs/arm/cmsis/5.0.1/CMSIS/Include/core_cm4.h **** #define SCB_SHCSR_SYSTICKACT_Pos           11U                                            /*!< SCB 
 588:lib/arm_atsam/packs/arm/cmsis/5.0.1/CMSIS/Include/core_cm4.h **** #define SCB_SHCSR_SYSTICKACT_Msk           (1UL << SCB_SHCSR_SYSTICKACT_Pos)              /*!< SCB 
 589:lib/arm_atsam/packs/arm/cmsis/5.0.1/CMSIS/Include/core_cm4.h **** 
 590:lib/arm_atsam/packs/arm/cmsis/5.0.1/CMSIS/Include/core_cm4.h **** #define SCB_SHCSR_PENDSVACT_Pos            10U                                            /*!< SCB 
 591:lib/arm_atsam/packs/arm/cmsis/5.0.1/CMSIS/Include/core_cm4.h **** #define SCB_SHCSR_PENDSVACT_Msk            (1UL << SCB_SHCSR_PENDSVACT_Pos)               /*!< SCB 
 592:lib/arm_atsam/packs/arm/cmsis/5.0.1/CMSIS/Include/core_cm4.h **** 
 593:lib/arm_atsam/packs/arm/cmsis/5.0.1/CMSIS/Include/core_cm4.h **** #define SCB_SHCSR_MONITORACT_Pos            8U                                            /*!< SCB 
 594:lib/arm_atsam/packs/arm/cmsis/5.0.1/CMSIS/Include/core_cm4.h **** #define SCB_SHCSR_MONITORACT_Msk           (1UL << SCB_SHCSR_MONITORACT_Pos)              /*!< SCB 
 595:lib/arm_atsam/packs/arm/cmsis/5.0.1/CMSIS/Include/core_cm4.h **** 
 596:lib/arm_atsam/packs/arm/cmsis/5.0.1/CMSIS/Include/core_cm4.h **** #define SCB_SHCSR_SVCALLACT_Pos             7U                                            /*!< SCB 
 597:lib/arm_atsam/packs/arm/cmsis/5.0.1/CMSIS/Include/core_cm4.h **** #define SCB_SHCSR_SVCALLACT_Msk            (1UL << SCB_SHCSR_SVCALLACT_Pos)               /*!< SCB 
 598:lib/arm_atsam/packs/arm/cmsis/5.0.1/CMSIS/Include/core_cm4.h **** 
 599:lib/arm_atsam/packs/arm/cmsis/5.0.1/CMSIS/Include/core_cm4.h **** #define SCB_SHCSR_USGFAULTACT_Pos           3U                                            /*!< SCB 
 600:lib/arm_atsam/packs/arm/cmsis/5.0.1/CMSIS/Include/core_cm4.h **** #define SCB_SHCSR_USGFAULTACT_Msk          (1UL << SCB_SHCSR_USGFAULTACT_Pos)             /*!< SCB 
 601:lib/arm_atsam/packs/arm/cmsis/5.0.1/CMSIS/Include/core_cm4.h **** 
 602:lib/arm_atsam/packs/arm/cmsis/5.0.1/CMSIS/Include/core_cm4.h **** #define SCB_SHCSR_BUSFAULTACT_Pos           1U                                            /*!< SCB 
 603:lib/arm_atsam/packs/arm/cmsis/5.0.1/CMSIS/Include/core_cm4.h **** #define SCB_SHCSR_BUSFAULTACT_Msk          (1UL << SCB_SHCSR_BUSFAULTACT_Pos)             /*!< SCB 
 604:lib/arm_atsam/packs/arm/cmsis/5.0.1/CMSIS/Include/core_cm4.h **** 
 605:lib/arm_atsam/packs/arm/cmsis/5.0.1/CMSIS/Include/core_cm4.h **** #define SCB_SHCSR_MEMFAULTACT_Pos           0U                                            /*!< SCB 
 606:lib/arm_atsam/packs/arm/cmsis/5.0.1/CMSIS/Include/core_cm4.h **** #define SCB_SHCSR_MEMFAULTACT_Msk          (1UL /*<< SCB_SHCSR_MEMFAULTACT_Pos*/)         /*!< SCB 
 607:lib/arm_atsam/packs/arm/cmsis/5.0.1/CMSIS/Include/core_cm4.h **** 
 608:lib/arm_atsam/packs/arm/cmsis/5.0.1/CMSIS/Include/core_cm4.h **** /* SCB Configurable Fault Status Register Definitions */
 609:lib/arm_atsam/packs/arm/cmsis/5.0.1/CMSIS/Include/core_cm4.h **** #define SCB_CFSR_USGFAULTSR_Pos            16U                                            /*!< SCB 
 610:lib/arm_atsam/packs/arm/cmsis/5.0.1/CMSIS/Include/core_cm4.h **** #define SCB_CFSR_USGFAULTSR_Msk            (0xFFFFUL << SCB_CFSR_USGFAULTSR_Pos)          /*!< SCB 
 611:lib/arm_atsam/packs/arm/cmsis/5.0.1/CMSIS/Include/core_cm4.h **** 
 612:lib/arm_atsam/packs/arm/cmsis/5.0.1/CMSIS/Include/core_cm4.h **** #define SCB_CFSR_BUSFAULTSR_Pos             8U                                            /*!< SCB 
 613:lib/arm_atsam/packs/arm/cmsis/5.0.1/CMSIS/Include/core_cm4.h **** #define SCB_CFSR_BUSFAULTSR_Msk            (0xFFUL << SCB_CFSR_BUSFAULTSR_Pos)            /*!< SCB 
 614:lib/arm_atsam/packs/arm/cmsis/5.0.1/CMSIS/Include/core_cm4.h **** 
 615:lib/arm_atsam/packs/arm/cmsis/5.0.1/CMSIS/Include/core_cm4.h **** #define SCB_CFSR_MEMFAULTSR_Pos             0U                                            /*!< SCB 
 616:lib/arm_atsam/packs/arm/cmsis/5.0.1/CMSIS/Include/core_cm4.h **** #define SCB_CFSR_MEMFAULTSR_Msk            (0xFFUL /*<< SCB_CFSR_MEMFAULTSR_Pos*/)        /*!< SCB 
 617:lib/arm_atsam/packs/arm/cmsis/5.0.1/CMSIS/Include/core_cm4.h **** 
 618:lib/arm_atsam/packs/arm/cmsis/5.0.1/CMSIS/Include/core_cm4.h **** /* MemManage Fault Status Register (part of SCB Configurable Fault Status Register) */
 619:lib/arm_atsam/packs/arm/cmsis/5.0.1/CMSIS/Include/core_cm4.h **** #define SCB_CFSR_MMARVALID_Pos             (SCB_SHCSR_MEMFAULTACT_Pos + 7U)               /*!< SCB 
 620:lib/arm_atsam/packs/arm/cmsis/5.0.1/CMSIS/Include/core_cm4.h **** #define SCB_CFSR_MMARVALID_Msk             (1UL << SCB_CFSR_MMARVALID_Pos)                /*!< SCB 
 621:lib/arm_atsam/packs/arm/cmsis/5.0.1/CMSIS/Include/core_cm4.h **** 
 622:lib/arm_atsam/packs/arm/cmsis/5.0.1/CMSIS/Include/core_cm4.h **** #define SCB_CFSR_MLSPERR_Pos               (SCB_SHCSR_MEMFAULTACT_Pos + 5U)               /*!< SCB 
 623:lib/arm_atsam/packs/arm/cmsis/5.0.1/CMSIS/Include/core_cm4.h **** #define SCB_CFSR_MLSPERR_Msk               (1UL << SCB_CFSR_MLSPERR_Pos)                  /*!< SCB 
 624:lib/arm_atsam/packs/arm/cmsis/5.0.1/CMSIS/Include/core_cm4.h **** 
 625:lib/arm_atsam/packs/arm/cmsis/5.0.1/CMSIS/Include/core_cm4.h **** #define SCB_CFSR_MSTKERR_Pos               (SCB_SHCSR_MEMFAULTACT_Pos + 4U)               /*!< SCB 
 626:lib/arm_atsam/packs/arm/cmsis/5.0.1/CMSIS/Include/core_cm4.h **** #define SCB_CFSR_MSTKERR_Msk               (1UL << SCB_CFSR_MSTKERR_Pos)                  /*!< SCB 
 627:lib/arm_atsam/packs/arm/cmsis/5.0.1/CMSIS/Include/core_cm4.h **** 
 628:lib/arm_atsam/packs/arm/cmsis/5.0.1/CMSIS/Include/core_cm4.h **** #define SCB_CFSR_MUNSTKERR_Pos             (SCB_SHCSR_MEMFAULTACT_Pos + 3U)               /*!< SCB 
 629:lib/arm_atsam/packs/arm/cmsis/5.0.1/CMSIS/Include/core_cm4.h **** #define SCB_CFSR_MUNSTKERR_Msk             (1UL << SCB_CFSR_MUNSTKERR_Pos)                /*!< SCB 
 630:lib/arm_atsam/packs/arm/cmsis/5.0.1/CMSIS/Include/core_cm4.h **** 
 631:lib/arm_atsam/packs/arm/cmsis/5.0.1/CMSIS/Include/core_cm4.h **** #define SCB_CFSR_DACCVIOL_Pos              (SCB_SHCSR_MEMFAULTACT_Pos + 1U)               /*!< SCB 
 632:lib/arm_atsam/packs/arm/cmsis/5.0.1/CMSIS/Include/core_cm4.h **** #define SCB_CFSR_DACCVIOL_Msk              (1UL << SCB_CFSR_DACCVIOL_Pos)                 /*!< SCB 
 633:lib/arm_atsam/packs/arm/cmsis/5.0.1/CMSIS/Include/core_cm4.h **** 
 634:lib/arm_atsam/packs/arm/cmsis/5.0.1/CMSIS/Include/core_cm4.h **** #define SCB_CFSR_IACCVIOL_Pos              (SCB_SHCSR_MEMFAULTACT_Pos + 0U)               /*!< SCB 
 635:lib/arm_atsam/packs/arm/cmsis/5.0.1/CMSIS/Include/core_cm4.h **** #define SCB_CFSR_IACCVIOL_Msk              (1UL /*<< SCB_CFSR_IACCVIOL_Pos*/)             /*!< SCB 
 636:lib/arm_atsam/packs/arm/cmsis/5.0.1/CMSIS/Include/core_cm4.h **** 
 637:lib/arm_atsam/packs/arm/cmsis/5.0.1/CMSIS/Include/core_cm4.h **** /* BusFault Status Register (part of SCB Configurable Fault Status Register) */
 638:lib/arm_atsam/packs/arm/cmsis/5.0.1/CMSIS/Include/core_cm4.h **** #define SCB_CFSR_BFARVALID_Pos            (SCB_CFSR_BUSFAULTSR_Pos + 7U)                  /*!< SCB 
 639:lib/arm_atsam/packs/arm/cmsis/5.0.1/CMSIS/Include/core_cm4.h **** #define SCB_CFSR_BFARVALID_Msk            (1UL << SCB_CFSR_BFARVALID_Pos)                 /*!< SCB 
 640:lib/arm_atsam/packs/arm/cmsis/5.0.1/CMSIS/Include/core_cm4.h **** 
 641:lib/arm_atsam/packs/arm/cmsis/5.0.1/CMSIS/Include/core_cm4.h **** #define SCB_CFSR_LSPERR_Pos               (SCB_CFSR_BUSFAULTSR_Pos + 5U)                  /*!< SCB 
 642:lib/arm_atsam/packs/arm/cmsis/5.0.1/CMSIS/Include/core_cm4.h **** #define SCB_CFSR_LSPERR_Msk               (1UL << SCB_CFSR_LSPERR_Pos)                    /*!< SCB 
 643:lib/arm_atsam/packs/arm/cmsis/5.0.1/CMSIS/Include/core_cm4.h **** 
 644:lib/arm_atsam/packs/arm/cmsis/5.0.1/CMSIS/Include/core_cm4.h **** #define SCB_CFSR_STKERR_Pos               (SCB_CFSR_BUSFAULTSR_Pos + 4U)                  /*!< SCB 
 645:lib/arm_atsam/packs/arm/cmsis/5.0.1/CMSIS/Include/core_cm4.h **** #define SCB_CFSR_STKERR_Msk               (1UL << SCB_CFSR_STKERR_Pos)                    /*!< SCB 
 646:lib/arm_atsam/packs/arm/cmsis/5.0.1/CMSIS/Include/core_cm4.h **** 
 647:lib/arm_atsam/packs/arm/cmsis/5.0.1/CMSIS/Include/core_cm4.h **** #define SCB_CFSR_UNSTKERR_Pos             (SCB_CFSR_BUSFAULTSR_Pos + 3U)                  /*!< SCB 
 648:lib/arm_atsam/packs/arm/cmsis/5.0.1/CMSIS/Include/core_cm4.h **** #define SCB_CFSR_UNSTKERR_Msk             (1UL << SCB_CFSR_UNSTKERR_Pos)                  /*!< SCB 
 649:lib/arm_atsam/packs/arm/cmsis/5.0.1/CMSIS/Include/core_cm4.h **** 
 650:lib/arm_atsam/packs/arm/cmsis/5.0.1/CMSIS/Include/core_cm4.h **** #define SCB_CFSR_IMPRECISERR_Pos          (SCB_CFSR_BUSFAULTSR_Pos + 2U)                  /*!< SCB 
 651:lib/arm_atsam/packs/arm/cmsis/5.0.1/CMSIS/Include/core_cm4.h **** #define SCB_CFSR_IMPRECISERR_Msk          (1UL << SCB_CFSR_IMPRECISERR_Pos)               /*!< SCB 
 652:lib/arm_atsam/packs/arm/cmsis/5.0.1/CMSIS/Include/core_cm4.h **** 
 653:lib/arm_atsam/packs/arm/cmsis/5.0.1/CMSIS/Include/core_cm4.h **** #define SCB_CFSR_PRECISERR_Pos            (SCB_CFSR_BUSFAULTSR_Pos + 1U)                  /*!< SCB 
 654:lib/arm_atsam/packs/arm/cmsis/5.0.1/CMSIS/Include/core_cm4.h **** #define SCB_CFSR_PRECISERR_Msk            (1UL << SCB_CFSR_PRECISERR_Pos)                 /*!< SCB 
 655:lib/arm_atsam/packs/arm/cmsis/5.0.1/CMSIS/Include/core_cm4.h **** 
 656:lib/arm_atsam/packs/arm/cmsis/5.0.1/CMSIS/Include/core_cm4.h **** #define SCB_CFSR_IBUSERR_Pos              (SCB_CFSR_BUSFAULTSR_Pos + 0U)                  /*!< SCB 
 657:lib/arm_atsam/packs/arm/cmsis/5.0.1/CMSIS/Include/core_cm4.h **** #define SCB_CFSR_IBUSERR_Msk              (1UL << SCB_CFSR_IBUSERR_Pos)                   /*!< SCB 
 658:lib/arm_atsam/packs/arm/cmsis/5.0.1/CMSIS/Include/core_cm4.h **** 
 659:lib/arm_atsam/packs/arm/cmsis/5.0.1/CMSIS/Include/core_cm4.h **** /* UsageFault Status Register (part of SCB Configurable Fault Status Register) */
 660:lib/arm_atsam/packs/arm/cmsis/5.0.1/CMSIS/Include/core_cm4.h **** #define SCB_CFSR_DIVBYZERO_Pos            (SCB_CFSR_USGFAULTSR_Pos + 9U)                  /*!< SCB 
 661:lib/arm_atsam/packs/arm/cmsis/5.0.1/CMSIS/Include/core_cm4.h **** #define SCB_CFSR_DIVBYZERO_Msk            (1UL << SCB_CFSR_DIVBYZERO_Pos)                 /*!< SCB 
 662:lib/arm_atsam/packs/arm/cmsis/5.0.1/CMSIS/Include/core_cm4.h **** 
 663:lib/arm_atsam/packs/arm/cmsis/5.0.1/CMSIS/Include/core_cm4.h **** #define SCB_CFSR_UNALIGNED_Pos            (SCB_CFSR_USGFAULTSR_Pos + 8U)                  /*!< SCB 
 664:lib/arm_atsam/packs/arm/cmsis/5.0.1/CMSIS/Include/core_cm4.h **** #define SCB_CFSR_UNALIGNED_Msk            (1UL << SCB_CFSR_UNALIGNED_Pos)                 /*!< SCB 
 665:lib/arm_atsam/packs/arm/cmsis/5.0.1/CMSIS/Include/core_cm4.h **** 
 666:lib/arm_atsam/packs/arm/cmsis/5.0.1/CMSIS/Include/core_cm4.h **** #define SCB_CFSR_NOCP_Pos                 (SCB_CFSR_USGFAULTSR_Pos + 3U)                  /*!< SCB 
 667:lib/arm_atsam/packs/arm/cmsis/5.0.1/CMSIS/Include/core_cm4.h **** #define SCB_CFSR_NOCP_Msk                 (1UL << SCB_CFSR_NOCP_Pos)                      /*!< SCB 
 668:lib/arm_atsam/packs/arm/cmsis/5.0.1/CMSIS/Include/core_cm4.h **** 
 669:lib/arm_atsam/packs/arm/cmsis/5.0.1/CMSIS/Include/core_cm4.h **** #define SCB_CFSR_INVPC_Pos                (SCB_CFSR_USGFAULTSR_Pos + 2U)                  /*!< SCB 
 670:lib/arm_atsam/packs/arm/cmsis/5.0.1/CMSIS/Include/core_cm4.h **** #define SCB_CFSR_INVPC_Msk                (1UL << SCB_CFSR_INVPC_Pos)                     /*!< SCB 
 671:lib/arm_atsam/packs/arm/cmsis/5.0.1/CMSIS/Include/core_cm4.h **** 
 672:lib/arm_atsam/packs/arm/cmsis/5.0.1/CMSIS/Include/core_cm4.h **** #define SCB_CFSR_INVSTATE_Pos             (SCB_CFSR_USGFAULTSR_Pos + 1U)                  /*!< SCB 
 673:lib/arm_atsam/packs/arm/cmsis/5.0.1/CMSIS/Include/core_cm4.h **** #define SCB_CFSR_INVSTATE_Msk             (1UL << SCB_CFSR_INVSTATE_Pos)                  /*!< SCB 
 674:lib/arm_atsam/packs/arm/cmsis/5.0.1/CMSIS/Include/core_cm4.h **** 
 675:lib/arm_atsam/packs/arm/cmsis/5.0.1/CMSIS/Include/core_cm4.h **** #define SCB_CFSR_UNDEFINSTR_Pos           (SCB_CFSR_USGFAULTSR_Pos + 0U)                  /*!< SCB 
 676:lib/arm_atsam/packs/arm/cmsis/5.0.1/CMSIS/Include/core_cm4.h **** #define SCB_CFSR_UNDEFINSTR_Msk           (1UL << SCB_CFSR_UNDEFINSTR_Pos)                /*!< SCB 
 677:lib/arm_atsam/packs/arm/cmsis/5.0.1/CMSIS/Include/core_cm4.h **** 
 678:lib/arm_atsam/packs/arm/cmsis/5.0.1/CMSIS/Include/core_cm4.h **** /* SCB Hard Fault Status Register Definitions */
 679:lib/arm_atsam/packs/arm/cmsis/5.0.1/CMSIS/Include/core_cm4.h **** #define SCB_HFSR_DEBUGEVT_Pos              31U                                            /*!< SCB 
 680:lib/arm_atsam/packs/arm/cmsis/5.0.1/CMSIS/Include/core_cm4.h **** #define SCB_HFSR_DEBUGEVT_Msk              (1UL << SCB_HFSR_DEBUGEVT_Pos)                 /*!< SCB 
 681:lib/arm_atsam/packs/arm/cmsis/5.0.1/CMSIS/Include/core_cm4.h **** 
 682:lib/arm_atsam/packs/arm/cmsis/5.0.1/CMSIS/Include/core_cm4.h **** #define SCB_HFSR_FORCED_Pos                30U                                            /*!< SCB 
 683:lib/arm_atsam/packs/arm/cmsis/5.0.1/CMSIS/Include/core_cm4.h **** #define SCB_HFSR_FORCED_Msk                (1UL << SCB_HFSR_FORCED_Pos)                   /*!< SCB 
 684:lib/arm_atsam/packs/arm/cmsis/5.0.1/CMSIS/Include/core_cm4.h **** 
 685:lib/arm_atsam/packs/arm/cmsis/5.0.1/CMSIS/Include/core_cm4.h **** #define SCB_HFSR_VECTTBL_Pos                1U                                            /*!< SCB 
 686:lib/arm_atsam/packs/arm/cmsis/5.0.1/CMSIS/Include/core_cm4.h **** #define SCB_HFSR_VECTTBL_Msk               (1UL << SCB_HFSR_VECTTBL_Pos)                  /*!< SCB 
 687:lib/arm_atsam/packs/arm/cmsis/5.0.1/CMSIS/Include/core_cm4.h **** 
 688:lib/arm_atsam/packs/arm/cmsis/5.0.1/CMSIS/Include/core_cm4.h **** /* SCB Debug Fault Status Register Definitions */
 689:lib/arm_atsam/packs/arm/cmsis/5.0.1/CMSIS/Include/core_cm4.h **** #define SCB_DFSR_EXTERNAL_Pos               4U                                            /*!< SCB 
 690:lib/arm_atsam/packs/arm/cmsis/5.0.1/CMSIS/Include/core_cm4.h **** #define SCB_DFSR_EXTERNAL_Msk              (1UL << SCB_DFSR_EXTERNAL_Pos)                 /*!< SCB 
 691:lib/arm_atsam/packs/arm/cmsis/5.0.1/CMSIS/Include/core_cm4.h **** 
 692:lib/arm_atsam/packs/arm/cmsis/5.0.1/CMSIS/Include/core_cm4.h **** #define SCB_DFSR_VCATCH_Pos                 3U                                            /*!< SCB 
 693:lib/arm_atsam/packs/arm/cmsis/5.0.1/CMSIS/Include/core_cm4.h **** #define SCB_DFSR_VCATCH_Msk                (1UL << SCB_DFSR_VCATCH_Pos)                   /*!< SCB 
 694:lib/arm_atsam/packs/arm/cmsis/5.0.1/CMSIS/Include/core_cm4.h **** 
 695:lib/arm_atsam/packs/arm/cmsis/5.0.1/CMSIS/Include/core_cm4.h **** #define SCB_DFSR_DWTTRAP_Pos                2U                                            /*!< SCB 
 696:lib/arm_atsam/packs/arm/cmsis/5.0.1/CMSIS/Include/core_cm4.h **** #define SCB_DFSR_DWTTRAP_Msk               (1UL << SCB_DFSR_DWTTRAP_Pos)                  /*!< SCB 
 697:lib/arm_atsam/packs/arm/cmsis/5.0.1/CMSIS/Include/core_cm4.h **** 
 698:lib/arm_atsam/packs/arm/cmsis/5.0.1/CMSIS/Include/core_cm4.h **** #define SCB_DFSR_BKPT_Pos                   1U                                            /*!< SCB 
 699:lib/arm_atsam/packs/arm/cmsis/5.0.1/CMSIS/Include/core_cm4.h **** #define SCB_DFSR_BKPT_Msk                  (1UL << SCB_DFSR_BKPT_Pos)                     /*!< SCB 
 700:lib/arm_atsam/packs/arm/cmsis/5.0.1/CMSIS/Include/core_cm4.h **** 
 701:lib/arm_atsam/packs/arm/cmsis/5.0.1/CMSIS/Include/core_cm4.h **** #define SCB_DFSR_HALTED_Pos                 0U                                            /*!< SCB 
 702:lib/arm_atsam/packs/arm/cmsis/5.0.1/CMSIS/Include/core_cm4.h **** #define SCB_DFSR_HALTED_Msk                (1UL /*<< SCB_DFSR_HALTED_Pos*/)               /*!< SCB 
 703:lib/arm_atsam/packs/arm/cmsis/5.0.1/CMSIS/Include/core_cm4.h **** 
 704:lib/arm_atsam/packs/arm/cmsis/5.0.1/CMSIS/Include/core_cm4.h **** /*@} end of group CMSIS_SCB */
 705:lib/arm_atsam/packs/arm/cmsis/5.0.1/CMSIS/Include/core_cm4.h **** 
 706:lib/arm_atsam/packs/arm/cmsis/5.0.1/CMSIS/Include/core_cm4.h **** 
 707:lib/arm_atsam/packs/arm/cmsis/5.0.1/CMSIS/Include/core_cm4.h **** /**
 708:lib/arm_atsam/packs/arm/cmsis/5.0.1/CMSIS/Include/core_cm4.h ****   \ingroup  CMSIS_core_register
 709:lib/arm_atsam/packs/arm/cmsis/5.0.1/CMSIS/Include/core_cm4.h ****   \defgroup CMSIS_SCnSCB System Controls not in SCB (SCnSCB)
 710:lib/arm_atsam/packs/arm/cmsis/5.0.1/CMSIS/Include/core_cm4.h ****   \brief    Type definitions for the System Control and ID Register not in the SCB
 711:lib/arm_atsam/packs/arm/cmsis/5.0.1/CMSIS/Include/core_cm4.h ****   @{
 712:lib/arm_atsam/packs/arm/cmsis/5.0.1/CMSIS/Include/core_cm4.h ****  */
 713:lib/arm_atsam/packs/arm/cmsis/5.0.1/CMSIS/Include/core_cm4.h **** 
 714:lib/arm_atsam/packs/arm/cmsis/5.0.1/CMSIS/Include/core_cm4.h **** /**
 715:lib/arm_atsam/packs/arm/cmsis/5.0.1/CMSIS/Include/core_cm4.h ****   \brief  Structure type to access the System Control and ID Register not in the SCB.
 716:lib/arm_atsam/packs/arm/cmsis/5.0.1/CMSIS/Include/core_cm4.h ****  */
 717:lib/arm_atsam/packs/arm/cmsis/5.0.1/CMSIS/Include/core_cm4.h **** typedef struct
 718:lib/arm_atsam/packs/arm/cmsis/5.0.1/CMSIS/Include/core_cm4.h **** {
 719:lib/arm_atsam/packs/arm/cmsis/5.0.1/CMSIS/Include/core_cm4.h ****         uint32_t RESERVED0[1U];
 720:lib/arm_atsam/packs/arm/cmsis/5.0.1/CMSIS/Include/core_cm4.h ****   __IM  uint32_t ICTR;                   /*!< Offset: 0x004 (R/ )  Interrupt Controller Type Regist
 721:lib/arm_atsam/packs/arm/cmsis/5.0.1/CMSIS/Include/core_cm4.h ****   __IOM uint32_t ACTLR;                  /*!< Offset: 0x008 (R/W)  Auxiliary Control Register */
 722:lib/arm_atsam/packs/arm/cmsis/5.0.1/CMSIS/Include/core_cm4.h **** } SCnSCB_Type;
 723:lib/arm_atsam/packs/arm/cmsis/5.0.1/CMSIS/Include/core_cm4.h **** 
 724:lib/arm_atsam/packs/arm/cmsis/5.0.1/CMSIS/Include/core_cm4.h **** /* Interrupt Controller Type Register Definitions */
 725:lib/arm_atsam/packs/arm/cmsis/5.0.1/CMSIS/Include/core_cm4.h **** #define SCnSCB_ICTR_INTLINESNUM_Pos         0U                                         /*!< ICTR: I
 726:lib/arm_atsam/packs/arm/cmsis/5.0.1/CMSIS/Include/core_cm4.h **** #define SCnSCB_ICTR_INTLINESNUM_Msk        (0xFUL /*<< SCnSCB_ICTR_INTLINESNUM_Pos*/)  /*!< ICTR: I
 727:lib/arm_atsam/packs/arm/cmsis/5.0.1/CMSIS/Include/core_cm4.h **** 
 728:lib/arm_atsam/packs/arm/cmsis/5.0.1/CMSIS/Include/core_cm4.h **** /* Auxiliary Control Register Definitions */
 729:lib/arm_atsam/packs/arm/cmsis/5.0.1/CMSIS/Include/core_cm4.h **** #define SCnSCB_ACTLR_DISOOFP_Pos            9U                                         /*!< ACTLR: 
 730:lib/arm_atsam/packs/arm/cmsis/5.0.1/CMSIS/Include/core_cm4.h **** #define SCnSCB_ACTLR_DISOOFP_Msk           (1UL << SCnSCB_ACTLR_DISOOFP_Pos)           /*!< ACTLR: 
 731:lib/arm_atsam/packs/arm/cmsis/5.0.1/CMSIS/Include/core_cm4.h **** 
 732:lib/arm_atsam/packs/arm/cmsis/5.0.1/CMSIS/Include/core_cm4.h **** #define SCnSCB_ACTLR_DISFPCA_Pos            8U                                         /*!< ACTLR: 
 733:lib/arm_atsam/packs/arm/cmsis/5.0.1/CMSIS/Include/core_cm4.h **** #define SCnSCB_ACTLR_DISFPCA_Msk           (1UL << SCnSCB_ACTLR_DISFPCA_Pos)           /*!< ACTLR: 
 734:lib/arm_atsam/packs/arm/cmsis/5.0.1/CMSIS/Include/core_cm4.h **** 
 735:lib/arm_atsam/packs/arm/cmsis/5.0.1/CMSIS/Include/core_cm4.h **** #define SCnSCB_ACTLR_DISFOLD_Pos            2U                                         /*!< ACTLR: 
 736:lib/arm_atsam/packs/arm/cmsis/5.0.1/CMSIS/Include/core_cm4.h **** #define SCnSCB_ACTLR_DISFOLD_Msk           (1UL << SCnSCB_ACTLR_DISFOLD_Pos)           /*!< ACTLR: 
 737:lib/arm_atsam/packs/arm/cmsis/5.0.1/CMSIS/Include/core_cm4.h **** 
 738:lib/arm_atsam/packs/arm/cmsis/5.0.1/CMSIS/Include/core_cm4.h **** #define SCnSCB_ACTLR_DISDEFWBUF_Pos         1U                                         /*!< ACTLR: 
 739:lib/arm_atsam/packs/arm/cmsis/5.0.1/CMSIS/Include/core_cm4.h **** #define SCnSCB_ACTLR_DISDEFWBUF_Msk        (1UL << SCnSCB_ACTLR_DISDEFWBUF_Pos)        /*!< ACTLR: 
 740:lib/arm_atsam/packs/arm/cmsis/5.0.1/CMSIS/Include/core_cm4.h **** 
 741:lib/arm_atsam/packs/arm/cmsis/5.0.1/CMSIS/Include/core_cm4.h **** #define SCnSCB_ACTLR_DISMCYCINT_Pos         0U                                         /*!< ACTLR: 
 742:lib/arm_atsam/packs/arm/cmsis/5.0.1/CMSIS/Include/core_cm4.h **** #define SCnSCB_ACTLR_DISMCYCINT_Msk        (1UL /*<< SCnSCB_ACTLR_DISMCYCINT_Pos*/)    /*!< ACTLR: 
 743:lib/arm_atsam/packs/arm/cmsis/5.0.1/CMSIS/Include/core_cm4.h **** 
 744:lib/arm_atsam/packs/arm/cmsis/5.0.1/CMSIS/Include/core_cm4.h **** /*@} end of group CMSIS_SCnotSCB */
 745:lib/arm_atsam/packs/arm/cmsis/5.0.1/CMSIS/Include/core_cm4.h **** 
 746:lib/arm_atsam/packs/arm/cmsis/5.0.1/CMSIS/Include/core_cm4.h **** 
 747:lib/arm_atsam/packs/arm/cmsis/5.0.1/CMSIS/Include/core_cm4.h **** /**
 748:lib/arm_atsam/packs/arm/cmsis/5.0.1/CMSIS/Include/core_cm4.h ****   \ingroup  CMSIS_core_register
 749:lib/arm_atsam/packs/arm/cmsis/5.0.1/CMSIS/Include/core_cm4.h ****   \defgroup CMSIS_SysTick     System Tick Timer (SysTick)
 750:lib/arm_atsam/packs/arm/cmsis/5.0.1/CMSIS/Include/core_cm4.h ****   \brief    Type definitions for the System Timer Registers.
 751:lib/arm_atsam/packs/arm/cmsis/5.0.1/CMSIS/Include/core_cm4.h ****   @{
 752:lib/arm_atsam/packs/arm/cmsis/5.0.1/CMSIS/Include/core_cm4.h ****  */
 753:lib/arm_atsam/packs/arm/cmsis/5.0.1/CMSIS/Include/core_cm4.h **** 
 754:lib/arm_atsam/packs/arm/cmsis/5.0.1/CMSIS/Include/core_cm4.h **** /**
 755:lib/arm_atsam/packs/arm/cmsis/5.0.1/CMSIS/Include/core_cm4.h ****   \brief  Structure type to access the System Timer (SysTick).
 756:lib/arm_atsam/packs/arm/cmsis/5.0.1/CMSIS/Include/core_cm4.h ****  */
 757:lib/arm_atsam/packs/arm/cmsis/5.0.1/CMSIS/Include/core_cm4.h **** typedef struct
 758:lib/arm_atsam/packs/arm/cmsis/5.0.1/CMSIS/Include/core_cm4.h **** {
 759:lib/arm_atsam/packs/arm/cmsis/5.0.1/CMSIS/Include/core_cm4.h ****   __IOM uint32_t CTRL;                   /*!< Offset: 0x000 (R/W)  SysTick Control and Status Regis
 760:lib/arm_atsam/packs/arm/cmsis/5.0.1/CMSIS/Include/core_cm4.h ****   __IOM uint32_t LOAD;                   /*!< Offset: 0x004 (R/W)  SysTick Reload Value Register */
 761:lib/arm_atsam/packs/arm/cmsis/5.0.1/CMSIS/Include/core_cm4.h ****   __IOM uint32_t VAL;                    /*!< Offset: 0x008 (R/W)  SysTick Current Value Register *
 762:lib/arm_atsam/packs/arm/cmsis/5.0.1/CMSIS/Include/core_cm4.h ****   __IM  uint32_t CALIB;                  /*!< Offset: 0x00C (R/ )  SysTick Calibration Register */
 763:lib/arm_atsam/packs/arm/cmsis/5.0.1/CMSIS/Include/core_cm4.h **** } SysTick_Type;
 764:lib/arm_atsam/packs/arm/cmsis/5.0.1/CMSIS/Include/core_cm4.h **** 
 765:lib/arm_atsam/packs/arm/cmsis/5.0.1/CMSIS/Include/core_cm4.h **** /* SysTick Control / Status Register Definitions */
 766:lib/arm_atsam/packs/arm/cmsis/5.0.1/CMSIS/Include/core_cm4.h **** #define SysTick_CTRL_COUNTFLAG_Pos         16U                                            /*!< SysT
 767:lib/arm_atsam/packs/arm/cmsis/5.0.1/CMSIS/Include/core_cm4.h **** #define SysTick_CTRL_COUNTFLAG_Msk         (1UL << SysTick_CTRL_COUNTFLAG_Pos)            /*!< SysT
 768:lib/arm_atsam/packs/arm/cmsis/5.0.1/CMSIS/Include/core_cm4.h **** 
 769:lib/arm_atsam/packs/arm/cmsis/5.0.1/CMSIS/Include/core_cm4.h **** #define SysTick_CTRL_CLKSOURCE_Pos          2U                                            /*!< SysT
 770:lib/arm_atsam/packs/arm/cmsis/5.0.1/CMSIS/Include/core_cm4.h **** #define SysTick_CTRL_CLKSOURCE_Msk         (1UL << SysTick_CTRL_CLKSOURCE_Pos)            /*!< SysT
 771:lib/arm_atsam/packs/arm/cmsis/5.0.1/CMSIS/Include/core_cm4.h **** 
 772:lib/arm_atsam/packs/arm/cmsis/5.0.1/CMSIS/Include/core_cm4.h **** #define SysTick_CTRL_TICKINT_Pos            1U                                            /*!< SysT
 773:lib/arm_atsam/packs/arm/cmsis/5.0.1/CMSIS/Include/core_cm4.h **** #define SysTick_CTRL_TICKINT_Msk           (1UL << SysTick_CTRL_TICKINT_Pos)              /*!< SysT
 774:lib/arm_atsam/packs/arm/cmsis/5.0.1/CMSIS/Include/core_cm4.h **** 
 775:lib/arm_atsam/packs/arm/cmsis/5.0.1/CMSIS/Include/core_cm4.h **** #define SysTick_CTRL_ENABLE_Pos             0U                                            /*!< SysT
 776:lib/arm_atsam/packs/arm/cmsis/5.0.1/CMSIS/Include/core_cm4.h **** #define SysTick_CTRL_ENABLE_Msk            (1UL /*<< SysTick_CTRL_ENABLE_Pos*/)           /*!< SysT
 777:lib/arm_atsam/packs/arm/cmsis/5.0.1/CMSIS/Include/core_cm4.h **** 
 778:lib/arm_atsam/packs/arm/cmsis/5.0.1/CMSIS/Include/core_cm4.h **** /* SysTick Reload Register Definitions */
 779:lib/arm_atsam/packs/arm/cmsis/5.0.1/CMSIS/Include/core_cm4.h **** #define SysTick_LOAD_RELOAD_Pos             0U                                            /*!< SysT
 780:lib/arm_atsam/packs/arm/cmsis/5.0.1/CMSIS/Include/core_cm4.h **** #define SysTick_LOAD_RELOAD_Msk            (0xFFFFFFUL /*<< SysTick_LOAD_RELOAD_Pos*/)    /*!< SysT
 781:lib/arm_atsam/packs/arm/cmsis/5.0.1/CMSIS/Include/core_cm4.h **** 
 782:lib/arm_atsam/packs/arm/cmsis/5.0.1/CMSIS/Include/core_cm4.h **** /* SysTick Current Register Definitions */
 783:lib/arm_atsam/packs/arm/cmsis/5.0.1/CMSIS/Include/core_cm4.h **** #define SysTick_VAL_CURRENT_Pos             0U                                            /*!< SysT
 784:lib/arm_atsam/packs/arm/cmsis/5.0.1/CMSIS/Include/core_cm4.h **** #define SysTick_VAL_CURRENT_Msk            (0xFFFFFFUL /*<< SysTick_VAL_CURRENT_Pos*/)    /*!< SysT
 785:lib/arm_atsam/packs/arm/cmsis/5.0.1/CMSIS/Include/core_cm4.h **** 
 786:lib/arm_atsam/packs/arm/cmsis/5.0.1/CMSIS/Include/core_cm4.h **** /* SysTick Calibration Register Definitions */
 787:lib/arm_atsam/packs/arm/cmsis/5.0.1/CMSIS/Include/core_cm4.h **** #define SysTick_CALIB_NOREF_Pos            31U                                            /*!< SysT
 788:lib/arm_atsam/packs/arm/cmsis/5.0.1/CMSIS/Include/core_cm4.h **** #define SysTick_CALIB_NOREF_Msk            (1UL << SysTick_CALIB_NOREF_Pos)               /*!< SysT
 789:lib/arm_atsam/packs/arm/cmsis/5.0.1/CMSIS/Include/core_cm4.h **** 
 790:lib/arm_atsam/packs/arm/cmsis/5.0.1/CMSIS/Include/core_cm4.h **** #define SysTick_CALIB_SKEW_Pos             30U                                            /*!< SysT
 791:lib/arm_atsam/packs/arm/cmsis/5.0.1/CMSIS/Include/core_cm4.h **** #define SysTick_CALIB_SKEW_Msk             (1UL << SysTick_CALIB_SKEW_Pos)                /*!< SysT
 792:lib/arm_atsam/packs/arm/cmsis/5.0.1/CMSIS/Include/core_cm4.h **** 
 793:lib/arm_atsam/packs/arm/cmsis/5.0.1/CMSIS/Include/core_cm4.h **** #define SysTick_CALIB_TENMS_Pos             0U                                            /*!< SysT
 794:lib/arm_atsam/packs/arm/cmsis/5.0.1/CMSIS/Include/core_cm4.h **** #define SysTick_CALIB_TENMS_Msk            (0xFFFFFFUL /*<< SysTick_CALIB_TENMS_Pos*/)    /*!< SysT
 795:lib/arm_atsam/packs/arm/cmsis/5.0.1/CMSIS/Include/core_cm4.h **** 
 796:lib/arm_atsam/packs/arm/cmsis/5.0.1/CMSIS/Include/core_cm4.h **** /*@} end of group CMSIS_SysTick */
 797:lib/arm_atsam/packs/arm/cmsis/5.0.1/CMSIS/Include/core_cm4.h **** 
 798:lib/arm_atsam/packs/arm/cmsis/5.0.1/CMSIS/Include/core_cm4.h **** 
 799:lib/arm_atsam/packs/arm/cmsis/5.0.1/CMSIS/Include/core_cm4.h **** /**
 800:lib/arm_atsam/packs/arm/cmsis/5.0.1/CMSIS/Include/core_cm4.h ****   \ingroup  CMSIS_core_register
 801:lib/arm_atsam/packs/arm/cmsis/5.0.1/CMSIS/Include/core_cm4.h ****   \defgroup CMSIS_ITM     Instrumentation Trace Macrocell (ITM)
 802:lib/arm_atsam/packs/arm/cmsis/5.0.1/CMSIS/Include/core_cm4.h ****   \brief    Type definitions for the Instrumentation Trace Macrocell (ITM)
 803:lib/arm_atsam/packs/arm/cmsis/5.0.1/CMSIS/Include/core_cm4.h ****   @{
 804:lib/arm_atsam/packs/arm/cmsis/5.0.1/CMSIS/Include/core_cm4.h ****  */
 805:lib/arm_atsam/packs/arm/cmsis/5.0.1/CMSIS/Include/core_cm4.h **** 
 806:lib/arm_atsam/packs/arm/cmsis/5.0.1/CMSIS/Include/core_cm4.h **** /**
 807:lib/arm_atsam/packs/arm/cmsis/5.0.1/CMSIS/Include/core_cm4.h ****   \brief  Structure type to access the Instrumentation Trace Macrocell Register (ITM).
 808:lib/arm_atsam/packs/arm/cmsis/5.0.1/CMSIS/Include/core_cm4.h ****  */
 809:lib/arm_atsam/packs/arm/cmsis/5.0.1/CMSIS/Include/core_cm4.h **** typedef struct
 810:lib/arm_atsam/packs/arm/cmsis/5.0.1/CMSIS/Include/core_cm4.h **** {
 811:lib/arm_atsam/packs/arm/cmsis/5.0.1/CMSIS/Include/core_cm4.h ****   __OM  union
 812:lib/arm_atsam/packs/arm/cmsis/5.0.1/CMSIS/Include/core_cm4.h ****   {
 813:lib/arm_atsam/packs/arm/cmsis/5.0.1/CMSIS/Include/core_cm4.h ****     __OM  uint8_t    u8;                 /*!< Offset: 0x000 ( /W)  ITM Stimulus Port 8-bit */
 814:lib/arm_atsam/packs/arm/cmsis/5.0.1/CMSIS/Include/core_cm4.h ****     __OM  uint16_t   u16;                /*!< Offset: 0x000 ( /W)  ITM Stimulus Port 16-bit */
 815:lib/arm_atsam/packs/arm/cmsis/5.0.1/CMSIS/Include/core_cm4.h ****     __OM  uint32_t   u32;                /*!< Offset: 0x000 ( /W)  ITM Stimulus Port 32-bit */
 816:lib/arm_atsam/packs/arm/cmsis/5.0.1/CMSIS/Include/core_cm4.h ****   }  PORT [32U];                         /*!< Offset: 0x000 ( /W)  ITM Stimulus Port Registers */
 817:lib/arm_atsam/packs/arm/cmsis/5.0.1/CMSIS/Include/core_cm4.h ****         uint32_t RESERVED0[864U];
 818:lib/arm_atsam/packs/arm/cmsis/5.0.1/CMSIS/Include/core_cm4.h ****   __IOM uint32_t TER;                    /*!< Offset: 0xE00 (R/W)  ITM Trace Enable Register */
 819:lib/arm_atsam/packs/arm/cmsis/5.0.1/CMSIS/Include/core_cm4.h ****         uint32_t RESERVED1[15U];
 820:lib/arm_atsam/packs/arm/cmsis/5.0.1/CMSIS/Include/core_cm4.h ****   __IOM uint32_t TPR;                    /*!< Offset: 0xE40 (R/W)  ITM Trace Privilege Register */
 821:lib/arm_atsam/packs/arm/cmsis/5.0.1/CMSIS/Include/core_cm4.h ****         uint32_t RESERVED2[15U];
 822:lib/arm_atsam/packs/arm/cmsis/5.0.1/CMSIS/Include/core_cm4.h ****   __IOM uint32_t TCR;                    /*!< Offset: 0xE80 (R/W)  ITM Trace Control Register */
 823:lib/arm_atsam/packs/arm/cmsis/5.0.1/CMSIS/Include/core_cm4.h ****         uint32_t RESERVED3[29U];
 824:lib/arm_atsam/packs/arm/cmsis/5.0.1/CMSIS/Include/core_cm4.h ****   __OM  uint32_t IWR;                    /*!< Offset: 0xEF8 ( /W)  ITM Integration Write Register *
 825:lib/arm_atsam/packs/arm/cmsis/5.0.1/CMSIS/Include/core_cm4.h ****   __IM  uint32_t IRR;                    /*!< Offset: 0xEFC (R/ )  ITM Integration Read Register */
 826:lib/arm_atsam/packs/arm/cmsis/5.0.1/CMSIS/Include/core_cm4.h ****   __IOM uint32_t IMCR;                   /*!< Offset: 0xF00 (R/W)  ITM Integration Mode Control Reg
 827:lib/arm_atsam/packs/arm/cmsis/5.0.1/CMSIS/Include/core_cm4.h ****         uint32_t RESERVED4[43U];
 828:lib/arm_atsam/packs/arm/cmsis/5.0.1/CMSIS/Include/core_cm4.h ****   __OM  uint32_t LAR;                    /*!< Offset: 0xFB0 ( /W)  ITM Lock Access Register */
 829:lib/arm_atsam/packs/arm/cmsis/5.0.1/CMSIS/Include/core_cm4.h ****   __IM  uint32_t LSR;                    /*!< Offset: 0xFB4 (R/ )  ITM Lock Status Register */
 830:lib/arm_atsam/packs/arm/cmsis/5.0.1/CMSIS/Include/core_cm4.h ****         uint32_t RESERVED5[6U];
 831:lib/arm_atsam/packs/arm/cmsis/5.0.1/CMSIS/Include/core_cm4.h ****   __IM  uint32_t PID4;                   /*!< Offset: 0xFD0 (R/ )  ITM Peripheral Identification Re
 832:lib/arm_atsam/packs/arm/cmsis/5.0.1/CMSIS/Include/core_cm4.h ****   __IM  uint32_t PID5;                   /*!< Offset: 0xFD4 (R/ )  ITM Peripheral Identification Re
 833:lib/arm_atsam/packs/arm/cmsis/5.0.1/CMSIS/Include/core_cm4.h ****   __IM  uint32_t PID6;                   /*!< Offset: 0xFD8 (R/ )  ITM Peripheral Identification Re
 834:lib/arm_atsam/packs/arm/cmsis/5.0.1/CMSIS/Include/core_cm4.h ****   __IM  uint32_t PID7;                   /*!< Offset: 0xFDC (R/ )  ITM Peripheral Identification Re
 835:lib/arm_atsam/packs/arm/cmsis/5.0.1/CMSIS/Include/core_cm4.h ****   __IM  uint32_t PID0;                   /*!< Offset: 0xFE0 (R/ )  ITM Peripheral Identification Re
 836:lib/arm_atsam/packs/arm/cmsis/5.0.1/CMSIS/Include/core_cm4.h ****   __IM  uint32_t PID1;                   /*!< Offset: 0xFE4 (R/ )  ITM Peripheral Identification Re
 837:lib/arm_atsam/packs/arm/cmsis/5.0.1/CMSIS/Include/core_cm4.h ****   __IM  uint32_t PID2;                   /*!< Offset: 0xFE8 (R/ )  ITM Peripheral Identification Re
 838:lib/arm_atsam/packs/arm/cmsis/5.0.1/CMSIS/Include/core_cm4.h ****   __IM  uint32_t PID3;                   /*!< Offset: 0xFEC (R/ )  ITM Peripheral Identification Re
 839:lib/arm_atsam/packs/arm/cmsis/5.0.1/CMSIS/Include/core_cm4.h ****   __IM  uint32_t CID0;                   /*!< Offset: 0xFF0 (R/ )  ITM Component  Identification Re
 840:lib/arm_atsam/packs/arm/cmsis/5.0.1/CMSIS/Include/core_cm4.h ****   __IM  uint32_t CID1;                   /*!< Offset: 0xFF4 (R/ )  ITM Component  Identification Re
 841:lib/arm_atsam/packs/arm/cmsis/5.0.1/CMSIS/Include/core_cm4.h ****   __IM  uint32_t CID2;                   /*!< Offset: 0xFF8 (R/ )  ITM Component  Identification Re
 842:lib/arm_atsam/packs/arm/cmsis/5.0.1/CMSIS/Include/core_cm4.h ****   __IM  uint32_t CID3;                   /*!< Offset: 0xFFC (R/ )  ITM Component  Identification Re
 843:lib/arm_atsam/packs/arm/cmsis/5.0.1/CMSIS/Include/core_cm4.h **** } ITM_Type;
 844:lib/arm_atsam/packs/arm/cmsis/5.0.1/CMSIS/Include/core_cm4.h **** 
 845:lib/arm_atsam/packs/arm/cmsis/5.0.1/CMSIS/Include/core_cm4.h **** /* ITM Trace Privilege Register Definitions */
 846:lib/arm_atsam/packs/arm/cmsis/5.0.1/CMSIS/Include/core_cm4.h **** #define ITM_TPR_PRIVMASK_Pos                0U                                            /*!< ITM 
 847:lib/arm_atsam/packs/arm/cmsis/5.0.1/CMSIS/Include/core_cm4.h **** #define ITM_TPR_PRIVMASK_Msk               (0xFUL /*<< ITM_TPR_PRIVMASK_Pos*/)            /*!< ITM 
 848:lib/arm_atsam/packs/arm/cmsis/5.0.1/CMSIS/Include/core_cm4.h **** 
 849:lib/arm_atsam/packs/arm/cmsis/5.0.1/CMSIS/Include/core_cm4.h **** /* ITM Trace Control Register Definitions */
 850:lib/arm_atsam/packs/arm/cmsis/5.0.1/CMSIS/Include/core_cm4.h **** #define ITM_TCR_BUSY_Pos                   23U                                            /*!< ITM 
 851:lib/arm_atsam/packs/arm/cmsis/5.0.1/CMSIS/Include/core_cm4.h **** #define ITM_TCR_BUSY_Msk                   (1UL << ITM_TCR_BUSY_Pos)                      /*!< ITM 
 852:lib/arm_atsam/packs/arm/cmsis/5.0.1/CMSIS/Include/core_cm4.h **** 
 853:lib/arm_atsam/packs/arm/cmsis/5.0.1/CMSIS/Include/core_cm4.h **** #define ITM_TCR_TraceBusID_Pos             16U                                            /*!< ITM 
 854:lib/arm_atsam/packs/arm/cmsis/5.0.1/CMSIS/Include/core_cm4.h **** #define ITM_TCR_TraceBusID_Msk             (0x7FUL << ITM_TCR_TraceBusID_Pos)             /*!< ITM 
 855:lib/arm_atsam/packs/arm/cmsis/5.0.1/CMSIS/Include/core_cm4.h **** 
 856:lib/arm_atsam/packs/arm/cmsis/5.0.1/CMSIS/Include/core_cm4.h **** #define ITM_TCR_GTSFREQ_Pos                10U                                            /*!< ITM 
 857:lib/arm_atsam/packs/arm/cmsis/5.0.1/CMSIS/Include/core_cm4.h **** #define ITM_TCR_GTSFREQ_Msk                (3UL << ITM_TCR_GTSFREQ_Pos)                   /*!< ITM 
 858:lib/arm_atsam/packs/arm/cmsis/5.0.1/CMSIS/Include/core_cm4.h **** 
 859:lib/arm_atsam/packs/arm/cmsis/5.0.1/CMSIS/Include/core_cm4.h **** #define ITM_TCR_TSPrescale_Pos              8U                                            /*!< ITM 
 860:lib/arm_atsam/packs/arm/cmsis/5.0.1/CMSIS/Include/core_cm4.h **** #define ITM_TCR_TSPrescale_Msk             (3UL << ITM_TCR_TSPrescale_Pos)                /*!< ITM 
 861:lib/arm_atsam/packs/arm/cmsis/5.0.1/CMSIS/Include/core_cm4.h **** 
 862:lib/arm_atsam/packs/arm/cmsis/5.0.1/CMSIS/Include/core_cm4.h **** #define ITM_TCR_SWOENA_Pos                  4U                                            /*!< ITM 
 863:lib/arm_atsam/packs/arm/cmsis/5.0.1/CMSIS/Include/core_cm4.h **** #define ITM_TCR_SWOENA_Msk                 (1UL << ITM_TCR_SWOENA_Pos)                    /*!< ITM 
 864:lib/arm_atsam/packs/arm/cmsis/5.0.1/CMSIS/Include/core_cm4.h **** 
 865:lib/arm_atsam/packs/arm/cmsis/5.0.1/CMSIS/Include/core_cm4.h **** #define ITM_TCR_DWTENA_Pos                  3U                                            /*!< ITM 
 866:lib/arm_atsam/packs/arm/cmsis/5.0.1/CMSIS/Include/core_cm4.h **** #define ITM_TCR_DWTENA_Msk                 (1UL << ITM_TCR_DWTENA_Pos)                    /*!< ITM 
 867:lib/arm_atsam/packs/arm/cmsis/5.0.1/CMSIS/Include/core_cm4.h **** 
 868:lib/arm_atsam/packs/arm/cmsis/5.0.1/CMSIS/Include/core_cm4.h **** #define ITM_TCR_SYNCENA_Pos                 2U                                            /*!< ITM 
 869:lib/arm_atsam/packs/arm/cmsis/5.0.1/CMSIS/Include/core_cm4.h **** #define ITM_TCR_SYNCENA_Msk                (1UL << ITM_TCR_SYNCENA_Pos)                   /*!< ITM 
 870:lib/arm_atsam/packs/arm/cmsis/5.0.1/CMSIS/Include/core_cm4.h **** 
 871:lib/arm_atsam/packs/arm/cmsis/5.0.1/CMSIS/Include/core_cm4.h **** #define ITM_TCR_TSENA_Pos                   1U                                            /*!< ITM 
 872:lib/arm_atsam/packs/arm/cmsis/5.0.1/CMSIS/Include/core_cm4.h **** #define ITM_TCR_TSENA_Msk                  (1UL << ITM_TCR_TSENA_Pos)                     /*!< ITM 
 873:lib/arm_atsam/packs/arm/cmsis/5.0.1/CMSIS/Include/core_cm4.h **** 
 874:lib/arm_atsam/packs/arm/cmsis/5.0.1/CMSIS/Include/core_cm4.h **** #define ITM_TCR_ITMENA_Pos                  0U                                            /*!< ITM 
 875:lib/arm_atsam/packs/arm/cmsis/5.0.1/CMSIS/Include/core_cm4.h **** #define ITM_TCR_ITMENA_Msk                 (1UL /*<< ITM_TCR_ITMENA_Pos*/)                /*!< ITM 
 876:lib/arm_atsam/packs/arm/cmsis/5.0.1/CMSIS/Include/core_cm4.h **** 
 877:lib/arm_atsam/packs/arm/cmsis/5.0.1/CMSIS/Include/core_cm4.h **** /* ITM Integration Write Register Definitions */
 878:lib/arm_atsam/packs/arm/cmsis/5.0.1/CMSIS/Include/core_cm4.h **** #define ITM_IWR_ATVALIDM_Pos                0U                                            /*!< ITM 
 879:lib/arm_atsam/packs/arm/cmsis/5.0.1/CMSIS/Include/core_cm4.h **** #define ITM_IWR_ATVALIDM_Msk               (1UL /*<< ITM_IWR_ATVALIDM_Pos*/)              /*!< ITM 
 880:lib/arm_atsam/packs/arm/cmsis/5.0.1/CMSIS/Include/core_cm4.h **** 
 881:lib/arm_atsam/packs/arm/cmsis/5.0.1/CMSIS/Include/core_cm4.h **** /* ITM Integration Read Register Definitions */
 882:lib/arm_atsam/packs/arm/cmsis/5.0.1/CMSIS/Include/core_cm4.h **** #define ITM_IRR_ATREADYM_Pos                0U                                            /*!< ITM 
 883:lib/arm_atsam/packs/arm/cmsis/5.0.1/CMSIS/Include/core_cm4.h **** #define ITM_IRR_ATREADYM_Msk               (1UL /*<< ITM_IRR_ATREADYM_Pos*/)              /*!< ITM 
 884:lib/arm_atsam/packs/arm/cmsis/5.0.1/CMSIS/Include/core_cm4.h **** 
 885:lib/arm_atsam/packs/arm/cmsis/5.0.1/CMSIS/Include/core_cm4.h **** /* ITM Integration Mode Control Register Definitions */
 886:lib/arm_atsam/packs/arm/cmsis/5.0.1/CMSIS/Include/core_cm4.h **** #define ITM_IMCR_INTEGRATION_Pos            0U                                            /*!< ITM 
 887:lib/arm_atsam/packs/arm/cmsis/5.0.1/CMSIS/Include/core_cm4.h **** #define ITM_IMCR_INTEGRATION_Msk           (1UL /*<< ITM_IMCR_INTEGRATION_Pos*/)          /*!< ITM 
 888:lib/arm_atsam/packs/arm/cmsis/5.0.1/CMSIS/Include/core_cm4.h **** 
 889:lib/arm_atsam/packs/arm/cmsis/5.0.1/CMSIS/Include/core_cm4.h **** /* ITM Lock Status Register Definitions */
 890:lib/arm_atsam/packs/arm/cmsis/5.0.1/CMSIS/Include/core_cm4.h **** #define ITM_LSR_ByteAcc_Pos                 2U                                            /*!< ITM 
 891:lib/arm_atsam/packs/arm/cmsis/5.0.1/CMSIS/Include/core_cm4.h **** #define ITM_LSR_ByteAcc_Msk                (1UL << ITM_LSR_ByteAcc_Pos)                   /*!< ITM 
 892:lib/arm_atsam/packs/arm/cmsis/5.0.1/CMSIS/Include/core_cm4.h **** 
 893:lib/arm_atsam/packs/arm/cmsis/5.0.1/CMSIS/Include/core_cm4.h **** #define ITM_LSR_Access_Pos                  1U                                            /*!< ITM 
 894:lib/arm_atsam/packs/arm/cmsis/5.0.1/CMSIS/Include/core_cm4.h **** #define ITM_LSR_Access_Msk                 (1UL << ITM_LSR_Access_Pos)                    /*!< ITM 
 895:lib/arm_atsam/packs/arm/cmsis/5.0.1/CMSIS/Include/core_cm4.h **** 
 896:lib/arm_atsam/packs/arm/cmsis/5.0.1/CMSIS/Include/core_cm4.h **** #define ITM_LSR_Present_Pos                 0U                                            /*!< ITM 
 897:lib/arm_atsam/packs/arm/cmsis/5.0.1/CMSIS/Include/core_cm4.h **** #define ITM_LSR_Present_Msk                (1UL /*<< ITM_LSR_Present_Pos*/)               /*!< ITM 
 898:lib/arm_atsam/packs/arm/cmsis/5.0.1/CMSIS/Include/core_cm4.h **** 
 899:lib/arm_atsam/packs/arm/cmsis/5.0.1/CMSIS/Include/core_cm4.h **** /*@}*/ /* end of group CMSIS_ITM */
 900:lib/arm_atsam/packs/arm/cmsis/5.0.1/CMSIS/Include/core_cm4.h **** 
 901:lib/arm_atsam/packs/arm/cmsis/5.0.1/CMSIS/Include/core_cm4.h **** 
 902:lib/arm_atsam/packs/arm/cmsis/5.0.1/CMSIS/Include/core_cm4.h **** /**
 903:lib/arm_atsam/packs/arm/cmsis/5.0.1/CMSIS/Include/core_cm4.h ****   \ingroup  CMSIS_core_register
 904:lib/arm_atsam/packs/arm/cmsis/5.0.1/CMSIS/Include/core_cm4.h ****   \defgroup CMSIS_DWT     Data Watchpoint and Trace (DWT)
 905:lib/arm_atsam/packs/arm/cmsis/5.0.1/CMSIS/Include/core_cm4.h ****   \brief    Type definitions for the Data Watchpoint and Trace (DWT)
 906:lib/arm_atsam/packs/arm/cmsis/5.0.1/CMSIS/Include/core_cm4.h ****   @{
 907:lib/arm_atsam/packs/arm/cmsis/5.0.1/CMSIS/Include/core_cm4.h ****  */
 908:lib/arm_atsam/packs/arm/cmsis/5.0.1/CMSIS/Include/core_cm4.h **** 
 909:lib/arm_atsam/packs/arm/cmsis/5.0.1/CMSIS/Include/core_cm4.h **** /**
 910:lib/arm_atsam/packs/arm/cmsis/5.0.1/CMSIS/Include/core_cm4.h ****   \brief  Structure type to access the Data Watchpoint and Trace Register (DWT).
 911:lib/arm_atsam/packs/arm/cmsis/5.0.1/CMSIS/Include/core_cm4.h ****  */
 912:lib/arm_atsam/packs/arm/cmsis/5.0.1/CMSIS/Include/core_cm4.h **** typedef struct
 913:lib/arm_atsam/packs/arm/cmsis/5.0.1/CMSIS/Include/core_cm4.h **** {
 914:lib/arm_atsam/packs/arm/cmsis/5.0.1/CMSIS/Include/core_cm4.h ****   __IOM uint32_t CTRL;                   /*!< Offset: 0x000 (R/W)  Control Register */
 915:lib/arm_atsam/packs/arm/cmsis/5.0.1/CMSIS/Include/core_cm4.h ****   __IOM uint32_t CYCCNT;                 /*!< Offset: 0x004 (R/W)  Cycle Count Register */
 916:lib/arm_atsam/packs/arm/cmsis/5.0.1/CMSIS/Include/core_cm4.h ****   __IOM uint32_t CPICNT;                 /*!< Offset: 0x008 (R/W)  CPI Count Register */
 917:lib/arm_atsam/packs/arm/cmsis/5.0.1/CMSIS/Include/core_cm4.h ****   __IOM uint32_t EXCCNT;                 /*!< Offset: 0x00C (R/W)  Exception Overhead Count Registe
 918:lib/arm_atsam/packs/arm/cmsis/5.0.1/CMSIS/Include/core_cm4.h ****   __IOM uint32_t SLEEPCNT;               /*!< Offset: 0x010 (R/W)  Sleep Count Register */
 919:lib/arm_atsam/packs/arm/cmsis/5.0.1/CMSIS/Include/core_cm4.h ****   __IOM uint32_t LSUCNT;                 /*!< Offset: 0x014 (R/W)  LSU Count Register */
 920:lib/arm_atsam/packs/arm/cmsis/5.0.1/CMSIS/Include/core_cm4.h ****   __IOM uint32_t FOLDCNT;                /*!< Offset: 0x018 (R/W)  Folded-instruction Count Registe
 921:lib/arm_atsam/packs/arm/cmsis/5.0.1/CMSIS/Include/core_cm4.h ****   __IM  uint32_t PCSR;                   /*!< Offset: 0x01C (R/ )  Program Counter Sample Register 
 922:lib/arm_atsam/packs/arm/cmsis/5.0.1/CMSIS/Include/core_cm4.h ****   __IOM uint32_t COMP0;                  /*!< Offset: 0x020 (R/W)  Comparator Register 0 */
 923:lib/arm_atsam/packs/arm/cmsis/5.0.1/CMSIS/Include/core_cm4.h ****   __IOM uint32_t MASK0;                  /*!< Offset: 0x024 (R/W)  Mask Register 0 */
 924:lib/arm_atsam/packs/arm/cmsis/5.0.1/CMSIS/Include/core_cm4.h ****   __IOM uint32_t FUNCTION0;              /*!< Offset: 0x028 (R/W)  Function Register 0 */
 925:lib/arm_atsam/packs/arm/cmsis/5.0.1/CMSIS/Include/core_cm4.h ****         uint32_t RESERVED0[1U];
 926:lib/arm_atsam/packs/arm/cmsis/5.0.1/CMSIS/Include/core_cm4.h ****   __IOM uint32_t COMP1;                  /*!< Offset: 0x030 (R/W)  Comparator Register 1 */
 927:lib/arm_atsam/packs/arm/cmsis/5.0.1/CMSIS/Include/core_cm4.h ****   __IOM uint32_t MASK1;                  /*!< Offset: 0x034 (R/W)  Mask Register 1 */
 928:lib/arm_atsam/packs/arm/cmsis/5.0.1/CMSIS/Include/core_cm4.h ****   __IOM uint32_t FUNCTION1;              /*!< Offset: 0x038 (R/W)  Function Register 1 */
 929:lib/arm_atsam/packs/arm/cmsis/5.0.1/CMSIS/Include/core_cm4.h ****         uint32_t RESERVED1[1U];
 930:lib/arm_atsam/packs/arm/cmsis/5.0.1/CMSIS/Include/core_cm4.h ****   __IOM uint32_t COMP2;                  /*!< Offset: 0x040 (R/W)  Comparator Register 2 */
 931:lib/arm_atsam/packs/arm/cmsis/5.0.1/CMSIS/Include/core_cm4.h ****   __IOM uint32_t MASK2;                  /*!< Offset: 0x044 (R/W)  Mask Register 2 */
 932:lib/arm_atsam/packs/arm/cmsis/5.0.1/CMSIS/Include/core_cm4.h ****   __IOM uint32_t FUNCTION2;              /*!< Offset: 0x048 (R/W)  Function Register 2 */
 933:lib/arm_atsam/packs/arm/cmsis/5.0.1/CMSIS/Include/core_cm4.h ****         uint32_t RESERVED2[1U];
 934:lib/arm_atsam/packs/arm/cmsis/5.0.1/CMSIS/Include/core_cm4.h ****   __IOM uint32_t COMP3;                  /*!< Offset: 0x050 (R/W)  Comparator Register 3 */
 935:lib/arm_atsam/packs/arm/cmsis/5.0.1/CMSIS/Include/core_cm4.h ****   __IOM uint32_t MASK3;                  /*!< Offset: 0x054 (R/W)  Mask Register 3 */
 936:lib/arm_atsam/packs/arm/cmsis/5.0.1/CMSIS/Include/core_cm4.h ****   __IOM uint32_t FUNCTION3;              /*!< Offset: 0x058 (R/W)  Function Register 3 */
 937:lib/arm_atsam/packs/arm/cmsis/5.0.1/CMSIS/Include/core_cm4.h **** } DWT_Type;
 938:lib/arm_atsam/packs/arm/cmsis/5.0.1/CMSIS/Include/core_cm4.h **** 
 939:lib/arm_atsam/packs/arm/cmsis/5.0.1/CMSIS/Include/core_cm4.h **** /* DWT Control Register Definitions */
 940:lib/arm_atsam/packs/arm/cmsis/5.0.1/CMSIS/Include/core_cm4.h **** #define DWT_CTRL_NUMCOMP_Pos               28U                                         /*!< DWT CTR
 941:lib/arm_atsam/packs/arm/cmsis/5.0.1/CMSIS/Include/core_cm4.h **** #define DWT_CTRL_NUMCOMP_Msk               (0xFUL << DWT_CTRL_NUMCOMP_Pos)             /*!< DWT CTR
 942:lib/arm_atsam/packs/arm/cmsis/5.0.1/CMSIS/Include/core_cm4.h **** 
 943:lib/arm_atsam/packs/arm/cmsis/5.0.1/CMSIS/Include/core_cm4.h **** #define DWT_CTRL_NOTRCPKT_Pos              27U                                         /*!< DWT CTR
 944:lib/arm_atsam/packs/arm/cmsis/5.0.1/CMSIS/Include/core_cm4.h **** #define DWT_CTRL_NOTRCPKT_Msk              (0x1UL << DWT_CTRL_NOTRCPKT_Pos)            /*!< DWT CTR
 945:lib/arm_atsam/packs/arm/cmsis/5.0.1/CMSIS/Include/core_cm4.h **** 
 946:lib/arm_atsam/packs/arm/cmsis/5.0.1/CMSIS/Include/core_cm4.h **** #define DWT_CTRL_NOEXTTRIG_Pos             26U                                         /*!< DWT CTR
 947:lib/arm_atsam/packs/arm/cmsis/5.0.1/CMSIS/Include/core_cm4.h **** #define DWT_CTRL_NOEXTTRIG_Msk             (0x1UL << DWT_CTRL_NOEXTTRIG_Pos)           /*!< DWT CTR
 948:lib/arm_atsam/packs/arm/cmsis/5.0.1/CMSIS/Include/core_cm4.h **** 
 949:lib/arm_atsam/packs/arm/cmsis/5.0.1/CMSIS/Include/core_cm4.h **** #define DWT_CTRL_NOCYCCNT_Pos              25U                                         /*!< DWT CTR
 950:lib/arm_atsam/packs/arm/cmsis/5.0.1/CMSIS/Include/core_cm4.h **** #define DWT_CTRL_NOCYCCNT_Msk              (0x1UL << DWT_CTRL_NOCYCCNT_Pos)            /*!< DWT CTR
 951:lib/arm_atsam/packs/arm/cmsis/5.0.1/CMSIS/Include/core_cm4.h **** 
 952:lib/arm_atsam/packs/arm/cmsis/5.0.1/CMSIS/Include/core_cm4.h **** #define DWT_CTRL_NOPRFCNT_Pos              24U                                         /*!< DWT CTR
 953:lib/arm_atsam/packs/arm/cmsis/5.0.1/CMSIS/Include/core_cm4.h **** #define DWT_CTRL_NOPRFCNT_Msk              (0x1UL << DWT_CTRL_NOPRFCNT_Pos)            /*!< DWT CTR
 954:lib/arm_atsam/packs/arm/cmsis/5.0.1/CMSIS/Include/core_cm4.h **** 
 955:lib/arm_atsam/packs/arm/cmsis/5.0.1/CMSIS/Include/core_cm4.h **** #define DWT_CTRL_CYCEVTENA_Pos             22U                                         /*!< DWT CTR
 956:lib/arm_atsam/packs/arm/cmsis/5.0.1/CMSIS/Include/core_cm4.h **** #define DWT_CTRL_CYCEVTENA_Msk             (0x1UL << DWT_CTRL_CYCEVTENA_Pos)           /*!< DWT CTR
 957:lib/arm_atsam/packs/arm/cmsis/5.0.1/CMSIS/Include/core_cm4.h **** 
 958:lib/arm_atsam/packs/arm/cmsis/5.0.1/CMSIS/Include/core_cm4.h **** #define DWT_CTRL_FOLDEVTENA_Pos            21U                                         /*!< DWT CTR
 959:lib/arm_atsam/packs/arm/cmsis/5.0.1/CMSIS/Include/core_cm4.h **** #define DWT_CTRL_FOLDEVTENA_Msk            (0x1UL << DWT_CTRL_FOLDEVTENA_Pos)          /*!< DWT CTR
 960:lib/arm_atsam/packs/arm/cmsis/5.0.1/CMSIS/Include/core_cm4.h **** 
 961:lib/arm_atsam/packs/arm/cmsis/5.0.1/CMSIS/Include/core_cm4.h **** #define DWT_CTRL_LSUEVTENA_Pos             20U                                         /*!< DWT CTR
 962:lib/arm_atsam/packs/arm/cmsis/5.0.1/CMSIS/Include/core_cm4.h **** #define DWT_CTRL_LSUEVTENA_Msk             (0x1UL << DWT_CTRL_LSUEVTENA_Pos)           /*!< DWT CTR
 963:lib/arm_atsam/packs/arm/cmsis/5.0.1/CMSIS/Include/core_cm4.h **** 
 964:lib/arm_atsam/packs/arm/cmsis/5.0.1/CMSIS/Include/core_cm4.h **** #define DWT_CTRL_SLEEPEVTENA_Pos           19U                                         /*!< DWT CTR
 965:lib/arm_atsam/packs/arm/cmsis/5.0.1/CMSIS/Include/core_cm4.h **** #define DWT_CTRL_SLEEPEVTENA_Msk           (0x1UL << DWT_CTRL_SLEEPEVTENA_Pos)         /*!< DWT CTR
 966:lib/arm_atsam/packs/arm/cmsis/5.0.1/CMSIS/Include/core_cm4.h **** 
 967:lib/arm_atsam/packs/arm/cmsis/5.0.1/CMSIS/Include/core_cm4.h **** #define DWT_CTRL_EXCEVTENA_Pos             18U                                         /*!< DWT CTR
 968:lib/arm_atsam/packs/arm/cmsis/5.0.1/CMSIS/Include/core_cm4.h **** #define DWT_CTRL_EXCEVTENA_Msk             (0x1UL << DWT_CTRL_EXCEVTENA_Pos)           /*!< DWT CTR
 969:lib/arm_atsam/packs/arm/cmsis/5.0.1/CMSIS/Include/core_cm4.h **** 
 970:lib/arm_atsam/packs/arm/cmsis/5.0.1/CMSIS/Include/core_cm4.h **** #define DWT_CTRL_CPIEVTENA_Pos             17U                                         /*!< DWT CTR
 971:lib/arm_atsam/packs/arm/cmsis/5.0.1/CMSIS/Include/core_cm4.h **** #define DWT_CTRL_CPIEVTENA_Msk             (0x1UL << DWT_CTRL_CPIEVTENA_Pos)           /*!< DWT CTR
 972:lib/arm_atsam/packs/arm/cmsis/5.0.1/CMSIS/Include/core_cm4.h **** 
 973:lib/arm_atsam/packs/arm/cmsis/5.0.1/CMSIS/Include/core_cm4.h **** #define DWT_CTRL_EXCTRCENA_Pos             16U                                         /*!< DWT CTR
 974:lib/arm_atsam/packs/arm/cmsis/5.0.1/CMSIS/Include/core_cm4.h **** #define DWT_CTRL_EXCTRCENA_Msk             (0x1UL << DWT_CTRL_EXCTRCENA_Pos)           /*!< DWT CTR
 975:lib/arm_atsam/packs/arm/cmsis/5.0.1/CMSIS/Include/core_cm4.h **** 
 976:lib/arm_atsam/packs/arm/cmsis/5.0.1/CMSIS/Include/core_cm4.h **** #define DWT_CTRL_PCSAMPLENA_Pos            12U                                         /*!< DWT CTR
 977:lib/arm_atsam/packs/arm/cmsis/5.0.1/CMSIS/Include/core_cm4.h **** #define DWT_CTRL_PCSAMPLENA_Msk            (0x1UL << DWT_CTRL_PCSAMPLENA_Pos)          /*!< DWT CTR
 978:lib/arm_atsam/packs/arm/cmsis/5.0.1/CMSIS/Include/core_cm4.h **** 
 979:lib/arm_atsam/packs/arm/cmsis/5.0.1/CMSIS/Include/core_cm4.h **** #define DWT_CTRL_SYNCTAP_Pos               10U                                         /*!< DWT CTR
 980:lib/arm_atsam/packs/arm/cmsis/5.0.1/CMSIS/Include/core_cm4.h **** #define DWT_CTRL_SYNCTAP_Msk               (0x3UL << DWT_CTRL_SYNCTAP_Pos)             /*!< DWT CTR
 981:lib/arm_atsam/packs/arm/cmsis/5.0.1/CMSIS/Include/core_cm4.h **** 
 982:lib/arm_atsam/packs/arm/cmsis/5.0.1/CMSIS/Include/core_cm4.h **** #define DWT_CTRL_CYCTAP_Pos                 9U                                         /*!< DWT CTR
 983:lib/arm_atsam/packs/arm/cmsis/5.0.1/CMSIS/Include/core_cm4.h **** #define DWT_CTRL_CYCTAP_Msk                (0x1UL << DWT_CTRL_CYCTAP_Pos)              /*!< DWT CTR
 984:lib/arm_atsam/packs/arm/cmsis/5.0.1/CMSIS/Include/core_cm4.h **** 
 985:lib/arm_atsam/packs/arm/cmsis/5.0.1/CMSIS/Include/core_cm4.h **** #define DWT_CTRL_POSTINIT_Pos               5U                                         /*!< DWT CTR
 986:lib/arm_atsam/packs/arm/cmsis/5.0.1/CMSIS/Include/core_cm4.h **** #define DWT_CTRL_POSTINIT_Msk              (0xFUL << DWT_CTRL_POSTINIT_Pos)            /*!< DWT CTR
 987:lib/arm_atsam/packs/arm/cmsis/5.0.1/CMSIS/Include/core_cm4.h **** 
 988:lib/arm_atsam/packs/arm/cmsis/5.0.1/CMSIS/Include/core_cm4.h **** #define DWT_CTRL_POSTPRESET_Pos             1U                                         /*!< DWT CTR
 989:lib/arm_atsam/packs/arm/cmsis/5.0.1/CMSIS/Include/core_cm4.h **** #define DWT_CTRL_POSTPRESET_Msk            (0xFUL << DWT_CTRL_POSTPRESET_Pos)          /*!< DWT CTR
 990:lib/arm_atsam/packs/arm/cmsis/5.0.1/CMSIS/Include/core_cm4.h **** 
 991:lib/arm_atsam/packs/arm/cmsis/5.0.1/CMSIS/Include/core_cm4.h **** #define DWT_CTRL_CYCCNTENA_Pos              0U                                         /*!< DWT CTR
 992:lib/arm_atsam/packs/arm/cmsis/5.0.1/CMSIS/Include/core_cm4.h **** #define DWT_CTRL_CYCCNTENA_Msk             (0x1UL /*<< DWT_CTRL_CYCCNTENA_Pos*/)       /*!< DWT CTR
 993:lib/arm_atsam/packs/arm/cmsis/5.0.1/CMSIS/Include/core_cm4.h **** 
 994:lib/arm_atsam/packs/arm/cmsis/5.0.1/CMSIS/Include/core_cm4.h **** /* DWT CPI Count Register Definitions */
 995:lib/arm_atsam/packs/arm/cmsis/5.0.1/CMSIS/Include/core_cm4.h **** #define DWT_CPICNT_CPICNT_Pos               0U                                         /*!< DWT CPI
 996:lib/arm_atsam/packs/arm/cmsis/5.0.1/CMSIS/Include/core_cm4.h **** #define DWT_CPICNT_CPICNT_Msk              (0xFFUL /*<< DWT_CPICNT_CPICNT_Pos*/)       /*!< DWT CPI
 997:lib/arm_atsam/packs/arm/cmsis/5.0.1/CMSIS/Include/core_cm4.h **** 
 998:lib/arm_atsam/packs/arm/cmsis/5.0.1/CMSIS/Include/core_cm4.h **** /* DWT Exception Overhead Count Register Definitions */
 999:lib/arm_atsam/packs/arm/cmsis/5.0.1/CMSIS/Include/core_cm4.h **** #define DWT_EXCCNT_EXCCNT_Pos               0U                                         /*!< DWT EXC
1000:lib/arm_atsam/packs/arm/cmsis/5.0.1/CMSIS/Include/core_cm4.h **** #define DWT_EXCCNT_EXCCNT_Msk              (0xFFUL /*<< DWT_EXCCNT_EXCCNT_Pos*/)       /*!< DWT EXC
1001:lib/arm_atsam/packs/arm/cmsis/5.0.1/CMSIS/Include/core_cm4.h **** 
1002:lib/arm_atsam/packs/arm/cmsis/5.0.1/CMSIS/Include/core_cm4.h **** /* DWT Sleep Count Register Definitions */
1003:lib/arm_atsam/packs/arm/cmsis/5.0.1/CMSIS/Include/core_cm4.h **** #define DWT_SLEEPCNT_SLEEPCNT_Pos           0U                                         /*!< DWT SLE
1004:lib/arm_atsam/packs/arm/cmsis/5.0.1/CMSIS/Include/core_cm4.h **** #define DWT_SLEEPCNT_SLEEPCNT_Msk          (0xFFUL /*<< DWT_SLEEPCNT_SLEEPCNT_Pos*/)   /*!< DWT SLE
1005:lib/arm_atsam/packs/arm/cmsis/5.0.1/CMSIS/Include/core_cm4.h **** 
1006:lib/arm_atsam/packs/arm/cmsis/5.0.1/CMSIS/Include/core_cm4.h **** /* DWT LSU Count Register Definitions */
1007:lib/arm_atsam/packs/arm/cmsis/5.0.1/CMSIS/Include/core_cm4.h **** #define DWT_LSUCNT_LSUCNT_Pos               0U                                         /*!< DWT LSU
1008:lib/arm_atsam/packs/arm/cmsis/5.0.1/CMSIS/Include/core_cm4.h **** #define DWT_LSUCNT_LSUCNT_Msk              (0xFFUL /*<< DWT_LSUCNT_LSUCNT_Pos*/)       /*!< DWT LSU
1009:lib/arm_atsam/packs/arm/cmsis/5.0.1/CMSIS/Include/core_cm4.h **** 
1010:lib/arm_atsam/packs/arm/cmsis/5.0.1/CMSIS/Include/core_cm4.h **** /* DWT Folded-instruction Count Register Definitions */
1011:lib/arm_atsam/packs/arm/cmsis/5.0.1/CMSIS/Include/core_cm4.h **** #define DWT_FOLDCNT_FOLDCNT_Pos             0U                                         /*!< DWT FOL
1012:lib/arm_atsam/packs/arm/cmsis/5.0.1/CMSIS/Include/core_cm4.h **** #define DWT_FOLDCNT_FOLDCNT_Msk            (0xFFUL /*<< DWT_FOLDCNT_FOLDCNT_Pos*/)     /*!< DWT FOL
1013:lib/arm_atsam/packs/arm/cmsis/5.0.1/CMSIS/Include/core_cm4.h **** 
1014:lib/arm_atsam/packs/arm/cmsis/5.0.1/CMSIS/Include/core_cm4.h **** /* DWT Comparator Mask Register Definitions */
1015:lib/arm_atsam/packs/arm/cmsis/5.0.1/CMSIS/Include/core_cm4.h **** #define DWT_MASK_MASK_Pos                   0U                                         /*!< DWT MAS
1016:lib/arm_atsam/packs/arm/cmsis/5.0.1/CMSIS/Include/core_cm4.h **** #define DWT_MASK_MASK_Msk                  (0x1FUL /*<< DWT_MASK_MASK_Pos*/)           /*!< DWT MAS
1017:lib/arm_atsam/packs/arm/cmsis/5.0.1/CMSIS/Include/core_cm4.h **** 
1018:lib/arm_atsam/packs/arm/cmsis/5.0.1/CMSIS/Include/core_cm4.h **** /* DWT Comparator Function Register Definitions */
1019:lib/arm_atsam/packs/arm/cmsis/5.0.1/CMSIS/Include/core_cm4.h **** #define DWT_FUNCTION_MATCHED_Pos           24U                                         /*!< DWT FUN
1020:lib/arm_atsam/packs/arm/cmsis/5.0.1/CMSIS/Include/core_cm4.h **** #define DWT_FUNCTION_MATCHED_Msk           (0x1UL << DWT_FUNCTION_MATCHED_Pos)         /*!< DWT FUN
1021:lib/arm_atsam/packs/arm/cmsis/5.0.1/CMSIS/Include/core_cm4.h **** 
1022:lib/arm_atsam/packs/arm/cmsis/5.0.1/CMSIS/Include/core_cm4.h **** #define DWT_FUNCTION_DATAVADDR1_Pos        16U                                         /*!< DWT FUN
1023:lib/arm_atsam/packs/arm/cmsis/5.0.1/CMSIS/Include/core_cm4.h **** #define DWT_FUNCTION_DATAVADDR1_Msk        (0xFUL << DWT_FUNCTION_DATAVADDR1_Pos)      /*!< DWT FUN
1024:lib/arm_atsam/packs/arm/cmsis/5.0.1/CMSIS/Include/core_cm4.h **** 
1025:lib/arm_atsam/packs/arm/cmsis/5.0.1/CMSIS/Include/core_cm4.h **** #define DWT_FUNCTION_DATAVADDR0_Pos        12U                                         /*!< DWT FUN
1026:lib/arm_atsam/packs/arm/cmsis/5.0.1/CMSIS/Include/core_cm4.h **** #define DWT_FUNCTION_DATAVADDR0_Msk        (0xFUL << DWT_FUNCTION_DATAVADDR0_Pos)      /*!< DWT FUN
1027:lib/arm_atsam/packs/arm/cmsis/5.0.1/CMSIS/Include/core_cm4.h **** 
1028:lib/arm_atsam/packs/arm/cmsis/5.0.1/CMSIS/Include/core_cm4.h **** #define DWT_FUNCTION_DATAVSIZE_Pos         10U                                         /*!< DWT FUN
1029:lib/arm_atsam/packs/arm/cmsis/5.0.1/CMSIS/Include/core_cm4.h **** #define DWT_FUNCTION_DATAVSIZE_Msk         (0x3UL << DWT_FUNCTION_DATAVSIZE_Pos)       /*!< DWT FUN
1030:lib/arm_atsam/packs/arm/cmsis/5.0.1/CMSIS/Include/core_cm4.h **** 
1031:lib/arm_atsam/packs/arm/cmsis/5.0.1/CMSIS/Include/core_cm4.h **** #define DWT_FUNCTION_LNK1ENA_Pos            9U                                         /*!< DWT FUN
1032:lib/arm_atsam/packs/arm/cmsis/5.0.1/CMSIS/Include/core_cm4.h **** #define DWT_FUNCTION_LNK1ENA_Msk           (0x1UL << DWT_FUNCTION_LNK1ENA_Pos)         /*!< DWT FUN
1033:lib/arm_atsam/packs/arm/cmsis/5.0.1/CMSIS/Include/core_cm4.h **** 
1034:lib/arm_atsam/packs/arm/cmsis/5.0.1/CMSIS/Include/core_cm4.h **** #define DWT_FUNCTION_DATAVMATCH_Pos         8U                                         /*!< DWT FUN
1035:lib/arm_atsam/packs/arm/cmsis/5.0.1/CMSIS/Include/core_cm4.h **** #define DWT_FUNCTION_DATAVMATCH_Msk        (0x1UL << DWT_FUNCTION_DATAVMATCH_Pos)      /*!< DWT FUN
1036:lib/arm_atsam/packs/arm/cmsis/5.0.1/CMSIS/Include/core_cm4.h **** 
1037:lib/arm_atsam/packs/arm/cmsis/5.0.1/CMSIS/Include/core_cm4.h **** #define DWT_FUNCTION_CYCMATCH_Pos           7U                                         /*!< DWT FUN
1038:lib/arm_atsam/packs/arm/cmsis/5.0.1/CMSIS/Include/core_cm4.h **** #define DWT_FUNCTION_CYCMATCH_Msk          (0x1UL << DWT_FUNCTION_CYCMATCH_Pos)        /*!< DWT FUN
1039:lib/arm_atsam/packs/arm/cmsis/5.0.1/CMSIS/Include/core_cm4.h **** 
1040:lib/arm_atsam/packs/arm/cmsis/5.0.1/CMSIS/Include/core_cm4.h **** #define DWT_FUNCTION_EMITRANGE_Pos          5U                                         /*!< DWT FUN
1041:lib/arm_atsam/packs/arm/cmsis/5.0.1/CMSIS/Include/core_cm4.h **** #define DWT_FUNCTION_EMITRANGE_Msk         (0x1UL << DWT_FUNCTION_EMITRANGE_Pos)       /*!< DWT FUN
1042:lib/arm_atsam/packs/arm/cmsis/5.0.1/CMSIS/Include/core_cm4.h **** 
1043:lib/arm_atsam/packs/arm/cmsis/5.0.1/CMSIS/Include/core_cm4.h **** #define DWT_FUNCTION_FUNCTION_Pos           0U                                         /*!< DWT FUN
1044:lib/arm_atsam/packs/arm/cmsis/5.0.1/CMSIS/Include/core_cm4.h **** #define DWT_FUNCTION_FUNCTION_Msk          (0xFUL /*<< DWT_FUNCTION_FUNCTION_Pos*/)    /*!< DWT FUN
1045:lib/arm_atsam/packs/arm/cmsis/5.0.1/CMSIS/Include/core_cm4.h **** 
1046:lib/arm_atsam/packs/arm/cmsis/5.0.1/CMSIS/Include/core_cm4.h **** /*@}*/ /* end of group CMSIS_DWT */
1047:lib/arm_atsam/packs/arm/cmsis/5.0.1/CMSIS/Include/core_cm4.h **** 
1048:lib/arm_atsam/packs/arm/cmsis/5.0.1/CMSIS/Include/core_cm4.h **** 
1049:lib/arm_atsam/packs/arm/cmsis/5.0.1/CMSIS/Include/core_cm4.h **** /**
1050:lib/arm_atsam/packs/arm/cmsis/5.0.1/CMSIS/Include/core_cm4.h ****   \ingroup  CMSIS_core_register
1051:lib/arm_atsam/packs/arm/cmsis/5.0.1/CMSIS/Include/core_cm4.h ****   \defgroup CMSIS_TPI     Trace Port Interface (TPI)
1052:lib/arm_atsam/packs/arm/cmsis/5.0.1/CMSIS/Include/core_cm4.h ****   \brief    Type definitions for the Trace Port Interface (TPI)
1053:lib/arm_atsam/packs/arm/cmsis/5.0.1/CMSIS/Include/core_cm4.h ****   @{
1054:lib/arm_atsam/packs/arm/cmsis/5.0.1/CMSIS/Include/core_cm4.h ****  */
1055:lib/arm_atsam/packs/arm/cmsis/5.0.1/CMSIS/Include/core_cm4.h **** 
1056:lib/arm_atsam/packs/arm/cmsis/5.0.1/CMSIS/Include/core_cm4.h **** /**
1057:lib/arm_atsam/packs/arm/cmsis/5.0.1/CMSIS/Include/core_cm4.h ****   \brief  Structure type to access the Trace Port Interface Register (TPI).
1058:lib/arm_atsam/packs/arm/cmsis/5.0.1/CMSIS/Include/core_cm4.h ****  */
1059:lib/arm_atsam/packs/arm/cmsis/5.0.1/CMSIS/Include/core_cm4.h **** typedef struct
1060:lib/arm_atsam/packs/arm/cmsis/5.0.1/CMSIS/Include/core_cm4.h **** {
1061:lib/arm_atsam/packs/arm/cmsis/5.0.1/CMSIS/Include/core_cm4.h ****   __IOM uint32_t SSPSR;                  /*!< Offset: 0x000 (R/ )  Supported Parallel Port Size Reg
1062:lib/arm_atsam/packs/arm/cmsis/5.0.1/CMSIS/Include/core_cm4.h ****   __IOM uint32_t CSPSR;                  /*!< Offset: 0x004 (R/W)  Current Parallel Port Size Regis
1063:lib/arm_atsam/packs/arm/cmsis/5.0.1/CMSIS/Include/core_cm4.h ****         uint32_t RESERVED0[2U];
1064:lib/arm_atsam/packs/arm/cmsis/5.0.1/CMSIS/Include/core_cm4.h ****   __IOM uint32_t ACPR;                   /*!< Offset: 0x010 (R/W)  Asynchronous Clock Prescaler Reg
1065:lib/arm_atsam/packs/arm/cmsis/5.0.1/CMSIS/Include/core_cm4.h ****         uint32_t RESERVED1[55U];
1066:lib/arm_atsam/packs/arm/cmsis/5.0.1/CMSIS/Include/core_cm4.h ****   __IOM uint32_t SPPR;                   /*!< Offset: 0x0F0 (R/W)  Selected Pin Protocol Register *
1067:lib/arm_atsam/packs/arm/cmsis/5.0.1/CMSIS/Include/core_cm4.h ****         uint32_t RESERVED2[131U];
1068:lib/arm_atsam/packs/arm/cmsis/5.0.1/CMSIS/Include/core_cm4.h ****   __IM  uint32_t FFSR;                   /*!< Offset: 0x300 (R/ )  Formatter and Flush Status Regis
1069:lib/arm_atsam/packs/arm/cmsis/5.0.1/CMSIS/Include/core_cm4.h ****   __IOM uint32_t FFCR;                   /*!< Offset: 0x304 (R/W)  Formatter and Flush Control Regi
1070:lib/arm_atsam/packs/arm/cmsis/5.0.1/CMSIS/Include/core_cm4.h ****   __IM  uint32_t FSCR;                   /*!< Offset: 0x308 (R/ )  Formatter Synchronization Counte
1071:lib/arm_atsam/packs/arm/cmsis/5.0.1/CMSIS/Include/core_cm4.h ****         uint32_t RESERVED3[759U];
1072:lib/arm_atsam/packs/arm/cmsis/5.0.1/CMSIS/Include/core_cm4.h ****   __IM  uint32_t TRIGGER;                /*!< Offset: 0xEE8 (R/ )  TRIGGER */
1073:lib/arm_atsam/packs/arm/cmsis/5.0.1/CMSIS/Include/core_cm4.h ****   __IM  uint32_t FIFO0;                  /*!< Offset: 0xEEC (R/ )  Integration ETM Data */
1074:lib/arm_atsam/packs/arm/cmsis/5.0.1/CMSIS/Include/core_cm4.h ****   __IM  uint32_t ITATBCTR2;              /*!< Offset: 0xEF0 (R/ )  ITATBCTR2 */
1075:lib/arm_atsam/packs/arm/cmsis/5.0.1/CMSIS/Include/core_cm4.h ****         uint32_t RESERVED4[1U];
1076:lib/arm_atsam/packs/arm/cmsis/5.0.1/CMSIS/Include/core_cm4.h ****   __IM  uint32_t ITATBCTR0;              /*!< Offset: 0xEF8 (R/ )  ITATBCTR0 */
1077:lib/arm_atsam/packs/arm/cmsis/5.0.1/CMSIS/Include/core_cm4.h ****   __IM  uint32_t FIFO1;                  /*!< Offset: 0xEFC (R/ )  Integration ITM Data */
1078:lib/arm_atsam/packs/arm/cmsis/5.0.1/CMSIS/Include/core_cm4.h ****   __IOM uint32_t ITCTRL;                 /*!< Offset: 0xF00 (R/W)  Integration Mode Control */
1079:lib/arm_atsam/packs/arm/cmsis/5.0.1/CMSIS/Include/core_cm4.h ****         uint32_t RESERVED5[39U];
1080:lib/arm_atsam/packs/arm/cmsis/5.0.1/CMSIS/Include/core_cm4.h ****   __IOM uint32_t CLAIMSET;               /*!< Offset: 0xFA0 (R/W)  Claim tag set */
1081:lib/arm_atsam/packs/arm/cmsis/5.0.1/CMSIS/Include/core_cm4.h ****   __IOM uint32_t CLAIMCLR;               /*!< Offset: 0xFA4 (R/W)  Claim tag clear */
1082:lib/arm_atsam/packs/arm/cmsis/5.0.1/CMSIS/Include/core_cm4.h ****         uint32_t RESERVED7[8U];
1083:lib/arm_atsam/packs/arm/cmsis/5.0.1/CMSIS/Include/core_cm4.h ****   __IM  uint32_t DEVID;                  /*!< Offset: 0xFC8 (R/ )  TPIU_DEVID */
1084:lib/arm_atsam/packs/arm/cmsis/5.0.1/CMSIS/Include/core_cm4.h ****   __IM  uint32_t DEVTYPE;                /*!< Offset: 0xFCC (R/ )  TPIU_DEVTYPE */
1085:lib/arm_atsam/packs/arm/cmsis/5.0.1/CMSIS/Include/core_cm4.h **** } TPI_Type;
1086:lib/arm_atsam/packs/arm/cmsis/5.0.1/CMSIS/Include/core_cm4.h **** 
1087:lib/arm_atsam/packs/arm/cmsis/5.0.1/CMSIS/Include/core_cm4.h **** /* TPI Asynchronous Clock Prescaler Register Definitions */
1088:lib/arm_atsam/packs/arm/cmsis/5.0.1/CMSIS/Include/core_cm4.h **** #define TPI_ACPR_PRESCALER_Pos              0U                                         /*!< TPI ACP
1089:lib/arm_atsam/packs/arm/cmsis/5.0.1/CMSIS/Include/core_cm4.h **** #define TPI_ACPR_PRESCALER_Msk             (0x1FFFUL /*<< TPI_ACPR_PRESCALER_Pos*/)    /*!< TPI ACP
1090:lib/arm_atsam/packs/arm/cmsis/5.0.1/CMSIS/Include/core_cm4.h **** 
1091:lib/arm_atsam/packs/arm/cmsis/5.0.1/CMSIS/Include/core_cm4.h **** /* TPI Selected Pin Protocol Register Definitions */
1092:lib/arm_atsam/packs/arm/cmsis/5.0.1/CMSIS/Include/core_cm4.h **** #define TPI_SPPR_TXMODE_Pos                 0U                                         /*!< TPI SPP
1093:lib/arm_atsam/packs/arm/cmsis/5.0.1/CMSIS/Include/core_cm4.h **** #define TPI_SPPR_TXMODE_Msk                (0x3UL /*<< TPI_SPPR_TXMODE_Pos*/)          /*!< TPI SPP
1094:lib/arm_atsam/packs/arm/cmsis/5.0.1/CMSIS/Include/core_cm4.h **** 
1095:lib/arm_atsam/packs/arm/cmsis/5.0.1/CMSIS/Include/core_cm4.h **** /* TPI Formatter and Flush Status Register Definitions */
1096:lib/arm_atsam/packs/arm/cmsis/5.0.1/CMSIS/Include/core_cm4.h **** #define TPI_FFSR_FtNonStop_Pos              3U                                         /*!< TPI FFS
1097:lib/arm_atsam/packs/arm/cmsis/5.0.1/CMSIS/Include/core_cm4.h **** #define TPI_FFSR_FtNonStop_Msk             (0x1UL << TPI_FFSR_FtNonStop_Pos)           /*!< TPI FFS
1098:lib/arm_atsam/packs/arm/cmsis/5.0.1/CMSIS/Include/core_cm4.h **** 
1099:lib/arm_atsam/packs/arm/cmsis/5.0.1/CMSIS/Include/core_cm4.h **** #define TPI_FFSR_TCPresent_Pos              2U                                         /*!< TPI FFS
1100:lib/arm_atsam/packs/arm/cmsis/5.0.1/CMSIS/Include/core_cm4.h **** #define TPI_FFSR_TCPresent_Msk             (0x1UL << TPI_FFSR_TCPresent_Pos)           /*!< TPI FFS
1101:lib/arm_atsam/packs/arm/cmsis/5.0.1/CMSIS/Include/core_cm4.h **** 
1102:lib/arm_atsam/packs/arm/cmsis/5.0.1/CMSIS/Include/core_cm4.h **** #define TPI_FFSR_FtStopped_Pos              1U                                         /*!< TPI FFS
1103:lib/arm_atsam/packs/arm/cmsis/5.0.1/CMSIS/Include/core_cm4.h **** #define TPI_FFSR_FtStopped_Msk             (0x1UL << TPI_FFSR_FtStopped_Pos)           /*!< TPI FFS
1104:lib/arm_atsam/packs/arm/cmsis/5.0.1/CMSIS/Include/core_cm4.h **** 
1105:lib/arm_atsam/packs/arm/cmsis/5.0.1/CMSIS/Include/core_cm4.h **** #define TPI_FFSR_FlInProg_Pos               0U                                         /*!< TPI FFS
1106:lib/arm_atsam/packs/arm/cmsis/5.0.1/CMSIS/Include/core_cm4.h **** #define TPI_FFSR_FlInProg_Msk              (0x1UL /*<< TPI_FFSR_FlInProg_Pos*/)        /*!< TPI FFS
1107:lib/arm_atsam/packs/arm/cmsis/5.0.1/CMSIS/Include/core_cm4.h **** 
1108:lib/arm_atsam/packs/arm/cmsis/5.0.1/CMSIS/Include/core_cm4.h **** /* TPI Formatter and Flush Control Register Definitions */
1109:lib/arm_atsam/packs/arm/cmsis/5.0.1/CMSIS/Include/core_cm4.h **** #define TPI_FFCR_TrigIn_Pos                 8U                                         /*!< TPI FFC
1110:lib/arm_atsam/packs/arm/cmsis/5.0.1/CMSIS/Include/core_cm4.h **** #define TPI_FFCR_TrigIn_Msk                (0x1UL << TPI_FFCR_TrigIn_Pos)              /*!< TPI FFC
1111:lib/arm_atsam/packs/arm/cmsis/5.0.1/CMSIS/Include/core_cm4.h **** 
1112:lib/arm_atsam/packs/arm/cmsis/5.0.1/CMSIS/Include/core_cm4.h **** #define TPI_FFCR_EnFCont_Pos                1U                                         /*!< TPI FFC
1113:lib/arm_atsam/packs/arm/cmsis/5.0.1/CMSIS/Include/core_cm4.h **** #define TPI_FFCR_EnFCont_Msk               (0x1UL << TPI_FFCR_EnFCont_Pos)             /*!< TPI FFC
1114:lib/arm_atsam/packs/arm/cmsis/5.0.1/CMSIS/Include/core_cm4.h **** 
1115:lib/arm_atsam/packs/arm/cmsis/5.0.1/CMSIS/Include/core_cm4.h **** /* TPI TRIGGER Register Definitions */
1116:lib/arm_atsam/packs/arm/cmsis/5.0.1/CMSIS/Include/core_cm4.h **** #define TPI_TRIGGER_TRIGGER_Pos             0U                                         /*!< TPI TRI
1117:lib/arm_atsam/packs/arm/cmsis/5.0.1/CMSIS/Include/core_cm4.h **** #define TPI_TRIGGER_TRIGGER_Msk            (0x1UL /*<< TPI_TRIGGER_TRIGGER_Pos*/)      /*!< TPI TRI
1118:lib/arm_atsam/packs/arm/cmsis/5.0.1/CMSIS/Include/core_cm4.h **** 
1119:lib/arm_atsam/packs/arm/cmsis/5.0.1/CMSIS/Include/core_cm4.h **** /* TPI Integration ETM Data Register Definitions (FIFO0) */
1120:lib/arm_atsam/packs/arm/cmsis/5.0.1/CMSIS/Include/core_cm4.h **** #define TPI_FIFO0_ITM_ATVALID_Pos          29U                                         /*!< TPI FIF
1121:lib/arm_atsam/packs/arm/cmsis/5.0.1/CMSIS/Include/core_cm4.h **** #define TPI_FIFO0_ITM_ATVALID_Msk          (0x3UL << TPI_FIFO0_ITM_ATVALID_Pos)        /*!< TPI FIF
1122:lib/arm_atsam/packs/arm/cmsis/5.0.1/CMSIS/Include/core_cm4.h **** 
1123:lib/arm_atsam/packs/arm/cmsis/5.0.1/CMSIS/Include/core_cm4.h **** #define TPI_FIFO0_ITM_bytecount_Pos        27U                                         /*!< TPI FIF
1124:lib/arm_atsam/packs/arm/cmsis/5.0.1/CMSIS/Include/core_cm4.h **** #define TPI_FIFO0_ITM_bytecount_Msk        (0x3UL << TPI_FIFO0_ITM_bytecount_Pos)      /*!< TPI FIF
1125:lib/arm_atsam/packs/arm/cmsis/5.0.1/CMSIS/Include/core_cm4.h **** 
1126:lib/arm_atsam/packs/arm/cmsis/5.0.1/CMSIS/Include/core_cm4.h **** #define TPI_FIFO0_ETM_ATVALID_Pos          26U                                         /*!< TPI FIF
1127:lib/arm_atsam/packs/arm/cmsis/5.0.1/CMSIS/Include/core_cm4.h **** #define TPI_FIFO0_ETM_ATVALID_Msk          (0x3UL << TPI_FIFO0_ETM_ATVALID_Pos)        /*!< TPI FIF
1128:lib/arm_atsam/packs/arm/cmsis/5.0.1/CMSIS/Include/core_cm4.h **** 
1129:lib/arm_atsam/packs/arm/cmsis/5.0.1/CMSIS/Include/core_cm4.h **** #define TPI_FIFO0_ETM_bytecount_Pos        24U                                         /*!< TPI FIF
1130:lib/arm_atsam/packs/arm/cmsis/5.0.1/CMSIS/Include/core_cm4.h **** #define TPI_FIFO0_ETM_bytecount_Msk        (0x3UL << TPI_FIFO0_ETM_bytecount_Pos)      /*!< TPI FIF
1131:lib/arm_atsam/packs/arm/cmsis/5.0.1/CMSIS/Include/core_cm4.h **** 
1132:lib/arm_atsam/packs/arm/cmsis/5.0.1/CMSIS/Include/core_cm4.h **** #define TPI_FIFO0_ETM2_Pos                 16U                                         /*!< TPI FIF
1133:lib/arm_atsam/packs/arm/cmsis/5.0.1/CMSIS/Include/core_cm4.h **** #define TPI_FIFO0_ETM2_Msk                 (0xFFUL << TPI_FIFO0_ETM2_Pos)              /*!< TPI FIF
1134:lib/arm_atsam/packs/arm/cmsis/5.0.1/CMSIS/Include/core_cm4.h **** 
1135:lib/arm_atsam/packs/arm/cmsis/5.0.1/CMSIS/Include/core_cm4.h **** #define TPI_FIFO0_ETM1_Pos                  8U                                         /*!< TPI FIF
1136:lib/arm_atsam/packs/arm/cmsis/5.0.1/CMSIS/Include/core_cm4.h **** #define TPI_FIFO0_ETM1_Msk                 (0xFFUL << TPI_FIFO0_ETM1_Pos)              /*!< TPI FIF
1137:lib/arm_atsam/packs/arm/cmsis/5.0.1/CMSIS/Include/core_cm4.h **** 
1138:lib/arm_atsam/packs/arm/cmsis/5.0.1/CMSIS/Include/core_cm4.h **** #define TPI_FIFO0_ETM0_Pos                  0U                                         /*!< TPI FIF
1139:lib/arm_atsam/packs/arm/cmsis/5.0.1/CMSIS/Include/core_cm4.h **** #define TPI_FIFO0_ETM0_Msk                 (0xFFUL /*<< TPI_FIFO0_ETM0_Pos*/)          /*!< TPI FIF
1140:lib/arm_atsam/packs/arm/cmsis/5.0.1/CMSIS/Include/core_cm4.h **** 
1141:lib/arm_atsam/packs/arm/cmsis/5.0.1/CMSIS/Include/core_cm4.h **** /* TPI ITATBCTR2 Register Definitions */
1142:lib/arm_atsam/packs/arm/cmsis/5.0.1/CMSIS/Include/core_cm4.h **** #define TPI_ITATBCTR2_ATREADY_Pos           0U                                         /*!< TPI ITA
1143:lib/arm_atsam/packs/arm/cmsis/5.0.1/CMSIS/Include/core_cm4.h **** #define TPI_ITATBCTR2_ATREADY_Msk          (0x1UL /*<< TPI_ITATBCTR2_ATREADY_Pos*/)    /*!< TPI ITA
1144:lib/arm_atsam/packs/arm/cmsis/5.0.1/CMSIS/Include/core_cm4.h **** 
1145:lib/arm_atsam/packs/arm/cmsis/5.0.1/CMSIS/Include/core_cm4.h **** /* TPI Integration ITM Data Register Definitions (FIFO1) */
1146:lib/arm_atsam/packs/arm/cmsis/5.0.1/CMSIS/Include/core_cm4.h **** #define TPI_FIFO1_ITM_ATVALID_Pos          29U                                         /*!< TPI FIF
1147:lib/arm_atsam/packs/arm/cmsis/5.0.1/CMSIS/Include/core_cm4.h **** #define TPI_FIFO1_ITM_ATVALID_Msk          (0x3UL << TPI_FIFO1_ITM_ATVALID_Pos)        /*!< TPI FIF
1148:lib/arm_atsam/packs/arm/cmsis/5.0.1/CMSIS/Include/core_cm4.h **** 
1149:lib/arm_atsam/packs/arm/cmsis/5.0.1/CMSIS/Include/core_cm4.h **** #define TPI_FIFO1_ITM_bytecount_Pos        27U                                         /*!< TPI FIF
1150:lib/arm_atsam/packs/arm/cmsis/5.0.1/CMSIS/Include/core_cm4.h **** #define TPI_FIFO1_ITM_bytecount_Msk        (0x3UL << TPI_FIFO1_ITM_bytecount_Pos)      /*!< TPI FIF
1151:lib/arm_atsam/packs/arm/cmsis/5.0.1/CMSIS/Include/core_cm4.h **** 
1152:lib/arm_atsam/packs/arm/cmsis/5.0.1/CMSIS/Include/core_cm4.h **** #define TPI_FIFO1_ETM_ATVALID_Pos          26U                                         /*!< TPI FIF
1153:lib/arm_atsam/packs/arm/cmsis/5.0.1/CMSIS/Include/core_cm4.h **** #define TPI_FIFO1_ETM_ATVALID_Msk          (0x3UL << TPI_FIFO1_ETM_ATVALID_Pos)        /*!< TPI FIF
1154:lib/arm_atsam/packs/arm/cmsis/5.0.1/CMSIS/Include/core_cm4.h **** 
1155:lib/arm_atsam/packs/arm/cmsis/5.0.1/CMSIS/Include/core_cm4.h **** #define TPI_FIFO1_ETM_bytecount_Pos        24U                                         /*!< TPI FIF
1156:lib/arm_atsam/packs/arm/cmsis/5.0.1/CMSIS/Include/core_cm4.h **** #define TPI_FIFO1_ETM_bytecount_Msk        (0x3UL << TPI_FIFO1_ETM_bytecount_Pos)      /*!< TPI FIF
1157:lib/arm_atsam/packs/arm/cmsis/5.0.1/CMSIS/Include/core_cm4.h **** 
1158:lib/arm_atsam/packs/arm/cmsis/5.0.1/CMSIS/Include/core_cm4.h **** #define TPI_FIFO1_ITM2_Pos                 16U                                         /*!< TPI FIF
1159:lib/arm_atsam/packs/arm/cmsis/5.0.1/CMSIS/Include/core_cm4.h **** #define TPI_FIFO1_ITM2_Msk                 (0xFFUL << TPI_FIFO1_ITM2_Pos)              /*!< TPI FIF
1160:lib/arm_atsam/packs/arm/cmsis/5.0.1/CMSIS/Include/core_cm4.h **** 
1161:lib/arm_atsam/packs/arm/cmsis/5.0.1/CMSIS/Include/core_cm4.h **** #define TPI_FIFO1_ITM1_Pos                  8U                                         /*!< TPI FIF
1162:lib/arm_atsam/packs/arm/cmsis/5.0.1/CMSIS/Include/core_cm4.h **** #define TPI_FIFO1_ITM1_Msk                 (0xFFUL << TPI_FIFO1_ITM1_Pos)              /*!< TPI FIF
1163:lib/arm_atsam/packs/arm/cmsis/5.0.1/CMSIS/Include/core_cm4.h **** 
1164:lib/arm_atsam/packs/arm/cmsis/5.0.1/CMSIS/Include/core_cm4.h **** #define TPI_FIFO1_ITM0_Pos                  0U                                         /*!< TPI FIF
1165:lib/arm_atsam/packs/arm/cmsis/5.0.1/CMSIS/Include/core_cm4.h **** #define TPI_FIFO1_ITM0_Msk                 (0xFFUL /*<< TPI_FIFO1_ITM0_Pos*/)          /*!< TPI FIF
1166:lib/arm_atsam/packs/arm/cmsis/5.0.1/CMSIS/Include/core_cm4.h **** 
1167:lib/arm_atsam/packs/arm/cmsis/5.0.1/CMSIS/Include/core_cm4.h **** /* TPI ITATBCTR0 Register Definitions */
1168:lib/arm_atsam/packs/arm/cmsis/5.0.1/CMSIS/Include/core_cm4.h **** #define TPI_ITATBCTR0_ATREADY_Pos           0U                                         /*!< TPI ITA
1169:lib/arm_atsam/packs/arm/cmsis/5.0.1/CMSIS/Include/core_cm4.h **** #define TPI_ITATBCTR0_ATREADY_Msk          (0x1UL /*<< TPI_ITATBCTR0_ATREADY_Pos*/)    /*!< TPI ITA
1170:lib/arm_atsam/packs/arm/cmsis/5.0.1/CMSIS/Include/core_cm4.h **** 
1171:lib/arm_atsam/packs/arm/cmsis/5.0.1/CMSIS/Include/core_cm4.h **** /* TPI Integration Mode Control Register Definitions */
1172:lib/arm_atsam/packs/arm/cmsis/5.0.1/CMSIS/Include/core_cm4.h **** #define TPI_ITCTRL_Mode_Pos                 0U                                         /*!< TPI ITC
1173:lib/arm_atsam/packs/arm/cmsis/5.0.1/CMSIS/Include/core_cm4.h **** #define TPI_ITCTRL_Mode_Msk                (0x1UL /*<< TPI_ITCTRL_Mode_Pos*/)          /*!< TPI ITC
1174:lib/arm_atsam/packs/arm/cmsis/5.0.1/CMSIS/Include/core_cm4.h **** 
1175:lib/arm_atsam/packs/arm/cmsis/5.0.1/CMSIS/Include/core_cm4.h **** /* TPI DEVID Register Definitions */
1176:lib/arm_atsam/packs/arm/cmsis/5.0.1/CMSIS/Include/core_cm4.h **** #define TPI_DEVID_NRZVALID_Pos             11U                                         /*!< TPI DEV
1177:lib/arm_atsam/packs/arm/cmsis/5.0.1/CMSIS/Include/core_cm4.h **** #define TPI_DEVID_NRZVALID_Msk             (0x1UL << TPI_DEVID_NRZVALID_Pos)           /*!< TPI DEV
1178:lib/arm_atsam/packs/arm/cmsis/5.0.1/CMSIS/Include/core_cm4.h **** 
1179:lib/arm_atsam/packs/arm/cmsis/5.0.1/CMSIS/Include/core_cm4.h **** #define TPI_DEVID_MANCVALID_Pos            10U                                         /*!< TPI DEV
1180:lib/arm_atsam/packs/arm/cmsis/5.0.1/CMSIS/Include/core_cm4.h **** #define TPI_DEVID_MANCVALID_Msk            (0x1UL << TPI_DEVID_MANCVALID_Pos)          /*!< TPI DEV
1181:lib/arm_atsam/packs/arm/cmsis/5.0.1/CMSIS/Include/core_cm4.h **** 
1182:lib/arm_atsam/packs/arm/cmsis/5.0.1/CMSIS/Include/core_cm4.h **** #define TPI_DEVID_PTINVALID_Pos             9U                                         /*!< TPI DEV
1183:lib/arm_atsam/packs/arm/cmsis/5.0.1/CMSIS/Include/core_cm4.h **** #define TPI_DEVID_PTINVALID_Msk            (0x1UL << TPI_DEVID_PTINVALID_Pos)          /*!< TPI DEV
1184:lib/arm_atsam/packs/arm/cmsis/5.0.1/CMSIS/Include/core_cm4.h **** 
1185:lib/arm_atsam/packs/arm/cmsis/5.0.1/CMSIS/Include/core_cm4.h **** #define TPI_DEVID_MinBufSz_Pos              6U                                         /*!< TPI DEV
1186:lib/arm_atsam/packs/arm/cmsis/5.0.1/CMSIS/Include/core_cm4.h **** #define TPI_DEVID_MinBufSz_Msk             (0x7UL << TPI_DEVID_MinBufSz_Pos)           /*!< TPI DEV
1187:lib/arm_atsam/packs/arm/cmsis/5.0.1/CMSIS/Include/core_cm4.h **** 
1188:lib/arm_atsam/packs/arm/cmsis/5.0.1/CMSIS/Include/core_cm4.h **** #define TPI_DEVID_AsynClkIn_Pos             5U                                         /*!< TPI DEV
1189:lib/arm_atsam/packs/arm/cmsis/5.0.1/CMSIS/Include/core_cm4.h **** #define TPI_DEVID_AsynClkIn_Msk            (0x1UL << TPI_DEVID_AsynClkIn_Pos)          /*!< TPI DEV
1190:lib/arm_atsam/packs/arm/cmsis/5.0.1/CMSIS/Include/core_cm4.h **** 
1191:lib/arm_atsam/packs/arm/cmsis/5.0.1/CMSIS/Include/core_cm4.h **** #define TPI_DEVID_NrTraceInput_Pos          0U                                         /*!< TPI DEV
1192:lib/arm_atsam/packs/arm/cmsis/5.0.1/CMSIS/Include/core_cm4.h **** #define TPI_DEVID_NrTraceInput_Msk         (0x1FUL /*<< TPI_DEVID_NrTraceInput_Pos*/)  /*!< TPI DEV
1193:lib/arm_atsam/packs/arm/cmsis/5.0.1/CMSIS/Include/core_cm4.h **** 
1194:lib/arm_atsam/packs/arm/cmsis/5.0.1/CMSIS/Include/core_cm4.h **** /* TPI DEVTYPE Register Definitions */
1195:lib/arm_atsam/packs/arm/cmsis/5.0.1/CMSIS/Include/core_cm4.h **** #define TPI_DEVTYPE_MajorType_Pos           4U                                         /*!< TPI DEV
1196:lib/arm_atsam/packs/arm/cmsis/5.0.1/CMSIS/Include/core_cm4.h **** #define TPI_DEVTYPE_MajorType_Msk          (0xFUL << TPI_DEVTYPE_MajorType_Pos)        /*!< TPI DEV
1197:lib/arm_atsam/packs/arm/cmsis/5.0.1/CMSIS/Include/core_cm4.h **** 
1198:lib/arm_atsam/packs/arm/cmsis/5.0.1/CMSIS/Include/core_cm4.h **** #define TPI_DEVTYPE_SubType_Pos             0U                                         /*!< TPI DEV
1199:lib/arm_atsam/packs/arm/cmsis/5.0.1/CMSIS/Include/core_cm4.h **** #define TPI_DEVTYPE_SubType_Msk            (0xFUL /*<< TPI_DEVTYPE_SubType_Pos*/)      /*!< TPI DEV
1200:lib/arm_atsam/packs/arm/cmsis/5.0.1/CMSIS/Include/core_cm4.h **** 
1201:lib/arm_atsam/packs/arm/cmsis/5.0.1/CMSIS/Include/core_cm4.h **** /*@}*/ /* end of group CMSIS_TPI */
1202:lib/arm_atsam/packs/arm/cmsis/5.0.1/CMSIS/Include/core_cm4.h **** 
1203:lib/arm_atsam/packs/arm/cmsis/5.0.1/CMSIS/Include/core_cm4.h **** 
1204:lib/arm_atsam/packs/arm/cmsis/5.0.1/CMSIS/Include/core_cm4.h **** #if defined (__MPU_PRESENT) && (__MPU_PRESENT == 1U)
1205:lib/arm_atsam/packs/arm/cmsis/5.0.1/CMSIS/Include/core_cm4.h **** /**
1206:lib/arm_atsam/packs/arm/cmsis/5.0.1/CMSIS/Include/core_cm4.h ****   \ingroup  CMSIS_core_register
1207:lib/arm_atsam/packs/arm/cmsis/5.0.1/CMSIS/Include/core_cm4.h ****   \defgroup CMSIS_MPU     Memory Protection Unit (MPU)
1208:lib/arm_atsam/packs/arm/cmsis/5.0.1/CMSIS/Include/core_cm4.h ****   \brief    Type definitions for the Memory Protection Unit (MPU)
1209:lib/arm_atsam/packs/arm/cmsis/5.0.1/CMSIS/Include/core_cm4.h ****   @{
1210:lib/arm_atsam/packs/arm/cmsis/5.0.1/CMSIS/Include/core_cm4.h ****  */
1211:lib/arm_atsam/packs/arm/cmsis/5.0.1/CMSIS/Include/core_cm4.h **** 
1212:lib/arm_atsam/packs/arm/cmsis/5.0.1/CMSIS/Include/core_cm4.h **** /**
1213:lib/arm_atsam/packs/arm/cmsis/5.0.1/CMSIS/Include/core_cm4.h ****   \brief  Structure type to access the Memory Protection Unit (MPU).
1214:lib/arm_atsam/packs/arm/cmsis/5.0.1/CMSIS/Include/core_cm4.h ****  */
1215:lib/arm_atsam/packs/arm/cmsis/5.0.1/CMSIS/Include/core_cm4.h **** typedef struct
1216:lib/arm_atsam/packs/arm/cmsis/5.0.1/CMSIS/Include/core_cm4.h **** {
1217:lib/arm_atsam/packs/arm/cmsis/5.0.1/CMSIS/Include/core_cm4.h ****   __IM  uint32_t TYPE;                   /*!< Offset: 0x000 (R/ )  MPU Type Register */
1218:lib/arm_atsam/packs/arm/cmsis/5.0.1/CMSIS/Include/core_cm4.h ****   __IOM uint32_t CTRL;                   /*!< Offset: 0x004 (R/W)  MPU Control Register */
1219:lib/arm_atsam/packs/arm/cmsis/5.0.1/CMSIS/Include/core_cm4.h ****   __IOM uint32_t RNR;                    /*!< Offset: 0x008 (R/W)  MPU Region RNRber Register */
1220:lib/arm_atsam/packs/arm/cmsis/5.0.1/CMSIS/Include/core_cm4.h ****   __IOM uint32_t RBAR;                   /*!< Offset: 0x00C (R/W)  MPU Region Base Address Register
1221:lib/arm_atsam/packs/arm/cmsis/5.0.1/CMSIS/Include/core_cm4.h ****   __IOM uint32_t RASR;                   /*!< Offset: 0x010 (R/W)  MPU Region Attribute and Size Re
1222:lib/arm_atsam/packs/arm/cmsis/5.0.1/CMSIS/Include/core_cm4.h ****   __IOM uint32_t RBAR_A1;                /*!< Offset: 0x014 (R/W)  MPU Alias 1 Region Base Address 
1223:lib/arm_atsam/packs/arm/cmsis/5.0.1/CMSIS/Include/core_cm4.h ****   __IOM uint32_t RASR_A1;                /*!< Offset: 0x018 (R/W)  MPU Alias 1 Region Attribute and
1224:lib/arm_atsam/packs/arm/cmsis/5.0.1/CMSIS/Include/core_cm4.h ****   __IOM uint32_t RBAR_A2;                /*!< Offset: 0x01C (R/W)  MPU Alias 2 Region Base Address 
1225:lib/arm_atsam/packs/arm/cmsis/5.0.1/CMSIS/Include/core_cm4.h ****   __IOM uint32_t RASR_A2;                /*!< Offset: 0x020 (R/W)  MPU Alias 2 Region Attribute and
1226:lib/arm_atsam/packs/arm/cmsis/5.0.1/CMSIS/Include/core_cm4.h ****   __IOM uint32_t RBAR_A3;                /*!< Offset: 0x024 (R/W)  MPU Alias 3 Region Base Address 
1227:lib/arm_atsam/packs/arm/cmsis/5.0.1/CMSIS/Include/core_cm4.h ****   __IOM uint32_t RASR_A3;                /*!< Offset: 0x028 (R/W)  MPU Alias 3 Region Attribute and
1228:lib/arm_atsam/packs/arm/cmsis/5.0.1/CMSIS/Include/core_cm4.h **** } MPU_Type;
1229:lib/arm_atsam/packs/arm/cmsis/5.0.1/CMSIS/Include/core_cm4.h **** 
1230:lib/arm_atsam/packs/arm/cmsis/5.0.1/CMSIS/Include/core_cm4.h **** /* MPU Type Register Definitions */
1231:lib/arm_atsam/packs/arm/cmsis/5.0.1/CMSIS/Include/core_cm4.h **** #define MPU_TYPE_IREGION_Pos               16U                                            /*!< MPU 
1232:lib/arm_atsam/packs/arm/cmsis/5.0.1/CMSIS/Include/core_cm4.h **** #define MPU_TYPE_IREGION_Msk               (0xFFUL << MPU_TYPE_IREGION_Pos)               /*!< MPU 
1233:lib/arm_atsam/packs/arm/cmsis/5.0.1/CMSIS/Include/core_cm4.h **** 
1234:lib/arm_atsam/packs/arm/cmsis/5.0.1/CMSIS/Include/core_cm4.h **** #define MPU_TYPE_DREGION_Pos                8U                                            /*!< MPU 
1235:lib/arm_atsam/packs/arm/cmsis/5.0.1/CMSIS/Include/core_cm4.h **** #define MPU_TYPE_DREGION_Msk               (0xFFUL << MPU_TYPE_DREGION_Pos)               /*!< MPU 
1236:lib/arm_atsam/packs/arm/cmsis/5.0.1/CMSIS/Include/core_cm4.h **** 
1237:lib/arm_atsam/packs/arm/cmsis/5.0.1/CMSIS/Include/core_cm4.h **** #define MPU_TYPE_SEPARATE_Pos               0U                                            /*!< MPU 
1238:lib/arm_atsam/packs/arm/cmsis/5.0.1/CMSIS/Include/core_cm4.h **** #define MPU_TYPE_SEPARATE_Msk              (1UL /*<< MPU_TYPE_SEPARATE_Pos*/)             /*!< MPU 
1239:lib/arm_atsam/packs/arm/cmsis/5.0.1/CMSIS/Include/core_cm4.h **** 
1240:lib/arm_atsam/packs/arm/cmsis/5.0.1/CMSIS/Include/core_cm4.h **** /* MPU Control Register Definitions */
1241:lib/arm_atsam/packs/arm/cmsis/5.0.1/CMSIS/Include/core_cm4.h **** #define MPU_CTRL_PRIVDEFENA_Pos             2U                                            /*!< MPU 
1242:lib/arm_atsam/packs/arm/cmsis/5.0.1/CMSIS/Include/core_cm4.h **** #define MPU_CTRL_PRIVDEFENA_Msk            (1UL << MPU_CTRL_PRIVDEFENA_Pos)               /*!< MPU 
1243:lib/arm_atsam/packs/arm/cmsis/5.0.1/CMSIS/Include/core_cm4.h **** 
1244:lib/arm_atsam/packs/arm/cmsis/5.0.1/CMSIS/Include/core_cm4.h **** #define MPU_CTRL_HFNMIENA_Pos               1U                                            /*!< MPU 
1245:lib/arm_atsam/packs/arm/cmsis/5.0.1/CMSIS/Include/core_cm4.h **** #define MPU_CTRL_HFNMIENA_Msk              (1UL << MPU_CTRL_HFNMIENA_Pos)                 /*!< MPU 
1246:lib/arm_atsam/packs/arm/cmsis/5.0.1/CMSIS/Include/core_cm4.h **** 
1247:lib/arm_atsam/packs/arm/cmsis/5.0.1/CMSIS/Include/core_cm4.h **** #define MPU_CTRL_ENABLE_Pos                 0U                                            /*!< MPU 
1248:lib/arm_atsam/packs/arm/cmsis/5.0.1/CMSIS/Include/core_cm4.h **** #define MPU_CTRL_ENABLE_Msk                (1UL /*<< MPU_CTRL_ENABLE_Pos*/)               /*!< MPU 
1249:lib/arm_atsam/packs/arm/cmsis/5.0.1/CMSIS/Include/core_cm4.h **** 
1250:lib/arm_atsam/packs/arm/cmsis/5.0.1/CMSIS/Include/core_cm4.h **** /* MPU Region Number Register Definitions */
1251:lib/arm_atsam/packs/arm/cmsis/5.0.1/CMSIS/Include/core_cm4.h **** #define MPU_RNR_REGION_Pos                  0U                                            /*!< MPU 
1252:lib/arm_atsam/packs/arm/cmsis/5.0.1/CMSIS/Include/core_cm4.h **** #define MPU_RNR_REGION_Msk                 (0xFFUL /*<< MPU_RNR_REGION_Pos*/)             /*!< MPU 
1253:lib/arm_atsam/packs/arm/cmsis/5.0.1/CMSIS/Include/core_cm4.h **** 
1254:lib/arm_atsam/packs/arm/cmsis/5.0.1/CMSIS/Include/core_cm4.h **** /* MPU Region Base Address Register Definitions */
1255:lib/arm_atsam/packs/arm/cmsis/5.0.1/CMSIS/Include/core_cm4.h **** #define MPU_RBAR_ADDR_Pos                   5U                                            /*!< MPU 
1256:lib/arm_atsam/packs/arm/cmsis/5.0.1/CMSIS/Include/core_cm4.h **** #define MPU_RBAR_ADDR_Msk                  (0x7FFFFFFUL << MPU_RBAR_ADDR_Pos)             /*!< MPU 
1257:lib/arm_atsam/packs/arm/cmsis/5.0.1/CMSIS/Include/core_cm4.h **** 
1258:lib/arm_atsam/packs/arm/cmsis/5.0.1/CMSIS/Include/core_cm4.h **** #define MPU_RBAR_VALID_Pos                  4U                                            /*!< MPU 
1259:lib/arm_atsam/packs/arm/cmsis/5.0.1/CMSIS/Include/core_cm4.h **** #define MPU_RBAR_VALID_Msk                 (1UL << MPU_RBAR_VALID_Pos)                    /*!< MPU 
1260:lib/arm_atsam/packs/arm/cmsis/5.0.1/CMSIS/Include/core_cm4.h **** 
1261:lib/arm_atsam/packs/arm/cmsis/5.0.1/CMSIS/Include/core_cm4.h **** #define MPU_RBAR_REGION_Pos                 0U                                            /*!< MPU 
1262:lib/arm_atsam/packs/arm/cmsis/5.0.1/CMSIS/Include/core_cm4.h **** #define MPU_RBAR_REGION_Msk                (0xFUL /*<< MPU_RBAR_REGION_Pos*/)             /*!< MPU 
1263:lib/arm_atsam/packs/arm/cmsis/5.0.1/CMSIS/Include/core_cm4.h **** 
1264:lib/arm_atsam/packs/arm/cmsis/5.0.1/CMSIS/Include/core_cm4.h **** /* MPU Region Attribute and Size Register Definitions */
1265:lib/arm_atsam/packs/arm/cmsis/5.0.1/CMSIS/Include/core_cm4.h **** #define MPU_RASR_ATTRS_Pos                 16U                                            /*!< MPU 
1266:lib/arm_atsam/packs/arm/cmsis/5.0.1/CMSIS/Include/core_cm4.h **** #define MPU_RASR_ATTRS_Msk                 (0xFFFFUL << MPU_RASR_ATTRS_Pos)               /*!< MPU 
1267:lib/arm_atsam/packs/arm/cmsis/5.0.1/CMSIS/Include/core_cm4.h **** 
1268:lib/arm_atsam/packs/arm/cmsis/5.0.1/CMSIS/Include/core_cm4.h **** #define MPU_RASR_XN_Pos                    28U                                            /*!< MPU 
1269:lib/arm_atsam/packs/arm/cmsis/5.0.1/CMSIS/Include/core_cm4.h **** #define MPU_RASR_XN_Msk                    (1UL << MPU_RASR_XN_Pos)                       /*!< MPU 
1270:lib/arm_atsam/packs/arm/cmsis/5.0.1/CMSIS/Include/core_cm4.h **** 
1271:lib/arm_atsam/packs/arm/cmsis/5.0.1/CMSIS/Include/core_cm4.h **** #define MPU_RASR_AP_Pos                    24U                                            /*!< MPU 
1272:lib/arm_atsam/packs/arm/cmsis/5.0.1/CMSIS/Include/core_cm4.h **** #define MPU_RASR_AP_Msk                    (0x7UL << MPU_RASR_AP_Pos)                     /*!< MPU 
1273:lib/arm_atsam/packs/arm/cmsis/5.0.1/CMSIS/Include/core_cm4.h **** 
1274:lib/arm_atsam/packs/arm/cmsis/5.0.1/CMSIS/Include/core_cm4.h **** #define MPU_RASR_TEX_Pos                   19U                                            /*!< MPU 
1275:lib/arm_atsam/packs/arm/cmsis/5.0.1/CMSIS/Include/core_cm4.h **** #define MPU_RASR_TEX_Msk                   (0x7UL << MPU_RASR_TEX_Pos)                    /*!< MPU 
1276:lib/arm_atsam/packs/arm/cmsis/5.0.1/CMSIS/Include/core_cm4.h **** 
1277:lib/arm_atsam/packs/arm/cmsis/5.0.1/CMSIS/Include/core_cm4.h **** #define MPU_RASR_S_Pos                     18U                                            /*!< MPU 
1278:lib/arm_atsam/packs/arm/cmsis/5.0.1/CMSIS/Include/core_cm4.h **** #define MPU_RASR_S_Msk                     (1UL << MPU_RASR_S_Pos)                        /*!< MPU 
1279:lib/arm_atsam/packs/arm/cmsis/5.0.1/CMSIS/Include/core_cm4.h **** 
1280:lib/arm_atsam/packs/arm/cmsis/5.0.1/CMSIS/Include/core_cm4.h **** #define MPU_RASR_C_Pos                     17U                                            /*!< MPU 
1281:lib/arm_atsam/packs/arm/cmsis/5.0.1/CMSIS/Include/core_cm4.h **** #define MPU_RASR_C_Msk                     (1UL << MPU_RASR_C_Pos)                        /*!< MPU 
1282:lib/arm_atsam/packs/arm/cmsis/5.0.1/CMSIS/Include/core_cm4.h **** 
1283:lib/arm_atsam/packs/arm/cmsis/5.0.1/CMSIS/Include/core_cm4.h **** #define MPU_RASR_B_Pos                     16U                                            /*!< MPU 
1284:lib/arm_atsam/packs/arm/cmsis/5.0.1/CMSIS/Include/core_cm4.h **** #define MPU_RASR_B_Msk                     (1UL << MPU_RASR_B_Pos)                        /*!< MPU 
1285:lib/arm_atsam/packs/arm/cmsis/5.0.1/CMSIS/Include/core_cm4.h **** 
1286:lib/arm_atsam/packs/arm/cmsis/5.0.1/CMSIS/Include/core_cm4.h **** #define MPU_RASR_SRD_Pos                    8U                                            /*!< MPU 
1287:lib/arm_atsam/packs/arm/cmsis/5.0.1/CMSIS/Include/core_cm4.h **** #define MPU_RASR_SRD_Msk                   (0xFFUL << MPU_RASR_SRD_Pos)                   /*!< MPU 
1288:lib/arm_atsam/packs/arm/cmsis/5.0.1/CMSIS/Include/core_cm4.h **** 
1289:lib/arm_atsam/packs/arm/cmsis/5.0.1/CMSIS/Include/core_cm4.h **** #define MPU_RASR_SIZE_Pos                   1U                                            /*!< MPU 
1290:lib/arm_atsam/packs/arm/cmsis/5.0.1/CMSIS/Include/core_cm4.h **** #define MPU_RASR_SIZE_Msk                  (0x1FUL << MPU_RASR_SIZE_Pos)                  /*!< MPU 
1291:lib/arm_atsam/packs/arm/cmsis/5.0.1/CMSIS/Include/core_cm4.h **** 
1292:lib/arm_atsam/packs/arm/cmsis/5.0.1/CMSIS/Include/core_cm4.h **** #define MPU_RASR_ENABLE_Pos                 0U                                            /*!< MPU 
1293:lib/arm_atsam/packs/arm/cmsis/5.0.1/CMSIS/Include/core_cm4.h **** #define MPU_RASR_ENABLE_Msk                (1UL /*<< MPU_RASR_ENABLE_Pos*/)               /*!< MPU 
1294:lib/arm_atsam/packs/arm/cmsis/5.0.1/CMSIS/Include/core_cm4.h **** 
1295:lib/arm_atsam/packs/arm/cmsis/5.0.1/CMSIS/Include/core_cm4.h **** /*@} end of group CMSIS_MPU */
1296:lib/arm_atsam/packs/arm/cmsis/5.0.1/CMSIS/Include/core_cm4.h **** #endif /* defined (__MPU_PRESENT) && (__MPU_PRESENT == 1U) */
1297:lib/arm_atsam/packs/arm/cmsis/5.0.1/CMSIS/Include/core_cm4.h **** 
1298:lib/arm_atsam/packs/arm/cmsis/5.0.1/CMSIS/Include/core_cm4.h **** 
1299:lib/arm_atsam/packs/arm/cmsis/5.0.1/CMSIS/Include/core_cm4.h **** /**
1300:lib/arm_atsam/packs/arm/cmsis/5.0.1/CMSIS/Include/core_cm4.h ****   \ingroup  CMSIS_core_register
1301:lib/arm_atsam/packs/arm/cmsis/5.0.1/CMSIS/Include/core_cm4.h ****   \defgroup CMSIS_FPU     Floating Point Unit (FPU)
1302:lib/arm_atsam/packs/arm/cmsis/5.0.1/CMSIS/Include/core_cm4.h ****   \brief    Type definitions for the Floating Point Unit (FPU)
1303:lib/arm_atsam/packs/arm/cmsis/5.0.1/CMSIS/Include/core_cm4.h ****   @{
1304:lib/arm_atsam/packs/arm/cmsis/5.0.1/CMSIS/Include/core_cm4.h ****  */
1305:lib/arm_atsam/packs/arm/cmsis/5.0.1/CMSIS/Include/core_cm4.h **** 
1306:lib/arm_atsam/packs/arm/cmsis/5.0.1/CMSIS/Include/core_cm4.h **** /**
1307:lib/arm_atsam/packs/arm/cmsis/5.0.1/CMSIS/Include/core_cm4.h ****   \brief  Structure type to access the Floating Point Unit (FPU).
1308:lib/arm_atsam/packs/arm/cmsis/5.0.1/CMSIS/Include/core_cm4.h ****  */
1309:lib/arm_atsam/packs/arm/cmsis/5.0.1/CMSIS/Include/core_cm4.h **** typedef struct
1310:lib/arm_atsam/packs/arm/cmsis/5.0.1/CMSIS/Include/core_cm4.h **** {
1311:lib/arm_atsam/packs/arm/cmsis/5.0.1/CMSIS/Include/core_cm4.h ****         uint32_t RESERVED0[1U];
1312:lib/arm_atsam/packs/arm/cmsis/5.0.1/CMSIS/Include/core_cm4.h ****   __IOM uint32_t FPCCR;                  /*!< Offset: 0x004 (R/W)  Floating-Point Context Control R
1313:lib/arm_atsam/packs/arm/cmsis/5.0.1/CMSIS/Include/core_cm4.h ****   __IOM uint32_t FPCAR;                  /*!< Offset: 0x008 (R/W)  Floating-Point Context Address R
1314:lib/arm_atsam/packs/arm/cmsis/5.0.1/CMSIS/Include/core_cm4.h ****   __IOM uint32_t FPDSCR;                 /*!< Offset: 0x00C (R/W)  Floating-Point Default Status Co
1315:lib/arm_atsam/packs/arm/cmsis/5.0.1/CMSIS/Include/core_cm4.h ****   __IM  uint32_t MVFR0;                  /*!< Offset: 0x010 (R/ )  Media and FP Feature Register 0 
1316:lib/arm_atsam/packs/arm/cmsis/5.0.1/CMSIS/Include/core_cm4.h ****   __IM  uint32_t MVFR1;                  /*!< Offset: 0x014 (R/ )  Media and FP Feature Register 1 
1317:lib/arm_atsam/packs/arm/cmsis/5.0.1/CMSIS/Include/core_cm4.h **** } FPU_Type;
1318:lib/arm_atsam/packs/arm/cmsis/5.0.1/CMSIS/Include/core_cm4.h **** 
1319:lib/arm_atsam/packs/arm/cmsis/5.0.1/CMSIS/Include/core_cm4.h **** /* Floating-Point Context Control Register Definitions */
1320:lib/arm_atsam/packs/arm/cmsis/5.0.1/CMSIS/Include/core_cm4.h **** #define FPU_FPCCR_ASPEN_Pos                31U                                            /*!< FPCC
1321:lib/arm_atsam/packs/arm/cmsis/5.0.1/CMSIS/Include/core_cm4.h **** #define FPU_FPCCR_ASPEN_Msk                (1UL << FPU_FPCCR_ASPEN_Pos)                   /*!< FPCC
1322:lib/arm_atsam/packs/arm/cmsis/5.0.1/CMSIS/Include/core_cm4.h **** 
1323:lib/arm_atsam/packs/arm/cmsis/5.0.1/CMSIS/Include/core_cm4.h **** #define FPU_FPCCR_LSPEN_Pos                30U                                            /*!< FPCC
1324:lib/arm_atsam/packs/arm/cmsis/5.0.1/CMSIS/Include/core_cm4.h **** #define FPU_FPCCR_LSPEN_Msk                (1UL << FPU_FPCCR_LSPEN_Pos)                   /*!< FPCC
1325:lib/arm_atsam/packs/arm/cmsis/5.0.1/CMSIS/Include/core_cm4.h **** 
1326:lib/arm_atsam/packs/arm/cmsis/5.0.1/CMSIS/Include/core_cm4.h **** #define FPU_FPCCR_MONRDY_Pos                8U                                            /*!< FPCC
1327:lib/arm_atsam/packs/arm/cmsis/5.0.1/CMSIS/Include/core_cm4.h **** #define FPU_FPCCR_MONRDY_Msk               (1UL << FPU_FPCCR_MONRDY_Pos)                  /*!< FPCC
1328:lib/arm_atsam/packs/arm/cmsis/5.0.1/CMSIS/Include/core_cm4.h **** 
1329:lib/arm_atsam/packs/arm/cmsis/5.0.1/CMSIS/Include/core_cm4.h **** #define FPU_FPCCR_BFRDY_Pos                 6U                                            /*!< FPCC
1330:lib/arm_atsam/packs/arm/cmsis/5.0.1/CMSIS/Include/core_cm4.h **** #define FPU_FPCCR_BFRDY_Msk                (1UL << FPU_FPCCR_BFRDY_Pos)                   /*!< FPCC
1331:lib/arm_atsam/packs/arm/cmsis/5.0.1/CMSIS/Include/core_cm4.h **** 
1332:lib/arm_atsam/packs/arm/cmsis/5.0.1/CMSIS/Include/core_cm4.h **** #define FPU_FPCCR_MMRDY_Pos                 5U                                            /*!< FPCC
1333:lib/arm_atsam/packs/arm/cmsis/5.0.1/CMSIS/Include/core_cm4.h **** #define FPU_FPCCR_MMRDY_Msk                (1UL << FPU_FPCCR_MMRDY_Pos)                   /*!< FPCC
1334:lib/arm_atsam/packs/arm/cmsis/5.0.1/CMSIS/Include/core_cm4.h **** 
1335:lib/arm_atsam/packs/arm/cmsis/5.0.1/CMSIS/Include/core_cm4.h **** #define FPU_FPCCR_HFRDY_Pos                 4U                                            /*!< FPCC
1336:lib/arm_atsam/packs/arm/cmsis/5.0.1/CMSIS/Include/core_cm4.h **** #define FPU_FPCCR_HFRDY_Msk                (1UL << FPU_FPCCR_HFRDY_Pos)                   /*!< FPCC
1337:lib/arm_atsam/packs/arm/cmsis/5.0.1/CMSIS/Include/core_cm4.h **** 
1338:lib/arm_atsam/packs/arm/cmsis/5.0.1/CMSIS/Include/core_cm4.h **** #define FPU_FPCCR_THREAD_Pos                3U                                            /*!< FPCC
1339:lib/arm_atsam/packs/arm/cmsis/5.0.1/CMSIS/Include/core_cm4.h **** #define FPU_FPCCR_THREAD_Msk               (1UL << FPU_FPCCR_THREAD_Pos)                  /*!< FPCC
1340:lib/arm_atsam/packs/arm/cmsis/5.0.1/CMSIS/Include/core_cm4.h **** 
1341:lib/arm_atsam/packs/arm/cmsis/5.0.1/CMSIS/Include/core_cm4.h **** #define FPU_FPCCR_USER_Pos                  1U                                            /*!< FPCC
1342:lib/arm_atsam/packs/arm/cmsis/5.0.1/CMSIS/Include/core_cm4.h **** #define FPU_FPCCR_USER_Msk                 (1UL << FPU_FPCCR_USER_Pos)                    /*!< FPCC
1343:lib/arm_atsam/packs/arm/cmsis/5.0.1/CMSIS/Include/core_cm4.h **** 
1344:lib/arm_atsam/packs/arm/cmsis/5.0.1/CMSIS/Include/core_cm4.h **** #define FPU_FPCCR_LSPACT_Pos                0U                                            /*!< FPCC
1345:lib/arm_atsam/packs/arm/cmsis/5.0.1/CMSIS/Include/core_cm4.h **** #define FPU_FPCCR_LSPACT_Msk               (1UL /*<< FPU_FPCCR_LSPACT_Pos*/)              /*!< FPCC
1346:lib/arm_atsam/packs/arm/cmsis/5.0.1/CMSIS/Include/core_cm4.h **** 
1347:lib/arm_atsam/packs/arm/cmsis/5.0.1/CMSIS/Include/core_cm4.h **** /* Floating-Point Context Address Register Definitions */
1348:lib/arm_atsam/packs/arm/cmsis/5.0.1/CMSIS/Include/core_cm4.h **** #define FPU_FPCAR_ADDRESS_Pos               3U                                            /*!< FPCA
1349:lib/arm_atsam/packs/arm/cmsis/5.0.1/CMSIS/Include/core_cm4.h **** #define FPU_FPCAR_ADDRESS_Msk              (0x1FFFFFFFUL << FPU_FPCAR_ADDRESS_Pos)        /*!< FPCA
1350:lib/arm_atsam/packs/arm/cmsis/5.0.1/CMSIS/Include/core_cm4.h **** 
1351:lib/arm_atsam/packs/arm/cmsis/5.0.1/CMSIS/Include/core_cm4.h **** /* Floating-Point Default Status Control Register Definitions */
1352:lib/arm_atsam/packs/arm/cmsis/5.0.1/CMSIS/Include/core_cm4.h **** #define FPU_FPDSCR_AHP_Pos                 26U                                            /*!< FPDS
1353:lib/arm_atsam/packs/arm/cmsis/5.0.1/CMSIS/Include/core_cm4.h **** #define FPU_FPDSCR_AHP_Msk                 (1UL << FPU_FPDSCR_AHP_Pos)                    /*!< FPDS
1354:lib/arm_atsam/packs/arm/cmsis/5.0.1/CMSIS/Include/core_cm4.h **** 
1355:lib/arm_atsam/packs/arm/cmsis/5.0.1/CMSIS/Include/core_cm4.h **** #define FPU_FPDSCR_DN_Pos                  25U                                            /*!< FPDS
1356:lib/arm_atsam/packs/arm/cmsis/5.0.1/CMSIS/Include/core_cm4.h **** #define FPU_FPDSCR_DN_Msk                  (1UL << FPU_FPDSCR_DN_Pos)                     /*!< FPDS
1357:lib/arm_atsam/packs/arm/cmsis/5.0.1/CMSIS/Include/core_cm4.h **** 
1358:lib/arm_atsam/packs/arm/cmsis/5.0.1/CMSIS/Include/core_cm4.h **** #define FPU_FPDSCR_FZ_Pos                  24U                                            /*!< FPDS
1359:lib/arm_atsam/packs/arm/cmsis/5.0.1/CMSIS/Include/core_cm4.h **** #define FPU_FPDSCR_FZ_Msk                  (1UL << FPU_FPDSCR_FZ_Pos)                     /*!< FPDS
1360:lib/arm_atsam/packs/arm/cmsis/5.0.1/CMSIS/Include/core_cm4.h **** 
1361:lib/arm_atsam/packs/arm/cmsis/5.0.1/CMSIS/Include/core_cm4.h **** #define FPU_FPDSCR_RMode_Pos               22U                                            /*!< FPDS
1362:lib/arm_atsam/packs/arm/cmsis/5.0.1/CMSIS/Include/core_cm4.h **** #define FPU_FPDSCR_RMode_Msk               (3UL << FPU_FPDSCR_RMode_Pos)                  /*!< FPDS
1363:lib/arm_atsam/packs/arm/cmsis/5.0.1/CMSIS/Include/core_cm4.h **** 
1364:lib/arm_atsam/packs/arm/cmsis/5.0.1/CMSIS/Include/core_cm4.h **** /* Media and FP Feature Register 0 Definitions */
1365:lib/arm_atsam/packs/arm/cmsis/5.0.1/CMSIS/Include/core_cm4.h **** #define FPU_MVFR0_FP_rounding_modes_Pos    28U                                            /*!< MVFR
1366:lib/arm_atsam/packs/arm/cmsis/5.0.1/CMSIS/Include/core_cm4.h **** #define FPU_MVFR0_FP_rounding_modes_Msk    (0xFUL << FPU_MVFR0_FP_rounding_modes_Pos)     /*!< MVFR
1367:lib/arm_atsam/packs/arm/cmsis/5.0.1/CMSIS/Include/core_cm4.h **** 
1368:lib/arm_atsam/packs/arm/cmsis/5.0.1/CMSIS/Include/core_cm4.h **** #define FPU_MVFR0_Short_vectors_Pos        24U                                            /*!< MVFR
1369:lib/arm_atsam/packs/arm/cmsis/5.0.1/CMSIS/Include/core_cm4.h **** #define FPU_MVFR0_Short_vectors_Msk        (0xFUL << FPU_MVFR0_Short_vectors_Pos)         /*!< MVFR
1370:lib/arm_atsam/packs/arm/cmsis/5.0.1/CMSIS/Include/core_cm4.h **** 
1371:lib/arm_atsam/packs/arm/cmsis/5.0.1/CMSIS/Include/core_cm4.h **** #define FPU_MVFR0_Square_root_Pos          20U                                            /*!< MVFR
1372:lib/arm_atsam/packs/arm/cmsis/5.0.1/CMSIS/Include/core_cm4.h **** #define FPU_MVFR0_Square_root_Msk          (0xFUL << FPU_MVFR0_Square_root_Pos)           /*!< MVFR
1373:lib/arm_atsam/packs/arm/cmsis/5.0.1/CMSIS/Include/core_cm4.h **** 
1374:lib/arm_atsam/packs/arm/cmsis/5.0.1/CMSIS/Include/core_cm4.h **** #define FPU_MVFR0_Divide_Pos               16U                                            /*!< MVFR
1375:lib/arm_atsam/packs/arm/cmsis/5.0.1/CMSIS/Include/core_cm4.h **** #define FPU_MVFR0_Divide_Msk               (0xFUL << FPU_MVFR0_Divide_Pos)                /*!< MVFR
1376:lib/arm_atsam/packs/arm/cmsis/5.0.1/CMSIS/Include/core_cm4.h **** 
1377:lib/arm_atsam/packs/arm/cmsis/5.0.1/CMSIS/Include/core_cm4.h **** #define FPU_MVFR0_FP_excep_trapping_Pos    12U                                            /*!< MVFR
1378:lib/arm_atsam/packs/arm/cmsis/5.0.1/CMSIS/Include/core_cm4.h **** #define FPU_MVFR0_FP_excep_trapping_Msk    (0xFUL << FPU_MVFR0_FP_excep_trapping_Pos)     /*!< MVFR
1379:lib/arm_atsam/packs/arm/cmsis/5.0.1/CMSIS/Include/core_cm4.h **** 
1380:lib/arm_atsam/packs/arm/cmsis/5.0.1/CMSIS/Include/core_cm4.h **** #define FPU_MVFR0_Double_precision_Pos      8U                                            /*!< MVFR
1381:lib/arm_atsam/packs/arm/cmsis/5.0.1/CMSIS/Include/core_cm4.h **** #define FPU_MVFR0_Double_precision_Msk     (0xFUL << FPU_MVFR0_Double_precision_Pos)      /*!< MVFR
1382:lib/arm_atsam/packs/arm/cmsis/5.0.1/CMSIS/Include/core_cm4.h **** 
1383:lib/arm_atsam/packs/arm/cmsis/5.0.1/CMSIS/Include/core_cm4.h **** #define FPU_MVFR0_Single_precision_Pos      4U                                            /*!< MVFR
1384:lib/arm_atsam/packs/arm/cmsis/5.0.1/CMSIS/Include/core_cm4.h **** #define FPU_MVFR0_Single_precision_Msk     (0xFUL << FPU_MVFR0_Single_precision_Pos)      /*!< MVFR
1385:lib/arm_atsam/packs/arm/cmsis/5.0.1/CMSIS/Include/core_cm4.h **** 
1386:lib/arm_atsam/packs/arm/cmsis/5.0.1/CMSIS/Include/core_cm4.h **** #define FPU_MVFR0_A_SIMD_registers_Pos      0U                                            /*!< MVFR
1387:lib/arm_atsam/packs/arm/cmsis/5.0.1/CMSIS/Include/core_cm4.h **** #define FPU_MVFR0_A_SIMD_registers_Msk     (0xFUL /*<< FPU_MVFR0_A_SIMD_registers_Pos*/)  /*!< MVFR
1388:lib/arm_atsam/packs/arm/cmsis/5.0.1/CMSIS/Include/core_cm4.h **** 
1389:lib/arm_atsam/packs/arm/cmsis/5.0.1/CMSIS/Include/core_cm4.h **** /* Media and FP Feature Register 1 Definitions */
1390:lib/arm_atsam/packs/arm/cmsis/5.0.1/CMSIS/Include/core_cm4.h **** #define FPU_MVFR1_FP_fused_MAC_Pos         28U                                            /*!< MVFR
1391:lib/arm_atsam/packs/arm/cmsis/5.0.1/CMSIS/Include/core_cm4.h **** #define FPU_MVFR1_FP_fused_MAC_Msk         (0xFUL << FPU_MVFR1_FP_fused_MAC_Pos)          /*!< MVFR
1392:lib/arm_atsam/packs/arm/cmsis/5.0.1/CMSIS/Include/core_cm4.h **** 
1393:lib/arm_atsam/packs/arm/cmsis/5.0.1/CMSIS/Include/core_cm4.h **** #define FPU_MVFR1_FP_HPFP_Pos              24U                                            /*!< MVFR
1394:lib/arm_atsam/packs/arm/cmsis/5.0.1/CMSIS/Include/core_cm4.h **** #define FPU_MVFR1_FP_HPFP_Msk              (0xFUL << FPU_MVFR1_FP_HPFP_Pos)               /*!< MVFR
1395:lib/arm_atsam/packs/arm/cmsis/5.0.1/CMSIS/Include/core_cm4.h **** 
1396:lib/arm_atsam/packs/arm/cmsis/5.0.1/CMSIS/Include/core_cm4.h **** #define FPU_MVFR1_D_NaN_mode_Pos            4U                                            /*!< MVFR
1397:lib/arm_atsam/packs/arm/cmsis/5.0.1/CMSIS/Include/core_cm4.h **** #define FPU_MVFR1_D_NaN_mode_Msk           (0xFUL << FPU_MVFR1_D_NaN_mode_Pos)            /*!< MVFR
1398:lib/arm_atsam/packs/arm/cmsis/5.0.1/CMSIS/Include/core_cm4.h **** 
1399:lib/arm_atsam/packs/arm/cmsis/5.0.1/CMSIS/Include/core_cm4.h **** #define FPU_MVFR1_FtZ_mode_Pos              0U                                            /*!< MVFR
1400:lib/arm_atsam/packs/arm/cmsis/5.0.1/CMSIS/Include/core_cm4.h **** #define FPU_MVFR1_FtZ_mode_Msk             (0xFUL /*<< FPU_MVFR1_FtZ_mode_Pos*/)          /*!< MVFR
1401:lib/arm_atsam/packs/arm/cmsis/5.0.1/CMSIS/Include/core_cm4.h **** 
1402:lib/arm_atsam/packs/arm/cmsis/5.0.1/CMSIS/Include/core_cm4.h **** /*@} end of group CMSIS_FPU */
1403:lib/arm_atsam/packs/arm/cmsis/5.0.1/CMSIS/Include/core_cm4.h **** 
1404:lib/arm_atsam/packs/arm/cmsis/5.0.1/CMSIS/Include/core_cm4.h **** 
1405:lib/arm_atsam/packs/arm/cmsis/5.0.1/CMSIS/Include/core_cm4.h **** /**
1406:lib/arm_atsam/packs/arm/cmsis/5.0.1/CMSIS/Include/core_cm4.h ****   \ingroup  CMSIS_core_register
1407:lib/arm_atsam/packs/arm/cmsis/5.0.1/CMSIS/Include/core_cm4.h ****   \defgroup CMSIS_CoreDebug       Core Debug Registers (CoreDebug)
1408:lib/arm_atsam/packs/arm/cmsis/5.0.1/CMSIS/Include/core_cm4.h ****   \brief    Type definitions for the Core Debug Registers
1409:lib/arm_atsam/packs/arm/cmsis/5.0.1/CMSIS/Include/core_cm4.h ****   @{
1410:lib/arm_atsam/packs/arm/cmsis/5.0.1/CMSIS/Include/core_cm4.h ****  */
1411:lib/arm_atsam/packs/arm/cmsis/5.0.1/CMSIS/Include/core_cm4.h **** 
1412:lib/arm_atsam/packs/arm/cmsis/5.0.1/CMSIS/Include/core_cm4.h **** /**
1413:lib/arm_atsam/packs/arm/cmsis/5.0.1/CMSIS/Include/core_cm4.h ****   \brief  Structure type to access the Core Debug Register (CoreDebug).
1414:lib/arm_atsam/packs/arm/cmsis/5.0.1/CMSIS/Include/core_cm4.h ****  */
1415:lib/arm_atsam/packs/arm/cmsis/5.0.1/CMSIS/Include/core_cm4.h **** typedef struct
1416:lib/arm_atsam/packs/arm/cmsis/5.0.1/CMSIS/Include/core_cm4.h **** {
1417:lib/arm_atsam/packs/arm/cmsis/5.0.1/CMSIS/Include/core_cm4.h ****   __IOM uint32_t DHCSR;                  /*!< Offset: 0x000 (R/W)  Debug Halting Control and Status
1418:lib/arm_atsam/packs/arm/cmsis/5.0.1/CMSIS/Include/core_cm4.h ****   __OM  uint32_t DCRSR;                  /*!< Offset: 0x004 ( /W)  Debug Core Register Selector Reg
1419:lib/arm_atsam/packs/arm/cmsis/5.0.1/CMSIS/Include/core_cm4.h ****   __IOM uint32_t DCRDR;                  /*!< Offset: 0x008 (R/W)  Debug Core Register Data Registe
1420:lib/arm_atsam/packs/arm/cmsis/5.0.1/CMSIS/Include/core_cm4.h ****   __IOM uint32_t DEMCR;                  /*!< Offset: 0x00C (R/W)  Debug Exception and Monitor Cont
1421:lib/arm_atsam/packs/arm/cmsis/5.0.1/CMSIS/Include/core_cm4.h **** } CoreDebug_Type;
1422:lib/arm_atsam/packs/arm/cmsis/5.0.1/CMSIS/Include/core_cm4.h **** 
1423:lib/arm_atsam/packs/arm/cmsis/5.0.1/CMSIS/Include/core_cm4.h **** /* Debug Halting Control and Status Register Definitions */
1424:lib/arm_atsam/packs/arm/cmsis/5.0.1/CMSIS/Include/core_cm4.h **** #define CoreDebug_DHCSR_DBGKEY_Pos         16U                                            /*!< Core
1425:lib/arm_atsam/packs/arm/cmsis/5.0.1/CMSIS/Include/core_cm4.h **** #define CoreDebug_DHCSR_DBGKEY_Msk         (0xFFFFUL << CoreDebug_DHCSR_DBGKEY_Pos)       /*!< Core
1426:lib/arm_atsam/packs/arm/cmsis/5.0.1/CMSIS/Include/core_cm4.h **** 
1427:lib/arm_atsam/packs/arm/cmsis/5.0.1/CMSIS/Include/core_cm4.h **** #define CoreDebug_DHCSR_S_RESET_ST_Pos     25U                                            /*!< Core
1428:lib/arm_atsam/packs/arm/cmsis/5.0.1/CMSIS/Include/core_cm4.h **** #define CoreDebug_DHCSR_S_RESET_ST_Msk     (1UL << CoreDebug_DHCSR_S_RESET_ST_Pos)        /*!< Core
1429:lib/arm_atsam/packs/arm/cmsis/5.0.1/CMSIS/Include/core_cm4.h **** 
1430:lib/arm_atsam/packs/arm/cmsis/5.0.1/CMSIS/Include/core_cm4.h **** #define CoreDebug_DHCSR_S_RETIRE_ST_Pos    24U                                            /*!< Core
1431:lib/arm_atsam/packs/arm/cmsis/5.0.1/CMSIS/Include/core_cm4.h **** #define CoreDebug_DHCSR_S_RETIRE_ST_Msk    (1UL << CoreDebug_DHCSR_S_RETIRE_ST_Pos)       /*!< Core
1432:lib/arm_atsam/packs/arm/cmsis/5.0.1/CMSIS/Include/core_cm4.h **** 
1433:lib/arm_atsam/packs/arm/cmsis/5.0.1/CMSIS/Include/core_cm4.h **** #define CoreDebug_DHCSR_S_LOCKUP_Pos       19U                                            /*!< Core
1434:lib/arm_atsam/packs/arm/cmsis/5.0.1/CMSIS/Include/core_cm4.h **** #define CoreDebug_DHCSR_S_LOCKUP_Msk       (1UL << CoreDebug_DHCSR_S_LOCKUP_Pos)          /*!< Core
1435:lib/arm_atsam/packs/arm/cmsis/5.0.1/CMSIS/Include/core_cm4.h **** 
1436:lib/arm_atsam/packs/arm/cmsis/5.0.1/CMSIS/Include/core_cm4.h **** #define CoreDebug_DHCSR_S_SLEEP_Pos        18U                                            /*!< Core
1437:lib/arm_atsam/packs/arm/cmsis/5.0.1/CMSIS/Include/core_cm4.h **** #define CoreDebug_DHCSR_S_SLEEP_Msk        (1UL << CoreDebug_DHCSR_S_SLEEP_Pos)           /*!< Core
1438:lib/arm_atsam/packs/arm/cmsis/5.0.1/CMSIS/Include/core_cm4.h **** 
1439:lib/arm_atsam/packs/arm/cmsis/5.0.1/CMSIS/Include/core_cm4.h **** #define CoreDebug_DHCSR_S_HALT_Pos         17U                                            /*!< Core
1440:lib/arm_atsam/packs/arm/cmsis/5.0.1/CMSIS/Include/core_cm4.h **** #define CoreDebug_DHCSR_S_HALT_Msk         (1UL << CoreDebug_DHCSR_S_HALT_Pos)            /*!< Core
1441:lib/arm_atsam/packs/arm/cmsis/5.0.1/CMSIS/Include/core_cm4.h **** 
1442:lib/arm_atsam/packs/arm/cmsis/5.0.1/CMSIS/Include/core_cm4.h **** #define CoreDebug_DHCSR_S_REGRDY_Pos       16U                                            /*!< Core
1443:lib/arm_atsam/packs/arm/cmsis/5.0.1/CMSIS/Include/core_cm4.h **** #define CoreDebug_DHCSR_S_REGRDY_Msk       (1UL << CoreDebug_DHCSR_S_REGRDY_Pos)          /*!< Core
1444:lib/arm_atsam/packs/arm/cmsis/5.0.1/CMSIS/Include/core_cm4.h **** 
1445:lib/arm_atsam/packs/arm/cmsis/5.0.1/CMSIS/Include/core_cm4.h **** #define CoreDebug_DHCSR_C_SNAPSTALL_Pos     5U                                            /*!< Core
1446:lib/arm_atsam/packs/arm/cmsis/5.0.1/CMSIS/Include/core_cm4.h **** #define CoreDebug_DHCSR_C_SNAPSTALL_Msk    (1UL << CoreDebug_DHCSR_C_SNAPSTALL_Pos)       /*!< Core
1447:lib/arm_atsam/packs/arm/cmsis/5.0.1/CMSIS/Include/core_cm4.h **** 
1448:lib/arm_atsam/packs/arm/cmsis/5.0.1/CMSIS/Include/core_cm4.h **** #define CoreDebug_DHCSR_C_MASKINTS_Pos      3U                                            /*!< Core
1449:lib/arm_atsam/packs/arm/cmsis/5.0.1/CMSIS/Include/core_cm4.h **** #define CoreDebug_DHCSR_C_MASKINTS_Msk     (1UL << CoreDebug_DHCSR_C_MASKINTS_Pos)        /*!< Core
1450:lib/arm_atsam/packs/arm/cmsis/5.0.1/CMSIS/Include/core_cm4.h **** 
1451:lib/arm_atsam/packs/arm/cmsis/5.0.1/CMSIS/Include/core_cm4.h **** #define CoreDebug_DHCSR_C_STEP_Pos          2U                                            /*!< Core
1452:lib/arm_atsam/packs/arm/cmsis/5.0.1/CMSIS/Include/core_cm4.h **** #define CoreDebug_DHCSR_C_STEP_Msk         (1UL << CoreDebug_DHCSR_C_STEP_Pos)            /*!< Core
1453:lib/arm_atsam/packs/arm/cmsis/5.0.1/CMSIS/Include/core_cm4.h **** 
1454:lib/arm_atsam/packs/arm/cmsis/5.0.1/CMSIS/Include/core_cm4.h **** #define CoreDebug_DHCSR_C_HALT_Pos          1U                                            /*!< Core
1455:lib/arm_atsam/packs/arm/cmsis/5.0.1/CMSIS/Include/core_cm4.h **** #define CoreDebug_DHCSR_C_HALT_Msk         (1UL << CoreDebug_DHCSR_C_HALT_Pos)            /*!< Core
1456:lib/arm_atsam/packs/arm/cmsis/5.0.1/CMSIS/Include/core_cm4.h **** 
1457:lib/arm_atsam/packs/arm/cmsis/5.0.1/CMSIS/Include/core_cm4.h **** #define CoreDebug_DHCSR_C_DEBUGEN_Pos       0U                                            /*!< Core
1458:lib/arm_atsam/packs/arm/cmsis/5.0.1/CMSIS/Include/core_cm4.h **** #define CoreDebug_DHCSR_C_DEBUGEN_Msk      (1UL /*<< CoreDebug_DHCSR_C_DEBUGEN_Pos*/)     /*!< Core
1459:lib/arm_atsam/packs/arm/cmsis/5.0.1/CMSIS/Include/core_cm4.h **** 
1460:lib/arm_atsam/packs/arm/cmsis/5.0.1/CMSIS/Include/core_cm4.h **** /* Debug Core Register Selector Register Definitions */
1461:lib/arm_atsam/packs/arm/cmsis/5.0.1/CMSIS/Include/core_cm4.h **** #define CoreDebug_DCRSR_REGWnR_Pos         16U                                            /*!< Core
1462:lib/arm_atsam/packs/arm/cmsis/5.0.1/CMSIS/Include/core_cm4.h **** #define CoreDebug_DCRSR_REGWnR_Msk         (1UL << CoreDebug_DCRSR_REGWnR_Pos)            /*!< Core
1463:lib/arm_atsam/packs/arm/cmsis/5.0.1/CMSIS/Include/core_cm4.h **** 
1464:lib/arm_atsam/packs/arm/cmsis/5.0.1/CMSIS/Include/core_cm4.h **** #define CoreDebug_DCRSR_REGSEL_Pos          0U                                            /*!< Core
1465:lib/arm_atsam/packs/arm/cmsis/5.0.1/CMSIS/Include/core_cm4.h **** #define CoreDebug_DCRSR_REGSEL_Msk         (0x1FUL /*<< CoreDebug_DCRSR_REGSEL_Pos*/)     /*!< Core
1466:lib/arm_atsam/packs/arm/cmsis/5.0.1/CMSIS/Include/core_cm4.h **** 
1467:lib/arm_atsam/packs/arm/cmsis/5.0.1/CMSIS/Include/core_cm4.h **** /* Debug Exception and Monitor Control Register Definitions */
1468:lib/arm_atsam/packs/arm/cmsis/5.0.1/CMSIS/Include/core_cm4.h **** #define CoreDebug_DEMCR_TRCENA_Pos         24U                                            /*!< Core
1469:lib/arm_atsam/packs/arm/cmsis/5.0.1/CMSIS/Include/core_cm4.h **** #define CoreDebug_DEMCR_TRCENA_Msk         (1UL << CoreDebug_DEMCR_TRCENA_Pos)            /*!< Core
1470:lib/arm_atsam/packs/arm/cmsis/5.0.1/CMSIS/Include/core_cm4.h **** 
1471:lib/arm_atsam/packs/arm/cmsis/5.0.1/CMSIS/Include/core_cm4.h **** #define CoreDebug_DEMCR_MON_REQ_Pos        19U                                            /*!< Core
1472:lib/arm_atsam/packs/arm/cmsis/5.0.1/CMSIS/Include/core_cm4.h **** #define CoreDebug_DEMCR_MON_REQ_Msk        (1UL << CoreDebug_DEMCR_MON_REQ_Pos)           /*!< Core
1473:lib/arm_atsam/packs/arm/cmsis/5.0.1/CMSIS/Include/core_cm4.h **** 
1474:lib/arm_atsam/packs/arm/cmsis/5.0.1/CMSIS/Include/core_cm4.h **** #define CoreDebug_DEMCR_MON_STEP_Pos       18U                                            /*!< Core
1475:lib/arm_atsam/packs/arm/cmsis/5.0.1/CMSIS/Include/core_cm4.h **** #define CoreDebug_DEMCR_MON_STEP_Msk       (1UL << CoreDebug_DEMCR_MON_STEP_Pos)          /*!< Core
1476:lib/arm_atsam/packs/arm/cmsis/5.0.1/CMSIS/Include/core_cm4.h **** 
1477:lib/arm_atsam/packs/arm/cmsis/5.0.1/CMSIS/Include/core_cm4.h **** #define CoreDebug_DEMCR_MON_PEND_Pos       17U                                            /*!< Core
1478:lib/arm_atsam/packs/arm/cmsis/5.0.1/CMSIS/Include/core_cm4.h **** #define CoreDebug_DEMCR_MON_PEND_Msk       (1UL << CoreDebug_DEMCR_MON_PEND_Pos)          /*!< Core
1479:lib/arm_atsam/packs/arm/cmsis/5.0.1/CMSIS/Include/core_cm4.h **** 
1480:lib/arm_atsam/packs/arm/cmsis/5.0.1/CMSIS/Include/core_cm4.h **** #define CoreDebug_DEMCR_MON_EN_Pos         16U                                            /*!< Core
1481:lib/arm_atsam/packs/arm/cmsis/5.0.1/CMSIS/Include/core_cm4.h **** #define CoreDebug_DEMCR_MON_EN_Msk         (1UL << CoreDebug_DEMCR_MON_EN_Pos)            /*!< Core
1482:lib/arm_atsam/packs/arm/cmsis/5.0.1/CMSIS/Include/core_cm4.h **** 
1483:lib/arm_atsam/packs/arm/cmsis/5.0.1/CMSIS/Include/core_cm4.h **** #define CoreDebug_DEMCR_VC_HARDERR_Pos     10U                                            /*!< Core
1484:lib/arm_atsam/packs/arm/cmsis/5.0.1/CMSIS/Include/core_cm4.h **** #define CoreDebug_DEMCR_VC_HARDERR_Msk     (1UL << CoreDebug_DEMCR_VC_HARDERR_Pos)        /*!< Core
1485:lib/arm_atsam/packs/arm/cmsis/5.0.1/CMSIS/Include/core_cm4.h **** 
1486:lib/arm_atsam/packs/arm/cmsis/5.0.1/CMSIS/Include/core_cm4.h **** #define CoreDebug_DEMCR_VC_INTERR_Pos       9U                                            /*!< Core
1487:lib/arm_atsam/packs/arm/cmsis/5.0.1/CMSIS/Include/core_cm4.h **** #define CoreDebug_DEMCR_VC_INTERR_Msk      (1UL << CoreDebug_DEMCR_VC_INTERR_Pos)         /*!< Core
1488:lib/arm_atsam/packs/arm/cmsis/5.0.1/CMSIS/Include/core_cm4.h **** 
1489:lib/arm_atsam/packs/arm/cmsis/5.0.1/CMSIS/Include/core_cm4.h **** #define CoreDebug_DEMCR_VC_BUSERR_Pos       8U                                            /*!< Core
1490:lib/arm_atsam/packs/arm/cmsis/5.0.1/CMSIS/Include/core_cm4.h **** #define CoreDebug_DEMCR_VC_BUSERR_Msk      (1UL << CoreDebug_DEMCR_VC_BUSERR_Pos)         /*!< Core
1491:lib/arm_atsam/packs/arm/cmsis/5.0.1/CMSIS/Include/core_cm4.h **** 
1492:lib/arm_atsam/packs/arm/cmsis/5.0.1/CMSIS/Include/core_cm4.h **** #define CoreDebug_DEMCR_VC_STATERR_Pos      7U                                            /*!< Core
1493:lib/arm_atsam/packs/arm/cmsis/5.0.1/CMSIS/Include/core_cm4.h **** #define CoreDebug_DEMCR_VC_STATERR_Msk     (1UL << CoreDebug_DEMCR_VC_STATERR_Pos)        /*!< Core
1494:lib/arm_atsam/packs/arm/cmsis/5.0.1/CMSIS/Include/core_cm4.h **** 
1495:lib/arm_atsam/packs/arm/cmsis/5.0.1/CMSIS/Include/core_cm4.h **** #define CoreDebug_DEMCR_VC_CHKERR_Pos       6U                                            /*!< Core
1496:lib/arm_atsam/packs/arm/cmsis/5.0.1/CMSIS/Include/core_cm4.h **** #define CoreDebug_DEMCR_VC_CHKERR_Msk      (1UL << CoreDebug_DEMCR_VC_CHKERR_Pos)         /*!< Core
1497:lib/arm_atsam/packs/arm/cmsis/5.0.1/CMSIS/Include/core_cm4.h **** 
1498:lib/arm_atsam/packs/arm/cmsis/5.0.1/CMSIS/Include/core_cm4.h **** #define CoreDebug_DEMCR_VC_NOCPERR_Pos      5U                                            /*!< Core
1499:lib/arm_atsam/packs/arm/cmsis/5.0.1/CMSIS/Include/core_cm4.h **** #define CoreDebug_DEMCR_VC_NOCPERR_Msk     (1UL << CoreDebug_DEMCR_VC_NOCPERR_Pos)        /*!< Core
1500:lib/arm_atsam/packs/arm/cmsis/5.0.1/CMSIS/Include/core_cm4.h **** 
1501:lib/arm_atsam/packs/arm/cmsis/5.0.1/CMSIS/Include/core_cm4.h **** #define CoreDebug_DEMCR_VC_MMERR_Pos        4U                                            /*!< Core
1502:lib/arm_atsam/packs/arm/cmsis/5.0.1/CMSIS/Include/core_cm4.h **** #define CoreDebug_DEMCR_VC_MMERR_Msk       (1UL << CoreDebug_DEMCR_VC_MMERR_Pos)          /*!< Core
1503:lib/arm_atsam/packs/arm/cmsis/5.0.1/CMSIS/Include/core_cm4.h **** 
1504:lib/arm_atsam/packs/arm/cmsis/5.0.1/CMSIS/Include/core_cm4.h **** #define CoreDebug_DEMCR_VC_CORERESET_Pos    0U                                            /*!< Core
1505:lib/arm_atsam/packs/arm/cmsis/5.0.1/CMSIS/Include/core_cm4.h **** #define CoreDebug_DEMCR_VC_CORERESET_Msk   (1UL /*<< CoreDebug_DEMCR_VC_CORERESET_Pos*/)  /*!< Core
1506:lib/arm_atsam/packs/arm/cmsis/5.0.1/CMSIS/Include/core_cm4.h **** 
1507:lib/arm_atsam/packs/arm/cmsis/5.0.1/CMSIS/Include/core_cm4.h **** /*@} end of group CMSIS_CoreDebug */
1508:lib/arm_atsam/packs/arm/cmsis/5.0.1/CMSIS/Include/core_cm4.h **** 
1509:lib/arm_atsam/packs/arm/cmsis/5.0.1/CMSIS/Include/core_cm4.h **** 
1510:lib/arm_atsam/packs/arm/cmsis/5.0.1/CMSIS/Include/core_cm4.h **** /**
1511:lib/arm_atsam/packs/arm/cmsis/5.0.1/CMSIS/Include/core_cm4.h ****   \ingroup    CMSIS_core_register
1512:lib/arm_atsam/packs/arm/cmsis/5.0.1/CMSIS/Include/core_cm4.h ****   \defgroup   CMSIS_core_bitfield     Core register bit field macros
1513:lib/arm_atsam/packs/arm/cmsis/5.0.1/CMSIS/Include/core_cm4.h ****   \brief      Macros for use with bit field definitions (xxx_Pos, xxx_Msk).
1514:lib/arm_atsam/packs/arm/cmsis/5.0.1/CMSIS/Include/core_cm4.h ****   @{
1515:lib/arm_atsam/packs/arm/cmsis/5.0.1/CMSIS/Include/core_cm4.h ****  */
1516:lib/arm_atsam/packs/arm/cmsis/5.0.1/CMSIS/Include/core_cm4.h **** 
1517:lib/arm_atsam/packs/arm/cmsis/5.0.1/CMSIS/Include/core_cm4.h **** /**
1518:lib/arm_atsam/packs/arm/cmsis/5.0.1/CMSIS/Include/core_cm4.h ****   \brief   Mask and shift a bit field value for use in a register bit range.
1519:lib/arm_atsam/packs/arm/cmsis/5.0.1/CMSIS/Include/core_cm4.h ****   \param[in] field  Name of the register bit field.
1520:lib/arm_atsam/packs/arm/cmsis/5.0.1/CMSIS/Include/core_cm4.h ****   \param[in] value  Value of the bit field. This parameter is interpreted as an uint32_t type.
1521:lib/arm_atsam/packs/arm/cmsis/5.0.1/CMSIS/Include/core_cm4.h ****   \return           Masked and shifted value.
1522:lib/arm_atsam/packs/arm/cmsis/5.0.1/CMSIS/Include/core_cm4.h **** */
1523:lib/arm_atsam/packs/arm/cmsis/5.0.1/CMSIS/Include/core_cm4.h **** #define _VAL2FLD(field, value)    (((uint32_t)(value) << field ## _Pos) & field ## _Msk)
1524:lib/arm_atsam/packs/arm/cmsis/5.0.1/CMSIS/Include/core_cm4.h **** 
1525:lib/arm_atsam/packs/arm/cmsis/5.0.1/CMSIS/Include/core_cm4.h **** /**
1526:lib/arm_atsam/packs/arm/cmsis/5.0.1/CMSIS/Include/core_cm4.h ****   \brief     Mask and shift a register value to extract a bit filed value.
1527:lib/arm_atsam/packs/arm/cmsis/5.0.1/CMSIS/Include/core_cm4.h ****   \param[in] field  Name of the register bit field.
1528:lib/arm_atsam/packs/arm/cmsis/5.0.1/CMSIS/Include/core_cm4.h ****   \param[in] value  Value of register. This parameter is interpreted as an uint32_t type.
1529:lib/arm_atsam/packs/arm/cmsis/5.0.1/CMSIS/Include/core_cm4.h ****   \return           Masked and shifted bit field value.
1530:lib/arm_atsam/packs/arm/cmsis/5.0.1/CMSIS/Include/core_cm4.h **** */
1531:lib/arm_atsam/packs/arm/cmsis/5.0.1/CMSIS/Include/core_cm4.h **** #define _FLD2VAL(field, value)    (((uint32_t)(value) & field ## _Msk) >> field ## _Pos)
1532:lib/arm_atsam/packs/arm/cmsis/5.0.1/CMSIS/Include/core_cm4.h **** 
1533:lib/arm_atsam/packs/arm/cmsis/5.0.1/CMSIS/Include/core_cm4.h **** /*@} end of group CMSIS_core_bitfield */
1534:lib/arm_atsam/packs/arm/cmsis/5.0.1/CMSIS/Include/core_cm4.h **** 
1535:lib/arm_atsam/packs/arm/cmsis/5.0.1/CMSIS/Include/core_cm4.h **** 
1536:lib/arm_atsam/packs/arm/cmsis/5.0.1/CMSIS/Include/core_cm4.h **** /**
1537:lib/arm_atsam/packs/arm/cmsis/5.0.1/CMSIS/Include/core_cm4.h ****   \ingroup    CMSIS_core_register
1538:lib/arm_atsam/packs/arm/cmsis/5.0.1/CMSIS/Include/core_cm4.h ****   \defgroup   CMSIS_core_base     Core Definitions
1539:lib/arm_atsam/packs/arm/cmsis/5.0.1/CMSIS/Include/core_cm4.h ****   \brief      Definitions for base addresses, unions, and structures.
1540:lib/arm_atsam/packs/arm/cmsis/5.0.1/CMSIS/Include/core_cm4.h ****   @{
1541:lib/arm_atsam/packs/arm/cmsis/5.0.1/CMSIS/Include/core_cm4.h ****  */
1542:lib/arm_atsam/packs/arm/cmsis/5.0.1/CMSIS/Include/core_cm4.h **** 
1543:lib/arm_atsam/packs/arm/cmsis/5.0.1/CMSIS/Include/core_cm4.h **** /* Memory mapping of Core Hardware */
1544:lib/arm_atsam/packs/arm/cmsis/5.0.1/CMSIS/Include/core_cm4.h **** #define SCS_BASE            (0xE000E000UL)                            /*!< System Control Space Bas
1545:lib/arm_atsam/packs/arm/cmsis/5.0.1/CMSIS/Include/core_cm4.h **** #define ITM_BASE            (0xE0000000UL)                            /*!< ITM Base Address */
1546:lib/arm_atsam/packs/arm/cmsis/5.0.1/CMSIS/Include/core_cm4.h **** #define DWT_BASE            (0xE0001000UL)                            /*!< DWT Base Address */
1547:lib/arm_atsam/packs/arm/cmsis/5.0.1/CMSIS/Include/core_cm4.h **** #define TPI_BASE            (0xE0040000UL)                            /*!< TPI Base Address */
1548:lib/arm_atsam/packs/arm/cmsis/5.0.1/CMSIS/Include/core_cm4.h **** #define CoreDebug_BASE      (0xE000EDF0UL)                            /*!< Core Debug Base Address 
1549:lib/arm_atsam/packs/arm/cmsis/5.0.1/CMSIS/Include/core_cm4.h **** #define SysTick_BASE        (SCS_BASE +  0x0010UL)                    /*!< SysTick Base Address */
1550:lib/arm_atsam/packs/arm/cmsis/5.0.1/CMSIS/Include/core_cm4.h **** #define NVIC_BASE           (SCS_BASE +  0x0100UL)                    /*!< NVIC Base Address */
1551:lib/arm_atsam/packs/arm/cmsis/5.0.1/CMSIS/Include/core_cm4.h **** #define SCB_BASE            (SCS_BASE +  0x0D00UL)                    /*!< System Control Block Bas
1552:lib/arm_atsam/packs/arm/cmsis/5.0.1/CMSIS/Include/core_cm4.h **** 
1553:lib/arm_atsam/packs/arm/cmsis/5.0.1/CMSIS/Include/core_cm4.h **** #define SCnSCB              ((SCnSCB_Type    *)     SCS_BASE      )   /*!< System control Register 
1554:lib/arm_atsam/packs/arm/cmsis/5.0.1/CMSIS/Include/core_cm4.h **** #define SCB                 ((SCB_Type       *)     SCB_BASE      )   /*!< SCB configuration struct
1555:lib/arm_atsam/packs/arm/cmsis/5.0.1/CMSIS/Include/core_cm4.h **** #define SysTick             ((SysTick_Type   *)     SysTick_BASE  )   /*!< SysTick configuration st
1556:lib/arm_atsam/packs/arm/cmsis/5.0.1/CMSIS/Include/core_cm4.h **** #define NVIC                ((NVIC_Type      *)     NVIC_BASE     )   /*!< NVIC configuration struc
1557:lib/arm_atsam/packs/arm/cmsis/5.0.1/CMSIS/Include/core_cm4.h **** #define ITM                 ((ITM_Type       *)     ITM_BASE      )   /*!< ITM configuration struct
1558:lib/arm_atsam/packs/arm/cmsis/5.0.1/CMSIS/Include/core_cm4.h **** #define DWT                 ((DWT_Type       *)     DWT_BASE      )   /*!< DWT configuration struct
1559:lib/arm_atsam/packs/arm/cmsis/5.0.1/CMSIS/Include/core_cm4.h **** #define TPI                 ((TPI_Type       *)     TPI_BASE      )   /*!< TPI configuration struct
1560:lib/arm_atsam/packs/arm/cmsis/5.0.1/CMSIS/Include/core_cm4.h **** #define CoreDebug           ((CoreDebug_Type *)     CoreDebug_BASE)   /*!< Core Debug configuration
1561:lib/arm_atsam/packs/arm/cmsis/5.0.1/CMSIS/Include/core_cm4.h **** 
1562:lib/arm_atsam/packs/arm/cmsis/5.0.1/CMSIS/Include/core_cm4.h **** #if defined (__MPU_PRESENT) && (__MPU_PRESENT == 1U)
1563:lib/arm_atsam/packs/arm/cmsis/5.0.1/CMSIS/Include/core_cm4.h ****   #define MPU_BASE          (SCS_BASE +  0x0D90UL)                    /*!< Memory Protection Unit *
1564:lib/arm_atsam/packs/arm/cmsis/5.0.1/CMSIS/Include/core_cm4.h ****   #define MPU               ((MPU_Type       *)     MPU_BASE      )   /*!< Memory Protection Unit *
1565:lib/arm_atsam/packs/arm/cmsis/5.0.1/CMSIS/Include/core_cm4.h **** #endif
1566:lib/arm_atsam/packs/arm/cmsis/5.0.1/CMSIS/Include/core_cm4.h **** 
1567:lib/arm_atsam/packs/arm/cmsis/5.0.1/CMSIS/Include/core_cm4.h **** #define FPU_BASE            (SCS_BASE +  0x0F30UL)                    /*!< Floating Point Unit */
1568:lib/arm_atsam/packs/arm/cmsis/5.0.1/CMSIS/Include/core_cm4.h **** #define FPU                 ((FPU_Type       *)     FPU_BASE      )   /*!< Floating Point Unit */
1569:lib/arm_atsam/packs/arm/cmsis/5.0.1/CMSIS/Include/core_cm4.h **** 
1570:lib/arm_atsam/packs/arm/cmsis/5.0.1/CMSIS/Include/core_cm4.h **** /*@} */
1571:lib/arm_atsam/packs/arm/cmsis/5.0.1/CMSIS/Include/core_cm4.h **** 
1572:lib/arm_atsam/packs/arm/cmsis/5.0.1/CMSIS/Include/core_cm4.h **** 
1573:lib/arm_atsam/packs/arm/cmsis/5.0.1/CMSIS/Include/core_cm4.h **** 
1574:lib/arm_atsam/packs/arm/cmsis/5.0.1/CMSIS/Include/core_cm4.h **** /*******************************************************************************
1575:lib/arm_atsam/packs/arm/cmsis/5.0.1/CMSIS/Include/core_cm4.h ****  *                Hardware Abstraction Layer
1576:lib/arm_atsam/packs/arm/cmsis/5.0.1/CMSIS/Include/core_cm4.h ****   Core Function Interface contains:
1577:lib/arm_atsam/packs/arm/cmsis/5.0.1/CMSIS/Include/core_cm4.h ****   - Core NVIC Functions
1578:lib/arm_atsam/packs/arm/cmsis/5.0.1/CMSIS/Include/core_cm4.h ****   - Core SysTick Functions
1579:lib/arm_atsam/packs/arm/cmsis/5.0.1/CMSIS/Include/core_cm4.h ****   - Core Debug Functions
1580:lib/arm_atsam/packs/arm/cmsis/5.0.1/CMSIS/Include/core_cm4.h ****   - Core Register Access Functions
