   1               		.file	"keymap_common.c"
   2               	__SP_H__ = 0x3e
   3               	__SP_L__ = 0x3d
   4               	__SREG__ = 0x3f
   5               	__tmp_reg__ = 0
   6               	__zero_reg__ = 1
   7               		.text
   8               	.Ltext0:
   9               		.cfi_sections	.debug_frame
  10               		.section	.text.action_get_macro,"ax",@progbits
  11               		.weak	action_get_macro
  13               	action_get_macro:
  14               	.LFB113:
  15               		.file 1 "quantum/keymap_common.c"
   1:quantum/keymap_common.c **** /*
   2:quantum/keymap_common.c **** Copyright 2012-2017 Jun Wako <wakojun@gmail.com>
   3:quantum/keymap_common.c **** 
   4:quantum/keymap_common.c **** This program is free software: you can redistribute it and/or modify
   5:quantum/keymap_common.c **** it under the terms of the GNU General Public License as published by
   6:quantum/keymap_common.c **** the Free Software Foundation, either version 2 of the License, or
   7:quantum/keymap_common.c **** (at your option) any later version.
   8:quantum/keymap_common.c **** 
   9:quantum/keymap_common.c **** This program is distributed in the hope that it will be useful,
  10:quantum/keymap_common.c **** but WITHOUT ANY WARRANTY; without even the implied warranty of
  11:quantum/keymap_common.c **** MERCHANTABILITY or FITNESS FOR A PARTICULAR PURPOSE.  See the
  12:quantum/keymap_common.c **** GNU General Public License for more details.
  13:quantum/keymap_common.c **** 
  14:quantum/keymap_common.c **** You should have received a copy of the GNU General Public License
  15:quantum/keymap_common.c **** along with this program.  If not, see <http://www.gnu.org/licenses/>.
  16:quantum/keymap_common.c **** */
  17:quantum/keymap_common.c **** 
  18:quantum/keymap_common.c **** #include "keymap.h"
  19:quantum/keymap_common.c **** #include "report.h"
  20:quantum/keymap_common.c **** #include "keycode.h"
  21:quantum/keymap_common.c **** #include "action_layer.h"
  22:quantum/keymap_common.c **** #if defined(__AVR__)
  23:quantum/keymap_common.c **** #    include <util/delay.h>
  24:quantum/keymap_common.c **** #    include <stdio.h>
  25:quantum/keymap_common.c **** #endif
  26:quantum/keymap_common.c **** #include "action.h"
  27:quantum/keymap_common.c **** #include "action_macro.h"
  28:quantum/keymap_common.c **** #include "debug.h"
  29:quantum/keymap_common.c **** #include "backlight.h"
  30:quantum/keymap_common.c **** #include "quantum.h"
  31:quantum/keymap_common.c **** 
  32:quantum/keymap_common.c **** #ifdef MIDI_ENABLE
  33:quantum/keymap_common.c **** #    include "process_midi.h"
  34:quantum/keymap_common.c **** #endif
  35:quantum/keymap_common.c **** 
  36:quantum/keymap_common.c **** extern keymap_config_t keymap_config;
  37:quantum/keymap_common.c **** 
  38:quantum/keymap_common.c **** #include <inttypes.h>
  39:quantum/keymap_common.c **** 
  40:quantum/keymap_common.c **** /* converts key to action */
  41:quantum/keymap_common.c **** action_t action_for_key(uint8_t layer, keypos_t key) {
  42:quantum/keymap_common.c ****     // 16bit keycodes - important
  43:quantum/keymap_common.c ****     uint16_t keycode = keymap_key_to_keycode(layer, key);
  44:quantum/keymap_common.c **** 
  45:quantum/keymap_common.c ****     // keycode remapping
  46:quantum/keymap_common.c ****     keycode = keycode_config(keycode);
  47:quantum/keymap_common.c **** 
  48:quantum/keymap_common.c ****     action_t action;
  49:quantum/keymap_common.c ****     uint8_t  action_layer, when, mod;
  50:quantum/keymap_common.c **** 
  51:quantum/keymap_common.c ****     switch (keycode) {
  52:quantum/keymap_common.c ****         case KC_FN0 ... KC_FN31:
  53:quantum/keymap_common.c ****             action.code = keymap_function_id_to_action(FN_INDEX(keycode));
  54:quantum/keymap_common.c ****             break;
  55:quantum/keymap_common.c ****         case KC_A ... KC_EXSEL:
  56:quantum/keymap_common.c ****         case KC_LCTRL ... KC_RGUI:
  57:quantum/keymap_common.c ****             action.code = ACTION_KEY(keycode);
  58:quantum/keymap_common.c ****             break;
  59:quantum/keymap_common.c ****         case KC_SYSTEM_POWER ... KC_SYSTEM_WAKE:
  60:quantum/keymap_common.c ****             action.code = ACTION_USAGE_SYSTEM(KEYCODE2SYSTEM(keycode));
  61:quantum/keymap_common.c ****             break;
  62:quantum/keymap_common.c ****         case KC_AUDIO_MUTE ... KC_BRIGHTNESS_DOWN:
  63:quantum/keymap_common.c ****             action.code = ACTION_USAGE_CONSUMER(KEYCODE2CONSUMER(keycode));
  64:quantum/keymap_common.c ****             break;
  65:quantum/keymap_common.c ****         case KC_MS_UP ... KC_MS_ACCEL2:
  66:quantum/keymap_common.c ****             action.code = ACTION_MOUSEKEY(keycode);
  67:quantum/keymap_common.c ****             break;
  68:quantum/keymap_common.c ****         case KC_TRNS:
  69:quantum/keymap_common.c ****             action.code = ACTION_TRANSPARENT;
  70:quantum/keymap_common.c ****             break;
  71:quantum/keymap_common.c ****         case QK_MODS ... QK_MODS_MAX:;
  72:quantum/keymap_common.c ****             // Has a modifier
  73:quantum/keymap_common.c ****             // Split it up
  74:quantum/keymap_common.c ****             action.code = ACTION_MODS_KEY(keycode >> 8, keycode & 0xFF);  // adds modifier to key
  75:quantum/keymap_common.c ****             break;
  76:quantum/keymap_common.c ****         case QK_FUNCTION ... QK_FUNCTION_MAX:;
  77:quantum/keymap_common.c ****             // Is a shortcut for function action_layer, pull last 12bits
  78:quantum/keymap_common.c ****             // This means we have 4,096 FN macros at our disposal
  79:quantum/keymap_common.c ****             action.code = keymap_function_id_to_action((int)keycode & 0xFFF);
  80:quantum/keymap_common.c ****             break;
  81:quantum/keymap_common.c ****         case QK_MACRO ... QK_MACRO_MAX:
  82:quantum/keymap_common.c ****             if (keycode & 0x800)  // tap macros have upper bit set
  83:quantum/keymap_common.c ****                 action.code = ACTION_MACRO_TAP(keycode & 0xFF);
  84:quantum/keymap_common.c ****             else
  85:quantum/keymap_common.c ****                 action.code = ACTION_MACRO(keycode & 0xFF);
  86:quantum/keymap_common.c ****             break;
  87:quantum/keymap_common.c ****         case QK_LAYER_TAP ... QK_LAYER_TAP_MAX:
  88:quantum/keymap_common.c ****             action.code = ACTION_LAYER_TAP_KEY((keycode >> 0x8) & 0xF, keycode & 0xFF);
  89:quantum/keymap_common.c ****             break;
  90:quantum/keymap_common.c ****         case QK_TO ... QK_TO_MAX:;
  91:quantum/keymap_common.c ****             // Layer set "GOTO"
  92:quantum/keymap_common.c ****             when         = (keycode >> 0x4) & 0x3;
  93:quantum/keymap_common.c ****             action_layer = keycode & 0xF;
  94:quantum/keymap_common.c ****             action.code  = ACTION_LAYER_SET(action_layer, when);
  95:quantum/keymap_common.c ****             break;
  96:quantum/keymap_common.c ****         case QK_MOMENTARY ... QK_MOMENTARY_MAX:;
  97:quantum/keymap_common.c ****             // Momentary action_layer
  98:quantum/keymap_common.c ****             action_layer = keycode & 0xFF;
  99:quantum/keymap_common.c ****             action.code  = ACTION_LAYER_MOMENTARY(action_layer);
 100:quantum/keymap_common.c ****             break;
 101:quantum/keymap_common.c ****         case QK_DEF_LAYER ... QK_DEF_LAYER_MAX:;
 102:quantum/keymap_common.c ****             // Set default action_layer
 103:quantum/keymap_common.c ****             action_layer = keycode & 0xFF;
 104:quantum/keymap_common.c ****             action.code  = ACTION_DEFAULT_LAYER_SET(action_layer);
 105:quantum/keymap_common.c ****             break;
 106:quantum/keymap_common.c ****         case QK_TOGGLE_LAYER ... QK_TOGGLE_LAYER_MAX:;
 107:quantum/keymap_common.c ****             // Set toggle
 108:quantum/keymap_common.c ****             action_layer = keycode & 0xFF;
 109:quantum/keymap_common.c ****             action.code  = ACTION_LAYER_TOGGLE(action_layer);
 110:quantum/keymap_common.c ****             break;
 111:quantum/keymap_common.c ****         case QK_ONE_SHOT_LAYER ... QK_ONE_SHOT_LAYER_MAX:;
 112:quantum/keymap_common.c ****             // OSL(action_layer) - One-shot action_layer
 113:quantum/keymap_common.c ****             action_layer = keycode & 0xFF;
 114:quantum/keymap_common.c ****             action.code  = ACTION_LAYER_ONESHOT(action_layer);
 115:quantum/keymap_common.c ****             break;
 116:quantum/keymap_common.c ****         case QK_ONE_SHOT_MOD ... QK_ONE_SHOT_MOD_MAX:;
 117:quantum/keymap_common.c ****             // OSM(mod) - One-shot mod
 118:quantum/keymap_common.c ****             mod         = mod_config(keycode & 0xFF);
 119:quantum/keymap_common.c ****             action.code = ACTION_MODS_ONESHOT(mod);
 120:quantum/keymap_common.c ****             break;
 121:quantum/keymap_common.c ****         case QK_LAYER_TAP_TOGGLE ... QK_LAYER_TAP_TOGGLE_MAX:
 122:quantum/keymap_common.c ****             action.code = ACTION_LAYER_TAP_TOGGLE(keycode & 0xFF);
 123:quantum/keymap_common.c ****             break;
 124:quantum/keymap_common.c ****         case QK_LAYER_MOD ... QK_LAYER_MOD_MAX:
 125:quantum/keymap_common.c ****             mod          = mod_config(keycode & 0xF);
 126:quantum/keymap_common.c ****             action_layer = (keycode >> 4) & 0xF;
 127:quantum/keymap_common.c ****             action.code  = ACTION_LAYER_MODS(action_layer, mod);
 128:quantum/keymap_common.c ****             break;
 129:quantum/keymap_common.c ****         case QK_MOD_TAP ... QK_MOD_TAP_MAX:
 130:quantum/keymap_common.c ****             mod         = mod_config((keycode >> 0x8) & 0x1F);
 131:quantum/keymap_common.c ****             action.code = ACTION_MODS_TAP_KEY(mod, keycode & 0xFF);
 132:quantum/keymap_common.c ****             break;
 133:quantum/keymap_common.c **** #ifdef BACKLIGHT_ENABLE
 134:quantum/keymap_common.c ****         case BL_ON:
 135:quantum/keymap_common.c ****             action.code = ACTION_BACKLIGHT_ON();
 136:quantum/keymap_common.c ****             break;
 137:quantum/keymap_common.c ****         case BL_OFF:
 138:quantum/keymap_common.c ****             action.code = ACTION_BACKLIGHT_OFF();
 139:quantum/keymap_common.c ****             break;
 140:quantum/keymap_common.c ****         case BL_DEC:
 141:quantum/keymap_common.c ****             action.code = ACTION_BACKLIGHT_DECREASE();
 142:quantum/keymap_common.c ****             break;
 143:quantum/keymap_common.c ****         case BL_INC:
 144:quantum/keymap_common.c ****             action.code = ACTION_BACKLIGHT_INCREASE();
 145:quantum/keymap_common.c ****             break;
 146:quantum/keymap_common.c ****         case BL_TOGG:
 147:quantum/keymap_common.c ****             action.code = ACTION_BACKLIGHT_TOGGLE();
 148:quantum/keymap_common.c ****             break;
 149:quantum/keymap_common.c ****         case BL_STEP:
 150:quantum/keymap_common.c ****             action.code = ACTION_BACKLIGHT_STEP();
 151:quantum/keymap_common.c ****             break;
 152:quantum/keymap_common.c **** #endif
 153:quantum/keymap_common.c **** #ifdef SWAP_HANDS_ENABLE
 154:quantum/keymap_common.c ****         case QK_SWAP_HANDS ... QK_SWAP_HANDS_MAX:
 155:quantum/keymap_common.c ****             action.code = ACTION(ACT_SWAP_HANDS, keycode & 0xff);
 156:quantum/keymap_common.c ****             break;
 157:quantum/keymap_common.c **** #endif
 158:quantum/keymap_common.c **** 
 159:quantum/keymap_common.c ****         default:
 160:quantum/keymap_common.c ****             action.code = ACTION_NO;
 161:quantum/keymap_common.c ****             break;
 162:quantum/keymap_common.c ****     }
 163:quantum/keymap_common.c ****     return action;
 164:quantum/keymap_common.c **** }
 165:quantum/keymap_common.c **** 
 166:quantum/keymap_common.c **** __attribute__((weak)) const uint16_t PROGMEM fn_actions[] = {
 167:quantum/keymap_common.c **** 
 168:quantum/keymap_common.c **** };
 169:quantum/keymap_common.c **** 
 170:quantum/keymap_common.c **** /* Macro */
 171:quantum/keymap_common.c **** __attribute__((weak)) const macro_t *action_get_macro(keyrecord_t *record, uint8_t id, uint8_t opt)
  16               		.loc 1 171 0
  17               		.cfi_startproc
  18               	.LVL0:
  19               	/* prologue: function */
  20               	/* frame size = 0 */
  21               	/* stack size = 0 */
  22               	.L__stack_usage = 0
  23               		.loc 1 171 0
  24 0000 90E0      		ldi r25,0
  25 0002 80E0      		ldi r24,0
  26               	.LVL1:
  27               	/* epilogue start */
  28 0004 0895      		ret
  29               		.cfi_endproc
  30               	.LFE113:
  32               		.section	.text.action_function,"ax",@progbits
  33               		.weak	action_function
  35               	action_function:
  36               	.LFB114:
 172:quantum/keymap_common.c **** 
 173:quantum/keymap_common.c **** /* Function */
 174:quantum/keymap_common.c **** __attribute__((weak)) void action_function(keyrecord_t *record, uint8_t id, uint8_t opt) {}
  37               		.loc 1 174 0
  38               		.cfi_startproc
  39               	.LVL2:
  40               	/* prologue: function */
  41               	/* frame size = 0 */
  42               	/* stack size = 0 */
  43               	.L__stack_usage = 0
  44               	/* epilogue start */
  45               		.loc 1 174 0
  46 0000 0895      		ret
  47               		.cfi_endproc
  48               	.LFE114:
  50               		.section	.text.keymap_key_to_keycode,"ax",@progbits
  51               		.weak	keymap_key_to_keycode
  53               	keymap_key_to_keycode:
  54               	.LFB115:
 175:quantum/keymap_common.c **** 
 176:quantum/keymap_common.c **** // translates key to keycode
 177:quantum/keymap_common.c **** __attribute__((weak)) uint16_t keymap_key_to_keycode(uint8_t layer, keypos_t key) {
  55               		.loc 1 177 0
  56               		.cfi_startproc
  57               	.LVL3:
  58               	/* prologue: function */
  59               	/* frame size = 0 */
  60               	/* stack size = 0 */
  61               	.L__stack_usage = 0
  62 0000 972F      		mov r25,r23
  63               	.LBB2:
 178:quantum/keymap_common.c ****     // Read entire word (16bits)
 179:quantum/keymap_common.c ****     return pgm_read_word(&keymaps[(layer)][(key.row)][(key.col)]);
  64               		.loc 1 179 0
  65 0002 70E0      		ldi r23,0
  66 0004 26E0      		ldi r18,lo8(6)
  67 0006 929F      		mul r25,r18
  68 0008 600D      		add r22,r0
  69 000a 711D      		adc r23,r1
  70 000c 1124      		clr __zero_reg__
  71               	.LVL4:
  72 000e FB01      		movw r30,r22
  73 0010 9CE3      		ldi r25,lo8(60)
  74 0012 899F      		mul r24,r25
  75 0014 E00D      		add r30,r0
  76 0016 F11D      		adc r31,r1
  77 0018 1124      		clr __zero_reg__
  78 001a EE0F      		lsl r30
  79 001c FF1F      		rol r31
  80               	.LVL5:
  81 001e E050      		subi r30,lo8(-(keymaps))
  82 0020 F040      		sbci r31,hi8(-(keymaps))
  83               	.LVL6:
  84               	/* #APP */
  85               	 ;  179 "quantum/keymap_common.c" 1
  86 0022 8591      		lpm r24, Z+
  87 0024 9491      		lpm r25, Z
  88               		
  89               	 ;  0 "" 2
  90               	.LVL7:
  91               	/* epilogue start */
  92               	/* #NOAPP */
  93               	.LBE2:
 180:quantum/keymap_common.c **** }
  94               		.loc 1 180 0
  95 0026 0895      		ret
  96               		.cfi_endproc
  97               	.LFE115:
  99               		.section	.text.keymap_function_id_to_action,"ax",@progbits
 100               		.weak	keymap_function_id_to_action
 102               	keymap_function_id_to_action:
 103               	.LFB116:
 181:quantum/keymap_common.c **** 
 182:quantum/keymap_common.c **** // translates function id to action
 183:quantum/keymap_common.c **** __attribute__((weak)) uint16_t keymap_function_id_to_action(uint16_t function_id) {
 104               		.loc 1 183 0
 105               		.cfi_startproc
 106               	.LVL8:
 107               	/* prologue: function */
 108               	/* frame size = 0 */
 109               	/* stack size = 0 */
 110               	.L__stack_usage = 0
 111               	.LBB3:
 184:quantum/keymap_common.c **** // The compiler sees the empty (weak) fn_actions and generates a warning
 185:quantum/keymap_common.c **** // This function should not be called in that case, so the warning is too strict
 186:quantum/keymap_common.c **** // If this function is called however, the keymap should have overridden fn_actions, and then the c
 187:quantum/keymap_common.c **** // is comparing against the wrong array
 188:quantum/keymap_common.c **** #pragma GCC diagnostic push
 189:quantum/keymap_common.c **** #pragma GCC diagnostic ignored "-Warray-bounds"
 190:quantum/keymap_common.c ****     return pgm_read_word(&fn_actions[function_id]);
 112               		.loc 1 190 0
 113 0000 FC01      		movw r30,r24
 114 0002 EE0F      		lsl r30
 115 0004 FF1F      		rol r31
 116               	.LVL9:
 117 0006 E050      		subi r30,lo8(-(fn_actions))
 118 0008 F040      		sbci r31,hi8(-(fn_actions))
 119               	.LVL10:
 120               	/* #APP */
 121               	 ;  190 "quantum/keymap_common.c" 1
 122 000a 8591      		lpm r24, Z+
 123 000c 9491      		lpm r25, Z
 124               		
 125               	 ;  0 "" 2
 126               	.LVL11:
 127               	/* epilogue start */
 128               	/* #NOAPP */
 129               	.LBE3:
 191:quantum/keymap_common.c **** #pragma GCC diagnostic pop
 192:quantum/keymap_common.c **** }
 130               		.loc 1 192 0
 131 000e 0895      		ret
 132               		.cfi_endproc
 133               	.LFE116:
 135               		.section	.text.action_for_key,"ax",@progbits
 136               	.global	action_for_key
 138               	action_for_key:
 139               	.LFB112:
  41:quantum/keymap_common.c ****     // 16bit keycodes - important
 140               		.loc 1 41 0
 141               		.cfi_startproc
 142               	.LVL12:
 143 0000 CF93      		push r28
 144               	.LCFI0:
 145               		.cfi_def_cfa_offset 3
 146               		.cfi_offset 28, -2
 147 0002 DF93      		push r29
 148               	.LCFI1:
 149               		.cfi_def_cfa_offset 4
 150               		.cfi_offset 29, -3
 151               	/* prologue: function */
 152               	/* frame size = 0 */
 153               	/* stack size = 2 */
 154               	.L__stack_usage = 2
  43:quantum/keymap_common.c **** 
 155               		.loc 1 43 0
 156 0004 0E94 0000 		call keymap_key_to_keycode
 157               	.LVL13:
  46:quantum/keymap_common.c **** 
 158               		.loc 1 46 0
 159 0008 0E94 0000 		call keycode_config
 160               	.LVL14:
 161 000c EC01      		movw r28,r24
 162               	.LVL15:
  51:quantum/keymap_common.c ****         case KC_FN0 ... KC_FN31:
 163               		.loc 1 51 0
 164 000e 8115      		cp r24,__zero_reg__
 165 0010 9145      		sbci r25,81
 166 0012 00F0      		brlo .+2
 167 0014 00C0      		rjmp .L7
 168 0016 C115      		cp r28,__zero_reg__
 169 0018 80E5      		ldi r24,80
 170 001a D807      		cpc r29,r24
 171               	.LVL16:
 172 001c 00F0      		brlo .+2
 173 001e 00C0      		rjmp .L8
 174 0020 C83E      		cpi r28,-24
 175 0022 D105      		cpc r29,__zero_reg__
 176 0024 00F4      		brsh .L9
 177 0026 C03E      		cpi r28,-32
 178 0028 D105      		cpc r29,__zero_reg__
 179 002a 00F4      		brsh .L10
 180 002c C83A      		cpi r28,-88
 181 002e D105      		cpc r29,__zero_reg__
 182 0030 00F4      		brsh .L11
 183 0032 C53A      		cpi r28,-91
 184 0034 D105      		cpc r29,__zero_reg__
 185 0036 00F0      		brlo .+2
 186 0038 00C0      		rjmp .L12
 187 003a C130      		cpi r28,1
 188 003c D105      		cpc r29,__zero_reg__
 189 003e 01F0      		breq .L10
 190 0040 00F0      		brlo .L6
 191 0042 C430      		cpi r28,4
 192 0044 D105      		cpc r29,__zero_reg__
 193 0046 00F4      		brsh .L10
 194               	.L6:
 195               	.LVL17:
 160:quantum/keymap_common.c ****             break;
 196               		.loc 1 160 0
 197 0048 D0E0      		ldi r29,0
 198 004a C0E0      		ldi r28,0
 199               	.LVL18:
 161:quantum/keymap_common.c ****     }
 200               		.loc 1 161 0
 201 004c 00C0      		rjmp .L10
 202               	.LVL19:
 203               	.L11:
  51:quantum/keymap_common.c ****         case KC_FN0 ... KC_FN31:
 204               		.loc 1 51 0
 205 004e CF3B      		cpi r28,-65
 206 0050 D105      		cpc r29,__zero_reg__
 207 0052 00F4      		brsh .+2
 208 0054 00C0      		rjmp .L13
  53:quantum/keymap_common.c ****             break;
 209               		.loc 1 53 0
 210 0056 CE01      		movw r24,r28
 211 0058 805C      		subi r24,-64
 212 005a 9109      		sbc r25,__zero_reg__
  51:quantum/keymap_common.c ****         case KC_FN0 ... KC_FN31:
 213               		.loc 1 51 0
 214 005c C03C      		cpi r28,-64
 215 005e D105      		cpc r29,__zero_reg__
 216 0060 00F0      		brlo .L6
 217               	.L73:
  79:quantum/keymap_common.c ****             break;
 218               		.loc 1 79 0
 219 0062 0E94 0000 		call keymap_function_id_to_action
 220               	.LVL20:
 221 0066 EC01      		movw r28,r24
 222               	.LVL21:
  80:quantum/keymap_common.c ****         case QK_MACRO ... QK_MACRO_MAX:
 223               		.loc 1 80 0
 224 0068 00C0      		rjmp .L10
 225               	.LVL22:
 226               	.L9:
  51:quantum/keymap_common.c ****         case KC_FN0 ... KC_FN31:
 227               		.loc 1 51 0
 228 006a C115      		cp r28,__zero_reg__
 229 006c 20E3      		ldi r18,48
 230 006e D207      		cpc r29,r18
 231 0070 00F4      		brsh .L15
 232 0072 C115      		cp r28,__zero_reg__
 233 0074 80E2      		ldi r24,32
 234 0076 D807      		cpc r29,r24
 235 0078 00F0      		brlo .+2
 236 007a 00C0      		rjmp .L16
 237 007c C03F      		cpi r28,-16
 238 007e D105      		cpc r29,__zero_reg__
 239 0080 00F0      		brlo .L6
 240 0082 CF3F      		cpi r28,-1
 241 0084 D105      		cpc r29,__zero_reg__
 242 0086 01F0      		breq .+2
 243 0088 00F4      		brsh .+2
 244 008a 00C0      		rjmp .L17
 245               	.LVL23:
 246               	.L10:
 164:quantum/keymap_common.c **** 
 247               		.loc 1 164 0
 248 008c CE01      		movw r24,r28
 249               	/* epilogue start */
 250 008e DF91      		pop r29
 251 0090 CF91      		pop r28
 252 0092 0895      		ret
 253               	.LVL24:
 254               	.L15:
  51:quantum/keymap_common.c ****         case KC_FN0 ... KC_FN31:
 255               		.loc 1 51 0
 256 0094 C115      		cp r28,__zero_reg__
 257 0096 20E4      		ldi r18,64
 258 0098 D207      		cpc r29,r18
 259 009a 00F0      		brlo .+2
 260 009c 00C0      		rjmp .L68
 261 009e CE01      		movw r24,r28
 262 00a0 9927      		clr r25
  82:quantum/keymap_common.c ****                 action.code = ACTION_MACRO_TAP(keycode & 0xFF);
 263               		.loc 1 82 0
 264 00a2 D3FF      		sbrs r29,3
 265 00a4 00C0      		rjmp .L38
  83:quantum/keymap_common.c ****             else
 266               		.loc 1 83 0
 267 00a6 EC01      		movw r28,r24
 268               	.LVL25:
 269 00a8 D86C      		ori r29,200
 270               	.LVL26:
 271 00aa 00C0      		rjmp .L10
 272               	.LVL27:
 273               	.L7:
  51:quantum/keymap_common.c ****         case KC_FN0 ... KC_FN31:
 274               		.loc 1 51 0
 275 00ac C115      		cp r28,__zero_reg__
 276 00ae 89E5      		ldi r24,89
 277 00b0 D807      		cpc r29,r24
 278               	.LVL28:
 279 00b2 00F4      		brsh .L20
 280 00b4 C115      		cp r28,__zero_reg__
 281 00b6 28E5      		ldi r18,88
 282 00b8 D207      		cpc r29,r18
 283 00ba 00F0      		brlo .+2
 284 00bc 00C0      		rjmp .L21
 285 00be C115      		cp r28,__zero_reg__
 286 00c0 84E5      		ldi r24,84
 287 00c2 D807      		cpc r29,r24
 288 00c4 00F4      		brsh .L22
 289 00c6 C115      		cp r28,__zero_reg__
 290 00c8 23E5      		ldi r18,83
 291 00ca D207      		cpc r29,r18
 292 00cc 00F0      		brlo .+2
 293 00ce 00C0      		rjmp .L23
 294 00d0 C115      		cp r28,__zero_reg__
 295 00d2 82E5      		ldi r24,82
 296 00d4 D807      		cpc r29,r24
 297 00d6 00F0      		brlo .+2
 298 00d8 00C0      		rjmp .L69
 299               	.LVL29:
  99:quantum/keymap_common.c ****             break;
 300               		.loc 1 99 0
 301 00da DC2F      		mov r29,r28
 302 00dc CC27      		clr r28
 303               	.LVL30:
 304 00de C16F      		ori r28,241
 305 00e0 D06A      		ori r29,160
 306               	.LVL31:
 100:quantum/keymap_common.c ****         case QK_DEF_LAYER ... QK_DEF_LAYER_MAX:;
 307               		.loc 1 100 0
 308 00e2 00C0      		rjmp .L10
 309               	.LVL32:
 310               	.L22:
  51:quantum/keymap_common.c ****         case KC_FN0 ... KC_FN31:
 311               		.loc 1 51 0
 312 00e4 C115      		cp r28,__zero_reg__
 313 00e6 25E5      		ldi r18,85
 314 00e8 D207      		cpc r29,r18
 315 00ea 00F4      		brsh .+2
 316 00ec 00C0      		rjmp .L26
 317 00ee C115      		cp r28,__zero_reg__
 318 00f0 86E5      		ldi r24,86
 319 00f2 D807      		cpc r29,r24
 320 00f4 00F0      		brlo .+2
 321 00f6 00C0      		rjmp .L6
 118:quantum/keymap_common.c ****             action.code = ACTION_MODS_ONESHOT(mod);
 322               		.loc 1 118 0
 323 00f8 8C2F      		mov r24,r28
 324 00fa 0E94 0000 		call mod_config
 325               	.LVL33:
 119:quantum/keymap_common.c ****             break;
 326               		.loc 1 119 0
 327 00fe C82F      		mov r28,r24
 328               	.LVL34:
 329 0100 D0E0      		ldi r29,0
 330 0102 DC2F      		mov r29,r28
 331 0104 CC27      		clr r28
 332 0106 CC27      		clr r28
 333 0108 DF71      		andi r29,31
 334 010a D062      		ori r29,32
 335               	.LVL35:
 120:quantum/keymap_common.c ****         case QK_LAYER_TAP_TOGGLE ... QK_LAYER_TAP_TOGGLE_MAX:
 336               		.loc 1 120 0
 337 010c 00C0      		rjmp .L10
 338               	.LVL36:
 339               	.L20:
  51:quantum/keymap_common.c ****         case KC_FN0 ... KC_FN31:
 340               		.loc 1 51 0
 341 010e CD3B      		cpi r28,-67
 342 0110 2CE5      		ldi r18,92
 343 0112 D207      		cpc r29,r18
 344 0114 01F4      		brne .+2
 345 0116 00C0      		rjmp .L28
 346 0118 00F4      		brsh .L29
 347 011a CB3B      		cpi r28,-69
 348 011c 2CE5      		ldi r18,92
 349 011e D207      		cpc r29,r18
 350 0120 01F4      		brne .+2
 351 0122 00C0      		rjmp .L30
 352 0124 00F0      		brlo .+2
 353 0126 00C0      		rjmp .L31
 354 0128 C115      		cp r28,__zero_reg__
 355 012a 2AE5      		ldi r18,90
 356 012c D207      		cpc r29,r18
 357 012e 00F0      		brlo .+2
 358 0130 00C0      		rjmp .L6
 125:quantum/keymap_common.c ****             action_layer = (keycode >> 4) & 0xF;
 359               		.loc 1 125 0
 360 0132 8C2F      		mov r24,r28
 361 0134 8F70      		andi r24,lo8(15)
 362 0136 0E94 0000 		call mod_config
 363               	.LVL37:
 126:quantum/keymap_common.c ****             action.code  = ACTION_LAYER_MODS(action_layer, mod);
 364               		.loc 1 126 0
 365 013a 34E0      		ldi r19,4
 366               		1:
 367 013c D695      		lsr r29
 368 013e C795      		ror r28
 369 0140 3A95      		dec r19
 370 0142 01F4      		brne 1b
 371               	.LVL38:
 372 0144 CF70      		andi r28,lo8(15)
 127:quantum/keymap_common.c ****             break;
 373               		.loc 1 127 0
 374 0146 D0E0      		ldi r29,0
 375 0148 DC2F      		mov r29,r28
 376 014a CC27      		clr r28
 377 014c D069      		ori r29,144
 378 014e C82B      		or r28,r24
 379               	.LVL39:
 128:quantum/keymap_common.c ****         case QK_MOD_TAP ... QK_MOD_TAP_MAX:
 380               		.loc 1 128 0
 381 0150 00C0      		rjmp .L10
 382               	.LVL40:
 383               	.L29:
  51:quantum/keymap_common.c ****         case KC_FN0 ... KC_FN31:
 384               		.loc 1 51 0
 385 0152 C03C      		cpi r28,-64
 386 0154 8CE5      		ldi r24,92
 387 0156 D807      		cpc r29,r24
 388 0158 01F4      		brne .+2
 389 015a 00C0      		rjmp .L33
 390 015c 00F4      		brsh .L34
 391 015e CE3B      		cpi r28,-66
 392 0160 8CE5      		ldi r24,92
 393 0162 D807      		cpc r29,r24
 394 0164 01F4      		brne .+2
 395 0166 00C0      		rjmp .L35
 396 0168 CF3B      		cpi r28,-65
 397 016a DC45      		sbci r29,92
 398 016c 01F0      		breq .+2
 399 016e 00C0      		rjmp .L6
 400               	.LVL41:
 147:quantum/keymap_common.c ****             break;
 401               		.loc 1 147 0
 402 0170 C0E0      		ldi r28,0
 403 0172 D2ED      		ldi r29,lo8(-46)
 404               	.LVL42:
 148:quantum/keymap_common.c ****         case BL_STEP:
 405               		.loc 1 148 0
 406 0174 00C0      		rjmp .L10
 407               	.LVL43:
 408               	.L34:
  51:quantum/keymap_common.c ****         case KC_FN0 ... KC_FN31:
 409               		.loc 1 51 0
 410 0176 CE01      		movw r24,r28
 411 0178 9056      		subi r25,96
 412 017a 8115      		cp r24,__zero_reg__
 413 017c 9042      		sbci r25,32
 414 017e 00F0      		brlo .+2
 415 0180 00C0      		rjmp .L6
 130:quantum/keymap_common.c ****             action.code = ACTION_MODS_TAP_KEY(mod, keycode & 0xFF);
 416               		.loc 1 130 0
 417 0182 8D2F      		mov r24,r29
 418 0184 8F71      		andi r24,lo8(31)
 419 0186 0E94 0000 		call mod_config
 420               	.LVL44:
 131:quantum/keymap_common.c ****             break;
 421               		.loc 1 131 0
 422 018a DD27      		clr r29
 423               	.LVL45:
 424 018c D062      		ori r29,32
 425 018e 90E0      		ldi r25,0
 426 0190 982F      		mov r25,r24
 427 0192 8827      		clr r24
 428               	.LVL46:
 429 0194 8827      		clr r24
 430 0196 9F71      		andi r25,31
 431 0198 C82B      		or r28,r24
 432 019a D92B      		or r29,r25
 433               	.LVL47:
 132:quantum/keymap_common.c **** #ifdef BACKLIGHT_ENABLE
 434               		.loc 1 132 0
 435 019c 00C0      		rjmp .L10
 436               	.LVL48:
 437               	.L12:
  60:quantum/keymap_common.c ****             break;
 438               		.loc 1 60 0
 439 019e C53A      		cpi r28,-91
 440 01a0 D105      		cpc r29,__zero_reg__
 441 01a2 01F4      		brne .+2
 442 01a4 00C0      		rjmp .L39
  60:quantum/keymap_common.c ****             break;
 443               		.loc 1 60 0 is_stmt 0 discriminator 1
 444 01a6 C63A      		cpi r28,-90
 445 01a8 D105      		cpc r29,__zero_reg__
 446 01aa 01F4      		brne .+2
 447 01ac 00C0      		rjmp .L40
  60:quantum/keymap_common.c ****             break;
 448               		.loc 1 60 0
 449 01ae C3E8      		ldi r28,lo8(-125)
 450 01b0 D0E4      		ldi r29,lo8(64)
 451               	.LVL49:
 452 01b2 00C0      		rjmp .L10
 453               	.LVL50:
 454               	.L13:
  63:quantum/keymap_common.c ****             break;
 455               		.loc 1 63 0 is_stmt 1
 456 01b4 C83A      		cpi r28,-88
 457 01b6 D105      		cpc r29,__zero_reg__
 458 01b8 01F4      		brne .+2
 459 01ba 00C0      		rjmp .L41
  63:quantum/keymap_common.c ****             break;
 460               		.loc 1 63 0 is_stmt 0 discriminator 1
 461 01bc C93A      		cpi r28,-87
 462 01be D105      		cpc r29,__zero_reg__
 463 01c0 01F4      		brne .+2
 464 01c2 00C0      		rjmp .L42
  63:quantum/keymap_common.c ****             break;
 465               		.loc 1 63 0 discriminator 3
 466 01c4 CA3A      		cpi r28,-86
 467 01c6 D105      		cpc r29,__zero_reg__
 468 01c8 01F4      		brne .+2
 469 01ca 00C0      		rjmp .L43
  63:quantum/keymap_common.c ****             break;
 470               		.loc 1 63 0 discriminator 5
 471 01cc CB3A      		cpi r28,-85
 472 01ce D105      		cpc r29,__zero_reg__
 473 01d0 01F4      		brne .+2
 474 01d2 00C0      		rjmp .L44
  63:quantum/keymap_common.c ****             break;
 475               		.loc 1 63 0 discriminator 7
 476 01d4 CC3A      		cpi r28,-84
 477 01d6 D105      		cpc r29,__zero_reg__
 478 01d8 01F4      		brne .+2
 479 01da 00C0      		rjmp .L45
  63:quantum/keymap_common.c ****             break;
 480               		.loc 1 63 0 discriminator 9
 481 01dc CB3B      		cpi r28,-69
 482 01de D105      		cpc r29,__zero_reg__
 483 01e0 01F4      		brne .+2
 484 01e2 00C0      		rjmp .L46
  63:quantum/keymap_common.c ****             break;
 485               		.loc 1 63 0 discriminator 11
 486 01e4 CC3B      		cpi r28,-68
 487 01e6 D105      		cpc r29,__zero_reg__
 488 01e8 01F4      		brne .+2
 489 01ea 00C0      		rjmp .L47
  63:quantum/keymap_common.c ****             break;
 490               		.loc 1 63 0 discriminator 13
 491 01ec CD3A      		cpi r28,-83
 492 01ee D105      		cpc r29,__zero_reg__
 493 01f0 01F4      		brne .+2
 494 01f2 00C0      		rjmp .L48
  63:quantum/keymap_common.c ****             break;
 495               		.loc 1 63 0 discriminator 15
 496 01f4 C03B      		cpi r28,-80
 497 01f6 D105      		cpc r29,__zero_reg__
 498 01f8 01F4      		brne .+2
 499 01fa 00C0      		rjmp .L49
  63:quantum/keymap_common.c ****             break;
 500               		.loc 1 63 0 discriminator 17
 501 01fc CE3A      		cpi r28,-82
 502 01fe D105      		cpc r29,__zero_reg__
 503 0200 01F4      		brne .+2
 504 0202 00C0      		rjmp .L50
  63:quantum/keymap_common.c ****             break;
 505               		.loc 1 63 0 discriminator 19
 506 0204 CF3A      		cpi r28,-81
 507 0206 D105      		cpc r29,__zero_reg__
 508 0208 01F4      		brne .+2
 509 020a 00C0      		rjmp .L51
  63:quantum/keymap_common.c ****             break;
 510               		.loc 1 63 0 discriminator 21
 511 020c C13B      		cpi r28,-79
 512 020e D105      		cpc r29,__zero_reg__
 513 0210 01F4      		brne .+2
 514 0212 00C0      		rjmp .L52
  63:quantum/keymap_common.c ****             break;
 515               		.loc 1 63 0 discriminator 23
 516 0214 C23B      		cpi r28,-78
 517 0216 D105      		cpc r29,__zero_reg__
 518 0218 01F4      		brne .+2
 519 021a 00C0      		rjmp .L53
  63:quantum/keymap_common.c ****             break;
 520               		.loc 1 63 0 discriminator 25
 521 021c C33B      		cpi r28,-77
 522 021e D105      		cpc r29,__zero_reg__
 523 0220 01F4      		brne .+2
 524 0222 00C0      		rjmp .L54
  63:quantum/keymap_common.c ****             break;
 525               		.loc 1 63 0 discriminator 27
 526 0224 C43B      		cpi r28,-76
 527 0226 D105      		cpc r29,__zero_reg__
 528 0228 01F4      		brne .+2
 529 022a 00C0      		rjmp .L55
  63:quantum/keymap_common.c ****             break;
 530               		.loc 1 63 0 discriminator 29
 531 022c C53B      		cpi r28,-75
 532 022e D105      		cpc r29,__zero_reg__
 533 0230 01F4      		brne .+2
 534 0232 00C0      		rjmp .L56
  63:quantum/keymap_common.c ****             break;
 535               		.loc 1 63 0 discriminator 31
 536 0234 C63B      		cpi r28,-74
 537 0236 D105      		cpc r29,__zero_reg__
 538 0238 01F4      		brne .+2
 539 023a 00C0      		rjmp .L57
  63:quantum/keymap_common.c ****             break;
 540               		.loc 1 63 0 discriminator 33
 541 023c C73B      		cpi r28,-73
 542 023e D105      		cpc r29,__zero_reg__
 543 0240 01F4      		brne .+2
 544 0242 00C0      		rjmp .L58
  63:quantum/keymap_common.c ****             break;
 545               		.loc 1 63 0 discriminator 35
 546 0244 C83B      		cpi r28,-72
 547 0246 D105      		cpc r29,__zero_reg__
 548 0248 01F4      		brne .+2
 549 024a 00C0      		rjmp .L59
  63:quantum/keymap_common.c ****             break;
 550               		.loc 1 63 0 discriminator 37
 551 024c C93B      		cpi r28,-71
 552 024e D105      		cpc r29,__zero_reg__
 553 0250 01F4      		brne .+2
 554 0252 00C0      		rjmp .L60
  63:quantum/keymap_common.c ****             break;
 555               		.loc 1 63 0 discriminator 39
 556 0254 CD3B      		cpi r28,-67
 557 0256 D105      		cpc r29,__zero_reg__
 558 0258 01F4      		brne .+2
 559 025a 00C0      		rjmp .L61
  63:quantum/keymap_common.c ****             break;
 560               		.loc 1 63 0 discriminator 41
 561 025c CE3B      		cpi r28,-66
 562 025e D105      		cpc r29,__zero_reg__
 563 0260 01F4      		brne .+2
 564 0262 00C0      		rjmp .L62
  63:quantum/keymap_common.c ****             break;
 565               		.loc 1 63 0 discriminator 43
 566 0264 CA3B      		cpi r28,-70
 567 0266 D105      		cpc r29,__zero_reg__
 568 0268 01F0      		breq .+2
 569 026a 00C0      		rjmp .L63
  63:quantum/keymap_common.c ****             break;
 570               		.loc 1 63 0
 571 026c CAE2      		ldi r28,lo8(42)
 572 026e D6E4      		ldi r29,lo8(70)
 573               	.LVL51:
 574 0270 00C0      		rjmp .L10
 575               	.LVL52:
 576               	.L17:
  66:quantum/keymap_common.c ****             break;
 577               		.loc 1 66 0 is_stmt 1
 578 0272 D065      		ori r29,80
 579               	.LVL53:
  67:quantum/keymap_common.c ****         case KC_TRNS:
 580               		.loc 1 67 0
 581 0274 00C0      		rjmp .L10
 582               	.LVL54:
 583               	.L16:
  79:quantum/keymap_common.c ****             break;
 584               		.loc 1 79 0
 585 0276 CE01      		movw r24,r28
 586 0278 9F70      		andi r25,15
 587 027a 00C0      		rjmp .L73
 588               	.L38:
  85:quantum/keymap_common.c ****             break;
 589               		.loc 1 85 0
 590 027c EC01      		movw r28,r24
 591               	.LVL55:
 592 027e D06C      		ori r29,192
 593               	.LVL56:
 594 0280 00C0      		rjmp .L10
 595               	.LVL57:
 596               	.L68:
  88:quantum/keymap_common.c ****             break;
 597               		.loc 1 88 0
 598 0282 DF70      		andi r29,15
 599               	.LVL58:
 600 0284 D06A      		ori r29,160
 601               	.LVL59:
  89:quantum/keymap_common.c ****         case QK_TO ... QK_TO_MAX:;
 602               		.loc 1 89 0
 603 0286 00C0      		rjmp .L10
 604               	.LVL60:
 605               	.L8:
  92:quantum/keymap_common.c ****             action_layer = keycode & 0xF;
 606               		.loc 1 92 0
 607 0288 CE01      		movw r24,r28
 608 028a F4E0      		ldi r31,4
 609               		1:
 610 028c 9695      		lsr r25
 611 028e 8795      		ror r24
 612 0290 FA95      		dec r31
 613 0292 01F4      		brne 1b
 614 0294 8370      		andi r24,lo8(3)
  94:quantum/keymap_common.c ****             break;
 615               		.loc 1 94 0
 616 0296 9C2F      		mov r25,r28
 617 0298 9370      		andi r25,lo8(3)
 618 029a 21E0      		ldi r18,lo8(1)
 619 029c 30E0      		ldi r19,0
 620 029e 00C0      		rjmp 2f
 621               		1:
 622 02a0 220F      		lsl r18
 623 02a2 331F      		rol r19
 624               		2:
 625 02a4 9A95      		dec r25
 626 02a6 02F4      		brpl 1b
 627 02a8 3C68      		ori r19,140
 628 02aa 382B      		or r19,r24
 629 02ac C695      		lsr r28
 630 02ae C695      		lsr r28
 631               	.LVL61:
 632 02b0 C370      		andi r28,lo8(3)
 633 02b2 80E2      		ldi r24,lo8(32)
 634 02b4 C89F      		mul r28,r24
 635 02b6 E001      		movw r28,r0
 636 02b8 1124      		clr __zero_reg__
 637 02ba C22B      		or r28,r18
 638 02bc D32B      		or r29,r19
 639               	.LVL62:
  95:quantum/keymap_common.c ****         case QK_MOMENTARY ... QK_MOMENTARY_MAX:;
 640               		.loc 1 95 0
 641 02be 00C0      		rjmp .L10
 642               	.LVL63:
 643               	.L69:
 104:quantum/keymap_common.c ****             break;
 644               		.loc 1 104 0
 645 02c0 CE01      		movw r24,r28
 646 02c2 8370      		andi r24,3
 647 02c4 9927      		clr r25
 648 02c6 21E0      		ldi r18,lo8(1)
 649 02c8 30E0      		ldi r19,0
 650 02ca 00C0      		rjmp 2f
 651               		1:
 652 02cc 220F      		lsl r18
 653 02ce 331F      		rol r19
 654               		2:
 655 02d0 8A95      		dec r24
 656 02d2 02F4      		brpl 1b
 657 02d4 C695      		lsr r28
 658 02d6 C695      		lsr r28
 659               	.LVL64:
 660 02d8 80E2      		ldi r24,lo8(32)
 661 02da C89F      		mul r28,r24
 662 02dc E001      		movw r28,r0
 663 02de 1124      		clr __zero_reg__
 664 02e0 C22B      		or r28,r18
 665 02e2 D32B      		or r29,r19
 666 02e4 DC68      		ori r29,140
 667               	.LVL65:
 105:quantum/keymap_common.c ****         case QK_TOGGLE_LAYER ... QK_TOGGLE_LAYER_MAX:;
 668               		.loc 1 105 0
 669 02e6 00C0      		rjmp .L10
 670               	.LVL66:
 671               	.L23:
 109:quantum/keymap_common.c ****             break;
 672               		.loc 1 109 0
 673 02e8 CE01      		movw r24,r28
 674 02ea 8370      		andi r24,3
 675 02ec 9927      		clr r25
 676 02ee 21E0      		ldi r18,lo8(1)
 677 02f0 30E0      		ldi r19,0
 678 02f2 00C0      		rjmp 2f
 679               		1:
 680 02f4 220F      		lsl r18
 681 02f6 331F      		rol r19
 682               		2:
 683 02f8 8A95      		dec r24
 684 02fa 02F4      		brpl 1b
 685 02fc C695      		lsr r28
 686 02fe C695      		lsr r28
 687               	.LVL67:
 688 0300 80E2      		ldi r24,lo8(32)
 689 0302 C89F      		mul r28,r24
 690 0304 E001      		movw r28,r0
 691 0306 1124      		clr __zero_reg__
 692 0308 C22B      		or r28,r18
 693 030a D32B      		or r29,r19
 694 030c DA68      		ori r29,138
 695               	.LVL68:
 110:quantum/keymap_common.c ****         case QK_ONE_SHOT_LAYER ... QK_ONE_SHOT_LAYER_MAX:;
 696               		.loc 1 110 0
 697 030e 00C0      		rjmp .L10
 698               	.LVL69:
 699               	.L26:
 114:quantum/keymap_common.c ****             break;
 700               		.loc 1 114 0
 701 0310 DC2F      		mov r29,r28
 702 0312 CC27      		clr r28
 703               	.LVL70:
 704 0314 C46F      		ori r28,244
 705 0316 D06A      		ori r29,160
 706               	.LVL71:
 115:quantum/keymap_common.c ****         case QK_ONE_SHOT_MOD ... QK_ONE_SHOT_MOD_MAX:;
 707               		.loc 1 115 0
 708 0318 00C0      		rjmp .L10
 709               	.LVL72:
 710               	.L21:
 122:quantum/keymap_common.c ****             break;
 711               		.loc 1 122 0
 712 031a DC2F      		mov r29,r28
 713 031c CC27      		clr r28
 714               	.LVL73:
 715 031e C06F      		ori r28,240
 716 0320 D06A      		ori r29,160
 717               	.LVL74:
 123:quantum/keymap_common.c ****         case QK_LAYER_MOD ... QK_LAYER_MOD_MAX:
 718               		.loc 1 123 0
 719 0322 00C0      		rjmp .L10
 720               	.LVL75:
 721               	.L30:
 135:quantum/keymap_common.c ****             break;
 722               		.loc 1 135 0
 723 0324 C0E0      		ldi r28,0
 724 0326 D4ED      		ldi r29,lo8(-44)
 725               	.LVL76:
 136:quantum/keymap_common.c ****         case BL_OFF:
 726               		.loc 1 136 0
 727 0328 00C0      		rjmp .L10
 728               	.LVL77:
 729               	.L31:
 138:quantum/keymap_common.c ****             break;
 730               		.loc 1 138 0
 731 032a C0E0      		ldi r28,0
 732 032c D5ED      		ldi r29,lo8(-43)
 733               	.LVL78:
 139:quantum/keymap_common.c ****         case BL_DEC:
 734               		.loc 1 139 0
 735 032e 00C0      		rjmp .L10
 736               	.LVL79:
 737               	.L28:
 141:quantum/keymap_common.c ****             break;
 738               		.loc 1 141 0
 739 0330 C0E0      		ldi r28,0
 740 0332 D1ED      		ldi r29,lo8(-47)
 741               	.LVL80:
 142:quantum/keymap_common.c ****         case BL_INC:
 742               		.loc 1 142 0
 743 0334 00C0      		rjmp .L10
 744               	.LVL81:
 745               	.L35:
 144:quantum/keymap_common.c ****             break;
 746               		.loc 1 144 0
 747 0336 C0E0      		ldi r28,0
 748 0338 D0ED      		ldi r29,lo8(-48)
 749               	.LVL82:
 145:quantum/keymap_common.c ****         case BL_TOGG:
 750               		.loc 1 145 0
 751 033a 00C0      		rjmp .L10
 752               	.LVL83:
 753               	.L33:
 150:quantum/keymap_common.c ****             break;
 754               		.loc 1 150 0
 755 033c C0E0      		ldi r28,0
 756 033e D3ED      		ldi r29,lo8(-45)
 757               	.LVL84:
 151:quantum/keymap_common.c **** #endif
 758               		.loc 1 151 0
 759 0340 00C0      		rjmp .L10
 760               	.LVL85:
 761               	.L39:
  60:quantum/keymap_common.c ****             break;
 762               		.loc 1 60 0
 763 0342 C1E8      		ldi r28,lo8(-127)
 764 0344 D0E4      		ldi r29,lo8(64)
 765               	.LVL86:
 766 0346 00C0      		rjmp .L10
 767               	.LVL87:
 768               	.L40:
 769 0348 C2E8      		ldi r28,lo8(-126)
 770 034a D0E4      		ldi r29,lo8(64)
 771               	.LVL88:
 772 034c 00C0      		rjmp .L10
 773               	.LVL89:
 774               	.L41:
  63:quantum/keymap_common.c ****             break;
 775               		.loc 1 63 0
 776 034e C2EE      		ldi r28,lo8(-30)
 777 0350 D4E4      		ldi r29,lo8(68)
 778               	.LVL90:
 779 0352 00C0      		rjmp .L10
 780               	.LVL91:
 781               	.L42:
 782 0354 C9EE      		ldi r28,lo8(-23)
 783 0356 D4E4      		ldi r29,lo8(68)
 784               	.LVL92:
 785 0358 00C0      		rjmp .L10
 786               	.LVL93:
 787               	.L43:
 788 035a CAEE      		ldi r28,lo8(-22)
 789 035c D4E4      		ldi r29,lo8(68)
 790               	.LVL94:
 791 035e 00C0      		rjmp .L10
 792               	.LVL95:
 793               	.L44:
 794 0360 C5EB      		ldi r28,lo8(-75)
 795 0362 D4E4      		ldi r29,lo8(68)
 796               	.LVL96:
 797 0364 00C0      		rjmp .L10
 798               	.LVL97:
 799               	.L45:
 800 0366 C6EB      		ldi r28,lo8(-74)
 801 0368 D4E4      		ldi r29,lo8(68)
 802               	.LVL98:
 803 036a 00C0      		rjmp .L10
 804               	.LVL99:
 805               	.L46:
 806 036c C3EB      		ldi r28,lo8(-77)
 807 036e D4E4      		ldi r29,lo8(68)
 808               	.LVL100:
 809 0370 00C0      		rjmp .L10
 810               	.LVL101:
 811               	.L47:
 812 0372 C4EB      		ldi r28,lo8(-76)
 813 0374 D4E4      		ldi r29,lo8(68)
 814               	.LVL102:
 815 0376 00C0      		rjmp .L10
 816               	.LVL103:
 817               	.L48:
 818 0378 C7EB      		ldi r28,lo8(-73)
 819 037a D4E4      		ldi r29,lo8(68)
 820               	.LVL104:
 821 037c 00C0      		rjmp .L10
 822               	.LVL105:
 823               	.L49:
 824 037e CCEC      		ldi r28,lo8(-52)
 825 0380 D4E4      		ldi r29,lo8(68)
 826               	.LVL106:
 827 0382 00C0      		rjmp .L10
 828               	.LVL107:
 829               	.L50:
 830 0384 CDEC      		ldi r28,lo8(-51)
 831 0386 D4E4      		ldi r29,lo8(68)
 832               	.LVL108:
 833 0388 00C0      		rjmp .L10
 834               	.LVL109:
 835               	.L51:
 836 038a C3E8      		ldi r28,lo8(-125)
 837 038c D5E4      		ldi r29,lo8(69)
 838               	.LVL110:
 839 038e 00C0      		rjmp .L10
 840               	.LVL111:
 841               	.L52:
 842 0390 CAE8      		ldi r28,lo8(-118)
 843 0392 D5E4      		ldi r29,lo8(69)
 844               	.LVL112:
 845 0394 00C0      		rjmp .L10
 846               	.LVL113:
 847               	.L53:
 848 0396 C2E9      		ldi r28,lo8(-110)
 849 0398 D5E4      		ldi r29,lo8(69)
 850               	.LVL114:
 851 039a 00C0      		rjmp .L10
 852               	.LVL115:
 853               	.L54:
 854 039c C4E9      		ldi r28,lo8(-108)
 855 039e D5E4      		ldi r29,lo8(69)
 856               	.LVL116:
 857 03a0 00C0      		rjmp .L10
 858               	.LVL117:
 859               	.L55:
 860 03a2 C1E2      		ldi r28,lo8(33)
 861 03a4 D6E4      		ldi r29,lo8(70)
 862               	.LVL118:
 863 03a6 00C0      		rjmp .L10
 864               	.LVL119:
 865               	.L56:
 866 03a8 C3E2      		ldi r28,lo8(35)
 867 03aa D6E4      		ldi r29,lo8(70)
 868               	.LVL120:
 869 03ac 00C0      		rjmp .L10
 870               	.LVL121:
 871               	.L57:
 872 03ae C4E2      		ldi r28,lo8(36)
 873 03b0 D6E4      		ldi r29,lo8(70)
 874               	.LVL122:
 875 03b2 00C0      		rjmp .L10
 876               	.LVL123:
 877               	.L58:
 878 03b4 C5E2      		ldi r28,lo8(37)
 879 03b6 D6E4      		ldi r29,lo8(70)
 880               	.LVL124:
 881 03b8 00C0      		rjmp .L10
 882               	.LVL125:
 883               	.L59:
 884 03ba C6E2      		ldi r28,lo8(38)
 885 03bc D6E4      		ldi r29,lo8(70)
 886               	.LVL126:
 887 03be 00C0      		rjmp .L10
 888               	.LVL127:
 889               	.L60:
 890 03c0 C7E2      		ldi r28,lo8(39)
 891 03c2 D6E4      		ldi r29,lo8(70)
 892               	.LVL128:
 893 03c4 00C0      		rjmp .L10
 894               	.LVL129:
 895               	.L61:
 896 03c6 CFE6      		ldi r28,lo8(111)
 897 03c8 D4E4      		ldi r29,lo8(68)
 898               	.LVL130:
 899 03ca 00C0      		rjmp .L10
 900               	.LVL131:
 901               	.L62:
 902 03cc C0E7      		ldi r28,lo8(112)
 903 03ce D4E4      		ldi r29,lo8(68)
 904               	.LVL132:
 905 03d0 00C0      		rjmp .L10
 906               	.LVL133:
 907               	.L63:
 908 03d2 C0E0      		ldi r28,0
 909 03d4 D4E4      		ldi r29,lo8(68)
 910               	.LVL134:
 911 03d6 00C0      		rjmp .L10
 912               		.cfi_endproc
 913               	.LFE112:
 915               		.weak	fn_actions
 916               		.section	.progmem.data.fn_actions,"a",@progbits
 919               	fn_actions:
 920               		.text
 921               	.Letext0:
 922               		.file 2 "/usr/local/Cellar/avr-gcc@7/7.4.0/avr/include/stdint.h"
 923               		.file 3 "tmk_core/common/keyboard.h"
 924               		.file 4 "tmk_core/common/keycode.h"
 925               		.file 5 "tmk_core/common/action_code.h"
 926               		.file 6 "/usr/local/Cellar/avr-gcc@7/7.4.0/lib/avr-gcc/7/gcc/avr/7.4.0/include/stddef.h"
 927               		.file 7 "tmk_core/common/action_macro.h"
 928               		.file 8 "tmk_core/common/action.h"
 929               		.file 9 "lib/lufa/LUFA/Drivers/USB/Core/AVR8/../StdRequestType.h"
 930               		.file 10 "lib/lufa/LUFA/Drivers/USB/Core/AVR8/../DeviceStandardReq.h"
 931               		.file 11 "lib/lufa/LUFA/Drivers/USB/Core/USBTask.h"
 932               		.file 12 "lib/lufa/LUFA/Drivers/USB/Core/HostStandardReq.h"
 933               		.file 13 "/usr/local/Cellar/avr-gcc@7/7.4.0/avr/include/stdio.h"
 934               		.file 14 "tmk_core/common/report.h"
 935               		.file 15 "tmk_core/common/host.h"
 936               		.file 16 "tmk_core/common/debug.h"
 937               		.file 17 "quantum/keycode_config.h"
 938               		.file 18 "quantum/quantum_keycodes.h"
 939               		.file 19 "quantum/keymap.h"
 940               		.file 20 "tmk_core/common/action_layer.h"
 941               		.file 21 "./quantum/color.h"
 942               		.file 22 "quantum/rgblight.h"
 943               		.file 23 "tmk_core/common/timer.h"
 944               		.file 24 "tmk_core/common/action_util.h"
 945               		.file 25 "/usr/local/Cellar/avr-gcc@7/7.4.0/avr/include/stdlib.h"
 946               		.file 26 "quantum/quantum.h"
DEFINED SYMBOLS
                            *ABS*:0000000000000000 keymap_common.c
/var/tmp//ccIWOayS.s:2      *ABS*:000000000000003e __SP_H__
/var/tmp//ccIWOayS.s:3      *ABS*:000000000000003d __SP_L__
/var/tmp//ccIWOayS.s:4      *ABS*:000000000000003f __SREG__
/var/tmp//ccIWOayS.s:5      *ABS*:0000000000000000 __tmp_reg__
/var/tmp//ccIWOayS.s:6      *ABS*:0000000000000001 __zero_reg__
/var/tmp//ccIWOayS.s:13     .text.action_get_macro:0000000000000000 action_get_macro
/var/tmp//ccIWOayS.s:35     .text.action_function:0000000000000000 action_function
/var/tmp//ccIWOayS.s:53     .text.keymap_key_to_keycode:0000000000000000 keymap_key_to_keycode
/var/tmp//ccIWOayS.s:102    .text.keymap_function_id_to_action:0000000000000000 keymap_function_id_to_action
/var/tmp//ccIWOayS.s:919    .progmem.data.fn_actions:0000000000000000 fn_actions
/var/tmp//ccIWOayS.s:138    .text.action_for_key:0000000000000000 action_for_key

UNDEFINED SYMBOLS
keymaps
keycode_config
mod_config
