   1              		.cpu cortex-m4
   2              		.eabi_attribute 20, 1
   3              		.eabi_attribute 21, 1
   4              		.eabi_attribute 23, 3
   5              		.eabi_attribute 24, 1
   6              		.eabi_attribute 25, 1
   7              		.eabi_attribute 26, 1
   8              		.eabi_attribute 30, 4
   9              		.eabi_attribute 34, 1
  10              		.eabi_attribute 18, 2
  11              		.file	"host.c"
  12              		.text
  13              	.Ltext0:
  14              		.cfi_sections	.debug_frame
  15              		.section	.text.host_set_driver,"ax",%progbits
  16              		.align	1
  17              		.global	host_set_driver
  18              		.syntax unified
  19              		.thumb
  20              		.thumb_func
  21              		.fpu softvfp
  23              	host_set_driver:
  24              	.LFB279:
  25              		.file 1 "tmk_core/common/host.c"
   1:tmk_core/common/host.c **** /*
   2:tmk_core/common/host.c **** Copyright 2011,2012 Jun Wako <wakojun@gmail.com>
   3:tmk_core/common/host.c **** 
   4:tmk_core/common/host.c **** This program is free software: you can redistribute it and/or modify
   5:tmk_core/common/host.c **** it under the terms of the GNU General Public License as published by
   6:tmk_core/common/host.c **** the Free Software Foundation, either version 2 of the License, or
   7:tmk_core/common/host.c **** (at your option) any later version.
   8:tmk_core/common/host.c **** 
   9:tmk_core/common/host.c **** This program is distributed in the hope that it will be useful,
  10:tmk_core/common/host.c **** but WITHOUT ANY WARRANTY; without even the implied warranty of
  11:tmk_core/common/host.c **** MERCHANTABILITY or FITNESS FOR A PARTICULAR PURPOSE.  See the
  12:tmk_core/common/host.c **** GNU General Public License for more details.
  13:tmk_core/common/host.c **** 
  14:tmk_core/common/host.c **** You should have received a copy of the GNU General Public License
  15:tmk_core/common/host.c **** along with this program.  If not, see <http://www.gnu.org/licenses/>.
  16:tmk_core/common/host.c **** */
  17:tmk_core/common/host.c **** 
  18:tmk_core/common/host.c **** #include <stdint.h>
  19:tmk_core/common/host.c **** //#include <avr/interrupt.h>
  20:tmk_core/common/host.c **** #include "keycode.h"
  21:tmk_core/common/host.c **** #include "host.h"
  22:tmk_core/common/host.c **** #include "util.h"
  23:tmk_core/common/host.c **** #include "debug.h"
  24:tmk_core/common/host.c **** 
  25:tmk_core/common/host.c **** #ifdef NKRO_ENABLE
  26:tmk_core/common/host.c **** #    include "keycode_config.h"
  27:tmk_core/common/host.c **** extern keymap_config_t keymap_config;
  28:tmk_core/common/host.c **** #endif
  29:tmk_core/common/host.c **** 
  30:tmk_core/common/host.c **** static host_driver_t *driver;
  31:tmk_core/common/host.c **** static uint16_t       last_system_report   = 0;
  32:tmk_core/common/host.c **** static uint16_t       last_consumer_report = 0;
  33:tmk_core/common/host.c **** 
  34:tmk_core/common/host.c **** void host_set_driver(host_driver_t *d) { driver = d; }
  26              		.loc 1 34 0
  27              		.cfi_startproc
  28              		@ args = 0, pretend = 0, frame = 0
  29              		@ frame_needed = 0, uses_anonymous_args = 0
  30              		@ link register save eliminated.
  31              	.LVL0:
  32              		.loc 1 34 0
  33 0000 014B     		ldr	r3, .L2
  34 0002 1860     		str	r0, [r3]
  35 0004 7047     		bx	lr
  36              	.L3:
  37 0006 00BF     		.align	2
  38              	.L2:
  39 0008 00000000 		.word	.LANCHOR0
  40              		.cfi_endproc
  41              	.LFE279:
  43              		.section	.text.host_get_driver,"ax",%progbits
  44              		.align	1
  45              		.global	host_get_driver
  46              		.syntax unified
  47              		.thumb
  48              		.thumb_func
  49              		.fpu softvfp
  51              	host_get_driver:
  52              	.LFB280:
  35:tmk_core/common/host.c **** 
  36:tmk_core/common/host.c **** host_driver_t *host_get_driver(void) { return driver; }
  53              		.loc 1 36 0
  54              		.cfi_startproc
  55              		@ args = 0, pretend = 0, frame = 0
  56              		@ frame_needed = 0, uses_anonymous_args = 0
  57              		@ link register save eliminated.
  58              		.loc 1 36 0
  59 0000 014B     		ldr	r3, .L5
  60 0002 1868     		ldr	r0, [r3]
  61 0004 7047     		bx	lr
  62              	.L6:
  63 0006 00BF     		.align	2
  64              	.L5:
  65 0008 00000000 		.word	.LANCHOR0
  66              		.cfi_endproc
  67              	.LFE280:
  69              		.section	.text.host_keyboard_leds,"ax",%progbits
  70              		.align	1
  71              		.global	host_keyboard_leds
  72              		.syntax unified
  73              		.thumb
  74              		.thumb_func
  75              		.fpu softvfp
  77              	host_keyboard_leds:
  78              	.LFB281:
  37:tmk_core/common/host.c **** 
  38:tmk_core/common/host.c **** uint8_t host_keyboard_leds(void) {
  79              		.loc 1 38 0
  80              		.cfi_startproc
  81              		@ args = 0, pretend = 0, frame = 0
  82              		@ frame_needed = 0, uses_anonymous_args = 0
  83              		@ link register save eliminated.
  39:tmk_core/common/host.c ****     if (!driver) return 0;
  84              		.loc 1 39 0
  85 0000 024B     		ldr	r3, .L9
  86 0002 1868     		ldr	r0, [r3]
  87 0004 08B1     		cbz	r0, .L8
  40:tmk_core/common/host.c ****     return (*driver->keyboard_leds)();
  88              		.loc 1 40 0
  89 0006 0368     		ldr	r3, [r0]
  90 0008 1847     		bx	r3
  91              	.LVL1:
  92              	.L8:
  41:tmk_core/common/host.c **** }
  93              		.loc 1 41 0
  94 000a 7047     		bx	lr
  95              	.L10:
  96              		.align	2
  97              	.L9:
  98 000c 00000000 		.word	.LANCHOR0
  99              		.cfi_endproc
 100              	.LFE281:
 102              		.section	.text.host_keyboard_send,"ax",%progbits
 103              		.align	1
 104              		.global	host_keyboard_send
 105              		.syntax unified
 106              		.thumb
 107              		.thumb_func
 108              		.fpu softvfp
 110              	host_keyboard_send:
 111              	.LFB282:
  42:tmk_core/common/host.c **** /* send report */
  43:tmk_core/common/host.c **** void host_keyboard_send(report_keyboard_t *report) {
 112              		.loc 1 43 0
 113              		.cfi_startproc
 114              		@ args = 0, pretend = 0, frame = 0
 115              		@ frame_needed = 0, uses_anonymous_args = 0
 116              	.LVL2:
 117 0000 F8B5     		push	{r3, r4, r5, r6, r7, lr}
 118              		.cfi_def_cfa_offset 24
 119              		.cfi_offset 3, -24
 120              		.cfi_offset 4, -20
 121              		.cfi_offset 5, -16
 122              		.cfi_offset 6, -12
 123              		.cfi_offset 7, -8
 124              		.cfi_offset 14, -4
  44:tmk_core/common/host.c ****     if (!driver) return;
 125              		.loc 1 44 0
 126 0002 194B     		ldr	r3, .L35
 127 0004 1B68     		ldr	r3, [r3]
  43:tmk_core/common/host.c ****     if (!driver) return;
 128              		.loc 1 43 0
 129 0006 0546     		mov	r5, r0
 130              		.loc 1 44 0
 131 0008 002B     		cmp	r3, #0
 132 000a 2BD0     		beq	.L11
  45:tmk_core/common/host.c **** #if defined(NKRO_ENABLE) && defined(NKRO_SHARED_EP)
  46:tmk_core/common/host.c ****     if (keyboard_protocol && keymap_config.nkro) {
 133              		.loc 1 46 0
 134 000c 174A     		ldr	r2, .L35+4
 135 000e 1278     		ldrb	r2, [r2]	@ zero_extendqisi2
 136 0010 42B1     		cbz	r2, .L14
 137              		.loc 1 46 0 is_stmt 0 discriminator 1
 138 0012 174A     		ldr	r2, .L35+8
 139 0014 92F90020 		ldrsb	r2, [r2]
 140 0018 002A     		cmp	r2, #0
  47:tmk_core/common/host.c ****         /* The callers of this function assume that report->mods is where mods go in.
  48:tmk_core/common/host.c ****          * But report->nkro.mods can be at a different offset if core keyboard does not have a repo
  49:tmk_core/common/host.c ****          */
  50:tmk_core/common/host.c ****         report->nkro.mods      = report->mods;
 141              		.loc 1 50 0 is_stmt 1 discriminator 1
 142 001a BFBF     		itttt	lt
 143 001c 0278     		ldrblt	r2, [r0]	@ zero_extendqisi2
 144 001e 4270     		strblt	r2, [r0, #1]
  51:tmk_core/common/host.c ****         report->nkro.report_id = REPORT_ID_NKRO;
 145              		.loc 1 51 0 discriminator 1
 146 0020 0522     		movlt	r2, #5
 147 0022 0270     		strblt	r2, [r0]
 148              	.L14:
  52:tmk_core/common/host.c ****     } else
  53:tmk_core/common/host.c **** #endif
  54:tmk_core/common/host.c ****     {
  55:tmk_core/common/host.c **** #ifdef KEYBOARD_SHARED_EP
  56:tmk_core/common/host.c ****         report->report_id = REPORT_ID_KEYBOARD;
  57:tmk_core/common/host.c **** #endif
  58:tmk_core/common/host.c ****     }
  59:tmk_core/common/host.c ****     (*driver->send_keyboard)(report);
  60:tmk_core/common/host.c **** 
  61:tmk_core/common/host.c ****     if (debug_keyboard) {
 149              		.loc 1 61 0
 150 0024 134C     		ldr	r4, .L35+12
  59:tmk_core/common/host.c **** 
 151              		.loc 1 59 0
 152 0026 5B68     		ldr	r3, [r3, #4]
 153 0028 2846     		mov	r0, r5
 154              	.LVL3:
 155 002a 9847     		blx	r3
 156              	.LVL4:
 157              		.loc 1 61 0
 158 002c 2378     		ldrb	r3, [r4]	@ zero_extendqisi2
 159 002e 5807     		lsls	r0, r3, #29
 160 0030 18D5     		bpl	.L11
  62:tmk_core/common/host.c ****         dprint("keyboard_report: ");
 161              		.loc 1 62 0
 162 0032 D907     		lsls	r1, r3, #31
 163 0034 02D5     		bpl	.L16
 164              		.loc 1 62 0 is_stmt 0 discriminator 1
 165 0036 1048     		ldr	r0, .L35+16
 166 0038 FFF7FEFF 		bl	tfp_printf
 167              	.LVL5:
 168              	.L16:
 169              	.LBB2:
  63:tmk_core/common/host.c ****         for (uint8_t i = 0; i < KEYBOARD_REPORT_SIZE; i++) {
  64:tmk_core/common/host.c ****             dprintf("%02X ", report->raw[i]);
 170              		.loc 1 64 0 is_stmt 1
 171 003c 0F4F     		ldr	r7, .L35+20
 172              	.LBE2:
  43:tmk_core/common/host.c ****     if (!driver) return;
 173              		.loc 1 43 0
 174 003e 0026     		movs	r6, #0
 175              	.L18:
 176              	.LVL6:
 177              	.LBB3:
 178              		.loc 1 64 0
 179 0040 2378     		ldrb	r3, [r4]	@ zero_extendqisi2
 180 0042 DA07     		lsls	r2, r3, #31
 181 0044 03D5     		bpl	.L17
 182              		.loc 1 64 0 is_stmt 0 discriminator 1
 183 0046 A95D     		ldrb	r1, [r5, r6]	@ zero_extendqisi2
 184 0048 3846     		mov	r0, r7
 185 004a FFF7FEFF 		bl	tfp_printf
 186              	.LVL7:
 187              	.L17:
 188 004e 0136     		adds	r6, r6, #1
 189              	.LVL8:
  63:tmk_core/common/host.c ****         for (uint8_t i = 0; i < KEYBOARD_REPORT_SIZE; i++) {
 190              		.loc 1 63 0 is_stmt 1 discriminator 2
 191 0050 082E     		cmp	r6, #8
 192 0052 F5D1     		bne	.L18
 193              	.LBE3:
  65:tmk_core/common/host.c ****         }
  66:tmk_core/common/host.c ****         dprint("\n");
 194              		.loc 1 66 0
 195 0054 2378     		ldrb	r3, [r4]	@ zero_extendqisi2
 196 0056 DB07     		lsls	r3, r3, #31
 197 0058 04D5     		bpl	.L11
 198              		.loc 1 66 0 is_stmt 0 discriminator 1
 199 005a 0948     		ldr	r0, .L35+24
  67:tmk_core/common/host.c ****     }
  68:tmk_core/common/host.c **** }
 200              		.loc 1 68 0 is_stmt 1 discriminator 1
 201 005c BDE8F840 		pop	{r3, r4, r5, r6, r7, lr}
 202              		.cfi_remember_state
 203              		.cfi_restore 14
 204              		.cfi_restore 7
 205              		.cfi_restore 6
 206              		.cfi_restore 5
 207              		.cfi_restore 4
 208              		.cfi_restore 3
 209              		.cfi_def_cfa_offset 0
 210              	.LVL9:
  66:tmk_core/common/host.c ****     }
 211              		.loc 1 66 0 discriminator 1
 212 0060 FFF7FEBF 		b	tfp_printf
 213              	.LVL10:
 214              	.L11:
 215              		.cfi_restore_state
 216              		.loc 1 68 0
 217 0064 F8BD     		pop	{r3, r4, r5, r6, r7, pc}
 218              	.LVL11:
 219              	.L36:
 220 0066 00BF     		.align	2
 221              	.L35:
 222 0068 00000000 		.word	.LANCHOR0
 223 006c 00000000 		.word	keyboard_protocol
 224 0070 00000000 		.word	keymap_config
 225 0074 00000000 		.word	debug_config
 226 0078 00000000 		.word	.LC0
 227 007c 12000000 		.word	.LC1
 228 0080 18000000 		.word	.LC2
 229              		.cfi_endproc
 230              	.LFE282:
 232              		.section	.text.host_mouse_send,"ax",%progbits
 233              		.align	1
 234              		.global	host_mouse_send
 235              		.syntax unified
 236              		.thumb
 237              		.thumb_func
 238              		.fpu softvfp
 240              	host_mouse_send:
 241              	.LFB283:
  69:tmk_core/common/host.c **** 
  70:tmk_core/common/host.c **** void host_mouse_send(report_mouse_t *report) {
 242              		.loc 1 70 0
 243              		.cfi_startproc
 244              		@ args = 0, pretend = 0, frame = 0
 245              		@ frame_needed = 0, uses_anonymous_args = 0
 246              		@ link register save eliminated.
 247              	.LVL12:
  71:tmk_core/common/host.c ****     if (!driver) return;
 248              		.loc 1 71 0
 249 0000 034B     		ldr	r3, .L39
 250 0002 1B68     		ldr	r3, [r3]
 251 0004 1BB1     		cbz	r3, .L37
  72:tmk_core/common/host.c **** #ifdef MOUSE_SHARED_EP
  73:tmk_core/common/host.c ****     report->report_id = REPORT_ID_MOUSE;
 252              		.loc 1 73 0
 253 0006 0221     		movs	r1, #2
 254 0008 0170     		strb	r1, [r0]
  74:tmk_core/common/host.c **** #endif
  75:tmk_core/common/host.c ****     (*driver->send_mouse)(report);
 255              		.loc 1 75 0
 256 000a 9B68     		ldr	r3, [r3, #8]
 257 000c 1847     		bx	r3	@ indirect register sibling call
 258              	.LVL13:
 259              	.L37:
  76:tmk_core/common/host.c **** }
 260              		.loc 1 76 0
 261 000e 7047     		bx	lr
 262              	.L40:
 263              		.align	2
 264              	.L39:
 265 0010 00000000 		.word	.LANCHOR0
 266              		.cfi_endproc
 267              	.LFE283:
 269              		.section	.text.host_system_send,"ax",%progbits
 270              		.align	1
 271              		.global	host_system_send
 272              		.syntax unified
 273              		.thumb
 274              		.thumb_func
 275              		.fpu softvfp
 277              	host_system_send:
 278              	.LFB284:
  77:tmk_core/common/host.c **** 
  78:tmk_core/common/host.c **** void host_system_send(uint16_t report) {
 279              		.loc 1 78 0
 280              		.cfi_startproc
 281              		@ args = 0, pretend = 0, frame = 0
 282              		@ frame_needed = 0, uses_anonymous_args = 0
 283              		@ link register save eliminated.
 284              	.LVL14:
  79:tmk_core/common/host.c ****     if (report == last_system_report) return;
 285              		.loc 1 79 0
 286 0000 054B     		ldr	r3, .L48
 287 0002 1988     		ldrh	r1, [r3]
 288 0004 8142     		cmp	r1, r0
 289 0006 05D0     		beq	.L41
  80:tmk_core/common/host.c ****     last_system_report = report;
 290              		.loc 1 80 0
 291 0008 1880     		strh	r0, [r3]	@ movhi
  81:tmk_core/common/host.c **** 
  82:tmk_core/common/host.c ****     if (!driver) return;
 292              		.loc 1 82 0
 293 000a 044B     		ldr	r3, .L48+4
 294 000c 1B68     		ldr	r3, [r3]
 295 000e 0BB1     		cbz	r3, .L41
  83:tmk_core/common/host.c ****     (*driver->send_system)(report);
 296              		.loc 1 83 0
 297 0010 DB68     		ldr	r3, [r3, #12]
 298 0012 1847     		bx	r3	@ indirect register sibling call
 299              	.LVL15:
 300              	.L41:
  84:tmk_core/common/host.c **** }
 301              		.loc 1 84 0
 302 0014 7047     		bx	lr
 303              	.L49:
 304 0016 00BF     		.align	2
 305              	.L48:
 306 0018 00000000 		.word	.LANCHOR1
 307 001c 00000000 		.word	.LANCHOR0
 308              		.cfi_endproc
 309              	.LFE284:
 311              		.section	.text.host_consumer_send,"ax",%progbits
 312              		.align	1
 313              		.global	host_consumer_send
 314              		.syntax unified
 315              		.thumb
 316              		.thumb_func
 317              		.fpu softvfp
 319              	host_consumer_send:
 320              	.LFB285:
  85:tmk_core/common/host.c **** 
  86:tmk_core/common/host.c **** void host_consumer_send(uint16_t report) {
 321              		.loc 1 86 0
 322              		.cfi_startproc
 323              		@ args = 0, pretend = 0, frame = 0
 324              		@ frame_needed = 0, uses_anonymous_args = 0
 325              		@ link register save eliminated.
 326              	.LVL16:
  87:tmk_core/common/host.c ****     if (report == last_consumer_report) return;
 327              		.loc 1 87 0
 328 0000 054B     		ldr	r3, .L57
 329 0002 1988     		ldrh	r1, [r3]
 330 0004 8142     		cmp	r1, r0
 331 0006 05D0     		beq	.L50
  88:tmk_core/common/host.c ****     last_consumer_report = report;
 332              		.loc 1 88 0
 333 0008 1880     		strh	r0, [r3]	@ movhi
  89:tmk_core/common/host.c **** 
  90:tmk_core/common/host.c ****     if (!driver) return;
 334              		.loc 1 90 0
 335 000a 044B     		ldr	r3, .L57+4
 336 000c 1B68     		ldr	r3, [r3]
 337 000e 0BB1     		cbz	r3, .L50
  91:tmk_core/common/host.c ****     (*driver->send_consumer)(report);
 338              		.loc 1 91 0
 339 0010 1B69     		ldr	r3, [r3, #16]
 340 0012 1847     		bx	r3	@ indirect register sibling call
 341              	.LVL17:
 342              	.L50:
  92:tmk_core/common/host.c **** }
 343              		.loc 1 92 0
 344 0014 7047     		bx	lr
 345              	.L58:
 346 0016 00BF     		.align	2
 347              	.L57:
 348 0018 00000000 		.word	.LANCHOR2
 349 001c 00000000 		.word	.LANCHOR0
 350              		.cfi_endproc
 351              	.LFE285:
 353              		.section	.text.host_last_system_report,"ax",%progbits
 354              		.align	1
 355              		.global	host_last_system_report
 356              		.syntax unified
 357              		.thumb
 358              		.thumb_func
 359              		.fpu softvfp
 361              	host_last_system_report:
 362              	.LFB286:
  93:tmk_core/common/host.c **** 
  94:tmk_core/common/host.c **** uint16_t host_last_system_report(void) { return last_system_report; }
 363              		.loc 1 94 0
 364              		.cfi_startproc
 365              		@ args = 0, pretend = 0, frame = 0
 366              		@ frame_needed = 0, uses_anonymous_args = 0
 367              		@ link register save eliminated.
 368              		.loc 1 94 0
 369 0000 014B     		ldr	r3, .L60
 370 0002 1888     		ldrh	r0, [r3]
 371 0004 7047     		bx	lr
 372              	.L61:
 373 0006 00BF     		.align	2
 374              	.L60:
 375 0008 00000000 		.word	.LANCHOR1
 376              		.cfi_endproc
 377              	.LFE286:
 379              		.section	.text.host_last_consumer_report,"ax",%progbits
 380              		.align	1
 381              		.global	host_last_consumer_report
 382              		.syntax unified
 383              		.thumb
 384              		.thumb_func
 385              		.fpu softvfp
 387              	host_last_consumer_report:
 388              	.LFB287:
  95:tmk_core/common/host.c **** 
  96:tmk_core/common/host.c **** uint16_t host_last_consumer_report(void) { return last_consumer_report; }
 389              		.loc 1 96 0
 390              		.cfi_startproc
 391              		@ args = 0, pretend = 0, frame = 0
 392              		@ frame_needed = 0, uses_anonymous_args = 0
 393              		@ link register save eliminated.
 394              		.loc 1 96 0
 395 0000 014B     		ldr	r3, .L63
 396 0002 1888     		ldrh	r0, [r3]
 397 0004 7047     		bx	lr
 398              	.L64:
 399 0006 00BF     		.align	2
 400              	.L63:
 401 0008 00000000 		.word	.LANCHOR2
 402              		.cfi_endproc
 403              	.LFE287:
 405              		.section	.bss.driver,"aw",%nobits
 406              		.align	2
 407              		.set	.LANCHOR0,. + 0
 410              	driver:
 411 0000 00000000 		.space	4
 412              		.section	.bss.last_consumer_report,"aw",%nobits
 413              		.align	1
 414              		.set	.LANCHOR2,. + 0
 417              	last_consumer_report:
 418 0000 0000     		.space	2
 419              		.section	.bss.last_system_report,"aw",%nobits
 420              		.align	1
 421              		.set	.LANCHOR1,. + 0
 424              	last_system_report:
 425 0000 0000     		.space	2
 426              		.section	.rodata.host_keyboard_send.str1.1,"aMS",%progbits,1
 427              	.LC0:
 428 0000 6B657962 		.ascii	"keyboard_report: \000"
 428      6F617264 
 428      5F726570 
 428      6F72743A 
 428      2000
 429              	.LC1:
 430 0012 25303258 		.ascii	"%02X \000"
 430      2000
 431              	.LC2:
 432 0018 0A00     		.ascii	"\012\000"
 433              		.text
 434              	.Letext0:
 435              		.file 2 "/usr/local/Cellar/gcc-arm-none-eabi/20180627/arm-none-eabi/include/machine/_default_types
 436              		.file 3 "/usr/local/Cellar/gcc-arm-none-eabi/20180627/arm-none-eabi/include/sys/_stdint.h"
 437              		.file 4 "/usr/local/Cellar/gcc-arm-none-eabi/20180627/lib/gcc/arm-none-eabi/7.3.1/include/stddef.h
 438              		.file 5 "./lib/chibios/os/common/ports/ARMCMx/compilers/GCC/chtypes.h"
 439              		.file 6 "./lib/chibios/os/rt/include/chsystypes.h"
 440              		.file 7 "./lib/chibios/os/rt/include/chschd.h"
 441              		.file 8 "./lib/chibios/os/common/ext/CMSIS/include/core_cm4.h"
 442              		.file 9 "./lib/chibios/os/common/ext/CMSIS/ST/STM32F3xx/system_stm32f3xx.h"
 443              		.file 10 "./lib/chibios/os/common/ext/CMSIS/ST/STM32F3xx/stm32f303xc.h"
 444              		.file 11 "./lib/chibios/os/common/ports/ARMCMx/chcore.h"
 445              		.file 12 "./lib/chibios/os/common/ports/ARMCMx/chcore_v7m.h"
 446              		.file 13 "./lib/chibios/os/hal/ports/STM32/LLD/TIMv1/stm32_tim.h"
 447              		.file 14 "./lib/chibios/os/rt/include/chtm.h"
 448              		.file 15 "./lib/chibios/os/rt/include/chsem.h"
 449              		.file 16 "./lib/chibios/os/rt/include/chmtx.h"
 450              		.file 17 "./lib/chibios/os/rt/include/chsys.h"
 451              		.file 18 "./lib/chibios/os/rt/include/chregistry.h"
 452              		.file 19 "./lib/chibios/os/common/oslib/include/chmemcore.h"
 453              		.file 20 "./lib/chibios/os/hal/ports/STM32/LLD/DMAv1/stm32_dma.h"
 454              		.file 21 "./lib/chibios/os/hal/ports/STM32/LLD/GPIOv2/hal_pal_lld.h"
 455              		.file 22 "./lib/chibios/os/hal/include/hal_dac.h"
 456              		.file 23 "./lib/chibios/os/hal/ports/STM32/LLD/DACv1/hal_dac_lld.h"
 457              		.file 24 "./lib/chibios/os/hal/include/hal_gpt.h"
 458              		.file 25 "./lib/chibios/os/hal/ports/STM32/LLD/TIMv1/hal_gpt_lld.h"
 459              		.file 26 "./lib/chibios/os/hal/include/hal_i2c.h"
 460              		.file 27 "./lib/chibios/os/hal/ports/STM32/LLD/I2Cv2/hal_i2c_lld.h"
 461              		.file 28 "./lib/chibios/os/hal/include/hal_pwm.h"
 462              		.file 29 "./lib/chibios/os/hal/ports/STM32/LLD/TIMv1/hal_pwm_lld.h"
 463              		.file 30 "./lib/chibios/os/hal/include/hal_usb.h"
 464              		.file 31 "./lib/chibios/os/hal/ports/STM32/LLD/USBv1/hal_usb_lld.h"
 465              		.file 32 "tmk_core/common/report.h"
 466              		.file 33 "tmk_core/common/host_driver.h"
 467              		.file 34 "tmk_core/common/host.h"
 468              		.file 35 "tmk_core/common/debug.h"
 469              		.file 36 "quantum/keycode_config.h"
 470              		.file 37 "tmk_core/common/chibios/printf.h"