   1              		.cpu cortex-m4
   2              		.eabi_attribute 27, 1
   3              		.eabi_attribute 28, 1
   4              		.eabi_attribute 20, 1
   5              		.eabi_attribute 21, 1
   6              		.eabi_attribute 23, 3
   7              		.eabi_attribute 24, 1
   8              		.eabi_attribute 25, 1
   9              		.eabi_attribute 26, 1
  10              		.eabi_attribute 30, 4
  11              		.eabi_attribute 34, 1
  12              		.eabi_attribute 18, 4
  13              		.file	"host.c"
  14              		.text
  15              	.Ltext0:
  16              		.cfi_sections	.debug_frame
  17              		.section	.text.host_set_driver,"ax",%progbits
  18              		.align	1
  19              		.global	host_set_driver
  20              		.syntax unified
  21              		.thumb
  22              		.thumb_func
  23              		.fpu fpv4-sp-d16
  25              	host_set_driver:
  26              	.LFB0:
  27              		.file 1 "tmk_core/common/host.c"
   1:tmk_core/common/host.c **** /*
   2:tmk_core/common/host.c **** Copyright 2011,2012 Jun Wako <wakojun@gmail.com>
   3:tmk_core/common/host.c **** 
   4:tmk_core/common/host.c **** This program is free software: you can redistribute it and/or modify
   5:tmk_core/common/host.c **** it under the terms of the GNU General Public License as published by
   6:tmk_core/common/host.c **** the Free Software Foundation, either version 2 of the License, or
   7:tmk_core/common/host.c **** (at your option) any later version.
   8:tmk_core/common/host.c **** 
   9:tmk_core/common/host.c **** This program is distributed in the hope that it will be useful,
  10:tmk_core/common/host.c **** but WITHOUT ANY WARRANTY; without even the implied warranty of
  11:tmk_core/common/host.c **** MERCHANTABILITY or FITNESS FOR A PARTICULAR PURPOSE.  See the
  12:tmk_core/common/host.c **** GNU General Public License for more details.
  13:tmk_core/common/host.c **** 
  14:tmk_core/common/host.c **** You should have received a copy of the GNU General Public License
  15:tmk_core/common/host.c **** along with this program.  If not, see <http://www.gnu.org/licenses/>.
  16:tmk_core/common/host.c **** */
  17:tmk_core/common/host.c **** 
  18:tmk_core/common/host.c **** #include <stdint.h>
  19:tmk_core/common/host.c **** //#include <avr/interrupt.h>
  20:tmk_core/common/host.c **** #include "keycode.h"
  21:tmk_core/common/host.c **** #include "host.h"
  22:tmk_core/common/host.c **** #include "util.h"
  23:tmk_core/common/host.c **** #include "debug.h"
  24:tmk_core/common/host.c **** 
  25:tmk_core/common/host.c **** #ifdef NKRO_ENABLE
  26:tmk_core/common/host.c **** #    include "keycode_config.h"
  27:tmk_core/common/host.c **** extern keymap_config_t keymap_config;
  28:tmk_core/common/host.c **** #endif
  29:tmk_core/common/host.c **** 
  30:tmk_core/common/host.c **** static host_driver_t *driver;
  31:tmk_core/common/host.c **** static uint16_t       last_system_report   = 0;
  32:tmk_core/common/host.c **** static uint16_t       last_consumer_report = 0;
  33:tmk_core/common/host.c **** 
  34:tmk_core/common/host.c **** void host_set_driver(host_driver_t *d) { driver = d; }
  28              		.loc 1 34 0
  29              		.cfi_startproc
  30              		@ args = 0, pretend = 0, frame = 0
  31              		@ frame_needed = 0, uses_anonymous_args = 0
  32              		@ link register save eliminated.
  33              	.LVL0:
  34              		.loc 1 34 0
  35 0000 014B     		ldr	r3, .L2
  36 0002 1860     		str	r0, [r3]
  37 0004 7047     		bx	lr
  38              	.L3:
  39 0006 00BF     		.align	2
  40              	.L2:
  41 0008 00000000 		.word	.LANCHOR0
  42              		.cfi_endproc
  43              	.LFE0:
  45              		.section	.text.host_get_driver,"ax",%progbits
  46              		.align	1
  47              		.global	host_get_driver
  48              		.syntax unified
  49              		.thumb
  50              		.thumb_func
  51              		.fpu fpv4-sp-d16
  53              	host_get_driver:
  54              	.LFB1:
  35:tmk_core/common/host.c **** 
  36:tmk_core/common/host.c **** host_driver_t *host_get_driver(void) { return driver; }
  55              		.loc 1 36 0
  56              		.cfi_startproc
  57              		@ args = 0, pretend = 0, frame = 0
  58              		@ frame_needed = 0, uses_anonymous_args = 0
  59              		@ link register save eliminated.
  60              		.loc 1 36 0
  61 0000 014B     		ldr	r3, .L5
  62 0002 1868     		ldr	r0, [r3]
  63 0004 7047     		bx	lr
  64              	.L6:
  65 0006 00BF     		.align	2
  66              	.L5:
  67 0008 00000000 		.word	.LANCHOR0
  68              		.cfi_endproc
  69              	.LFE1:
  71              		.section	.text.host_keyboard_leds,"ax",%progbits
  72              		.align	1
  73              		.global	host_keyboard_leds
  74              		.syntax unified
  75              		.thumb
  76              		.thumb_func
  77              		.fpu fpv4-sp-d16
  79              	host_keyboard_leds:
  80              	.LFB2:
  37:tmk_core/common/host.c **** 
  38:tmk_core/common/host.c **** uint8_t host_keyboard_leds(void) {
  81              		.loc 1 38 0
  82              		.cfi_startproc
  83              		@ args = 0, pretend = 0, frame = 0
  84              		@ frame_needed = 0, uses_anonymous_args = 0
  85              		@ link register save eliminated.
  39:tmk_core/common/host.c ****     if (!driver) return 0;
  86              		.loc 1 39 0
  87 0000 024B     		ldr	r3, .L9
  88 0002 1868     		ldr	r0, [r3]
  89 0004 08B1     		cbz	r0, .L8
  40:tmk_core/common/host.c ****     return (*driver->keyboard_leds)();
  90              		.loc 1 40 0
  91 0006 0368     		ldr	r3, [r0]
  92 0008 1847     		bx	r3
  93              	.LVL1:
  94              	.L8:
  41:tmk_core/common/host.c **** }
  95              		.loc 1 41 0
  96 000a 7047     		bx	lr
  97              	.L10:
  98              		.align	2
  99              	.L9:
 100 000c 00000000 		.word	.LANCHOR0
 101              		.cfi_endproc
 102              	.LFE2:
 104              		.section	.text.host_keyboard_send,"ax",%progbits
 105              		.align	1
 106              		.global	host_keyboard_send
 107              		.syntax unified
 108              		.thumb
 109              		.thumb_func
 110              		.fpu fpv4-sp-d16
 112              	host_keyboard_send:
 113              	.LFB3:
  42:tmk_core/common/host.c **** /* send report */
  43:tmk_core/common/host.c **** void host_keyboard_send(report_keyboard_t *report) {
 114              		.loc 1 43 0
 115              		.cfi_startproc
 116              		@ args = 0, pretend = 0, frame = 0
 117              		@ frame_needed = 0, uses_anonymous_args = 0
 118              		@ link register save eliminated.
 119              	.LVL2:
  44:tmk_core/common/host.c ****     if (!driver) return;
 120              		.loc 1 44 0
 121 0000 024B     		ldr	r3, .L13
 122 0002 1B68     		ldr	r3, [r3]
 123 0004 0BB1     		cbz	r3, .L11
  45:tmk_core/common/host.c **** #if defined(NKRO_ENABLE) && defined(NKRO_SHARED_EP)
  46:tmk_core/common/host.c ****     if (keyboard_protocol && keymap_config.nkro) {
  47:tmk_core/common/host.c ****         /* The callers of this function assume that report->mods is where mods go in.
  48:tmk_core/common/host.c ****          * But report->nkro.mods can be at a different offset if core keyboard does not have a repo
  49:tmk_core/common/host.c ****          */
  50:tmk_core/common/host.c ****         report->nkro.mods      = report->mods;
  51:tmk_core/common/host.c ****         report->nkro.report_id = REPORT_ID_NKRO;
  52:tmk_core/common/host.c ****     } else
  53:tmk_core/common/host.c **** #endif
  54:tmk_core/common/host.c ****     {
  55:tmk_core/common/host.c **** #ifdef KEYBOARD_SHARED_EP
  56:tmk_core/common/host.c ****         report->report_id = REPORT_ID_KEYBOARD;
  57:tmk_core/common/host.c **** #endif
  58:tmk_core/common/host.c ****     }
  59:tmk_core/common/host.c ****     (*driver->send_keyboard)(report);
 124              		.loc 1 59 0
 125 0006 5B68     		ldr	r3, [r3, #4]
 126 0008 1847     		bx	r3	@ indirect register sibling call
 127              	.LVL3:
 128              	.L11:
  60:tmk_core/common/host.c **** 
  61:tmk_core/common/host.c ****     if (debug_keyboard) {
  62:tmk_core/common/host.c ****         dprint("keyboard_report: ");
  63:tmk_core/common/host.c ****         for (uint8_t i = 0; i < KEYBOARD_REPORT_SIZE; i++) {
  64:tmk_core/common/host.c ****             dprintf("%02X ", report->raw[i]);
  65:tmk_core/common/host.c ****         }
  66:tmk_core/common/host.c ****         dprint("\n");
  67:tmk_core/common/host.c ****     }
  68:tmk_core/common/host.c **** }
 129              		.loc 1 68 0
 130 000a 7047     		bx	lr
 131              	.L14:
 132              		.align	2
 133              	.L13:
 134 000c 00000000 		.word	.LANCHOR0
 135              		.cfi_endproc
 136              	.LFE3:
 138              		.section	.text.host_mouse_send,"ax",%progbits
 139              		.align	1
 140              		.global	host_mouse_send
 141              		.syntax unified
 142              		.thumb
 143              		.thumb_func
 144              		.fpu fpv4-sp-d16
 146              	host_mouse_send:
 147              	.LFB4:
  69:tmk_core/common/host.c **** 
  70:tmk_core/common/host.c **** void host_mouse_send(report_mouse_t *report) {
 148              		.loc 1 70 0
 149              		.cfi_startproc
 150              		@ args = 0, pretend = 0, frame = 0
 151              		@ frame_needed = 0, uses_anonymous_args = 0
 152              		@ link register save eliminated.
 153              	.LVL4:
  71:tmk_core/common/host.c ****     if (!driver) return;
 154              		.loc 1 71 0
 155 0000 024B     		ldr	r3, .L17
 156 0002 1B68     		ldr	r3, [r3]
 157 0004 0BB1     		cbz	r3, .L15
  72:tmk_core/common/host.c **** #ifdef MOUSE_SHARED_EP
  73:tmk_core/common/host.c ****     report->report_id = REPORT_ID_MOUSE;
  74:tmk_core/common/host.c **** #endif
  75:tmk_core/common/host.c ****     (*driver->send_mouse)(report);
 158              		.loc 1 75 0
 159 0006 9B68     		ldr	r3, [r3, #8]
 160 0008 1847     		bx	r3	@ indirect register sibling call
 161              	.LVL5:
 162              	.L15:
  76:tmk_core/common/host.c **** }
 163              		.loc 1 76 0
 164 000a 7047     		bx	lr
 165              	.L18:
 166              		.align	2
 167              	.L17:
 168 000c 00000000 		.word	.LANCHOR0
 169              		.cfi_endproc
 170              	.LFE4:
 172              		.section	.text.host_system_send,"ax",%progbits
 173              		.align	1
 174              		.global	host_system_send
 175              		.syntax unified
 176              		.thumb
 177              		.thumb_func
 178              		.fpu fpv4-sp-d16
 180              	host_system_send:
 181              	.LFB5:
  77:tmk_core/common/host.c **** 
  78:tmk_core/common/host.c **** void host_system_send(uint16_t report) {
 182              		.loc 1 78 0
 183              		.cfi_startproc
 184              		@ args = 0, pretend = 0, frame = 0
 185              		@ frame_needed = 0, uses_anonymous_args = 0
 186              		@ link register save eliminated.
 187              	.LVL6:
  79:tmk_core/common/host.c ****     if (report == last_system_report) return;
 188              		.loc 1 79 0
 189 0000 044B     		ldr	r3, .L26
 190 0002 9988     		ldrh	r1, [r3, #4]
 191 0004 8142     		cmp	r1, r0
 192 0006 04D0     		beq	.L19
  80:tmk_core/common/host.c ****     last_system_report = report;
 193              		.loc 1 80 0
 194 0008 9880     		strh	r0, [r3, #4]	@ movhi
  81:tmk_core/common/host.c **** 
  82:tmk_core/common/host.c ****     if (!driver) return;
 195              		.loc 1 82 0
 196 000a 1B68     		ldr	r3, [r3]
 197 000c 0BB1     		cbz	r3, .L19
  83:tmk_core/common/host.c ****     (*driver->send_system)(report);
 198              		.loc 1 83 0
 199 000e DB68     		ldr	r3, [r3, #12]
 200 0010 1847     		bx	r3	@ indirect register sibling call
 201              	.LVL7:
 202              	.L19:
  84:tmk_core/common/host.c **** }
 203              		.loc 1 84 0
 204 0012 7047     		bx	lr
 205              	.L27:
 206              		.align	2
 207              	.L26:
 208 0014 00000000 		.word	.LANCHOR0
 209              		.cfi_endproc
 210              	.LFE5:
 212              		.section	.text.host_consumer_send,"ax",%progbits
 213              		.align	1
 214              		.global	host_consumer_send
 215              		.syntax unified
 216              		.thumb
 217              		.thumb_func
 218              		.fpu fpv4-sp-d16
 220              	host_consumer_send:
 221              	.LFB6:
  85:tmk_core/common/host.c **** 
  86:tmk_core/common/host.c **** void host_consumer_send(uint16_t report) {
 222              		.loc 1 86 0
 223              		.cfi_startproc
 224              		@ args = 0, pretend = 0, frame = 0
 225              		@ frame_needed = 0, uses_anonymous_args = 0
 226              		@ link register save eliminated.
 227              	.LVL8:
  87:tmk_core/common/host.c ****     if (report == last_consumer_report) return;
 228              		.loc 1 87 0
 229 0000 044B     		ldr	r3, .L35
 230 0002 D988     		ldrh	r1, [r3, #6]
 231 0004 8142     		cmp	r1, r0
 232 0006 04D0     		beq	.L28
  88:tmk_core/common/host.c ****     last_consumer_report = report;
 233              		.loc 1 88 0
 234 0008 D880     		strh	r0, [r3, #6]	@ movhi
  89:tmk_core/common/host.c **** 
  90:tmk_core/common/host.c ****     if (!driver) return;
 235              		.loc 1 90 0
 236 000a 1B68     		ldr	r3, [r3]
 237 000c 0BB1     		cbz	r3, .L28
  91:tmk_core/common/host.c ****     (*driver->send_consumer)(report);
 238              		.loc 1 91 0
 239 000e 1B69     		ldr	r3, [r3, #16]
 240 0010 1847     		bx	r3	@ indirect register sibling call
 241              	.LVL9:
 242              	.L28:
  92:tmk_core/common/host.c **** }
 243              		.loc 1 92 0
 244 0012 7047     		bx	lr
 245              	.L36:
 246              		.align	2
 247              	.L35:
 248 0014 00000000 		.word	.LANCHOR0
 249              		.cfi_endproc
 250              	.LFE6:
 252              		.section	.text.host_last_system_report,"ax",%progbits
 253              		.align	1
 254              		.global	host_last_system_report
 255              		.syntax unified
 256              		.thumb
 257              		.thumb_func
 258              		.fpu fpv4-sp-d16
 260              	host_last_system_report:
 261              	.LFB7:
  93:tmk_core/common/host.c **** 
  94:tmk_core/common/host.c **** uint16_t host_last_system_report(void) { return last_system_report; }
 262              		.loc 1 94 0
 263              		.cfi_startproc
 264              		@ args = 0, pretend = 0, frame = 0
 265              		@ frame_needed = 0, uses_anonymous_args = 0
 266              		@ link register save eliminated.
 267              		.loc 1 94 0
 268 0000 014B     		ldr	r3, .L38
 269 0002 9888     		ldrh	r0, [r3, #4]
 270 0004 7047     		bx	lr
 271              	.L39:
 272 0006 00BF     		.align	2
 273              	.L38:
 274 0008 00000000 		.word	.LANCHOR0
 275              		.cfi_endproc
 276              	.LFE7:
 278              		.section	.text.host_last_consumer_report,"ax",%progbits
 279              		.align	1
 280              		.global	host_last_consumer_report
 281              		.syntax unified
 282              		.thumb
 283              		.thumb_func
 284              		.fpu fpv4-sp-d16
 286              	host_last_consumer_report:
 287              	.LFB8:
  95:tmk_core/common/host.c **** 
  96:tmk_core/common/host.c **** uint16_t host_last_consumer_report(void) { return last_consumer_report; }
 288              		.loc 1 96 0
 289              		.cfi_startproc
 290              		@ args = 0, pretend = 0, frame = 0
 291              		@ frame_needed = 0, uses_anonymous_args = 0
 292              		@ link register save eliminated.
 293              		.loc 1 96 0
 294 0000 014B     		ldr	r3, .L41
 295 0002 D888     		ldrh	r0, [r3, #6]
 296 0004 7047     		bx	lr
 297              	.L42:
 298 0006 00BF     		.align	2
 299              	.L41:
 300 0008 00000000 		.word	.LANCHOR0
 301              		.cfi_endproc
 302              	.LFE8:
 304              		.bss
 305              		.align	2
 306              		.set	.LANCHOR0,. + 0
 309              	driver:
 310 0000 00000000 		.space	4
 313              	last_system_report:
 314 0004 0000     		.space	2
 317              	last_consumer_report:
 318 0006 0000     		.space	2
 319              		.text
 320              	.Letext0:
 321              		.file 2 "/usr/local/Cellar/gcc-arm-none-eabi/20180627/arm-none-eabi/include/machine/_default_types
 322              		.file 3 "/usr/local/Cellar/gcc-arm-none-eabi/20180627/arm-none-eabi/include/sys/_stdint.h"
 323              		.file 4 "tmk_core/common/report.h"
 324              		.file 5 "tmk_core/common/host_driver.h"
 325              		.file 6 "tmk_core/common/host.h"
 326              		.file 7 "tmk_core/common/debug.h"
 327              		.file 8 "quantum/keycode_config.h"