   1              		.cpu cortex-m4
   2              		.eabi_attribute 20, 1
   3              		.eabi_attribute 21, 1
   4              		.eabi_attribute 23, 3
   5              		.eabi_attribute 24, 1
   6              		.eabi_attribute 25, 1
   7              		.eabi_attribute 26, 1
   8              		.eabi_attribute 30, 4
   9              		.eabi_attribute 34, 1
  10              		.eabi_attribute 18, 2
  11              		.file	"nullstreams.c"
  12              		.text
  13              	.Ltext0:
  14              		.cfi_sections	.debug_frame
  15              		.section	.text.writes,"ax",%progbits
  16              		.align	1
  17              		.syntax unified
  18              		.thumb
  19              		.thumb_func
  20              		.fpu softvfp
  22              	writes:
  23              	.LFB279:
  24              		.file 1 "lib/chibios/os/hal/lib/streams/nullstreams.c"
   1:lib/chibios/os/hal/lib/streams/nullstreams.c **** /*
   2:lib/chibios/os/hal/lib/streams/nullstreams.c ****     ChibiOS - Copyright (C) 2006..2016 Giovanni Di Sirio
   3:lib/chibios/os/hal/lib/streams/nullstreams.c **** 
   4:lib/chibios/os/hal/lib/streams/nullstreams.c ****     Licensed under the Apache License, Version 2.0 (the "License");
   5:lib/chibios/os/hal/lib/streams/nullstreams.c ****     you may not use this file except in compliance with the License.
   6:lib/chibios/os/hal/lib/streams/nullstreams.c ****     You may obtain a copy of the License at
   7:lib/chibios/os/hal/lib/streams/nullstreams.c **** 
   8:lib/chibios/os/hal/lib/streams/nullstreams.c ****         http://www.apache.org/licenses/LICENSE-2.0
   9:lib/chibios/os/hal/lib/streams/nullstreams.c **** 
  10:lib/chibios/os/hal/lib/streams/nullstreams.c ****     Unless required by applicable law or agreed to in writing, software
  11:lib/chibios/os/hal/lib/streams/nullstreams.c ****     distributed under the License is distributed on an "AS IS" BASIS,
  12:lib/chibios/os/hal/lib/streams/nullstreams.c ****     WITHOUT WARRANTIES OR CONDITIONS OF ANY KIND, either express or implied.
  13:lib/chibios/os/hal/lib/streams/nullstreams.c ****     See the License for the specific language governing permissions and
  14:lib/chibios/os/hal/lib/streams/nullstreams.c ****     limitations under the License.
  15:lib/chibios/os/hal/lib/streams/nullstreams.c **** */
  16:lib/chibios/os/hal/lib/streams/nullstreams.c **** 
  17:lib/chibios/os/hal/lib/streams/nullstreams.c **** /**
  18:lib/chibios/os/hal/lib/streams/nullstreams.c ****  * @file    nullstreams.c
  19:lib/chibios/os/hal/lib/streams/nullstreams.c ****  * @brief   Null streams code.
  20:lib/chibios/os/hal/lib/streams/nullstreams.c ****  *
  21:lib/chibios/os/hal/lib/streams/nullstreams.c ****  * @addtogroup null_streams
  22:lib/chibios/os/hal/lib/streams/nullstreams.c ****  * @{
  23:lib/chibios/os/hal/lib/streams/nullstreams.c ****  */
  24:lib/chibios/os/hal/lib/streams/nullstreams.c **** 
  25:lib/chibios/os/hal/lib/streams/nullstreams.c **** #include "hal.h"
  26:lib/chibios/os/hal/lib/streams/nullstreams.c **** #include "nullstreams.h"
  27:lib/chibios/os/hal/lib/streams/nullstreams.c **** 
  28:lib/chibios/os/hal/lib/streams/nullstreams.c **** /*===========================================================================*/
  29:lib/chibios/os/hal/lib/streams/nullstreams.c **** /* Driver local definitions.                                                 */
  30:lib/chibios/os/hal/lib/streams/nullstreams.c **** /*===========================================================================*/
  31:lib/chibios/os/hal/lib/streams/nullstreams.c **** 
  32:lib/chibios/os/hal/lib/streams/nullstreams.c **** /*===========================================================================*/
  33:lib/chibios/os/hal/lib/streams/nullstreams.c **** /* Driver exported variables.                                                */
  34:lib/chibios/os/hal/lib/streams/nullstreams.c **** /*===========================================================================*/
  35:lib/chibios/os/hal/lib/streams/nullstreams.c **** 
  36:lib/chibios/os/hal/lib/streams/nullstreams.c **** /*===========================================================================*/
  37:lib/chibios/os/hal/lib/streams/nullstreams.c **** /* Driver local variables.                                                   */
  38:lib/chibios/os/hal/lib/streams/nullstreams.c **** /*===========================================================================*/
  39:lib/chibios/os/hal/lib/streams/nullstreams.c **** 
  40:lib/chibios/os/hal/lib/streams/nullstreams.c **** /*===========================================================================*/
  41:lib/chibios/os/hal/lib/streams/nullstreams.c **** /* Driver local functions.                                                   */
  42:lib/chibios/os/hal/lib/streams/nullstreams.c **** /*===========================================================================*/
  43:lib/chibios/os/hal/lib/streams/nullstreams.c **** 
  44:lib/chibios/os/hal/lib/streams/nullstreams.c **** static size_t writes(void *ip, const uint8_t *bp, size_t n) {
  25              		.loc 1 44 0
  26              		.cfi_startproc
  27              		@ args = 0, pretend = 0, frame = 0
  28              		@ frame_needed = 0, uses_anonymous_args = 0
  29              		@ link register save eliminated.
  30              	.LVL0:
  45:lib/chibios/os/hal/lib/streams/nullstreams.c **** 
  46:lib/chibios/os/hal/lib/streams/nullstreams.c ****   (void)ip;
  47:lib/chibios/os/hal/lib/streams/nullstreams.c ****   (void)bp;
  48:lib/chibios/os/hal/lib/streams/nullstreams.c **** 
  49:lib/chibios/os/hal/lib/streams/nullstreams.c ****   return n;
  50:lib/chibios/os/hal/lib/streams/nullstreams.c **** }
  31              		.loc 1 50 0
  32 0000 1046     		mov	r0, r2
  33              	.LVL1:
  34 0002 7047     		bx	lr
  35              		.cfi_endproc
  36              	.LFE279:
  38              		.section	.text.reads,"ax",%progbits
  39              		.align	1
  40              		.syntax unified
  41              		.thumb
  42              		.thumb_func
  43              		.fpu softvfp
  45              	reads:
  46              	.LFB280:
  51:lib/chibios/os/hal/lib/streams/nullstreams.c **** 
  52:lib/chibios/os/hal/lib/streams/nullstreams.c **** static size_t reads(void *ip, uint8_t *bp, size_t n) {
  47              		.loc 1 52 0
  48              		.cfi_startproc
  49              		@ args = 0, pretend = 0, frame = 0
  50              		@ frame_needed = 0, uses_anonymous_args = 0
  51              		@ link register save eliminated.
  52              	.LVL2:
  53:lib/chibios/os/hal/lib/streams/nullstreams.c **** 
  54:lib/chibios/os/hal/lib/streams/nullstreams.c ****   (void)ip;
  55:lib/chibios/os/hal/lib/streams/nullstreams.c ****   (void)bp;
  56:lib/chibios/os/hal/lib/streams/nullstreams.c ****   (void)n;
  57:lib/chibios/os/hal/lib/streams/nullstreams.c **** 
  58:lib/chibios/os/hal/lib/streams/nullstreams.c ****   return 0;
  59:lib/chibios/os/hal/lib/streams/nullstreams.c **** }
  53              		.loc 1 59 0
  54 0000 0020     		movs	r0, #0
  55              	.LVL3:
  56 0002 7047     		bx	lr
  57              		.cfi_endproc
  58              	.LFE280:
  60              		.section	.text.put,"ax",%progbits
  61              		.align	1
  62              		.syntax unified
  63              		.thumb
  64              		.thumb_func
  65              		.fpu softvfp
  67              	put:
  68              	.LFB281:
  60:lib/chibios/os/hal/lib/streams/nullstreams.c **** 
  61:lib/chibios/os/hal/lib/streams/nullstreams.c **** static msg_t put(void *ip, uint8_t b) {
  69              		.loc 1 61 0
  70              		.cfi_startproc
  71              		@ args = 0, pretend = 0, frame = 0
  72              		@ frame_needed = 0, uses_anonymous_args = 0
  73              		@ link register save eliminated.
  74              	.LVL4:
  62:lib/chibios/os/hal/lib/streams/nullstreams.c **** 
  63:lib/chibios/os/hal/lib/streams/nullstreams.c ****   (void)ip;
  64:lib/chibios/os/hal/lib/streams/nullstreams.c ****   (void)b;
  65:lib/chibios/os/hal/lib/streams/nullstreams.c **** 
  66:lib/chibios/os/hal/lib/streams/nullstreams.c ****   return MSG_OK;
  67:lib/chibios/os/hal/lib/streams/nullstreams.c **** }
  75              		.loc 1 67 0
  76 0000 0020     		movs	r0, #0
  77              	.LVL5:
  78 0002 7047     		bx	lr
  79              		.cfi_endproc
  80              	.LFE281:
  82              		.section	.text.get,"ax",%progbits
  83              		.align	1
  84              		.syntax unified
  85              		.thumb
  86              		.thumb_func
  87              		.fpu softvfp
  89              	get:
  90              	.LFB282:
  68:lib/chibios/os/hal/lib/streams/nullstreams.c **** 
  69:lib/chibios/os/hal/lib/streams/nullstreams.c **** static msg_t get(void *ip) {
  91              		.loc 1 69 0
  92              		.cfi_startproc
  93              		@ args = 0, pretend = 0, frame = 0
  94              		@ frame_needed = 0, uses_anonymous_args = 0
  95              		@ link register save eliminated.
  96              	.LVL6:
  70:lib/chibios/os/hal/lib/streams/nullstreams.c **** 
  71:lib/chibios/os/hal/lib/streams/nullstreams.c ****   (void)ip;
  72:lib/chibios/os/hal/lib/streams/nullstreams.c **** 
  73:lib/chibios/os/hal/lib/streams/nullstreams.c ****   return 4;
  74:lib/chibios/os/hal/lib/streams/nullstreams.c **** }
  97              		.loc 1 74 0
  98 0000 0420     		movs	r0, #4
  99              	.LVL7:
 100 0002 7047     		bx	lr
 101              		.cfi_endproc
 102              	.LFE282:
 104              		.section	.text.nullObjectInit,"ax",%progbits
 105              		.align	1
 106              		.global	nullObjectInit
 107              		.syntax unified
 108              		.thumb
 109              		.thumb_func
 110              		.fpu softvfp
 112              	nullObjectInit:
 113              	.LFB283:
  75:lib/chibios/os/hal/lib/streams/nullstreams.c **** 
  76:lib/chibios/os/hal/lib/streams/nullstreams.c **** static const struct NullStreamVMT vmt = {writes, reads, put, get};
  77:lib/chibios/os/hal/lib/streams/nullstreams.c **** 
  78:lib/chibios/os/hal/lib/streams/nullstreams.c **** /*===========================================================================*/
  79:lib/chibios/os/hal/lib/streams/nullstreams.c **** /* Driver exported functions.                                                */
  80:lib/chibios/os/hal/lib/streams/nullstreams.c **** /*===========================================================================*/
  81:lib/chibios/os/hal/lib/streams/nullstreams.c **** 
  82:lib/chibios/os/hal/lib/streams/nullstreams.c **** /**
  83:lib/chibios/os/hal/lib/streams/nullstreams.c ****  * @brief   Null stream object initialization.
  84:lib/chibios/os/hal/lib/streams/nullstreams.c ****  *
  85:lib/chibios/os/hal/lib/streams/nullstreams.c ****  * @param[out] nsp      pointer to the @p NullStream object to be initialized
  86:lib/chibios/os/hal/lib/streams/nullstreams.c ****  */
  87:lib/chibios/os/hal/lib/streams/nullstreams.c **** void nullObjectInit(NullStream *nsp) {
 114              		.loc 1 87 0
 115              		.cfi_startproc
 116              		@ args = 0, pretend = 0, frame = 0
 117              		@ frame_needed = 0, uses_anonymous_args = 0
 118              		@ link register save eliminated.
 119              	.LVL8:
  88:lib/chibios/os/hal/lib/streams/nullstreams.c **** 
  89:lib/chibios/os/hal/lib/streams/nullstreams.c ****   nsp->vmt = &vmt;
 120              		.loc 1 89 0
 121 0000 014B     		ldr	r3, .L6
 122 0002 0360     		str	r3, [r0]
  90:lib/chibios/os/hal/lib/streams/nullstreams.c **** }
 123              		.loc 1 90 0
 124 0004 7047     		bx	lr
 125              	.L7:
 126 0006 00BF     		.align	2
 127              	.L6:
 128 0008 00000000 		.word	.LANCHOR0
 129              		.cfi_endproc
 130              	.LFE283:
 132              		.section	.rodata.vmt,"a",%progbits
 133              		.align	2
 134              		.set	.LANCHOR0,. + 0
 137              	vmt:
 138 0000 00000000 		.word	writes
 139 0004 00000000 		.word	reads
 140 0008 00000000 		.word	put
 141 000c 00000000 		.word	get
 142              		.text
 143              	.Letext0:
 144              		.file 2 "/usr/local/Cellar/gcc-arm-none-eabi/20180627/lib/gcc/arm-none-eabi/7.3.1/include/stddef.h
 145              		.file 3 "/usr/local/Cellar/gcc-arm-none-eabi/20180627/arm-none-eabi/include/machine/_default_types
 146              		.file 4 "/usr/local/Cellar/gcc-arm-none-eabi/20180627/arm-none-eabi/include/sys/_stdint.h"
 147              		.file 5 "./lib/chibios/os/common/ports/ARMCMx/compilers/GCC/chtypes.h"
 148              		.file 6 "./lib/chibios/os/rt/include/chsystypes.h"
 149              		.file 7 "./lib/chibios/os/rt/include/chschd.h"
 150              		.file 8 "./lib/chibios/os/common/ext/CMSIS/include/core_cm4.h"
 151              		.file 9 "./lib/chibios/os/common/ext/CMSIS/ST/STM32F3xx/system_stm32f3xx.h"
 152              		.file 10 "./lib/chibios/os/common/ext/CMSIS/ST/STM32F3xx/stm32f303xc.h"
 153              		.file 11 "./lib/chibios/os/common/ports/ARMCMx/chcore.h"
 154              		.file 12 "./lib/chibios/os/common/ports/ARMCMx/chcore_v7m.h"
 155              		.file 13 "./lib/chibios/os/hal/ports/STM32/LLD/TIMv1/stm32_tim.h"
 156              		.file 14 "./lib/chibios/os/rt/include/chtm.h"
 157              		.file 15 "./lib/chibios/os/rt/include/chsem.h"
 158              		.file 16 "./lib/chibios/os/rt/include/chmtx.h"
 159              		.file 17 "./lib/chibios/os/rt/include/chsys.h"
 160              		.file 18 "./lib/chibios/os/rt/include/chregistry.h"
 161              		.file 19 "./lib/chibios/os/common/oslib/include/chmemcore.h"
 162              		.file 20 "./lib/chibios/os/hal/ports/STM32/LLD/DMAv1/stm32_dma.h"
 163              		.file 21 "./lib/chibios/os/hal/ports/STM32/LLD/GPIOv2/hal_pal_lld.h"
 164              		.file 22 "./lib/chibios/os/hal/include/hal_dac.h"
 165              		.file 23 "./lib/chibios/os/hal/ports/STM32/LLD/DACv1/hal_dac_lld.h"
 166              		.file 24 "./lib/chibios/os/hal/include/hal_gpt.h"
 167              		.file 25 "./lib/chibios/os/hal/ports/STM32/LLD/TIMv1/hal_gpt_lld.h"
 168              		.file 26 "./lib/chibios/os/hal/include/hal_i2c.h"
 169              		.file 27 "./lib/chibios/os/hal/ports/STM32/LLD/I2Cv2/hal_i2c_lld.h"
 170              		.file 28 "./lib/chibios/os/hal/include/hal_pwm.h"
 171              		.file 29 "./lib/chibios/os/hal/ports/STM32/LLD/TIMv1/hal_pwm_lld.h"
 172              		.file 30 "./lib/chibios/os/hal/include/hal_usb.h"
 173              		.file 31 "./lib/chibios/os/hal/ports/STM32/LLD/USBv1/hal_usb_lld.h"
 174              		.file 32 "lib/chibios/os/hal/lib/streams/nullstreams.h"