   1               		.file	"process_auto_shift.c"
   2               	__SP_H__ = 0x3e
   3               	__SP_L__ = 0x3d
   4               	__SREG__ = 0x3f
   5               	__tmp_reg__ = 0
   6               	__zero_reg__ = 1
   7               		.text
   8               	.Ltext0:
   9               		.cfi_sections	.debug_frame
  10               		.section	.rodata.autoshift_timer_report.str1.1,"aMS",@progbits,1
  11               	.LC0:
  12 0000 0A25 640A 		.string	"\n%d\n"
  12      00
  13               		.section	.text.autoshift_timer_report,"ax",@progbits
  14               	.global	autoshift_timer_report
  16               	autoshift_timer_report:
  17               	.LFB112:
  18               		.file 1 "quantum/process_keycode/process_auto_shift.c"
   1:quantum/process_keycode/process_auto_shift.c **** /* Copyright 2017 Jeremy Cowgar
   2:quantum/process_keycode/process_auto_shift.c ****  *
   3:quantum/process_keycode/process_auto_shift.c ****  * This program is free software: you can redistribute it and/or modify
   4:quantum/process_keycode/process_auto_shift.c ****  * it under the terms of the GNU General Public License as published by
   5:quantum/process_keycode/process_auto_shift.c ****  * the Free Software Foundation, either version 2 of the License, or
   6:quantum/process_keycode/process_auto_shift.c ****  * (at your option) any later version.
   7:quantum/process_keycode/process_auto_shift.c ****  *
   8:quantum/process_keycode/process_auto_shift.c ****  * This program is distributed in the hope that it will be useful,
   9:quantum/process_keycode/process_auto_shift.c ****  * but WITHOUT ANY WARRANTY; without even the implied warranty of
  10:quantum/process_keycode/process_auto_shift.c ****  * MERCHANTABILITY or FITNESS FOR A PARTICULAR PURPOSE.  See the
  11:quantum/process_keycode/process_auto_shift.c ****  * GNU General Public License for more details.
  12:quantum/process_keycode/process_auto_shift.c ****  *
  13:quantum/process_keycode/process_auto_shift.c ****  * You should have received a copy of the GNU General Public License
  14:quantum/process_keycode/process_auto_shift.c ****  * along with this program.  If not, see <http://www.gnu.org/licenses/>.
  15:quantum/process_keycode/process_auto_shift.c ****  */
  16:quantum/process_keycode/process_auto_shift.c **** 
  17:quantum/process_keycode/process_auto_shift.c **** #ifdef AUTO_SHIFT_ENABLE
  18:quantum/process_keycode/process_auto_shift.c **** 
  19:quantum/process_keycode/process_auto_shift.c **** #    include <stdio.h>
  20:quantum/process_keycode/process_auto_shift.c **** 
  21:quantum/process_keycode/process_auto_shift.c **** #    include "process_auto_shift.h"
  22:quantum/process_keycode/process_auto_shift.c **** 
  23:quantum/process_keycode/process_auto_shift.c **** #    define TAP(key)        \
  24:quantum/process_keycode/process_auto_shift.c ****         register_code(key); \
  25:quantum/process_keycode/process_auto_shift.c ****         unregister_code(key)
  26:quantum/process_keycode/process_auto_shift.c **** 
  27:quantum/process_keycode/process_auto_shift.c **** #    define TAP_WITH_MOD(mod, key) \
  28:quantum/process_keycode/process_auto_shift.c ****         register_code(mod);        \
  29:quantum/process_keycode/process_auto_shift.c ****         register_code(key);        \
  30:quantum/process_keycode/process_auto_shift.c ****         unregister_code(key);      \
  31:quantum/process_keycode/process_auto_shift.c ****         unregister_code(mod)
  32:quantum/process_keycode/process_auto_shift.c **** 
  33:quantum/process_keycode/process_auto_shift.c **** uint16_t autoshift_time    = 0;
  34:quantum/process_keycode/process_auto_shift.c **** uint16_t autoshift_timeout = AUTO_SHIFT_TIMEOUT;
  35:quantum/process_keycode/process_auto_shift.c **** uint16_t autoshift_lastkey = KC_NO;
  36:quantum/process_keycode/process_auto_shift.c **** 
  37:quantum/process_keycode/process_auto_shift.c **** void autoshift_timer_report(void) {
  19               		.loc 1 37 0
  20               		.cfi_startproc
  21 0000 0F93      		push r16
  22               	.LCFI0:
  23               		.cfi_def_cfa_offset 3
  24               		.cfi_offset 16, -2
  25 0002 1F93      		push r17
  26               	.LCFI1:
  27               		.cfi_def_cfa_offset 4
  28               		.cfi_offset 17, -3
  29 0004 CF93      		push r28
  30               	.LCFI2:
  31               		.cfi_def_cfa_offset 5
  32               		.cfi_offset 28, -4
  33 0006 DF93      		push r29
  34               	.LCFI3:
  35               		.cfi_def_cfa_offset 6
  36               		.cfi_offset 29, -5
  37 0008 CDB7      		in r28,__SP_L__
  38 000a DEB7      		in r29,__SP_H__
  39               	.LCFI4:
  40               		.cfi_def_cfa_register 28
  41 000c 2897      		sbiw r28,8
  42               	.LCFI5:
  43               		.cfi_def_cfa_offset 14
  44 000e 0FB6      		in __tmp_reg__,__SREG__
  45 0010 F894      		cli
  46 0012 DEBF      		out __SP_H__,r29
  47 0014 0FBE      		out __SREG__,__tmp_reg__
  48 0016 CDBF      		out __SP_L__,r28
  49               	/* prologue: function */
  50               	/* frame size = 8 */
  51               	/* stack size = 12 */
  52               	.L__stack_usage = 12
  38:quantum/process_keycode/process_auto_shift.c ****     char display[8];
  39:quantum/process_keycode/process_auto_shift.c **** 
  40:quantum/process_keycode/process_auto_shift.c ****     snprintf(display, 8, "\n%d\n", autoshift_timeout);
  53               		.loc 1 40 0
  54 0018 8091 0000 		lds r24,autoshift_timeout+1
  55 001c 8F93      		push r24
  56 001e 8091 0000 		lds r24,autoshift_timeout
  57 0022 8F93      		push r24
  58 0024 80E0      		ldi r24,lo8(.LC0)
  59 0026 90E0      		ldi r25,hi8(.LC0)
  60 0028 9F93      		push r25
  61 002a 8F93      		push r24
  62 002c 1F92      		push __zero_reg__
  63 002e 88E0      		ldi r24,lo8(8)
  64 0030 8F93      		push r24
  65 0032 8E01      		movw r16,r28
  66 0034 0F5F      		subi r16,-1
  67 0036 1F4F      		sbci r17,-1
  68 0038 1F93      		push r17
  69 003a 0F93      		push r16
  70 003c 0E94 0000 		call snprintf
  71               	.LVL0:
  41:quantum/process_keycode/process_auto_shift.c **** 
  42:quantum/process_keycode/process_auto_shift.c ****     send_string((const char *)display);
  72               		.loc 1 42 0
  73 0040 C801      		movw r24,r16
  74 0042 0E94 0000 		call send_string
  75               	.LVL1:
  43:quantum/process_keycode/process_auto_shift.c **** }
  76               		.loc 1 43 0
  77 0046 0FB6      		in __tmp_reg__,__SREG__
  78 0048 F894      		cli
  79 004a DEBF      		out __SP_H__,r29
  80 004c 0FBE      		out __SREG__,__tmp_reg__
  81 004e CDBF      		out __SP_L__,r28
  82               	/* epilogue start */
  83 0050 2896      		adiw r28,8
  84 0052 0FB6      		in __tmp_reg__,__SREG__
  85 0054 F894      		cli
  86 0056 DEBF      		out __SP_H__,r29
  87 0058 0FBE      		out __SREG__,__tmp_reg__
  88 005a CDBF      		out __SP_L__,r28
  89 005c DF91      		pop r29
  90 005e CF91      		pop r28
  91 0060 1F91      		pop r17
  92 0062 0F91      		pop r16
  93 0064 0895      		ret
  94               		.cfi_endproc
  95               	.LFE112:
  97               		.section	.text.autoshift_on,"ax",@progbits
  98               	.global	autoshift_on
 100               	autoshift_on:
 101               	.LFB113:
  44:quantum/process_keycode/process_auto_shift.c **** 
  45:quantum/process_keycode/process_auto_shift.c **** void autoshift_on(uint16_t keycode) {
 102               		.loc 1 45 0
 103               		.cfi_startproc
 104               	.LVL2:
 105 0000 CF93      		push r28
 106               	.LCFI6:
 107               		.cfi_def_cfa_offset 3
 108               		.cfi_offset 28, -2
 109 0002 DF93      		push r29
 110               	.LCFI7:
 111               		.cfi_def_cfa_offset 4
 112               		.cfi_offset 29, -3
 113               	/* prologue: function */
 114               	/* frame size = 0 */
 115               	/* stack size = 2 */
 116               	.L__stack_usage = 2
 117 0004 EC01      		movw r28,r24
  46:quantum/process_keycode/process_auto_shift.c ****     autoshift_time    = timer_read();
 118               		.loc 1 46 0
 119 0006 0E94 0000 		call timer_read
 120               	.LVL3:
 121 000a 9093 0000 		sts autoshift_time+1,r25
 122 000e 8093 0000 		sts autoshift_time,r24
  47:quantum/process_keycode/process_auto_shift.c ****     autoshift_lastkey = keycode;
 123               		.loc 1 47 0
 124 0012 D093 0000 		sts autoshift_lastkey+1,r29
 125 0016 C093 0000 		sts autoshift_lastkey,r28
 126               	/* epilogue start */
  48:quantum/process_keycode/process_auto_shift.c **** }
 127               		.loc 1 48 0
 128 001a DF91      		pop r29
 129 001c CF91      		pop r28
 130               	.LVL4:
 131 001e 0895      		ret
 132               		.cfi_endproc
 133               	.LFE113:
 135               		.section	.text.autoshift_flush,"ax",@progbits
 136               	.global	autoshift_flush
 138               	autoshift_flush:
 139               	.LFB114:
  49:quantum/process_keycode/process_auto_shift.c **** 
  50:quantum/process_keycode/process_auto_shift.c **** void autoshift_flush(void) {
 140               		.loc 1 50 0
 141               		.cfi_startproc
 142 0000 CF93      		push r28
 143               	.LCFI8:
 144               		.cfi_def_cfa_offset 3
 145               		.cfi_offset 28, -2
 146 0002 DF93      		push r29
 147               	.LCFI9:
 148               		.cfi_def_cfa_offset 4
 149               		.cfi_offset 29, -3
 150               	/* prologue: function */
 151               	/* frame size = 0 */
 152               	/* stack size = 2 */
 153               	.L__stack_usage = 2
  51:quantum/process_keycode/process_auto_shift.c ****     if (autoshift_lastkey != KC_NO) {
 154               		.loc 1 51 0
 155 0004 8091 0000 		lds r24,autoshift_lastkey
 156 0008 9091 0000 		lds r25,autoshift_lastkey+1
 157 000c 892B      		or r24,r25
 158 000e 01F0      		breq .L3
 159               	.LBB2:
  52:quantum/process_keycode/process_auto_shift.c ****         uint16_t elapsed = timer_elapsed(autoshift_time);
 160               		.loc 1 52 0
 161 0010 8091 0000 		lds r24,autoshift_time
 162 0014 9091 0000 		lds r25,autoshift_time+1
 163 0018 0E94 0000 		call timer_elapsed
 164               	.LVL5:
 165 001c EC01      		movw r28,r24
 166               	.LVL6:
  53:quantum/process_keycode/process_auto_shift.c **** 
  54:quantum/process_keycode/process_auto_shift.c ****         if (elapsed > autoshift_timeout) {
 167               		.loc 1 54 0
 168 001e 8091 0000 		lds r24,autoshift_timeout
 169 0022 9091 0000 		lds r25,autoshift_timeout+1
 170               	.LVL7:
 171 0026 8C17      		cp r24,r28
 172 0028 9D07      		cpc r25,r29
 173 002a 00F4      		brsh .L5
  55:quantum/process_keycode/process_auto_shift.c ****             register_code(KC_LSFT);
 174               		.loc 1 55 0
 175 002c 81EE      		ldi r24,lo8(-31)
 176 002e 0E94 0000 		call register_code
 177               	.LVL8:
 178               	.L5:
  56:quantum/process_keycode/process_auto_shift.c ****         }
  57:quantum/process_keycode/process_auto_shift.c **** 
  58:quantum/process_keycode/process_auto_shift.c ****         register_code(autoshift_lastkey);
 179               		.loc 1 58 0
 180 0032 8091 0000 		lds r24,autoshift_lastkey
 181 0036 0E94 0000 		call register_code
 182               	.LVL9:
  59:quantum/process_keycode/process_auto_shift.c ****         unregister_code(autoshift_lastkey);
 183               		.loc 1 59 0
 184 003a 8091 0000 		lds r24,autoshift_lastkey
 185 003e 0E94 0000 		call unregister_code
 186               	.LVL10:
  60:quantum/process_keycode/process_auto_shift.c **** 
  61:quantum/process_keycode/process_auto_shift.c ****         if (elapsed > autoshift_timeout) {
 187               		.loc 1 61 0
 188 0042 8091 0000 		lds r24,autoshift_timeout
 189 0046 9091 0000 		lds r25,autoshift_timeout+1
 190 004a 8C17      		cp r24,r28
 191 004c 9D07      		cpc r25,r29
 192 004e 00F4      		brsh .L6
  62:quantum/process_keycode/process_auto_shift.c ****             unregister_code(KC_LSFT);
 193               		.loc 1 62 0
 194 0050 81EE      		ldi r24,lo8(-31)
 195 0052 0E94 0000 		call unregister_code
 196               	.LVL11:
 197               	.L6:
  63:quantum/process_keycode/process_auto_shift.c ****         }
  64:quantum/process_keycode/process_auto_shift.c **** 
  65:quantum/process_keycode/process_auto_shift.c ****         autoshift_time    = 0;
 198               		.loc 1 65 0
 199 0056 1092 0000 		sts autoshift_time+1,__zero_reg__
 200 005a 1092 0000 		sts autoshift_time,__zero_reg__
  66:quantum/process_keycode/process_auto_shift.c ****         autoshift_lastkey = KC_NO;
 201               		.loc 1 66 0
 202 005e 1092 0000 		sts autoshift_lastkey+1,__zero_reg__
 203 0062 1092 0000 		sts autoshift_lastkey,__zero_reg__
 204               	.LVL12:
 205               	.L3:
 206               	/* epilogue start */
 207               	.LBE2:
  67:quantum/process_keycode/process_auto_shift.c ****     }
  68:quantum/process_keycode/process_auto_shift.c **** }
 208               		.loc 1 68 0
 209 0066 DF91      		pop r29
 210 0068 CF91      		pop r28
 211 006a 0895      		ret
 212               		.cfi_endproc
 213               	.LFE114:
 215               		.section	.text.autoshift_enable,"ax",@progbits
 216               	.global	autoshift_enable
 218               	autoshift_enable:
 219               	.LFB115:
  69:quantum/process_keycode/process_auto_shift.c **** 
  70:quantum/process_keycode/process_auto_shift.c **** bool autoshift_enabled = true;
  71:quantum/process_keycode/process_auto_shift.c **** 
  72:quantum/process_keycode/process_auto_shift.c **** void autoshift_enable(void) { autoshift_enabled = true; }
 220               		.loc 1 72 0
 221               		.cfi_startproc
 222               	/* prologue: function */
 223               	/* frame size = 0 */
 224               	/* stack size = 0 */
 225               	.L__stack_usage = 0
 226               		.loc 1 72 0
 227 0000 81E0      		ldi r24,lo8(1)
 228 0002 8093 0000 		sts autoshift_enabled,r24
 229               	/* epilogue start */
 230 0006 0895      		ret
 231               		.cfi_endproc
 232               	.LFE115:
 234               		.section	.text.autoshift_disable,"ax",@progbits
 235               	.global	autoshift_disable
 237               	autoshift_disable:
 238               	.LFB116:
  73:quantum/process_keycode/process_auto_shift.c **** void autoshift_disable(void) {
 239               		.loc 1 73 0
 240               		.cfi_startproc
 241               	/* prologue: function */
 242               	/* frame size = 0 */
 243               	/* stack size = 0 */
 244               	.L__stack_usage = 0
  74:quantum/process_keycode/process_auto_shift.c ****     autoshift_enabled = false;
 245               		.loc 1 74 0
 246 0000 1092 0000 		sts autoshift_enabled,__zero_reg__
  75:quantum/process_keycode/process_auto_shift.c ****     autoshift_flush();
 247               		.loc 1 75 0
 248 0004 0C94 0000 		jmp autoshift_flush
 249               	.LVL13:
 250               		.cfi_endproc
 251               	.LFE116:
 253               		.section	.text.autoshift_toggle,"ax",@progbits
 254               	.global	autoshift_toggle
 256               	autoshift_toggle:
 257               	.LFB117:
  76:quantum/process_keycode/process_auto_shift.c **** }
  77:quantum/process_keycode/process_auto_shift.c **** 
  78:quantum/process_keycode/process_auto_shift.c **** void autoshift_toggle(void) {
 258               		.loc 1 78 0
 259               		.cfi_startproc
 260               	/* prologue: function */
 261               	/* frame size = 0 */
 262               	/* stack size = 0 */
 263               	.L__stack_usage = 0
  79:quantum/process_keycode/process_auto_shift.c ****     if (autoshift_enabled) {
 264               		.loc 1 79 0
 265 0000 8091 0000 		lds r24,autoshift_enabled
 266 0004 8823      		tst r24
 267 0006 01F0      		breq .L13
  80:quantum/process_keycode/process_auto_shift.c ****         autoshift_enabled = false;
 268               		.loc 1 80 0
 269 0008 1092 0000 		sts autoshift_enabled,__zero_reg__
  81:quantum/process_keycode/process_auto_shift.c ****         autoshift_flush();
 270               		.loc 1 81 0
 271 000c 0C94 0000 		jmp autoshift_flush
 272               	.LVL14:
 273               	.L13:
  82:quantum/process_keycode/process_auto_shift.c ****     } else {
  83:quantum/process_keycode/process_auto_shift.c ****         autoshift_enabled = true;
 274               		.loc 1 83 0
 275 0010 81E0      		ldi r24,lo8(1)
 276 0012 8093 0000 		sts autoshift_enabled,r24
 277               	/* epilogue start */
  84:quantum/process_keycode/process_auto_shift.c ****     }
  85:quantum/process_keycode/process_auto_shift.c **** }
 278               		.loc 1 85 0
 279 0016 0895      		ret
 280               		.cfi_endproc
 281               	.LFE117:
 283               		.section	.text.autoshift_state,"ax",@progbits
 284               	.global	autoshift_state
 286               	autoshift_state:
 287               	.LFB118:
  86:quantum/process_keycode/process_auto_shift.c **** 
  87:quantum/process_keycode/process_auto_shift.c **** bool autoshift_state(void) { return autoshift_enabled; }
 288               		.loc 1 87 0
 289               		.cfi_startproc
 290               	/* prologue: function */
 291               	/* frame size = 0 */
 292               	/* stack size = 0 */
 293               	.L__stack_usage = 0
 294               		.loc 1 87 0
 295 0000 8091 0000 		lds r24,autoshift_enabled
 296               	/* epilogue start */
 297 0004 0895      		ret
 298               		.cfi_endproc
 299               	.LFE118:
 301               		.section	.text.process_auto_shift,"ax",@progbits
 302               	.global	process_auto_shift
 304               	process_auto_shift:
 305               	.LFB119:
  88:quantum/process_keycode/process_auto_shift.c **** 
  89:quantum/process_keycode/process_auto_shift.c **** bool process_auto_shift(uint16_t keycode, keyrecord_t *record) {
 306               		.loc 1 89 0
 307               		.cfi_startproc
 308               	.LVL15:
 309 0000 1F93      		push r17
 310               	.LCFI10:
 311               		.cfi_def_cfa_offset 3
 312               		.cfi_offset 17, -2
 313 0002 CF93      		push r28
 314               	.LCFI11:
 315               		.cfi_def_cfa_offset 4
 316               		.cfi_offset 28, -3
 317 0004 DF93      		push r29
 318               	.LCFI12:
 319               		.cfi_def_cfa_offset 5
 320               		.cfi_offset 29, -4
 321               	/* prologue: function */
 322               	/* frame size = 0 */
 323               	/* stack size = 3 */
 324               	.L__stack_usage = 3
 325 0006 EC01      		movw r28,r24
  90:quantum/process_keycode/process_auto_shift.c **** #    ifndef AUTO_SHIFT_MODIFIERS
  91:quantum/process_keycode/process_auto_shift.c ****     static uint8_t any_mod_pressed;
  92:quantum/process_keycode/process_auto_shift.c **** #    endif
  93:quantum/process_keycode/process_auto_shift.c **** 
  94:quantum/process_keycode/process_auto_shift.c ****     if (record->event.pressed) {
 326               		.loc 1 94 0
 327 0008 FB01      		movw r30,r22
 328 000a 1281      		ldd r17,Z+2
 329 000c 1123      		tst r17
 330 000e 01F4      		brne .+2
 331 0010 00C0      		rjmp .L16
  95:quantum/process_keycode/process_auto_shift.c ****         switch (keycode) {
 332               		.loc 1 95 0
 333 0012 8436      		cpi r24,100
 334 0014 9105      		cpc r25,__zero_reg__
 335 0016 01F0      		breq .L18
 336 0018 00F4      		brsh .L19
 337 001a 8B32      		cpi r24,43
 338 001c 9105      		cpc r25,__zero_reg__
 339 001e 01F0      		breq .L18
 340 0020 00F4      		brsh .L20
 341 0022 0497      		sbiw r24,4
 342               	.LVL16:
 343 0024 8497      		sbiw r24,36
 344 0026 00F4      		brsh .L17
 345               	.L18:
  96:quantum/process_keycode/process_auto_shift.c ****             case KC_ASUP:
  97:quantum/process_keycode/process_auto_shift.c ****                 autoshift_timeout += 5;
  98:quantum/process_keycode/process_auto_shift.c ****                 return false;
  99:quantum/process_keycode/process_auto_shift.c **** 
 100:quantum/process_keycode/process_auto_shift.c ****             case KC_ASDN:
 101:quantum/process_keycode/process_auto_shift.c ****                 autoshift_timeout -= 5;
 102:quantum/process_keycode/process_auto_shift.c ****                 return false;
 103:quantum/process_keycode/process_auto_shift.c **** 
 104:quantum/process_keycode/process_auto_shift.c ****             case KC_ASRP:
 105:quantum/process_keycode/process_auto_shift.c ****                 autoshift_timer_report();
 106:quantum/process_keycode/process_auto_shift.c ****                 return false;
 107:quantum/process_keycode/process_auto_shift.c **** 
 108:quantum/process_keycode/process_auto_shift.c ****             case KC_ASTG:
 109:quantum/process_keycode/process_auto_shift.c ****                 autoshift_toggle();
 110:quantum/process_keycode/process_auto_shift.c ****                 return false;
 111:quantum/process_keycode/process_auto_shift.c ****             case KC_ASON:
 112:quantum/process_keycode/process_auto_shift.c ****                 autoshift_enable();
 113:quantum/process_keycode/process_auto_shift.c ****                 return false;
 114:quantum/process_keycode/process_auto_shift.c ****             case KC_ASOFF:
 115:quantum/process_keycode/process_auto_shift.c ****                 autoshift_disable();
 116:quantum/process_keycode/process_auto_shift.c ****                 return false;
 117:quantum/process_keycode/process_auto_shift.c **** 
 118:quantum/process_keycode/process_auto_shift.c **** #    ifndef NO_AUTO_SHIFT_ALPHA
 119:quantum/process_keycode/process_auto_shift.c ****             case KC_A:
 120:quantum/process_keycode/process_auto_shift.c ****             case KC_B:
 121:quantum/process_keycode/process_auto_shift.c ****             case KC_C:
 122:quantum/process_keycode/process_auto_shift.c ****             case KC_D:
 123:quantum/process_keycode/process_auto_shift.c ****             case KC_E:
 124:quantum/process_keycode/process_auto_shift.c ****             case KC_F:
 125:quantum/process_keycode/process_auto_shift.c ****             case KC_G:
 126:quantum/process_keycode/process_auto_shift.c ****             case KC_H:
 127:quantum/process_keycode/process_auto_shift.c ****             case KC_I:
 128:quantum/process_keycode/process_auto_shift.c ****             case KC_J:
 129:quantum/process_keycode/process_auto_shift.c ****             case KC_K:
 130:quantum/process_keycode/process_auto_shift.c ****             case KC_L:
 131:quantum/process_keycode/process_auto_shift.c ****             case KC_M:
 132:quantum/process_keycode/process_auto_shift.c ****             case KC_N:
 133:quantum/process_keycode/process_auto_shift.c ****             case KC_O:
 134:quantum/process_keycode/process_auto_shift.c ****             case KC_P:
 135:quantum/process_keycode/process_auto_shift.c ****             case KC_Q:
 136:quantum/process_keycode/process_auto_shift.c ****             case KC_R:
 137:quantum/process_keycode/process_auto_shift.c ****             case KC_S:
 138:quantum/process_keycode/process_auto_shift.c ****             case KC_T:
 139:quantum/process_keycode/process_auto_shift.c ****             case KC_U:
 140:quantum/process_keycode/process_auto_shift.c ****             case KC_V:
 141:quantum/process_keycode/process_auto_shift.c ****             case KC_W:
 142:quantum/process_keycode/process_auto_shift.c ****             case KC_X:
 143:quantum/process_keycode/process_auto_shift.c ****             case KC_Y:
 144:quantum/process_keycode/process_auto_shift.c ****             case KC_Z:
 145:quantum/process_keycode/process_auto_shift.c **** #    endif
 146:quantum/process_keycode/process_auto_shift.c **** #    ifndef NO_AUTO_SHIFT_NUMERIC
 147:quantum/process_keycode/process_auto_shift.c ****             case KC_1:
 148:quantum/process_keycode/process_auto_shift.c ****             case KC_2:
 149:quantum/process_keycode/process_auto_shift.c ****             case KC_3:
 150:quantum/process_keycode/process_auto_shift.c ****             case KC_4:
 151:quantum/process_keycode/process_auto_shift.c ****             case KC_5:
 152:quantum/process_keycode/process_auto_shift.c ****             case KC_6:
 153:quantum/process_keycode/process_auto_shift.c ****             case KC_7:
 154:quantum/process_keycode/process_auto_shift.c ****             case KC_8:
 155:quantum/process_keycode/process_auto_shift.c ****             case KC_9:
 156:quantum/process_keycode/process_auto_shift.c ****             case KC_0:
 157:quantum/process_keycode/process_auto_shift.c **** #    endif
 158:quantum/process_keycode/process_auto_shift.c **** #    ifndef NO_AUTO_SHIFT_SPECIAL
 159:quantum/process_keycode/process_auto_shift.c ****             case KC_MINUS:
 160:quantum/process_keycode/process_auto_shift.c ****             case KC_EQL:
 161:quantum/process_keycode/process_auto_shift.c ****             case KC_TAB:
 162:quantum/process_keycode/process_auto_shift.c ****             case KC_LBRC:
 163:quantum/process_keycode/process_auto_shift.c ****             case KC_RBRC:
 164:quantum/process_keycode/process_auto_shift.c ****             case KC_BSLS:
 165:quantum/process_keycode/process_auto_shift.c ****             case KC_SCLN:
 166:quantum/process_keycode/process_auto_shift.c ****             case KC_QUOT:
 167:quantum/process_keycode/process_auto_shift.c ****             case KC_COMM:
 168:quantum/process_keycode/process_auto_shift.c ****             case KC_DOT:
 169:quantum/process_keycode/process_auto_shift.c ****             case KC_SLSH:
 170:quantum/process_keycode/process_auto_shift.c ****             case KC_GRAVE:
 171:quantum/process_keycode/process_auto_shift.c ****             case KC_NONUS_BSLASH:
 172:quantum/process_keycode/process_auto_shift.c ****             case KC_NONUS_HASH:
 173:quantum/process_keycode/process_auto_shift.c **** #    endif
 174:quantum/process_keycode/process_auto_shift.c **** 
 175:quantum/process_keycode/process_auto_shift.c ****                 autoshift_flush();
 346               		.loc 1 175 0
 347 0028 0E94 0000 		call autoshift_flush
 348               	.LVL17:
 176:quantum/process_keycode/process_auto_shift.c ****                 if (!autoshift_enabled) return true;
 349               		.loc 1 176 0
 350 002c 8091 0000 		lds r24,autoshift_enabled
 351 0030 8823      		tst r24
 352 0032 01F0      		breq .L15
 177:quantum/process_keycode/process_auto_shift.c **** 
 178:quantum/process_keycode/process_auto_shift.c **** #    ifndef AUTO_SHIFT_MODIFIERS
 179:quantum/process_keycode/process_auto_shift.c ****                 any_mod_pressed = get_mods() & (MOD_BIT(KC_LGUI) | MOD_BIT(KC_RGUI) | MOD_BIT(KC_LA
 353               		.loc 1 179 0
 354 0034 0E94 0000 		call get_mods
 355               	.LVL18:
 180:quantum/process_keycode/process_auto_shift.c **** 
 181:quantum/process_keycode/process_auto_shift.c ****                 if (any_mod_pressed) {
 356               		.loc 1 181 0
 357 0038 8111      		cpse r24,__zero_reg__
 358 003a 00C0      		rjmp .L15
 182:quantum/process_keycode/process_auto_shift.c ****                     return true;
 183:quantum/process_keycode/process_auto_shift.c ****                 }
 184:quantum/process_keycode/process_auto_shift.c **** #    endif
 185:quantum/process_keycode/process_auto_shift.c **** 
 186:quantum/process_keycode/process_auto_shift.c ****                 autoshift_on(keycode);
 359               		.loc 1 186 0
 360 003c CE01      		movw r24,r28
 361 003e 0E94 0000 		call autoshift_on
 362               	.LVL19:
 363 0042 00C0      		rjmp .L37
 364               	.LVL20:
 365               	.L20:
  95:quantum/process_keycode/process_auto_shift.c ****             case KC_ASUP:
 366               		.loc 1 95 0
 367 0044 8D97      		sbiw r24,45
 368               	.LVL21:
 369 0046 0C97      		sbiw r24,12
 370 0048 00F0      		brlo .L18
 371               	.L17:
 187:quantum/process_keycode/process_auto_shift.c ****                 return false;
 188:quantum/process_keycode/process_auto_shift.c **** 
 189:quantum/process_keycode/process_auto_shift.c ****             default:
 190:quantum/process_keycode/process_auto_shift.c ****                 autoshift_flush();
 372               		.loc 1 190 0
 373 004a 0E94 0000 		call autoshift_flush
 374               	.LVL22:
 191:quantum/process_keycode/process_auto_shift.c ****                 return true;
 375               		.loc 1 191 0
 376 004e 00C0      		rjmp .L15
 377               	.LVL23:
 378               	.L19:
  95:quantum/process_keycode/process_auto_shift.c ****             case KC_ASUP:
 379               		.loc 1 95 0
 380 0050 8931      		cpi r24,25
 381 0052 9C45      		sbci r25,92
 382 0054 01F0      		breq .L21
 383 0056 CA31      		cpi r28,26
 384 0058 8CE5      		ldi r24,92
 385 005a D807      		cpc r29,r24
 386               	.LVL24:
 387 005c 00F4      		brsh .L22
 388 005e C731      		cpi r28,23
 389 0060 ECE5      		ldi r30,92
 390 0062 DE07      		cpc r29,r30
 391 0064 01F0      		breq .L23
 101:quantum/process_keycode/process_auto_shift.c ****                 return false;
 392               		.loc 1 101 0
 393 0066 8091 0000 		lds r24,autoshift_timeout
 394 006a 9091 0000 		lds r25,autoshift_timeout+1
 395 006e 0597      		sbiw r24,5
  95:quantum/process_keycode/process_auto_shift.c ****             case KC_ASUP:
 396               		.loc 1 95 0
 397 0070 C831      		cpi r28,24
 398 0072 DC45      		sbci r29,92
 399 0074 01F4      		brne .L17
 400               	.L38:
 101:quantum/process_keycode/process_auto_shift.c ****                 return false;
 401               		.loc 1 101 0
 402 0076 9093 0000 		sts autoshift_timeout+1,r25
 403 007a 8093 0000 		sts autoshift_timeout,r24
 404               	.LVL25:
 405               	.L37:
 187:quantum/process_keycode/process_auto_shift.c **** 
 406               		.loc 1 187 0
 407 007e 10E0      		ldi r17,0
 408               	.L15:
 192:quantum/process_keycode/process_auto_shift.c ****         }
 193:quantum/process_keycode/process_auto_shift.c ****     } else {
 194:quantum/process_keycode/process_auto_shift.c ****         autoshift_flush();
 195:quantum/process_keycode/process_auto_shift.c ****     }
 196:quantum/process_keycode/process_auto_shift.c **** 
 197:quantum/process_keycode/process_auto_shift.c ****     return true;
 198:quantum/process_keycode/process_auto_shift.c **** }
 409               		.loc 1 198 0
 410 0080 812F      		mov r24,r17
 411               	/* epilogue start */
 412 0082 DF91      		pop r29
 413 0084 CF91      		pop r28
 414               	.LVL26:
 415 0086 1F91      		pop r17
 416 0088 0895      		ret
 417               	.LVL27:
 418               	.L22:
  95:quantum/process_keycode/process_auto_shift.c ****             case KC_ASUP:
 419               		.loc 1 95 0
 420 008a CB31      		cpi r28,27
 421 008c 8CE5      		ldi r24,92
 422 008e D807      		cpc r29,r24
 423 0090 01F0      		breq .L25
 424 0092 00F0      		brlo .L26
 425 0094 CC31      		cpi r28,28
 426 0096 DC45      		sbci r29,92
 427 0098 01F4      		brne .L17
 115:quantum/process_keycode/process_auto_shift.c ****                 return false;
 428               		.loc 1 115 0
 429 009a 0E94 0000 		call autoshift_disable
 430               	.LVL28:
 431 009e 00C0      		rjmp .L37
 432               	.LVL29:
 433               	.L23:
  97:quantum/process_keycode/process_auto_shift.c ****                 return false;
 434               		.loc 1 97 0
 435 00a0 8091 0000 		lds r24,autoshift_timeout
 436 00a4 9091 0000 		lds r25,autoshift_timeout+1
 437 00a8 0596      		adiw r24,5
 438 00aa 00C0      		rjmp .L38
 439               	.LVL30:
 440               	.L21:
 105:quantum/process_keycode/process_auto_shift.c ****                 return false;
 441               		.loc 1 105 0
 442 00ac 0E94 0000 		call autoshift_timer_report
 443               	.LVL31:
 444 00b0 00C0      		rjmp .L37
 445               	.LVL32:
 446               	.L26:
 109:quantum/process_keycode/process_auto_shift.c ****                 return false;
 447               		.loc 1 109 0
 448 00b2 0E94 0000 		call autoshift_toggle
 449               	.LVL33:
 450 00b6 00C0      		rjmp .L37
 451               	.LVL34:
 452               	.L25:
 453               	.LBB5:
 454               	.LBB6:
  72:quantum/process_keycode/process_auto_shift.c **** void autoshift_disable(void) {
 455               		.loc 1 72 0
 456 00b8 81E0      		ldi r24,lo8(1)
 457 00ba 8093 0000 		sts autoshift_enabled,r24
 458 00be 00C0      		rjmp .L37
 459               	.LVL35:
 460               	.L16:
 461               	.LBE6:
 462               	.LBE5:
 194:quantum/process_keycode/process_auto_shift.c ****     }
 463               		.loc 1 194 0
 464 00c0 0E94 0000 		call autoshift_flush
 465               	.LVL36:
 197:quantum/process_keycode/process_auto_shift.c **** }
 466               		.loc 1 197 0
 467 00c4 11E0      		ldi r17,lo8(1)
 468 00c6 00C0      		rjmp .L15
 469               		.cfi_endproc
 470               	.LFE119:
 472               	.global	autoshift_enabled
 473               		.section	.data.autoshift_enabled,"aw",@progbits
 476               	autoshift_enabled:
 477 0000 01        		.byte	1
 478               	.global	autoshift_lastkey
 479               		.section	.bss.autoshift_lastkey,"aw",@nobits
 482               	autoshift_lastkey:
 483 0000 0000      		.zero	2
 484               	.global	autoshift_timeout
 485               		.section	.data.autoshift_timeout,"aw",@progbits
 488               	autoshift_timeout:
 489 0000 2C01      		.word	300
 490               	.global	autoshift_time
 491               		.section	.bss.autoshift_time,"aw",@nobits
 494               	autoshift_time:
 495 0000 0000      		.zero	2
 496               		.text
 497               	.Letext0:
 498               		.file 2 "/usr/local/Cellar/avr-gcc@7/7.4.0/avr/include/stdint.h"
 499               		.file 3 "/usr/local/Cellar/avr-gcc@7/7.4.0/lib/avr-gcc/7/gcc/avr/7.4.0/include/stddef.h"
 500               		.file 4 "/usr/local/Cellar/avr-gcc@7/7.4.0/avr/include/stdio.h"
 501               		.file 5 "tmk_core/common/keyboard.h"
 502               		.file 6 "tmk_core/common/action.h"
 503               		.file 7 "lib/lufa/LUFA/Drivers/USB/Core/AVR8/../StdRequestType.h"
 504               		.file 8 "lib/lufa/LUFA/Drivers/USB/Core/AVR8/../DeviceStandardReq.h"
 505               		.file 9 "lib/lufa/LUFA/Drivers/USB/Core/USBTask.h"
 506               		.file 10 "lib/lufa/LUFA/Drivers/USB/Core/HostStandardReq.h"
 507               		.file 11 "tmk_core/common/report.h"
 508               		.file 12 "tmk_core/common/host.h"
 509               		.file 13 "tmk_core/common/debug.h"
 510               		.file 14 "quantum/keycode_config.h"
 511               		.file 15 "tmk_core/common/keycode.h"
 512               		.file 16 "quantum/quantum_keycodes.h"
 513               		.file 17 "quantum/keymap.h"
 514               		.file 18 "./quantum/color.h"
 515               		.file 19 "quantum/rgblight.h"
 516               		.file 20 "tmk_core/common/action_layer.h"
 517               		.file 21 "tmk_core/common/timer.h"
 518               		.file 22 "tmk_core/common/action_util.h"
 519               		.file 23 "/usr/local/Cellar/avr-gcc@7/7.4.0/avr/include/stdlib.h"
 520               		.file 24 "quantum/quantum.h"